ARM GAS  C:\Users\Administrator\AppData\Local\Temp\ccGlBK8t.s 			page 1


   1              		.cpu cortex-m4
   2              		.arch armv7e-m
   3              		.fpu fpv4-sp-d16
   4              		.eabi_attribute 27, 1
   5              		.eabi_attribute 28, 1
   6              		.eabi_attribute 20, 1
   7              		.eabi_attribute 21, 1
   8              		.eabi_attribute 23, 3
   9              		.eabi_attribute 24, 1
  10              		.eabi_attribute 25, 1
  11              		.eabi_attribute 26, 1
  12              		.eabi_attribute 30, 1
  13              		.eabi_attribute 34, 1
  14              		.eabi_attribute 18, 4
  15              		.file	"adc.c"
  16              		.text
  17              	.Ltext0:
  18              		.cfi_sections	.debug_frame
  19              		.file 1 "Src/adc.c"
  20              		.section	.text.MX_ADC1_Init,"ax",%progbits
  21              		.align	1
  22              		.global	MX_ADC1_Init
  23              		.syntax unified
  24              		.thumb
  25              		.thumb_func
  27              	MX_ADC1_Init:
  28              	.LFB235:
   1:Src/adc.c     **** /* USER CODE BEGIN Header */
   2:Src/adc.c     **** /**
   3:Src/adc.c     ****   ******************************************************************************
   4:Src/adc.c     ****   * @file    adc.c
   5:Src/adc.c     ****   * @brief   This file provides code for the configuration
   6:Src/adc.c     ****   *          of the ADC instances.
   7:Src/adc.c     ****   ******************************************************************************
   8:Src/adc.c     ****   * @attention
   9:Src/adc.c     ****   *
  10:Src/adc.c     ****   * Copyright (c) 2023 STMicroelectronics.
  11:Src/adc.c     ****   * All rights reserved.
  12:Src/adc.c     ****   *
  13:Src/adc.c     ****   * This software is licensed under terms that can be found in the LICENSE file
  14:Src/adc.c     ****   * in the root directory of this software component.
  15:Src/adc.c     ****   * If no LICENSE file comes with this software, it is provided AS-IS.
  16:Src/adc.c     ****   *
  17:Src/adc.c     ****   ******************************************************************************
  18:Src/adc.c     ****   */
  19:Src/adc.c     **** /* USER CODE END Header */
  20:Src/adc.c     **** /* Includes ------------------------------------------------------------------*/
  21:Src/adc.c     **** #include "adc.h"
  22:Src/adc.c     **** 
  23:Src/adc.c     **** /* USER CODE BEGIN 0 */
  24:Src/adc.c     **** 
  25:Src/adc.c     **** /* USER CODE END 0 */
  26:Src/adc.c     **** 
  27:Src/adc.c     **** ADC_HandleTypeDef hadc1;
  28:Src/adc.c     **** 
  29:Src/adc.c     **** /* ADC1 init function */
  30:Src/adc.c     **** void MX_ADC1_Init(void)
ARM GAS  C:\Users\Administrator\AppData\Local\Temp\ccGlBK8t.s 			page 2


  31:Src/adc.c     **** {
  29              		.loc 1 31 1 view -0
  30              		.cfi_startproc
  31              		@ args = 0, pretend = 0, frame = 16
  32              		@ frame_needed = 0, uses_anonymous_args = 0
  33 0000 00B5     		push	{lr}
  34              		.cfi_def_cfa_offset 4
  35              		.cfi_offset 14, -4
  36 0002 85B0     		sub	sp, sp, #20
  37              		.cfi_def_cfa_offset 24
  32:Src/adc.c     **** 
  33:Src/adc.c     ****   /* USER CODE BEGIN ADC1_Init 0 */
  34:Src/adc.c     **** 
  35:Src/adc.c     ****   /* USER CODE END ADC1_Init 0 */
  36:Src/adc.c     **** 
  37:Src/adc.c     ****   ADC_ChannelConfTypeDef sConfig = {0};
  38              		.loc 1 37 3 view .LVU1
  39              		.loc 1 37 26 is_stmt 0 view .LVU2
  40 0004 0023     		movs	r3, #0
  41 0006 0093     		str	r3, [sp]
  42 0008 0193     		str	r3, [sp, #4]
  43 000a 0293     		str	r3, [sp, #8]
  44 000c 0393     		str	r3, [sp, #12]
  38:Src/adc.c     **** 
  39:Src/adc.c     ****   /* USER CODE BEGIN ADC1_Init 1 */
  40:Src/adc.c     **** 
  41:Src/adc.c     ****   /* USER CODE END ADC1_Init 1 */
  42:Src/adc.c     **** 
  43:Src/adc.c     ****   /** Configure the global features of the ADC (Clock, Resolution, Data Alignment and number of con
  44:Src/adc.c     ****   */
  45:Src/adc.c     ****   hadc1.Instance = ADC1;
  45              		.loc 1 45 3 is_stmt 1 view .LVU3
  46              		.loc 1 45 18 is_stmt 0 view .LVU4
  47 000e 1548     		ldr	r0, .L7
  48 0010 154A     		ldr	r2, .L7+4
  49 0012 0260     		str	r2, [r0]
  46:Src/adc.c     ****   hadc1.Init.ClockPrescaler = ADC_CLOCK_SYNC_PCLK_DIV6;
  50              		.loc 1 46 3 is_stmt 1 view .LVU5
  51              		.loc 1 46 29 is_stmt 0 view .LVU6
  52 0014 4FF40032 		mov	r2, #131072
  53 0018 4260     		str	r2, [r0, #4]
  47:Src/adc.c     ****   hadc1.Init.Resolution = ADC_RESOLUTION_12B;
  54              		.loc 1 47 3 is_stmt 1 view .LVU7
  55              		.loc 1 47 25 is_stmt 0 view .LVU8
  56 001a 8360     		str	r3, [r0, #8]
  48:Src/adc.c     ****   hadc1.Init.ScanConvMode = DISABLE;
  57              		.loc 1 48 3 is_stmt 1 view .LVU9
  58              		.loc 1 48 27 is_stmt 0 view .LVU10
  59 001c 0361     		str	r3, [r0, #16]
  49:Src/adc.c     ****   hadc1.Init.ContinuousConvMode = DISABLE;
  60              		.loc 1 49 3 is_stmt 1 view .LVU11
  61              		.loc 1 49 33 is_stmt 0 view .LVU12
  62 001e 0376     		strb	r3, [r0, #24]
  50:Src/adc.c     ****   hadc1.Init.DiscontinuousConvMode = DISABLE;
  63              		.loc 1 50 3 is_stmt 1 view .LVU13
  64              		.loc 1 50 36 is_stmt 0 view .LVU14
  65 0020 80F82030 		strb	r3, [r0, #32]
ARM GAS  C:\Users\Administrator\AppData\Local\Temp\ccGlBK8t.s 			page 3


  51:Src/adc.c     ****   hadc1.Init.ExternalTrigConvEdge = ADC_EXTERNALTRIGCONVEDGE_NONE;
  66              		.loc 1 51 3 is_stmt 1 view .LVU15
  67              		.loc 1 51 35 is_stmt 0 view .LVU16
  68 0024 C362     		str	r3, [r0, #44]
  52:Src/adc.c     ****   hadc1.Init.ExternalTrigConv = ADC_SOFTWARE_START;
  69              		.loc 1 52 3 is_stmt 1 view .LVU17
  70              		.loc 1 52 31 is_stmt 0 view .LVU18
  71 0026 114A     		ldr	r2, .L7+8
  72 0028 8262     		str	r2, [r0, #40]
  53:Src/adc.c     ****   hadc1.Init.DataAlign = ADC_DATAALIGN_RIGHT;
  73              		.loc 1 53 3 is_stmt 1 view .LVU19
  74              		.loc 1 53 24 is_stmt 0 view .LVU20
  75 002a C360     		str	r3, [r0, #12]
  54:Src/adc.c     ****   hadc1.Init.NbrOfConversion = 1;
  76              		.loc 1 54 3 is_stmt 1 view .LVU21
  77              		.loc 1 54 30 is_stmt 0 view .LVU22
  78 002c 0122     		movs	r2, #1
  79 002e C261     		str	r2, [r0, #28]
  55:Src/adc.c     ****   hadc1.Init.DMAContinuousRequests = DISABLE;
  80              		.loc 1 55 3 is_stmt 1 view .LVU23
  81              		.loc 1 55 36 is_stmt 0 view .LVU24
  82 0030 80F83030 		strb	r3, [r0, #48]
  56:Src/adc.c     ****   hadc1.Init.EOCSelection = ADC_EOC_SINGLE_CONV;
  83              		.loc 1 56 3 is_stmt 1 view .LVU25
  84              		.loc 1 56 27 is_stmt 0 view .LVU26
  85 0034 4261     		str	r2, [r0, #20]
  57:Src/adc.c     ****   if (HAL_ADC_Init(&hadc1) != HAL_OK)
  86              		.loc 1 57 3 is_stmt 1 view .LVU27
  87              		.loc 1 57 7 is_stmt 0 view .LVU28
  88 0036 FFF7FEFF 		bl	HAL_ADC_Init
  89              	.LVL0:
  90              		.loc 1 57 6 discriminator 1 view .LVU29
  91 003a 60B9     		cbnz	r0, .L5
  92              	.L2:
  58:Src/adc.c     ****   {
  59:Src/adc.c     ****     Error_Handler();
  60:Src/adc.c     ****   }
  61:Src/adc.c     **** 
  62:Src/adc.c     ****   /** Configure for the selected ADC regular channel its corresponding rank in the sequencer and it
  63:Src/adc.c     ****   */
  64:Src/adc.c     ****   sConfig.Channel = ADC_CHANNEL_TEMPSENSOR;
  93              		.loc 1 64 3 is_stmt 1 view .LVU30
  94              		.loc 1 64 19 is_stmt 0 view .LVU31
  95 003c 1023     		movs	r3, #16
  96 003e 0093     		str	r3, [sp]
  65:Src/adc.c     ****   sConfig.Rank = 1;
  97              		.loc 1 65 3 is_stmt 1 view .LVU32
  98              		.loc 1 65 16 is_stmt 0 view .LVU33
  99 0040 0123     		movs	r3, #1
 100 0042 0193     		str	r3, [sp, #4]
  66:Src/adc.c     ****   sConfig.SamplingTime = ADC_SAMPLETIME_3CYCLES;
 101              		.loc 1 66 3 is_stmt 1 view .LVU34
 102              		.loc 1 66 24 is_stmt 0 view .LVU35
 103 0044 0023     		movs	r3, #0
 104 0046 0293     		str	r3, [sp, #8]
  67:Src/adc.c     ****   if (HAL_ADC_ConfigChannel(&hadc1, &sConfig) != HAL_OK)
 105              		.loc 1 67 3 is_stmt 1 view .LVU36
ARM GAS  C:\Users\Administrator\AppData\Local\Temp\ccGlBK8t.s 			page 4


 106              		.loc 1 67 7 is_stmt 0 view .LVU37
 107 0048 6946     		mov	r1, sp
 108 004a 0648     		ldr	r0, .L7
 109 004c FFF7FEFF 		bl	HAL_ADC_ConfigChannel
 110              	.LVL1:
 111              		.loc 1 67 6 discriminator 1 view .LVU38
 112 0050 20B9     		cbnz	r0, .L6
 113              	.L1:
  68:Src/adc.c     ****   {
  69:Src/adc.c     ****     Error_Handler();
  70:Src/adc.c     ****   }
  71:Src/adc.c     ****   /* USER CODE BEGIN ADC1_Init 2 */
  72:Src/adc.c     **** 
  73:Src/adc.c     ****   /* USER CODE END ADC1_Init 2 */
  74:Src/adc.c     **** 
  75:Src/adc.c     **** }
 114              		.loc 1 75 1 view .LVU39
 115 0052 05B0     		add	sp, sp, #20
 116              		.cfi_remember_state
 117              		.cfi_def_cfa_offset 4
 118              		@ sp needed
 119 0054 00BD     		pop	{pc}
 120              	.L5:
 121              		.cfi_restore_state
  59:Src/adc.c     ****   }
 122              		.loc 1 59 5 is_stmt 1 view .LVU40
 123 0056 FFF7FEFF 		bl	Error_Handler
 124              	.LVL2:
 125 005a EFE7     		b	.L2
 126              	.L6:
  69:Src/adc.c     ****   }
 127              		.loc 1 69 5 view .LVU41
 128 005c FFF7FEFF 		bl	Error_Handler
 129              	.LVL3:
 130              		.loc 1 75 1 is_stmt 0 view .LVU42
 131 0060 F7E7     		b	.L1
 132              	.L8:
 133 0062 00BF     		.align	2
 134              	.L7:
 135 0064 00000000 		.word	hadc1
 136 0068 00200140 		.word	1073815552
 137 006c 0100000F 		.word	251658241
 138              		.cfi_endproc
 139              	.LFE235:
 141              		.section	.text.HAL_ADC_MspInit,"ax",%progbits
 142              		.align	1
 143              		.global	HAL_ADC_MspInit
 144              		.syntax unified
 145              		.thumb
 146              		.thumb_func
 148              	HAL_ADC_MspInit:
 149              	.LVL4:
 150              	.LFB236:
  76:Src/adc.c     **** 
  77:Src/adc.c     **** void HAL_ADC_MspInit(ADC_HandleTypeDef* adcHandle)
  78:Src/adc.c     **** {
 151              		.loc 1 78 1 is_stmt 1 view -0
ARM GAS  C:\Users\Administrator\AppData\Local\Temp\ccGlBK8t.s 			page 5


 152              		.cfi_startproc
 153              		@ args = 0, pretend = 0, frame = 8
 154              		@ frame_needed = 0, uses_anonymous_args = 0
 155              		@ link register save eliminated.
  79:Src/adc.c     **** 
  80:Src/adc.c     ****   if(adcHandle->Instance==ADC1)
 156              		.loc 1 80 3 view .LVU44
 157              		.loc 1 80 15 is_stmt 0 view .LVU45
 158 0000 0268     		ldr	r2, [r0]
 159              		.loc 1 80 5 view .LVU46
 160 0002 094B     		ldr	r3, .L16
 161 0004 9A42     		cmp	r2, r3
 162 0006 00D0     		beq	.L15
 163 0008 7047     		bx	lr
 164              	.L15:
  78:Src/adc.c     **** 
 165              		.loc 1 78 1 view .LVU47
 166 000a 82B0     		sub	sp, sp, #8
 167              		.cfi_def_cfa_offset 8
  81:Src/adc.c     ****   {
  82:Src/adc.c     ****   /* USER CODE BEGIN ADC1_MspInit 0 */
  83:Src/adc.c     **** 
  84:Src/adc.c     ****   /* USER CODE END ADC1_MspInit 0 */
  85:Src/adc.c     ****     /* ADC1 clock enable */
  86:Src/adc.c     ****     __HAL_RCC_ADC1_CLK_ENABLE();
 168              		.loc 1 86 5 is_stmt 1 view .LVU48
 169              	.LBB2:
 170              		.loc 1 86 5 view .LVU49
 171 000c 0023     		movs	r3, #0
 172 000e 0193     		str	r3, [sp, #4]
 173              		.loc 1 86 5 view .LVU50
 174 0010 064B     		ldr	r3, .L16+4
 175 0012 5A6C     		ldr	r2, [r3, #68]
 176 0014 42F48072 		orr	r2, r2, #256
 177 0018 5A64     		str	r2, [r3, #68]
 178              		.loc 1 86 5 view .LVU51
 179 001a 5B6C     		ldr	r3, [r3, #68]
 180 001c 03F48073 		and	r3, r3, #256
 181 0020 0193     		str	r3, [sp, #4]
 182              		.loc 1 86 5 view .LVU52
 183 0022 019B     		ldr	r3, [sp, #4]
 184              	.LBE2:
 185              		.loc 1 86 5 view .LVU53
  87:Src/adc.c     ****   /* USER CODE BEGIN ADC1_MspInit 1 */
  88:Src/adc.c     **** 
  89:Src/adc.c     ****   /* USER CODE END ADC1_MspInit 1 */
  90:Src/adc.c     ****   }
  91:Src/adc.c     **** }
 186              		.loc 1 91 1 is_stmt 0 view .LVU54
 187 0024 02B0     		add	sp, sp, #8
 188              		.cfi_def_cfa_offset 0
 189              		@ sp needed
 190 0026 7047     		bx	lr
 191              	.L17:
 192              		.align	2
 193              	.L16:
 194 0028 00200140 		.word	1073815552
ARM GAS  C:\Users\Administrator\AppData\Local\Temp\ccGlBK8t.s 			page 6


 195 002c 00380240 		.word	1073887232
 196              		.cfi_endproc
 197              	.LFE236:
 199              		.section	.text.HAL_ADC_MspDeInit,"ax",%progbits
 200              		.align	1
 201              		.global	HAL_ADC_MspDeInit
 202              		.syntax unified
 203              		.thumb
 204              		.thumb_func
 206              	HAL_ADC_MspDeInit:
 207              	.LVL5:
 208              	.LFB237:
  92:Src/adc.c     **** 
  93:Src/adc.c     **** void HAL_ADC_MspDeInit(ADC_HandleTypeDef* adcHandle)
  94:Src/adc.c     **** {
 209              		.loc 1 94 1 is_stmt 1 view -0
 210              		.cfi_startproc
 211              		@ args = 0, pretend = 0, frame = 0
 212              		@ frame_needed = 0, uses_anonymous_args = 0
 213              		@ link register save eliminated.
  95:Src/adc.c     **** 
  96:Src/adc.c     ****   if(adcHandle->Instance==ADC1)
 214              		.loc 1 96 3 view .LVU56
 215              		.loc 1 96 15 is_stmt 0 view .LVU57
 216 0000 0268     		ldr	r2, [r0]
 217              		.loc 1 96 5 view .LVU58
 218 0002 054B     		ldr	r3, .L21
 219 0004 9A42     		cmp	r2, r3
 220 0006 00D0     		beq	.L20
 221              	.L18:
  97:Src/adc.c     ****   {
  98:Src/adc.c     ****   /* USER CODE BEGIN ADC1_MspDeInit 0 */
  99:Src/adc.c     **** 
 100:Src/adc.c     ****   /* USER CODE END ADC1_MspDeInit 0 */
 101:Src/adc.c     ****     /* Peripheral clock disable */
 102:Src/adc.c     ****     __HAL_RCC_ADC1_CLK_DISABLE();
 103:Src/adc.c     ****   /* USER CODE BEGIN ADC1_MspDeInit 1 */
 104:Src/adc.c     **** 
 105:Src/adc.c     ****   /* USER CODE END ADC1_MspDeInit 1 */
 106:Src/adc.c     ****   }
 107:Src/adc.c     **** }
 222              		.loc 1 107 1 view .LVU59
 223 0008 7047     		bx	lr
 224              	.L20:
 102:Src/adc.c     ****   /* USER CODE BEGIN ADC1_MspDeInit 1 */
 225              		.loc 1 102 5 is_stmt 1 view .LVU60
 226 000a 044A     		ldr	r2, .L21+4
 227 000c 536C     		ldr	r3, [r2, #68]
 228 000e 23F48073 		bic	r3, r3, #256
 229 0012 5364     		str	r3, [r2, #68]
 230              		.loc 1 107 1 is_stmt 0 view .LVU61
 231 0014 F8E7     		b	.L18
 232              	.L22:
 233 0016 00BF     		.align	2
 234              	.L21:
 235 0018 00200140 		.word	1073815552
 236 001c 00380240 		.word	1073887232
ARM GAS  C:\Users\Administrator\AppData\Local\Temp\ccGlBK8t.s 			page 7


 237              		.cfi_endproc
 238              	.LFE237:
 240              		.global	hadc1
 241              		.section	.bss.hadc1,"aw",%nobits
 242              		.align	2
 245              	hadc1:
 246 0000 00000000 		.space	72
 246      00000000 
 246      00000000 
 246      00000000 
 246      00000000 
 247              		.text
 248              	.Letext0:
 249              		.file 2 "C:/Users/Administrator/AppData/Roaming/Code/User/globalStorage/bmd.stm32-for-vscode/@xpac
 250              		.file 3 "C:/Users/Administrator/AppData/Roaming/Code/User/globalStorage/bmd.stm32-for-vscode/@xpac
 251              		.file 4 "Drivers/CMSIS/Device/ST/STM32F4xx/Include/stm32f407xx.h"
 252              		.file 5 "Drivers/CMSIS/Device/ST/STM32F4xx/Include/stm32f4xx.h"
 253              		.file 6 "Drivers/STM32F4xx_HAL_Driver/Inc/stm32f4xx_hal_def.h"
 254              		.file 7 "Drivers/STM32F4xx_HAL_Driver/Inc/stm32f4xx_hal_dma.h"
 255              		.file 8 "Drivers/STM32F4xx_HAL_Driver/Inc/stm32f4xx_hal_adc.h"
 256              		.file 9 "Inc/adc.h"
 257              		.file 10 "Inc/main.h"
ARM GAS  C:\Users\Administrator\AppData\Local\Temp\ccGlBK8t.s 			page 8

