ARM GAS  C:\Users\Administrator\AppData\Local\Temp\ccvvr9DW.s 			page 1


   1              		.cpu cortex-m4
   2              		.arch armv7e-m
   3              		.fpu fpv4-sp-d16
   4              		.eabi_attribute 27, 1
   5              		.eabi_attribute 28, 1
   6              		.eabi_attribute 20, 1
   7              		.eabi_attribute 21, 1
   8              		.eabi_attribute 23, 3
   9              		.eabi_attribute 24, 1
  10              		.eabi_attribute 25, 1
  11              		.eabi_attribute 26, 1
  12              		.eabi_attribute 30, 1
  13              		.eabi_attribute 34, 1
  14              		.eabi_attribute 18, 4
  15              		.file	"dji_motor.c"
  16              		.text
  17              	.Ltext0:
  18              		.cfi_sections	.debug_frame
  19              		.file 1 "modules/motor/DJImotor/dji_motor.c"
  20              		.section	.text.MotorSenderGrouping,"ax",%progbits
  21              		.align	1
  22              		.syntax unified
  23              		.thumb
  24              		.thumb_func
  26              	MotorSenderGrouping:
  27              	.LVL0:
  28              	.LFB271:
   1:modules/motor/DJImotor/dji_motor.c **** #include "dji_motor.h"
   2:modules/motor/DJImotor/dji_motor.c **** #include "general_def.h"
   3:modules/motor/DJImotor/dji_motor.c **** #include "bsp_dwt.h"
   4:modules/motor/DJImotor/dji_motor.c **** #include "bsp_log.h"
   5:modules/motor/DJImotor/dji_motor.c **** 
   6:modules/motor/DJImotor/dji_motor.c **** static uint8_t idx = 0; // register idx,жҳҜиҜҘж–Үд»¶зҡ„е…ЁеұҖз”өжңәзҙўеј•,еңЁжіЁеҶҢж—¶дҪҝз”Ё
   7:modules/motor/DJImotor/dji_motor.c **** /* DJIз”өжңәзҡ„е®һдҫӢ,жӯӨеӨ„д»…дҝқеӯҳжҢҮй’Ҳ,еҶ…еӯҳзҡ„еҲҶй…Қе°ҶйҖҡиҝҮз”өжңәе®һдҫӢеҲқе§ӢеҢ–ж—¶йҖҡиҝҮm
   8:modules/motor/DJImotor/dji_motor.c **** static DJIMotorInstance *dji_motor_instance[DJI_MOTOR_CNT] = {NULL}; // дјҡеңЁcontrolд»»еҠЎдёӯйҒҚеҺ
   9:modules/motor/DJImotor/dji_motor.c **** /**
  10:modules/motor/DJImotor/dji_motor.c ****  * @brief з”ұдәҺDJIз”өжңәеҸ‘йҖҒд»ҘеӣӣдёӘдёҖз»„зҡ„еҪўејҸиҝӣиЎҢ,ж•…еҜ№е…¶иҝӣиЎҢзү№ж®ҠеӨ„зҗҶ,з”Ё6дёӘ(2
  11:modules/motor/DJImotor/dji_motor.c ****  *        иҜҘеҸҳйҮҸе°ҶеңЁ DJIMotorControl() дёӯдҪҝз”Ё,еҲҶз»„еңЁ MotorSenderGrouping()дёӯиҝӣиЎҢ
  12:modules/motor/DJImotor/dji_motor.c ****  *
  13:modules/motor/DJImotor/dji_motor.c ****  * @note  еӣ дёәеҸӘз”ЁдәҺеҸ‘йҖҒ,жүҖд»ҘдёҚйңҖиҰҒеңЁbsp_canдёӯжіЁеҶҢ
  14:modules/motor/DJImotor/dji_motor.c ****  *
  15:modules/motor/DJImotor/dji_motor.c ****  * C610(m2006)/C620(m3508):0x1ff,0x200;
  16:modules/motor/DJImotor/dji_motor.c ****  * GM6020:0x1ff,0x2ff
  17:modules/motor/DJImotor/dji_motor.c ****  * еҸҚйҰҲ(rx_id): GM6020: 0x204+id ; C610/C620: 0x200+id
  18:modules/motor/DJImotor/dji_motor.c ****  * can1: [0]:0x1FF,[1]:0x200,[2]:0x2FF
  19:modules/motor/DJImotor/dji_motor.c ****  * can2: [3]:0x1FF,[4]:0x200,[5]:0x2FF
  20:modules/motor/DJImotor/dji_motor.c ****  */
  21:modules/motor/DJImotor/dji_motor.c **** static CANInstance sender_assignment[6] = {
  22:modules/motor/DJImotor/dji_motor.c ****     [0] = {.can_handle = &hcan1, .txconf.StdId = 0x1ff, .txconf.IDE = CAN_ID_STD, .txconf.RTR = CAN
  23:modules/motor/DJImotor/dji_motor.c ****     [1] = {.can_handle = &hcan1, .txconf.StdId = 0x200, .txconf.IDE = CAN_ID_STD, .txconf.RTR = CAN
  24:modules/motor/DJImotor/dji_motor.c ****     [2] = {.can_handle = &hcan1, .txconf.StdId = 0x2ff, .txconf.IDE = CAN_ID_STD, .txconf.RTR = CAN
  25:modules/motor/DJImotor/dji_motor.c ****     [3] = {.can_handle = &hcan2, .txconf.StdId = 0x1ff, .txconf.IDE = CAN_ID_STD, .txconf.RTR = CAN
  26:modules/motor/DJImotor/dji_motor.c ****     [4] = {.can_handle = &hcan2, .txconf.StdId = 0x200, .txconf.IDE = CAN_ID_STD, .txconf.RTR = CAN
  27:modules/motor/DJImotor/dji_motor.c ****     [5] = {.can_handle = &hcan2, .txconf.StdId = 0x2ff, .txconf.IDE = CAN_ID_STD, .txconf.RTR = CAN
  28:modules/motor/DJImotor/dji_motor.c **** };
  29:modules/motor/DJImotor/dji_motor.c **** 
  30:modules/motor/DJImotor/dji_motor.c **** /**
ARM GAS  C:\Users\Administrator\AppData\Local\Temp\ccvvr9DW.s 			page 2


  31:modules/motor/DJImotor/dji_motor.c ****  * @brief 6дёӘз”ЁдәҺзЎ®и®ӨжҳҜеҗҰжңүз”өжңәжіЁеҶҢеҲ°sender_assignmentдёӯзҡ„ж Үеҝ—дҪҚ,йҳІжӯўеҸ‘йҖҒз©әе
  32:modules/motor/DJImotor/dji_motor.c ****  *        flagзҡ„еҲқе§ӢеҢ–еңЁ MotorSenderGrouping()дёӯиҝӣиЎҢ
  33:modules/motor/DJImotor/dji_motor.c ****  */
  34:modules/motor/DJImotor/dji_motor.c **** static uint8_t sender_enable_flag[6] = {0};
  35:modules/motor/DJImotor/dji_motor.c **** 
  36:modules/motor/DJImotor/dji_motor.c **** /**
  37:modules/motor/DJImotor/dji_motor.c ****  * @brief ж №жҚ®з”өи°ғ/жӢЁз ҒејҖе…ідёҠзҡ„ID,ж №жҚ®иҜҙжҳҺд№Ұзҡ„й»ҳи®ӨidеҲҶй…Қж–№ејҸи®Ўз®—еҸ‘йҖҒIDе’Ң
  38:modules/motor/DJImotor/dji_motor.c ****  *        е№¶еҜ№з”өжңәиҝӣиЎҢеҲҶз»„д»ҘдҫҝеӨ„зҗҶеӨҡз”өжңәжҺ§еҲ¶е‘Ҫд»Ө
  39:modules/motor/DJImotor/dji_motor.c ****  */
  40:modules/motor/DJImotor/dji_motor.c **** static void MotorSenderGrouping(DJIMotorInstance *motor, CAN_Init_Config_s *config)
  41:modules/motor/DJImotor/dji_motor.c **** {
  29              		.loc 1 41 1 view -0
  30              		.cfi_startproc
  31              		@ args = 0, pretend = 0, frame = 0
  32              		@ frame_needed = 0, uses_anonymous_args = 0
  33              		.loc 1 41 1 is_stmt 0 view .LVU1
  34 0000 10B5     		push	{r4, lr}
  35              		.cfi_def_cfa_offset 8
  36              		.cfi_offset 4, -8
  37              		.cfi_offset 14, -4
  42:modules/motor/DJImotor/dji_motor.c ****     uint8_t motor_id = config->tx_id - 1; // дёӢж Үд»Һйӣ¶ејҖе§Ӣ,е…ҲеҮҸдёҖж–№дҫҝиөӢеҖј
  38              		.loc 1 42 5 is_stmt 1 view .LVU2
  39              		.loc 1 42 38 is_stmt 0 view .LVU3
  40 0002 91F804C0 		ldrb	ip, [r1, #4]	@ zero_extendqisi2
  41              		.loc 1 42 13 view .LVU4
  42 0006 0CF1FF33 		add	r3, ip, #-1
  43 000a DBB2     		uxtb	r3, r3
  44              	.LVL1:
  43:modules/motor/DJImotor/dji_motor.c ****     uint8_t motor_send_num;
  45              		.loc 1 43 5 is_stmt 1 view .LVU5
  44:modules/motor/DJImotor/dji_motor.c ****     uint8_t motor_grouping;
  46              		.loc 1 44 5 view .LVU6
  45:modules/motor/DJImotor/dji_motor.c **** 
  46:modules/motor/DJImotor/dji_motor.c ****     switch (motor->motor_type)
  47              		.loc 1 46 5 view .LVU7
  48              		.loc 1 46 18 is_stmt 0 view .LVU8
  49 000c 90F8A621 		ldrb	r2, [r0, #422]	@ zero_extendqisi2
  50              		.loc 1 46 5 view .LVU9
  51 0010 012A     		cmp	r2, #1
  52 0012 45D0     		beq	.L2
  53 0014 4FFA82FE 		sxtb	lr, r2
  54 0018 BEF1000F 		cmp	lr, #0
  55 001c 7DD0     		beq	.L3
  56 001e 023A     		subs	r2, r2, #2
  57 0020 D2B2     		uxtb	r2, r2
  58 0022 012A     		cmp	r2, #1
  59 0024 79D8     		bhi	.L3
  47:modules/motor/DJImotor/dji_motor.c ****     {
  48:modules/motor/DJImotor/dji_motor.c ****     case M2006:
  49:modules/motor/DJImotor/dji_motor.c ****     case M3508:
  50:modules/motor/DJImotor/dji_motor.c ****         if (motor_id < 4) // ж №жҚ®IDеҲҶз»„
  60              		.loc 1 50 9 is_stmt 1 view .LVU10
  61              		.loc 1 50 12 is_stmt 0 view .LVU11
  62 0026 032B     		cmp	r3, #3
  63 0028 18D8     		bhi	.L4
  51:modules/motor/DJImotor/dji_motor.c ****         {
  52:modules/motor/DJImotor/dji_motor.c ****             motor_send_num = motor_id;
ARM GAS  C:\Users\Administrator\AppData\Local\Temp\ccvvr9DW.s 			page 3


  64              		.loc 1 52 13 is_stmt 1 view .LVU12
  65              	.LVL2:
  53:modules/motor/DJImotor/dji_motor.c ****             motor_grouping = config->can_handle == &hcan1 ? 1 : 4;
  66              		.loc 1 53 13 view .LVU13
  67              		.loc 1 53 28 is_stmt 0 view .LVU14
  68 002a 3D4A     		ldr	r2, .L26
  69 002c 0C68     		ldr	r4, [r1]
  70 002e 9442     		cmp	r4, r2
  71 0030 10D0     		beq	.L22
  52:modules/motor/DJImotor/dji_motor.c ****             motor_grouping = config->can_handle == &hcan1 ? 1 : 4;
  72              		.loc 1 52 28 view .LVU15
  73 0032 1A46     		mov	r2, r3
  74              		.loc 1 53 28 discriminator 2 view .LVU16
  75 0034 4FF0040C 		mov	ip, #4
  76              	.LVL3:
  77              	.L5:
  54:modules/motor/DJImotor/dji_motor.c ****         }
  55:modules/motor/DJImotor/dji_motor.c ****         else
  56:modules/motor/DJImotor/dji_motor.c ****         {
  57:modules/motor/DJImotor/dji_motor.c ****             motor_send_num = motor_id - 4;
  58:modules/motor/DJImotor/dji_motor.c ****             motor_grouping = config->can_handle == &hcan1 ? 0 : 3;
  59:modules/motor/DJImotor/dji_motor.c ****         }
  60:modules/motor/DJImotor/dji_motor.c **** 
  61:modules/motor/DJImotor/dji_motor.c ****         // и®Ўз®—жҺҘж”¶idе№¶и®ҫзҪ®еҲҶз»„еҸ‘йҖҒid
  62:modules/motor/DJImotor/dji_motor.c ****         config->rx_id = 0x200 + motor_id + 1;   // жҠҠID+1,иҝӣиЎҢеҲҶз»„и®ҫзҪ®
  78              		.loc 1 62 9 is_stmt 1 view .LVU17
  79              		.loc 1 62 42 is_stmt 0 view .LVU18
  80 0038 03F20123 		addw	r3, r3, #513
  81              	.LVL4:
  82              		.loc 1 62 23 view .LVU19
  83 003c 8B60     		str	r3, [r1, #8]
  63:modules/motor/DJImotor/dji_motor.c ****         sender_enable_flag[motor_grouping] = 1; // и®ҫзҪ®еҸ‘йҖҒж Үеҝ—дҪҚ,йҳІжӯўеҸ‘йҖҒз©әеё§
  84              		.loc 1 63 9 is_stmt 1 view .LVU20
  85              		.loc 1 63 44 is_stmt 0 view .LVU21
  86 003e 394B     		ldr	r3, .L26+4
  87              	.LVL5:
  88              		.loc 1 63 44 view .LVU22
  89 0040 4FF0010E 		mov	lr, #1
  90 0044 03F80CE0 		strb	lr, [r3, ip]
  64:modules/motor/DJImotor/dji_motor.c ****         motor->message_num = motor_send_num;
  91              		.loc 1 64 9 is_stmt 1 view .LVU23
  92              		.loc 1 64 28 is_stmt 0 view .LVU24
  93 0048 80F8A521 		strb	r2, [r0, #421]
  94              	.LVL6:
  65:modules/motor/DJImotor/dji_motor.c ****         motor->sender_group = motor_grouping;
  95              		.loc 1 65 9 is_stmt 1 view .LVU25
  96              		.loc 1 65 29 is_stmt 0 view .LVU26
  97 004c 80F8A4C1 		strb	ip, [r0, #420]
  66:modules/motor/DJImotor/dji_motor.c **** 
  67:modules/motor/DJImotor/dji_motor.c ****         // жЈҖжҹҘжҳҜеҗҰеҸ‘з”ҹidеҶІзӘҒ
  68:modules/motor/DJImotor/dji_motor.c ****         for (size_t i = 0; i < idx; ++i)
  98              		.loc 1 68 9 is_stmt 1 view .LVU27
  99              	.LBB2:
 100              		.loc 1 68 14 view .LVU28
 101              	.LVL7:
 102              		.loc 1 68 21 is_stmt 0 view .LVU29
 103 0050 0023     		movs	r3, #0
ARM GAS  C:\Users\Administrator\AppData\Local\Temp\ccvvr9DW.s 			page 4


 104              		.loc 1 68 9 view .LVU30
 105 0052 12E0     		b	.L6
 106              	.LVL8:
 107              	.L22:
 108              		.loc 1 68 9 view .LVU31
 109              	.LBE2:
  52:modules/motor/DJImotor/dji_motor.c ****             motor_grouping = config->can_handle == &hcan1 ? 1 : 4;
 110              		.loc 1 52 28 view .LVU32
 111 0054 1A46     		mov	r2, r3
  53:modules/motor/DJImotor/dji_motor.c ****         }
 112              		.loc 1 53 28 discriminator 1 view .LVU33
 113 0056 4FF0010C 		mov	ip, #1
 114 005a EDE7     		b	.L5
 115              	.LVL9:
 116              	.L4:
  57:modules/motor/DJImotor/dji_motor.c ****             motor_grouping = config->can_handle == &hcan1 ? 0 : 3;
 117              		.loc 1 57 13 is_stmt 1 view .LVU34
  57:modules/motor/DJImotor/dji_motor.c ****             motor_grouping = config->can_handle == &hcan1 ? 0 : 3;
 118              		.loc 1 57 28 is_stmt 0 view .LVU35
 119 005c ACF10502 		sub	r2, ip, #5
 120 0060 D2B2     		uxtb	r2, r2
 121              	.LVL10:
  58:modules/motor/DJImotor/dji_motor.c ****         }
 122              		.loc 1 58 13 is_stmt 1 view .LVU36
  58:modules/motor/DJImotor/dji_motor.c ****         }
 123              		.loc 1 58 28 is_stmt 0 view .LVU37
 124 0062 DFF8BCC0 		ldr	ip, .L26
 125 0066 0C68     		ldr	r4, [r1]
 126 0068 6445     		cmp	r4, ip
 127 006a 02D0     		beq	.L23
  58:modules/motor/DJImotor/dji_motor.c ****         }
 128              		.loc 1 58 28 discriminator 2 view .LVU38
 129 006c 4FF0030C 		mov	ip, #3
 130 0070 E2E7     		b	.L5
 131              	.L23:
  58:modules/motor/DJImotor/dji_motor.c ****         }
 132              		.loc 1 58 28 discriminator 1 view .LVU39
 133 0072 4FF0000C 		mov	ip, #0
 134 0076 DFE7     		b	.L5
 135              	.LVL11:
 136              	.L7:
 137              	.LBB3:
 138              		.loc 1 68 37 is_stmt 1 discriminator 2 view .LVU40
 139 0078 0133     		adds	r3, r3, #1
 140              	.LVL12:
 141              	.L6:
 142              		.loc 1 68 30 discriminator 1 view .LVU41
 143 007a 2B4A     		ldr	r2, .L26+8
 144 007c 1278     		ldrb	r2, [r2]	@ zero_extendqisi2
 145 007e 9A42     		cmp	r2, r3
 146 0080 4CD9     		bls	.L1
  69:modules/motor/DJImotor/dji_motor.c ****         {
  70:modules/motor/DJImotor/dji_motor.c ****             if (dji_motor_instance[i]->motor_can_instance->can_handle == config->can_handle && dji_
 147              		.loc 1 70 13 view .LVU42
 148              		.loc 1 70 35 is_stmt 0 view .LVU43
 149 0082 2A4A     		ldr	r2, .L26+12
 150 0084 52F82320 		ldr	r2, [r2, r3, lsl #2]
ARM GAS  C:\Users\Administrator\AppData\Local\Temp\ccvvr9DW.s 			page 5


 151              		.loc 1 70 38 view .LVU44
 152 0088 D2F8A021 		ldr	r2, [r2, #416]
 153              		.loc 1 70 58 view .LVU45
 154 008c D2F800C0 		ldr	ip, [r2]	@ unaligned
 155              		.loc 1 70 80 view .LVU46
 156 0090 0868     		ldr	r0, [r1]
 157              		.loc 1 70 16 view .LVU47
 158 0092 8445     		cmp	ip, r0
 159 0094 F0D1     		bne	.L7
 160              		.loc 1 70 137 discriminator 1 view .LVU48
 161 0096 506B     		ldr	r0, [r2, #52]	@ unaligned
 162              		.loc 1 70 154 discriminator 1 view .LVU49
 163 0098 8A68     		ldr	r2, [r1, #8]
 164              		.loc 1 70 93 discriminator 1 view .LVU50
 165 009a 9042     		cmp	r0, r2
 166 009c ECD1     		bne	.L7
 167              	.L8:
  71:modules/motor/DJImotor/dji_motor.c ****             {
  72:modules/motor/DJImotor/dji_motor.c ****                 LOGERROR("[dji_motor] ID crash. Check in debug mode, add dji_motor_instance to watc
  73:modules/motor/DJImotor/dji_motor.c ****                 uint16_t can_bus = config->can_handle == &hcan1 ? 1 : 2;
  74:modules/motor/DJImotor/dji_motor.c ****                 while (1) // 6020зҡ„id 1-4е’Ң2006/3508зҡ„id 5-8дјҡеҸ‘з”ҹеҶІзӘҒ(иӢҘжңүжіЁеҶҢ,еҚі1!5,
 168              		.loc 1 74 17 is_stmt 1 view .LVU51
 169              		.loc 1 74 23 view .LVU52
 170 009e FEE7     		b	.L8
 171              	.LVL13:
 172              	.L2:
 173              		.loc 1 74 23 is_stmt 0 view .LVU53
 174              	.LBE3:
  75:modules/motor/DJImotor/dji_motor.c ****                     LOGERROR("[dji_motor] id [%d], can_bus [%d]", config->rx_id, can_bus);
  76:modules/motor/DJImotor/dji_motor.c ****             }
  77:modules/motor/DJImotor/dji_motor.c ****         }
  78:modules/motor/DJImotor/dji_motor.c ****         break;
  79:modules/motor/DJImotor/dji_motor.c **** 
  80:modules/motor/DJImotor/dji_motor.c ****     case GM6020:
  81:modules/motor/DJImotor/dji_motor.c ****         if (motor_id < 4)
 175              		.loc 1 81 9 is_stmt 1 view .LVU54
 176              		.loc 1 81 12 is_stmt 0 view .LVU55
 177 00a0 032B     		cmp	r3, #3
 178 00a2 18D8     		bhi	.L11
  82:modules/motor/DJImotor/dji_motor.c ****         {
  83:modules/motor/DJImotor/dji_motor.c ****             motor_send_num = motor_id;
 179              		.loc 1 83 13 is_stmt 1 view .LVU56
 180              	.LVL14:
  84:modules/motor/DJImotor/dji_motor.c ****             motor_grouping = config->can_handle == &hcan1 ? 0 : 3;
 181              		.loc 1 84 13 view .LVU57
 182              		.loc 1 84 28 is_stmt 0 view .LVU58
 183 00a4 1E4A     		ldr	r2, .L26
 184 00a6 0C68     		ldr	r4, [r1]
 185 00a8 9442     		cmp	r4, r2
 186 00aa 10D0     		beq	.L24
  83:modules/motor/DJImotor/dji_motor.c ****             motor_grouping = config->can_handle == &hcan1 ? 0 : 3;
 187              		.loc 1 83 28 view .LVU59
 188 00ac 1A46     		mov	r2, r3
 189              		.loc 1 84 28 discriminator 2 view .LVU60
 190 00ae 4FF0030C 		mov	ip, #3
 191              	.LVL15:
 192              	.L12:
ARM GAS  C:\Users\Administrator\AppData\Local\Temp\ccvvr9DW.s 			page 6


  85:modules/motor/DJImotor/dji_motor.c ****         }
  86:modules/motor/DJImotor/dji_motor.c ****         else
  87:modules/motor/DJImotor/dji_motor.c ****         {
  88:modules/motor/DJImotor/dji_motor.c ****             motor_send_num = motor_id - 4;
  89:modules/motor/DJImotor/dji_motor.c ****             motor_grouping = config->can_handle == &hcan1 ? 2 : 5;
  90:modules/motor/DJImotor/dji_motor.c ****         }
  91:modules/motor/DJImotor/dji_motor.c **** 
  92:modules/motor/DJImotor/dji_motor.c ****         config->rx_id = 0x204 + motor_id + 1;   // жҠҠID+1,иҝӣиЎҢеҲҶз»„и®ҫзҪ®
 193              		.loc 1 92 9 is_stmt 1 view .LVU61
 194              		.loc 1 92 42 is_stmt 0 view .LVU62
 195 00b2 03F20523 		addw	r3, r3, #517
 196              	.LVL16:
 197              		.loc 1 92 23 view .LVU63
 198 00b6 8B60     		str	r3, [r1, #8]
  93:modules/motor/DJImotor/dji_motor.c ****         sender_enable_flag[motor_grouping] = 1; // еҸӘиҰҒжңүз”өжңәжіЁеҶҢеҲ°иҝҷдёӘеҲҶз»„,зҪ®дёә1;еңЁ
 199              		.loc 1 93 9 is_stmt 1 view .LVU64
 200              		.loc 1 93 44 is_stmt 0 view .LVU65
 201 00b8 1A4B     		ldr	r3, .L26+4
 202              	.LVL17:
 203              		.loc 1 93 44 view .LVU66
 204 00ba 4FF0010E 		mov	lr, #1
 205 00be 03F80CE0 		strb	lr, [r3, ip]
  94:modules/motor/DJImotor/dji_motor.c ****         motor->message_num = motor_send_num;
 206              		.loc 1 94 9 is_stmt 1 view .LVU67
 207              		.loc 1 94 28 is_stmt 0 view .LVU68
 208 00c2 80F8A521 		strb	r2, [r0, #421]
 209              	.LVL18:
  95:modules/motor/DJImotor/dji_motor.c ****         motor->sender_group = motor_grouping;
 210              		.loc 1 95 9 is_stmt 1 view .LVU69
 211              		.loc 1 95 29 is_stmt 0 view .LVU70
 212 00c6 80F8A4C1 		strb	ip, [r0, #420]
  96:modules/motor/DJImotor/dji_motor.c **** 
  97:modules/motor/DJImotor/dji_motor.c ****         for (size_t i = 0; i < idx; ++i)
 213              		.loc 1 97 9 is_stmt 1 view .LVU71
 214              	.LBB4:
 215              		.loc 1 97 14 view .LVU72
 216              	.LVL19:
 217              		.loc 1 97 21 is_stmt 0 view .LVU73
 218 00ca 0023     		movs	r3, #0
 219              		.loc 1 97 9 view .LVU74
 220 00cc 12E0     		b	.L13
 221              	.LVL20:
 222              	.L24:
 223              		.loc 1 97 9 view .LVU75
 224              	.LBE4:
  83:modules/motor/DJImotor/dji_motor.c ****             motor_grouping = config->can_handle == &hcan1 ? 0 : 3;
 225              		.loc 1 83 28 view .LVU76
 226 00ce 1A46     		mov	r2, r3
  84:modules/motor/DJImotor/dji_motor.c ****         }
 227              		.loc 1 84 28 discriminator 1 view .LVU77
 228 00d0 4FF0000C 		mov	ip, #0
 229 00d4 EDE7     		b	.L12
 230              	.LVL21:
 231              	.L11:
  88:modules/motor/DJImotor/dji_motor.c ****             motor_grouping = config->can_handle == &hcan1 ? 2 : 5;
 232              		.loc 1 88 13 is_stmt 1 view .LVU78
  88:modules/motor/DJImotor/dji_motor.c ****             motor_grouping = config->can_handle == &hcan1 ? 2 : 5;
ARM GAS  C:\Users\Administrator\AppData\Local\Temp\ccvvr9DW.s 			page 7


 233              		.loc 1 88 28 is_stmt 0 view .LVU79
 234 00d6 ACF10502 		sub	r2, ip, #5
 235 00da D2B2     		uxtb	r2, r2
 236              	.LVL22:
  89:modules/motor/DJImotor/dji_motor.c ****         }
 237              		.loc 1 89 13 is_stmt 1 view .LVU80
  89:modules/motor/DJImotor/dji_motor.c ****         }
 238              		.loc 1 89 28 is_stmt 0 view .LVU81
 239 00dc DFF840C0 		ldr	ip, .L26
 240 00e0 0C68     		ldr	r4, [r1]
 241 00e2 6445     		cmp	r4, ip
 242 00e4 02D0     		beq	.L25
  89:modules/motor/DJImotor/dji_motor.c ****         }
 243              		.loc 1 89 28 discriminator 2 view .LVU82
 244 00e6 4FF0050C 		mov	ip, #5
 245 00ea E2E7     		b	.L12
 246              	.L25:
  89:modules/motor/DJImotor/dji_motor.c ****         }
 247              		.loc 1 89 28 discriminator 1 view .LVU83
 248 00ec 4FF0020C 		mov	ip, #2
 249 00f0 DFE7     		b	.L12
 250              	.LVL23:
 251              	.L14:
 252              	.LBB5:
 253              		.loc 1 97 37 is_stmt 1 discriminator 2 view .LVU84
 254 00f2 0133     		adds	r3, r3, #1
 255              	.LVL24:
 256              	.L13:
 257              		.loc 1 97 30 discriminator 1 view .LVU85
 258 00f4 0C4A     		ldr	r2, .L26+8
 259 00f6 1278     		ldrb	r2, [r2]	@ zero_extendqisi2
 260 00f8 9A42     		cmp	r2, r3
 261 00fa 0FD9     		bls	.L1
  98:modules/motor/DJImotor/dji_motor.c ****         {
  99:modules/motor/DJImotor/dji_motor.c ****             if (dji_motor_instance[i]->motor_can_instance->can_handle == config->can_handle && dji_
 262              		.loc 1 99 13 view .LVU86
 263              		.loc 1 99 35 is_stmt 0 view .LVU87
 264 00fc 0B4A     		ldr	r2, .L26+12
 265 00fe 52F82320 		ldr	r2, [r2, r3, lsl #2]
 266              		.loc 1 99 38 view .LVU88
 267 0102 D2F8A021 		ldr	r2, [r2, #416]
 268              		.loc 1 99 58 view .LVU89
 269 0106 D2F800C0 		ldr	ip, [r2]	@ unaligned
 270              		.loc 1 99 80 view .LVU90
 271 010a 0868     		ldr	r0, [r1]
 272              		.loc 1 99 16 view .LVU91
 273 010c 8445     		cmp	ip, r0
 274 010e F0D1     		bne	.L14
 275              		.loc 1 99 137 discriminator 1 view .LVU92
 276 0110 506B     		ldr	r0, [r2, #52]	@ unaligned
 277              		.loc 1 99 154 discriminator 1 view .LVU93
 278 0112 8A68     		ldr	r2, [r1, #8]
 279              		.loc 1 99 93 discriminator 1 view .LVU94
 280 0114 9042     		cmp	r0, r2
 281 0116 ECD1     		bne	.L14
 282              	.L15:
 100:modules/motor/DJImotor/dji_motor.c ****             {
ARM GAS  C:\Users\Administrator\AppData\Local\Temp\ccvvr9DW.s 			page 8


 101:modules/motor/DJImotor/dji_motor.c ****                 LOGERROR("[dji_motor] ID crash. Check in debug mode, add dji_motor_instance to watc
 102:modules/motor/DJImotor/dji_motor.c ****                 uint16_t can_bus = config->can_handle == &hcan1 ? 1 : 2;
 103:modules/motor/DJImotor/dji_motor.c ****                 while (1) // 6020зҡ„id 1-4е’Ң2006/3508зҡ„id 5-8дјҡеҸ‘з”ҹеҶІзӘҒ(иӢҘжңүжіЁеҶҢ,еҚі1!5,
 283              		.loc 1 103 17 is_stmt 1 view .LVU95
 284              		.loc 1 103 23 view .LVU96
 285 0118 FEE7     		b	.L15
 286              	.LVL25:
 287              	.L3:
 288              		.loc 1 103 23 is_stmt 0 view .LVU97
 289              	.LBE5:
 104:modules/motor/DJImotor/dji_motor.c ****                     LOGERROR("[dji_motor] id [%d], can_bus [%d]", config->rx_id, can_bus);
 105:modules/motor/DJImotor/dji_motor.c ****             }
 106:modules/motor/DJImotor/dji_motor.c ****         }
 107:modules/motor/DJImotor/dji_motor.c ****         break;
 108:modules/motor/DJImotor/dji_motor.c **** 
 109:modules/motor/DJImotor/dji_motor.c ****     default: // other motors should not be registered here
 110:modules/motor/DJImotor/dji_motor.c ****         while (1)
 290              		.loc 1 110 9 is_stmt 1 view .LVU98
 291              		.loc 1 110 15 view .LVU99
 292 011a FEE7     		b	.L3
 293              	.LVL26:
 294              	.L1:
 111:modules/motor/DJImotor/dji_motor.c ****             LOGERROR("[dji_motor]You must not register other motors using the API of DJI motor."); 
 112:modules/motor/DJImotor/dji_motor.c ****     }
 113:modules/motor/DJImotor/dji_motor.c **** }
 295              		.loc 1 113 1 is_stmt 0 view .LVU100
 296 011c 10BD     		pop	{r4, pc}
 297              	.L27:
 298 011e 00BF     		.align	2
 299              	.L26:
 300 0120 00000000 		.word	hcan1
 301 0124 00000000 		.word	sender_enable_flag
 302 0128 00000000 		.word	idx
 303 012c 00000000 		.word	dji_motor_instance
 304              		.cfi_endproc
 305              	.LFE271:
 307              		.section	.text.DJIMotorLostCallback,"ax",%progbits
 308              		.align	1
 309              		.syntax unified
 310              		.thumb
 311              		.thumb_func
 313              	DJIMotorLostCallback:
 314              	.LVL27:
 315              	.LFB273:
 114:modules/motor/DJImotor/dji_motor.c **** 
 115:modules/motor/DJImotor/dji_motor.c **** /**
 116:modules/motor/DJImotor/dji_motor.c ****  * @todo  жҳҜеҗҰеҸҜд»Ҙз®ҖеҢ–еӨҡеңҲи§’еәҰзҡ„и®Ўз®—пјҹ
 117:modules/motor/DJImotor/dji_motor.c ****  * @brief ж №жҚ®иҝ”еӣһзҡ„can_instanceеҜ№еҸҚйҰҲжҠҘж–ҮиҝӣиЎҢи§Јжһҗ
 118:modules/motor/DJImotor/dji_motor.c ****  *
 119:modules/motor/DJImotor/dji_motor.c ****  * @param _instance ж”¶еҲ°ж•°жҚ®зҡ„instance,йҖҡиҝҮйҒҚеҺҶдёҺжүҖжңүз”өжңәиҝӣиЎҢеҜ№жҜ”д»ҘйҖүжӢ©жӯЈзЎ®з
 120:modules/motor/DJImotor/dji_motor.c ****  */
 121:modules/motor/DJImotor/dji_motor.c **** static void DecodeDJIMotor(CANInstance *_instance)
 122:modules/motor/DJImotor/dji_motor.c **** {
 123:modules/motor/DJImotor/dji_motor.c ****     // иҝҷйҮҢеҜ№can instanceзҡ„idиҝӣиЎҢдәҶејәеҲ¶иҪ¬жҚў,д»ҺиҖҢиҺ·еҫ—з”өжңәзҡ„instanceе®һдҫӢең°еқҖ
 124:modules/motor/DJImotor/dji_motor.c ****     // _instanceжҢҮй’ҲжҢҮеҗ‘зҡ„idжҳҜеҜ№еә”з”өжңәinstanceзҡ„ең°еқҖ,йҖҡиҝҮејәеҲ¶иҪ¬жҚўдёәз”өжңәinstan
 125:modules/motor/DJImotor/dji_motor.c ****     uint8_t *rxbuff = _instance->rx_buff;
 126:modules/motor/DJImotor/dji_motor.c ****     DJIMotorInstance *motor = (DJIMotorInstance *)_instance->id;
ARM GAS  C:\Users\Administrator\AppData\Local\Temp\ccvvr9DW.s 			page 9


 127:modules/motor/DJImotor/dji_motor.c ****     DJI_Motor_Measure_s *measure = &motor->measure; // measureиҰҒеӨҡж¬ЎдҪҝз”Ё,дҝқеӯҳжҢҮй’ҲеҮҸе°Ҹи®ҝ
 128:modules/motor/DJImotor/dji_motor.c **** 
 129:modules/motor/DJImotor/dji_motor.c ****     DaemonReload(motor->daemon);
 130:modules/motor/DJImotor/dji_motor.c ****     motor->dt = DWT_GetDeltaT(&motor->feed_cnt);
 131:modules/motor/DJImotor/dji_motor.c **** 
 132:modules/motor/DJImotor/dji_motor.c ****     // и§Јжһҗж•°жҚ®е№¶еҜ№з”өжөҒе’ҢйҖҹеәҰиҝӣиЎҢж»Өжіў,з”өжңәзҡ„еҸҚйҰҲжҠҘж–Үе…·дҪ“ж јејҸи§Ғз”өжңәиҜҙж
 133:modules/motor/DJImotor/dji_motor.c ****     measure->last_ecd = measure->ecd;
 134:modules/motor/DJImotor/dji_motor.c ****     measure->ecd = ((uint16_t)rxbuff[0]) << 8 | rxbuff[1];
 135:modules/motor/DJImotor/dji_motor.c ****     measure->angle_single_round = ECD_ANGLE_COEF_DJI * (float)measure->ecd;
 136:modules/motor/DJImotor/dji_motor.c ****     measure->speed_aps = (1.0f - SPEED_SMOOTH_COEF) * measure->speed_aps +
 137:modules/motor/DJImotor/dji_motor.c ****                          RPM_2_ANGLE_PER_SEC * SPEED_SMOOTH_COEF * (float)((int16_t)(rxbuff[2] << 8
 138:modules/motor/DJImotor/dji_motor.c ****     measure->real_current = (1.0f - CURRENT_SMOOTH_COEF) * measure->real_current +
 139:modules/motor/DJImotor/dji_motor.c ****                             CURRENT_SMOOTH_COEF * (float)((int16_t)(rxbuff[4] << 8 | rxbuff[5]));
 140:modules/motor/DJImotor/dji_motor.c ****     measure->temperature = rxbuff[6];
 141:modules/motor/DJImotor/dji_motor.c **** 
 142:modules/motor/DJImotor/dji_motor.c ****     // еӨҡеңҲи§’еәҰи®Ўз®—,еүҚжҸҗжҳҜеҒҮи®ҫдёӨж¬ЎйҮҮж ·й—ҙз”өжңәиҪ¬иҝҮзҡ„и§’еәҰе°ҸдәҺ180В°,иҮӘе·ұз”»д
 143:modules/motor/DJImotor/dji_motor.c ****     if (measure->ecd - measure->last_ecd > 4096)
 144:modules/motor/DJImotor/dji_motor.c ****         measure->total_round--;
 145:modules/motor/DJImotor/dji_motor.c ****     else if (measure->ecd - measure->last_ecd < -4096)
 146:modules/motor/DJImotor/dji_motor.c ****         measure->total_round++;
 147:modules/motor/DJImotor/dji_motor.c ****     measure->total_angle = measure->total_round * 360 + measure->angle_single_round;
 148:modules/motor/DJImotor/dji_motor.c **** }
 149:modules/motor/DJImotor/dji_motor.c **** 
 150:modules/motor/DJImotor/dji_motor.c **** static void DJIMotorLostCallback(void *motor_ptr)
 151:modules/motor/DJImotor/dji_motor.c **** {
 316              		.loc 1 151 1 is_stmt 1 view -0
 317              		.cfi_startproc
 318              		@ args = 0, pretend = 0, frame = 0
 319              		@ frame_needed = 0, uses_anonymous_args = 0
 320              		@ link register save eliminated.
 152:modules/motor/DJImotor/dji_motor.c ****     DJIMotorInstance *motor = (DJIMotorInstance *)motor_ptr;
 321              		.loc 1 152 5 view .LVU102
 153:modules/motor/DJImotor/dji_motor.c ****     uint16_t can_bus = motor->motor_can_instance->can_handle == &hcan1 ? 1 : 2;
 322              		.loc 1 153 5 view .LVU103
 154:modules/motor/DJImotor/dji_motor.c ****     LOGWARNING("[dji_motor] Motor lost, can bus [%d] , id [%d]", can_bus, motor->motor_can_instance
 323              		.loc 1 154 108 view .LVU104
 155:modules/motor/DJImotor/dji_motor.c **** }
 324              		.loc 1 155 1 is_stmt 0 view .LVU105
 325 0000 7047     		bx	lr
 326              		.cfi_endproc
 327              	.LFE273:
 329              		.section	.text.DecodeDJIMotor,"ax",%progbits
 330              		.align	1
 331              		.syntax unified
 332              		.thumb
 333              		.thumb_func
 335              	DecodeDJIMotor:
 336              	.LVL28:
 337              	.LFB272:
 122:modules/motor/DJImotor/dji_motor.c ****     // иҝҷйҮҢеҜ№can instanceзҡ„idиҝӣиЎҢдәҶејәеҲ¶иҪ¬жҚў,д»ҺиҖҢиҺ·еҫ—з”өжңәзҡ„instanceе®һдҫӢең°еқҖ
 338              		.loc 1 122 1 is_stmt 1 view -0
 339              		.cfi_startproc
 340              		@ args = 0, pretend = 0, frame = 0
 341              		@ frame_needed = 0, uses_anonymous_args = 0
 122:modules/motor/DJImotor/dji_motor.c ****     // иҝҷйҮҢеҜ№can instanceзҡ„idиҝӣиЎҢдәҶејәеҲ¶иҪ¬жҚў,д»ҺиҖҢиҺ·еҫ—з”өжңәзҡ„instanceе®һдҫӢең°еқҖ
 342              		.loc 1 122 1 is_stmt 0 view .LVU107
 343 0000 38B5     		push	{r3, r4, r5, lr}
ARM GAS  C:\Users\Administrator\AppData\Local\Temp\ccvvr9DW.s 			page 10


 344              		.cfi_def_cfa_offset 16
 345              		.cfi_offset 3, -16
 346              		.cfi_offset 4, -12
 347              		.cfi_offset 5, -8
 348              		.cfi_offset 14, -4
 349 0002 0546     		mov	r5, r0
 125:modules/motor/DJImotor/dji_motor.c ****     DJIMotorInstance *motor = (DJIMotorInstance *)_instance->id;
 350              		.loc 1 125 5 is_stmt 1 view .LVU108
 351              	.LVL29:
 126:modules/motor/DJImotor/dji_motor.c ****     DJI_Motor_Measure_s *measure = &motor->measure; // measureиҰҒеӨҡж¬ЎдҪҝз”Ё,дҝқеӯҳжҢҮй’ҲеҮҸе°Ҹи®ҝ
 352              		.loc 1 126 5 view .LVU109
 126:modules/motor/DJImotor/dji_motor.c ****     DJI_Motor_Measure_s *measure = &motor->measure; // measureиҰҒеӨҡж¬ЎдҪҝз”Ё,дҝқеӯҳжҢҮй’ҲеҮҸе°Ҹи®ҝ
 353              		.loc 1 126 23 is_stmt 0 view .LVU110
 354 0004 D0F84140 		ldr	r4, [r0, #65]	@ unaligned
 355              	.LVL30:
 127:modules/motor/DJImotor/dji_motor.c **** 
 356              		.loc 1 127 5 is_stmt 1 view .LVU111
 129:modules/motor/DJImotor/dji_motor.c ****     motor->dt = DWT_GetDeltaT(&motor->feed_cnt);
 357              		.loc 1 129 5 view .LVU112
 358 0008 D4F8AC01 		ldr	r0, [r4, #428]
 359              	.LVL31:
 129:modules/motor/DJImotor/dji_motor.c ****     motor->dt = DWT_GetDeltaT(&motor->feed_cnt);
 360              		.loc 1 129 5 is_stmt 0 view .LVU113
 361 000c FFF7FEFF 		bl	DaemonReload
 362              	.LVL32:
 130:modules/motor/DJImotor/dji_motor.c **** 
 363              		.loc 1 130 5 is_stmt 1 view .LVU114
 130:modules/motor/DJImotor/dji_motor.c **** 
 364              		.loc 1 130 17 is_stmt 0 view .LVU115
 365 0010 04F5D870 		add	r0, r4, #432
 366 0014 FFF7FEFF 		bl	DWT_GetDeltaT
 367              	.LVL33:
 130:modules/motor/DJImotor/dji_motor.c **** 
 368              		.loc 1 130 15 discriminator 1 view .LVU116
 369 0018 84ED6D0A 		vstr.32	s0, [r4, #436]
 133:modules/motor/DJImotor/dji_motor.c ****     measure->ecd = ((uint16_t)rxbuff[0]) << 8 | rxbuff[1];
 370              		.loc 1 133 5 is_stmt 1 view .LVU117
 133:modules/motor/DJImotor/dji_motor.c ****     measure->ecd = ((uint16_t)rxbuff[0]) << 8 | rxbuff[1];
 371              		.loc 1 133 32 is_stmt 0 view .LVU118
 372 001c 6188     		ldrh	r1, [r4, #2]
 133:modules/motor/DJImotor/dji_motor.c ****     measure->ecd = ((uint16_t)rxbuff[0]) << 8 | rxbuff[1];
 373              		.loc 1 133 23 view .LVU119
 374 001e 2180     		strh	r1, [r4]	@ movhi
 134:modules/motor/DJImotor/dji_motor.c ****     measure->angle_single_round = ECD_ANGLE_COEF_DJI * (float)measure->ecd;
 375              		.loc 1 134 5 is_stmt 1 view .LVU120
 134:modules/motor/DJImotor/dji_motor.c ****     measure->angle_single_round = ECD_ANGLE_COEF_DJI * (float)measure->ecd;
 376              		.loc 1 134 37 is_stmt 0 view .LVU121
 377 0020 95F82C30 		ldrb	r3, [r5, #44]	@ zero_extendqisi2
 134:modules/motor/DJImotor/dji_motor.c ****     measure->angle_single_round = ECD_ANGLE_COEF_DJI * (float)measure->ecd;
 378              		.loc 1 134 55 view .LVU122
 379 0024 95F82D20 		ldrb	r2, [r5, #45]	@ zero_extendqisi2
 134:modules/motor/DJImotor/dji_motor.c ****     measure->angle_single_round = ECD_ANGLE_COEF_DJI * (float)measure->ecd;
 380              		.loc 1 134 47 view .LVU123
 381 0028 42EA0322 		orr	r2, r2, r3, lsl #8
 134:modules/motor/DJImotor/dji_motor.c ****     measure->angle_single_round = ECD_ANGLE_COEF_DJI * (float)measure->ecd;
 382              		.loc 1 134 18 view .LVU124
 383 002c 6280     		strh	r2, [r4, #2]	@ movhi
ARM GAS  C:\Users\Administrator\AppData\Local\Temp\ccvvr9DW.s 			page 11


 135:modules/motor/DJImotor/dji_motor.c ****     measure->speed_aps = (1.0f - SPEED_SMOOTH_COEF) * measure->speed_aps +
 384              		.loc 1 135 5 is_stmt 1 view .LVU125
 135:modules/motor/DJImotor/dji_motor.c ****     measure->speed_aps = (1.0f - SPEED_SMOOTH_COEF) * measure->speed_aps +
 385              		.loc 1 135 56 is_stmt 0 view .LVU126
 386 002e 07EE902A 		vmov	s15, r2	@ int
 387 0032 F8EE676A 		vcvt.f32.u32	s13, s15
 135:modules/motor/DJImotor/dji_motor.c ****     measure->speed_aps = (1.0f - SPEED_SMOOTH_COEF) * measure->speed_aps +
 388              		.loc 1 135 54 view .LVU127
 389 0036 DFED2F7A 		vldr.32	s15, .L33
 390 003a 66EEA76A 		vmul.f32	s13, s13, s15
 135:modules/motor/DJImotor/dji_motor.c ****     measure->speed_aps = (1.0f - SPEED_SMOOTH_COEF) * measure->speed_aps +
 391              		.loc 1 135 33 view .LVU128
 392 003e C4ED016A 		vstr.32	s13, [r4, #4]
 136:modules/motor/DJImotor/dji_motor.c ****                          RPM_2_ANGLE_PER_SEC * SPEED_SMOOTH_COEF * (float)((int16_t)(rxbuff[2] << 8
 393              		.loc 1 136 5 is_stmt 1 view .LVU129
 136:modules/motor/DJImotor/dji_motor.c ****                          RPM_2_ANGLE_PER_SEC * SPEED_SMOOTH_COEF * (float)((int16_t)(rxbuff[2] << 8
 394              		.loc 1 136 62 is_stmt 0 view .LVU130
 395 0042 D4ED027A 		vldr.32	s15, [r4, #8]
 136:modules/motor/DJImotor/dji_motor.c ****                          RPM_2_ANGLE_PER_SEC * SPEED_SMOOTH_COEF * (float)((int16_t)(rxbuff[2] << 8
 396              		.loc 1 136 53 view .LVU131
 397 0046 9FED2C7A 		vldr.32	s14, .L33+4
 398 004a 27EE877A 		vmul.f32	s14, s15, s14
 137:modules/motor/DJImotor/dji_motor.c ****     measure->real_current = (1.0f - CURRENT_SMOOTH_COEF) * measure->real_current +
 399              		.loc 1 137 92 view .LVU132
 400 004e 95F82E00 		ldrb	r0, [r5, #46]	@ zero_extendqisi2
 137:modules/motor/DJImotor/dji_motor.c ****     measure->real_current = (1.0f - CURRENT_SMOOTH_COEF) * measure->real_current +
 401              		.loc 1 137 109 view .LVU133
 402 0052 95F82F30 		ldrb	r3, [r5, #47]	@ zero_extendqisi2
 137:modules/motor/DJImotor/dji_motor.c ****     measure->real_current = (1.0f - CURRENT_SMOOTH_COEF) * measure->real_current +
 403              		.loc 1 137 76 view .LVU134
 404 0056 43EA0023 		orr	r3, r3, r0, lsl #8
 405 005a 1BB2     		sxth	r3, r3
 406 005c 07EE903A 		vmov	s15, r3	@ int
 137:modules/motor/DJImotor/dji_motor.c ****     measure->real_current = (1.0f - CURRENT_SMOOTH_COEF) * measure->real_current +
 407              		.loc 1 137 68 view .LVU135
 408 0060 F8EEE77A 		vcvt.f32.s32	s15, s15
 137:modules/motor/DJImotor/dji_motor.c ****     measure->real_current = (1.0f - CURRENT_SMOOTH_COEF) * measure->real_current +
 409              		.loc 1 137 66 view .LVU136
 410 0064 9FED256A 		vldr.32	s12, .L33+8
 411 0068 67EE867A 		vmul.f32	s15, s15, s12
 136:modules/motor/DJImotor/dji_motor.c ****                          RPM_2_ANGLE_PER_SEC * SPEED_SMOOTH_COEF * (float)((int16_t)(rxbuff[2] << 8
 412              		.loc 1 136 74 view .LVU137
 413 006c 77EE277A 		vadd.f32	s15, s14, s15
 136:modules/motor/DJImotor/dji_motor.c ****                          RPM_2_ANGLE_PER_SEC * SPEED_SMOOTH_COEF * (float)((int16_t)(rxbuff[2] << 8
 414              		.loc 1 136 24 view .LVU138
 415 0070 C4ED027A 		vstr.32	s15, [r4, #8]
 138:modules/motor/DJImotor/dji_motor.c ****                             CURRENT_SMOOTH_COEF * (float)((int16_t)(rxbuff[4] << 8 | rxbuff[5]));
 416              		.loc 1 138 5 is_stmt 1 view .LVU139
 138:modules/motor/DJImotor/dji_motor.c ****                             CURRENT_SMOOTH_COEF * (float)((int16_t)(rxbuff[4] << 8 | rxbuff[5]));
 417              		.loc 1 138 67 is_stmt 0 view .LVU140
 418 0074 B4F90C30 		ldrsh	r3, [r4, #12]
 419 0078 07EE903A 		vmov	s15, r3	@ int
 138:modules/motor/DJImotor/dji_motor.c ****                             CURRENT_SMOOTH_COEF * (float)((int16_t)(rxbuff[4] << 8 | rxbuff[5]));
 420              		.loc 1 138 58 view .LVU141
 421 007c F8EEE77A 		vcvt.f32.s32	s15, s15
 422 0080 9FED1F7A 		vldr.32	s14, .L33+12
 423 0084 67EE877A 		vmul.f32	s15, s15, s14
ARM GAS  C:\Users\Administrator\AppData\Local\Temp\ccvvr9DW.s 			page 12


 139:modules/motor/DJImotor/dji_motor.c ****     measure->temperature = rxbuff[6];
 424              		.loc 1 139 75 view .LVU142
 425 0088 95F83000 		ldrb	r0, [r5, #48]	@ zero_extendqisi2
 139:modules/motor/DJImotor/dji_motor.c ****     measure->temperature = rxbuff[6];
 426              		.loc 1 139 92 view .LVU143
 427 008c 95F83130 		ldrb	r3, [r5, #49]	@ zero_extendqisi2
 139:modules/motor/DJImotor/dji_motor.c ****     measure->temperature = rxbuff[6];
 428              		.loc 1 139 59 view .LVU144
 429 0090 43EA0023 		orr	r3, r3, r0, lsl #8
 430 0094 1BB2     		sxth	r3, r3
 431 0096 07EE103A 		vmov	s14, r3	@ int
 139:modules/motor/DJImotor/dji_motor.c ****     measure->temperature = rxbuff[6];
 432              		.loc 1 139 51 view .LVU145
 433 009a B8EEC77A 		vcvt.f32.s32	s14, s14
 139:modules/motor/DJImotor/dji_motor.c ****     measure->temperature = rxbuff[6];
 434              		.loc 1 139 49 view .LVU146
 435 009e 9FED196A 		vldr.32	s12, .L33+16
 436 00a2 27EE067A 		vmul.f32	s14, s14, s12
 138:modules/motor/DJImotor/dji_motor.c ****                             CURRENT_SMOOTH_COEF * (float)((int16_t)(rxbuff[4] << 8 | rxbuff[5]));
 437              		.loc 1 138 82 view .LVU147
 438 00a6 77EE877A 		vadd.f32	s15, s15, s14
 138:modules/motor/DJImotor/dji_motor.c ****                             CURRENT_SMOOTH_COEF * (float)((int16_t)(rxbuff[4] << 8 | rxbuff[5]));
 439              		.loc 1 138 27 view .LVU148
 440 00aa FDEEE77A 		vcvt.s32.f32	s15, s15
 441 00ae 17EE903A 		vmov	r3, s15	@ int
 442 00b2 A381     		strh	r3, [r4, #12]	@ movhi
 140:modules/motor/DJImotor/dji_motor.c **** 
 443              		.loc 1 140 5 is_stmt 1 view .LVU149
 140:modules/motor/DJImotor/dji_motor.c **** 
 444              		.loc 1 140 26 is_stmt 0 view .LVU150
 445 00b4 95F83230 		ldrb	r3, [r5, #50]	@ zero_extendqisi2
 446 00b8 A373     		strb	r3, [r4, #14]
 143:modules/motor/DJImotor/dji_motor.c ****         measure->total_round--;
 447              		.loc 1 143 5 is_stmt 1 view .LVU151
 143:modules/motor/DJImotor/dji_motor.c ****         measure->total_round--;
 448              		.loc 1 143 22 is_stmt 0 view .LVU152
 449 00ba 521A     		subs	r2, r2, r1
 143:modules/motor/DJImotor/dji_motor.c ****         measure->total_round--;
 450              		.loc 1 143 8 view .LVU153
 451 00bc B2F5805F 		cmp	r2, #4096
 452 00c0 10DD     		ble	.L30
 144:modules/motor/DJImotor/dji_motor.c ****     else if (measure->ecd - measure->last_ecd < -4096)
 453              		.loc 1 144 9 is_stmt 1 view .LVU154
 144:modules/motor/DJImotor/dji_motor.c ****     else if (measure->ecd - measure->last_ecd < -4096)
 454              		.loc 1 144 16 is_stmt 0 view .LVU155
 455 00c2 6369     		ldr	r3, [r4, #20]
 144:modules/motor/DJImotor/dji_motor.c ****     else if (measure->ecd - measure->last_ecd < -4096)
 456              		.loc 1 144 29 view .LVU156
 457 00c4 013B     		subs	r3, r3, #1
 458 00c6 6361     		str	r3, [r4, #20]
 459              	.L31:
 147:modules/motor/DJImotor/dji_motor.c **** }
 460              		.loc 1 147 5 is_stmt 1 view .LVU157
 147:modules/motor/DJImotor/dji_motor.c **** }
 461              		.loc 1 147 35 is_stmt 0 view .LVU158
 462 00c8 6369     		ldr	r3, [r4, #20]
 147:modules/motor/DJImotor/dji_motor.c **** }
ARM GAS  C:\Users\Administrator\AppData\Local\Temp\ccvvr9DW.s 			page 13


 463              		.loc 1 147 49 view .LVU159
 464 00ca 4FF4B472 		mov	r2, #360
 465 00ce 02FB03F3 		mul	r3, r2, r3
 466 00d2 07EE903A 		vmov	s15, r3	@ int
 147:modules/motor/DJImotor/dji_motor.c **** }
 467              		.loc 1 147 55 view .LVU160
 468 00d6 F8EEE77A 		vcvt.f32.s32	s15, s15
 469 00da 77EEA67A 		vadd.f32	s15, s15, s13
 147:modules/motor/DJImotor/dji_motor.c **** }
 470              		.loc 1 147 26 view .LVU161
 471 00de C4ED047A 		vstr.32	s15, [r4, #16]
 148:modules/motor/DJImotor/dji_motor.c **** 
 472              		.loc 1 148 1 view .LVU162
 473 00e2 38BD     		pop	{r3, r4, r5, pc}
 474              	.LVL34:
 475              	.L30:
 145:modules/motor/DJImotor/dji_motor.c ****         measure->total_round++;
 476              		.loc 1 145 10 is_stmt 1 view .LVU163
 145:modules/motor/DJImotor/dji_motor.c ****         measure->total_round++;
 477              		.loc 1 145 13 is_stmt 0 view .LVU164
 478 00e4 12F5805F 		cmn	r2, #4096
 479 00e8 EEDA     		bge	.L31
 146:modules/motor/DJImotor/dji_motor.c ****     measure->total_angle = measure->total_round * 360 + measure->angle_single_round;
 480              		.loc 1 146 9 is_stmt 1 view .LVU165
 146:modules/motor/DJImotor/dji_motor.c ****     measure->total_angle = measure->total_round * 360 + measure->angle_single_round;
 481              		.loc 1 146 16 is_stmt 0 view .LVU166
 482 00ea 6369     		ldr	r3, [r4, #20]
 146:modules/motor/DJImotor/dji_motor.c ****     measure->total_angle = measure->total_round * 360 + measure->angle_single_round;
 483              		.loc 1 146 29 view .LVU167
 484 00ec 0133     		adds	r3, r3, #1
 485 00ee 6361     		str	r3, [r4, #20]
 486 00f0 EAE7     		b	.L31
 487              	.L34:
 488 00f2 00BF     		.align	2
 489              	.L33:
 490 00f4 ACFF333D 		.word	1026817964
 491 00f8 9899193E 		.word	1041865112
 492 00fc 3433A340 		.word	1084437300
 493 0100 D0CCCC3D 		.word	1036831952
 494 0104 6666663F 		.word	1063675494
 495              		.cfi_endproc
 496              	.LFE272:
 498              		.section	.text.DJIMotorChangeFeed,"ax",%progbits
 499              		.align	1
 500              		.global	DJIMotorChangeFeed
 501              		.syntax unified
 502              		.thumb
 503              		.thumb_func
 505              	DJIMotorChangeFeed:
 506              	.LVL35:
 507              	.LFB275:
 156:modules/motor/DJImotor/dji_motor.c **** 
 157:modules/motor/DJImotor/dji_motor.c **** // з”өжңәеҲқе§ӢеҢ–,иҝ”еӣһдёҖдёӘз”өжңәе®һдҫӢ
 158:modules/motor/DJImotor/dji_motor.c **** DJIMotorInstance *DJIMotorInit(Motor_Init_Config_s *config)
 159:modules/motor/DJImotor/dji_motor.c **** {
 160:modules/motor/DJImotor/dji_motor.c ****     DJIMotorInstance *instance = (DJIMotorInstance *)malloc(sizeof(DJIMotorInstance));
 161:modules/motor/DJImotor/dji_motor.c ****     memset(instance, 0, sizeof(DJIMotorInstance));
ARM GAS  C:\Users\Administrator\AppData\Local\Temp\ccvvr9DW.s 			page 14


 162:modules/motor/DJImotor/dji_motor.c **** 
 163:modules/motor/DJImotor/dji_motor.c ****     // motor basic setting з”өжңәеҹәжң¬и®ҫзҪ®
 164:modules/motor/DJImotor/dji_motor.c ****     instance->motor_type = config->motor_type;                         // 6020 or 2006 or 3508
 165:modules/motor/DJImotor/dji_motor.c ****     instance->motor_settings = config->controller_setting_init_config; // жӯЈеҸҚиҪ¬,й—ӯзҺҜзұ»еһӢзӯү
 166:modules/motor/DJImotor/dji_motor.c **** 
 167:modules/motor/DJImotor/dji_motor.c ****     // motor controller init з”өжңәжҺ§еҲ¶еҷЁеҲқе§ӢеҢ–
 168:modules/motor/DJImotor/dji_motor.c ****     PIDInit(&instance->motor_controller.current_PID, &config->controller_param_init_config.current_
 169:modules/motor/DJImotor/dji_motor.c ****     PIDInit(&instance->motor_controller.speed_PID, &config->controller_param_init_config.speed_PID)
 170:modules/motor/DJImotor/dji_motor.c ****     PIDInit(&instance->motor_controller.angle_PID, &config->controller_param_init_config.angle_PID)
 171:modules/motor/DJImotor/dji_motor.c ****     instance->motor_controller.other_angle_feedback_ptr = config->controller_param_init_config.othe
 172:modules/motor/DJImotor/dji_motor.c ****     instance->motor_controller.other_speed_feedback_ptr = config->controller_param_init_config.othe
 173:modules/motor/DJImotor/dji_motor.c ****     instance->motor_controller.current_feedforward_ptr = config->controller_param_init_config.curre
 174:modules/motor/DJImotor/dji_motor.c ****     instance->motor_controller.speed_feedforward_ptr = config->controller_param_init_config.speed_f
 175:modules/motor/DJImotor/dji_motor.c ****     // еҗҺз»ӯеўһеҠ з”өжңәеүҚйҰҲжҺ§еҲ¶еҷЁ(йҖҹеәҰе’Ңз”өжөҒ)
 176:modules/motor/DJImotor/dji_motor.c **** 
 177:modules/motor/DJImotor/dji_motor.c ****     // з”өжңәеҲҶз»„,еӣ дёәиҮіеӨҡ4дёӘз”өжңәеҸҜд»Ҙе…ұз”ЁдёҖеё§CANжҺ§еҲ¶жҠҘж–Ү
 178:modules/motor/DJImotor/dji_motor.c ****     MotorSenderGrouping(instance, &config->can_init_config);
 179:modules/motor/DJImotor/dji_motor.c **** 
 180:modules/motor/DJImotor/dji_motor.c ****     // жіЁеҶҢз”өжңәеҲ°CANжҖ»зәҝ
 181:modules/motor/DJImotor/dji_motor.c ****     config->can_init_config.can_module_callback = DecodeDJIMotor; // set callback
 182:modules/motor/DJImotor/dji_motor.c ****     config->can_init_config.id = instance;                        // set id,eq to address(it is ide
 183:modules/motor/DJImotor/dji_motor.c ****     instance->motor_can_instance = CANRegister(&config->can_init_config);
 184:modules/motor/DJImotor/dji_motor.c **** 
 185:modules/motor/DJImotor/dji_motor.c ****     // жіЁеҶҢе®ҲжҠӨзәҝзЁӢ
 186:modules/motor/DJImotor/dji_motor.c ****     Daemon_Init_Config_s daemon_config = {
 187:modules/motor/DJImotor/dji_motor.c ****         .callback = DJIMotorLostCallback,
 188:modules/motor/DJImotor/dji_motor.c ****         .owner_id = instance,
 189:modules/motor/DJImotor/dji_motor.c ****         .reload_count = 2, // 20msжңӘж”¶еҲ°ж•°жҚ®еҲҷдёўеӨұ
 190:modules/motor/DJImotor/dji_motor.c ****     };
 191:modules/motor/DJImotor/dji_motor.c ****     instance->daemon = DaemonRegister(&daemon_config);
 192:modules/motor/DJImotor/dji_motor.c **** 
 193:modules/motor/DJImotor/dji_motor.c ****     DJIMotorEnable(instance);
 194:modules/motor/DJImotor/dji_motor.c ****     dji_motor_instance[idx++] = instance;
 195:modules/motor/DJImotor/dji_motor.c ****     return instance;
 196:modules/motor/DJImotor/dji_motor.c **** }
 197:modules/motor/DJImotor/dji_motor.c **** 
 198:modules/motor/DJImotor/dji_motor.c **** /* з”өжөҒеҸӘиғҪйҖҡиҝҮз”өжңәиҮӘеёҰдј ж„ҹеҷЁзӣ‘жөӢ,еҗҺз»ӯиҖғиҷ‘еҠ е…ҘеҠӣзҹ©дј ж„ҹеҷЁеә”еҸҳзүҮзӯү */
 199:modules/motor/DJImotor/dji_motor.c **** void DJIMotorChangeFeed(DJIMotorInstance *motor, Closeloop_Type_e loop, Feedback_Source_e type)
 200:modules/motor/DJImotor/dji_motor.c **** {
 508              		.loc 1 200 1 is_stmt 1 view -0
 509              		.cfi_startproc
 510              		@ args = 0, pretend = 0, frame = 0
 511              		@ frame_needed = 0, uses_anonymous_args = 0
 512              		@ link register save eliminated.
 201:modules/motor/DJImotor/dji_motor.c ****     if (loop == ANGLE_LOOP)
 513              		.loc 1 201 5 view .LVU169
 514              		.loc 1 201 8 is_stmt 0 view .LVU170
 515 0000 0429     		cmp	r1, #4
 516 0002 02D0     		beq	.L38
 202:modules/motor/DJImotor/dji_motor.c ****         motor->motor_settings.angle_feedback_source = type;
 203:modules/motor/DJImotor/dji_motor.c ****     else if (loop == SPEED_LOOP)
 517              		.loc 1 203 10 is_stmt 1 view .LVU171
 518              		.loc 1 203 13 is_stmt 0 view .LVU172
 519 0004 0229     		cmp	r1, #2
 520 0006 02D0     		beq	.L39
 521              	.L35:
 204:modules/motor/DJImotor/dji_motor.c ****         motor->motor_settings.speed_feedback_source = type;
ARM GAS  C:\Users\Administrator\AppData\Local\Temp\ccvvr9DW.s 			page 15


 205:modules/motor/DJImotor/dji_motor.c ****     else
 206:modules/motor/DJImotor/dji_motor.c ****         LOGERROR("[dji_motor] loop type error, check memory access and func param"); // жЈҖжҹҘжҳҜеҗ
 207:modules/motor/DJImotor/dji_motor.c **** }
 522              		.loc 1 207 1 view .LVU173
 523 0008 7047     		bx	lr
 524              	.L38:
 202:modules/motor/DJImotor/dji_motor.c ****         motor->motor_settings.angle_feedback_source = type;
 525              		.loc 1 202 9 is_stmt 1 view .LVU174
 202:modules/motor/DJImotor/dji_motor.c ****         motor->motor_settings.angle_feedback_source = type;
 526              		.loc 1 202 53 is_stmt 0 view .LVU175
 527 000a 0277     		strb	r2, [r0, #28]
 528 000c 7047     		bx	lr
 529              	.L39:
 204:modules/motor/DJImotor/dji_motor.c ****         motor->motor_settings.speed_feedback_source = type;
 530              		.loc 1 204 9 is_stmt 1 view .LVU176
 204:modules/motor/DJImotor/dji_motor.c ****         motor->motor_settings.speed_feedback_source = type;
 531              		.loc 1 204 53 is_stmt 0 view .LVU177
 532 000e 4277     		strb	r2, [r0, #29]
 533              		.loc 1 207 1 view .LVU178
 534 0010 FAE7     		b	.L35
 535              		.cfi_endproc
 536              	.LFE275:
 538              		.section	.text.DJIMotorStop,"ax",%progbits
 539              		.align	1
 540              		.global	DJIMotorStop
 541              		.syntax unified
 542              		.thumb
 543              		.thumb_func
 545              	DJIMotorStop:
 546              	.LVL36:
 547              	.LFB276:
 208:modules/motor/DJImotor/dji_motor.c **** 
 209:modules/motor/DJImotor/dji_motor.c **** void DJIMotorStop(DJIMotorInstance *motor)
 210:modules/motor/DJImotor/dji_motor.c **** {
 548              		.loc 1 210 1 is_stmt 1 view -0
 549              		.cfi_startproc
 550              		@ args = 0, pretend = 0, frame = 0
 551              		@ frame_needed = 0, uses_anonymous_args = 0
 552              		@ link register save eliminated.
 211:modules/motor/DJImotor/dji_motor.c ****     motor->stop_flag = MOTOR_STOP;
 553              		.loc 1 211 5 view .LVU180
 554              		.loc 1 211 22 is_stmt 0 view .LVU181
 555 0000 0023     		movs	r3, #0
 556 0002 80F8A731 		strb	r3, [r0, #423]
 212:modules/motor/DJImotor/dji_motor.c **** }
 557              		.loc 1 212 1 view .LVU182
 558 0006 7047     		bx	lr
 559              		.cfi_endproc
 560              	.LFE276:
 562              		.section	.text.DJIMotorEnable,"ax",%progbits
 563              		.align	1
 564              		.global	DJIMotorEnable
 565              		.syntax unified
 566              		.thumb
 567              		.thumb_func
 569              	DJIMotorEnable:
 570              	.LVL37:
ARM GAS  C:\Users\Administrator\AppData\Local\Temp\ccvvr9DW.s 			page 16


 571              	.LFB277:
 213:modules/motor/DJImotor/dji_motor.c **** 
 214:modules/motor/DJImotor/dji_motor.c **** void DJIMotorEnable(DJIMotorInstance *motor)
 215:modules/motor/DJImotor/dji_motor.c **** {
 572              		.loc 1 215 1 is_stmt 1 view -0
 573              		.cfi_startproc
 574              		@ args = 0, pretend = 0, frame = 0
 575              		@ frame_needed = 0, uses_anonymous_args = 0
 576              		@ link register save eliminated.
 216:modules/motor/DJImotor/dji_motor.c ****     motor->stop_flag = MOTOR_ENALBED;
 577              		.loc 1 216 5 view .LVU184
 578              		.loc 1 216 22 is_stmt 0 view .LVU185
 579 0000 0123     		movs	r3, #1
 580 0002 80F8A731 		strb	r3, [r0, #423]
 217:modules/motor/DJImotor/dji_motor.c **** }
 581              		.loc 1 217 1 view .LVU186
 582 0006 7047     		bx	lr
 583              		.cfi_endproc
 584              	.LFE277:
 586              		.section	.text.DJIMotorInit,"ax",%progbits
 587              		.align	1
 588              		.global	DJIMotorInit
 589              		.syntax unified
 590              		.thumb
 591              		.thumb_func
 593              	DJIMotorInit:
 594              	.LVL38:
 595              	.LFB274:
 159:modules/motor/DJImotor/dji_motor.c ****     DJIMotorInstance *instance = (DJIMotorInstance *)malloc(sizeof(DJIMotorInstance));
 596              		.loc 1 159 1 is_stmt 1 view -0
 597              		.cfi_startproc
 598              		@ args = 0, pretend = 0, frame = 16
 599              		@ frame_needed = 0, uses_anonymous_args = 0
 159:modules/motor/DJImotor/dji_motor.c ****     DJIMotorInstance *instance = (DJIMotorInstance *)malloc(sizeof(DJIMotorInstance));
 600              		.loc 1 159 1 is_stmt 0 view .LVU188
 601 0000 70B5     		push	{r4, r5, r6, lr}
 602              		.cfi_def_cfa_offset 16
 603              		.cfi_offset 4, -16
 604              		.cfi_offset 5, -12
 605              		.cfi_offset 6, -8
 606              		.cfi_offset 14, -4
 607 0002 84B0     		sub	sp, sp, #16
 608              		.cfi_def_cfa_offset 32
 609 0004 0546     		mov	r5, r0
 160:modules/motor/DJImotor/dji_motor.c ****     memset(instance, 0, sizeof(DJIMotorInstance));
 610              		.loc 1 160 5 is_stmt 1 view .LVU189
 160:modules/motor/DJImotor/dji_motor.c ****     memset(instance, 0, sizeof(DJIMotorInstance));
 611              		.loc 1 160 54 is_stmt 0 view .LVU190
 612 0006 4FF4DC70 		mov	r0, #440
 613              	.LVL39:
 160:modules/motor/DJImotor/dji_motor.c ****     memset(instance, 0, sizeof(DJIMotorInstance));
 614              		.loc 1 160 54 view .LVU191
 615 000a FFF7FEFF 		bl	malloc
 616              	.LVL40:
 617 000e 0446     		mov	r4, r0
 618              	.LVL41:
 161:modules/motor/DJImotor/dji_motor.c **** 
ARM GAS  C:\Users\Administrator\AppData\Local\Temp\ccvvr9DW.s 			page 17


 619              		.loc 1 161 5 is_stmt 1 view .LVU192
 620 0010 4FF4DC72 		mov	r2, #440
 621 0014 0021     		movs	r1, #0
 622 0016 FFF7FEFF 		bl	memset
 623              	.LVL42:
 164:modules/motor/DJImotor/dji_motor.c ****     instance->motor_settings = config->controller_setting_init_config; // жӯЈеҸҚиҪ¬,й—ӯзҺҜзұ»еһӢзӯү
 624              		.loc 1 164 5 view .LVU193
 164:modules/motor/DJImotor/dji_motor.c ****     instance->motor_settings = config->controller_setting_init_config; // жӯЈеҸҚиҪ¬,й—ӯзҺҜзұ»еһӢзӯү
 625              		.loc 1 164 34 is_stmt 0 view .LVU194
 626 001a 95F89C30 		ldrb	r3, [r5, #156]	@ zero_extendqisi2
 164:modules/motor/DJImotor/dji_motor.c ****     instance->motor_settings = config->controller_setting_init_config; // жӯЈеҸҚиҪ¬,й—ӯзҺҜзұ»еһӢзӯү
 627              		.loc 1 164 26 view .LVU195
 628 001e 84F8A631 		strb	r3, [r4, #422]
 165:modules/motor/DJImotor/dji_motor.c **** 
 629              		.loc 1 165 5 is_stmt 1 view .LVU196
 165:modules/motor/DJImotor/dji_motor.c **** 
 630              		.loc 1 165 30 is_stmt 0 view .LVU197
 631 0022 04F11803 		add	r3, r4, #24
 632 0026 05F19402 		add	r2, r5, #148
 633 002a 92E80300 		ldm	r2, {r0, r1}
 634 002e 83E80300 		stm	r3, {r0, r1}
 168:modules/motor/DJImotor/dji_motor.c ****     PIDInit(&instance->motor_controller.speed_PID, &config->controller_param_init_config.speed_PID)
 635              		.loc 1 168 5 is_stmt 1 view .LVU198
 636 0032 05F11001 		add	r1, r5, #16
 637 0036 04F13000 		add	r0, r4, #48
 638 003a FFF7FEFF 		bl	PIDInit
 639              	.LVL43:
 169:modules/motor/DJImotor/dji_motor.c ****     PIDInit(&instance->motor_controller.angle_PID, &config->controller_param_init_config.angle_PID)
 640              		.loc 1 169 5 view .LVU199
 641 003e 05F13C01 		add	r1, r5, #60
 642 0042 04F1A800 		add	r0, r4, #168
 643 0046 FFF7FEFF 		bl	PIDInit
 644              	.LVL44:
 170:modules/motor/DJImotor/dji_motor.c ****     instance->motor_controller.other_angle_feedback_ptr = config->controller_param_init_config.othe
 645              		.loc 1 170 5 view .LVU200
 646 004a 05F16801 		add	r1, r5, #104
 647 004e 04F59070 		add	r0, r4, #288
 648 0052 FFF7FEFF 		bl	PIDInit
 649              	.LVL45:
 171:modules/motor/DJImotor/dji_motor.c ****     instance->motor_controller.other_speed_feedback_ptr = config->controller_param_init_config.othe
 650              		.loc 1 171 5 view .LVU201
 171:modules/motor/DJImotor/dji_motor.c ****     instance->motor_controller.other_speed_feedback_ptr = config->controller_param_init_config.othe
 651              		.loc 1 171 95 is_stmt 0 view .LVU202
 652 0056 2B68     		ldr	r3, [r5]
 171:modules/motor/DJImotor/dji_motor.c ****     instance->motor_controller.other_speed_feedback_ptr = config->controller_param_init_config.othe
 653              		.loc 1 171 57 view .LVU203
 654 0058 2362     		str	r3, [r4, #32]
 172:modules/motor/DJImotor/dji_motor.c ****     instance->motor_controller.current_feedforward_ptr = config->controller_param_init_config.curre
 655              		.loc 1 172 5 is_stmt 1 view .LVU204
 172:modules/motor/DJImotor/dji_motor.c ****     instance->motor_controller.current_feedforward_ptr = config->controller_param_init_config.curre
 656              		.loc 1 172 95 is_stmt 0 view .LVU205
 657 005a 6B68     		ldr	r3, [r5, #4]
 172:modules/motor/DJImotor/dji_motor.c ****     instance->motor_controller.current_feedforward_ptr = config->controller_param_init_config.curre
 658              		.loc 1 172 57 view .LVU206
 659 005c 6362     		str	r3, [r4, #36]
 173:modules/motor/DJImotor/dji_motor.c ****     instance->motor_controller.speed_feedforward_ptr = config->controller_param_init_config.speed_f
 660              		.loc 1 173 5 is_stmt 1 view .LVU207
ARM GAS  C:\Users\Administrator\AppData\Local\Temp\ccvvr9DW.s 			page 18


 173:modules/motor/DJImotor/dji_motor.c ****     instance->motor_controller.speed_feedforward_ptr = config->controller_param_init_config.speed_f
 661              		.loc 1 173 94 is_stmt 0 view .LVU208
 662 005e EB68     		ldr	r3, [r5, #12]
 173:modules/motor/DJImotor/dji_motor.c ****     instance->motor_controller.speed_feedforward_ptr = config->controller_param_init_config.speed_f
 663              		.loc 1 173 56 view .LVU209
 664 0060 E362     		str	r3, [r4, #44]
 174:modules/motor/DJImotor/dji_motor.c ****     // еҗҺз»ӯеўһеҠ з”өжңәеүҚйҰҲжҺ§еҲ¶еҷЁ(йҖҹеәҰе’Ңз”өжөҒ)
 665              		.loc 1 174 5 is_stmt 1 view .LVU210
 174:modules/motor/DJImotor/dji_motor.c ****     // еҗҺз»ӯеўһеҠ з”өжңәеүҚйҰҲжҺ§еҲ¶еҷЁ(йҖҹеәҰе’Ңз”өжөҒ)
 666              		.loc 1 174 92 is_stmt 0 view .LVU211
 667 0062 AB68     		ldr	r3, [r5, #8]
 174:modules/motor/DJImotor/dji_motor.c ****     // еҗҺз»ӯеўһеҠ з”өжңәеүҚйҰҲжҺ§еҲ¶еҷЁ(йҖҹеәҰе’Ңз”өжөҒ)
 668              		.loc 1 174 54 view .LVU212
 669 0064 A362     		str	r3, [r4, #40]
 178:modules/motor/DJImotor/dji_motor.c **** 
 670              		.loc 1 178 5 is_stmt 1 view .LVU213
 671 0066 05F1A006 		add	r6, r5, #160
 672 006a 3146     		mov	r1, r6
 673 006c 2046     		mov	r0, r4
 674 006e FFF7FEFF 		bl	MotorSenderGrouping
 675              	.LVL46:
 181:modules/motor/DJImotor/dji_motor.c ****     config->can_init_config.id = instance;                        // set id,eq to address(it is ide
 676              		.loc 1 181 5 view .LVU214
 181:modules/motor/DJImotor/dji_motor.c ****     config->can_init_config.id = instance;                        // set id,eq to address(it is ide
 677              		.loc 1 181 49 is_stmt 0 view .LVU215
 678 0072 134B     		ldr	r3, .L44
 679 0074 C5F8B430 		str	r3, [r5, #180]
 182:modules/motor/DJImotor/dji_motor.c ****     instance->motor_can_instance = CANRegister(&config->can_init_config);
 680              		.loc 1 182 5 is_stmt 1 view .LVU216
 182:modules/motor/DJImotor/dji_motor.c ****     instance->motor_can_instance = CANRegister(&config->can_init_config);
 681              		.loc 1 182 32 is_stmt 0 view .LVU217
 682 0078 C5F8B840 		str	r4, [r5, #184]
 183:modules/motor/DJImotor/dji_motor.c **** 
 683              		.loc 1 183 5 is_stmt 1 view .LVU218
 183:modules/motor/DJImotor/dji_motor.c **** 
 684              		.loc 1 183 36 is_stmt 0 view .LVU219
 685 007c 3046     		mov	r0, r6
 686 007e FFF7FEFF 		bl	CANRegister
 687              	.LVL47:
 183:modules/motor/DJImotor/dji_motor.c **** 
 688              		.loc 1 183 34 discriminator 1 view .LVU220
 689 0082 C4F8A001 		str	r0, [r4, #416]
 186:modules/motor/DJImotor/dji_motor.c ****         .callback = DJIMotorLostCallback,
 690              		.loc 1 186 5 is_stmt 1 view .LVU221
 186:modules/motor/DJImotor/dji_motor.c ****         .callback = DJIMotorLostCallback,
 691              		.loc 1 186 26 is_stmt 0 view .LVU222
 692 0086 01A8     		add	r0, sp, #4
 693 0088 0023     		movs	r3, #0
 694 008a 0193     		str	r3, [sp, #4]
 695 008c 4360     		str	r3, [r0, #4]
 696 008e 8360     		str	r3, [r0, #8]
 697 0090 0223     		movs	r3, #2
 698 0092 ADF80430 		strh	r3, [sp, #4]	@ movhi
 699 0096 0B4B     		ldr	r3, .L44+4
 700 0098 0293     		str	r3, [sp, #8]
 701 009a 0394     		str	r4, [sp, #12]
 191:modules/motor/DJImotor/dji_motor.c **** 
ARM GAS  C:\Users\Administrator\AppData\Local\Temp\ccvvr9DW.s 			page 19


 702              		.loc 1 191 5 is_stmt 1 view .LVU223
 191:modules/motor/DJImotor/dji_motor.c **** 
 703              		.loc 1 191 24 is_stmt 0 view .LVU224
 704 009c FFF7FEFF 		bl	DaemonRegister
 705              	.LVL48:
 191:modules/motor/DJImotor/dji_motor.c **** 
 706              		.loc 1 191 22 discriminator 1 view .LVU225
 707 00a0 C4F8AC01 		str	r0, [r4, #428]
 193:modules/motor/DJImotor/dji_motor.c ****     dji_motor_instance[idx++] = instance;
 708              		.loc 1 193 5 is_stmt 1 view .LVU226
 709 00a4 2046     		mov	r0, r4
 710 00a6 FFF7FEFF 		bl	DJIMotorEnable
 711              	.LVL49:
 194:modules/motor/DJImotor/dji_motor.c ****     return instance;
 712              		.loc 1 194 5 view .LVU227
 194:modules/motor/DJImotor/dji_motor.c ****     return instance;
 713              		.loc 1 194 27 is_stmt 0 view .LVU228
 714 00aa 074A     		ldr	r2, .L44+8
 715 00ac 1378     		ldrb	r3, [r2]	@ zero_extendqisi2
 716 00ae 591C     		adds	r1, r3, #1
 717 00b0 1170     		strb	r1, [r2]
 194:modules/motor/DJImotor/dji_motor.c ****     return instance;
 718              		.loc 1 194 31 view .LVU229
 719 00b2 064A     		ldr	r2, .L44+12
 720 00b4 42F82340 		str	r4, [r2, r3, lsl #2]
 195:modules/motor/DJImotor/dji_motor.c **** }
 721              		.loc 1 195 5 is_stmt 1 view .LVU230
 196:modules/motor/DJImotor/dji_motor.c **** 
 722              		.loc 1 196 1 is_stmt 0 view .LVU231
 723 00b8 2046     		mov	r0, r4
 724 00ba 04B0     		add	sp, sp, #16
 725              		.cfi_def_cfa_offset 16
 726              		@ sp needed
 727 00bc 70BD     		pop	{r4, r5, r6, pc}
 728              	.LVL50:
 729              	.L45:
 196:modules/motor/DJImotor/dji_motor.c **** 
 730              		.loc 1 196 1 view .LVU232
 731 00be 00BF     		.align	2
 732              	.L44:
 733 00c0 00000000 		.word	DecodeDJIMotor
 734 00c4 00000000 		.word	DJIMotorLostCallback
 735 00c8 00000000 		.word	idx
 736 00cc 00000000 		.word	dji_motor_instance
 737              		.cfi_endproc
 738              	.LFE274:
 740              		.section	.text.DJIMotorIsOnline,"ax",%progbits
 741              		.align	1
 742              		.global	DJIMotorIsOnline
 743              		.syntax unified
 744              		.thumb
 745              		.thumb_func
 747              	DJIMotorIsOnline:
 748              	.LVL51:
 749              	.LFB278:
 218:modules/motor/DJImotor/dji_motor.c **** 
 219:modules/motor/DJImotor/dji_motor.c **** void DJIMotorIsOnline(DJIMotorInstance *motor)
ARM GAS  C:\Users\Administrator\AppData\Local\Temp\ccvvr9DW.s 			page 20


 220:modules/motor/DJImotor/dji_motor.c **** {
 750              		.loc 1 220 1 is_stmt 1 view -0
 751              		.cfi_startproc
 752              		@ args = 0, pretend = 0, frame = 0
 753              		@ frame_needed = 0, uses_anonymous_args = 0
 754              		.loc 1 220 1 is_stmt 0 view .LVU234
 755 0000 10B5     		push	{r4, lr}
 756              		.cfi_def_cfa_offset 8
 757              		.cfi_offset 4, -8
 758              		.cfi_offset 14, -4
 759 0002 0446     		mov	r4, r0
 221:modules/motor/DJImotor/dji_motor.c ****     if (DaemonIsOnline(motor->daemon) > 0)
 760              		.loc 1 221 5 is_stmt 1 view .LVU235
 761              		.loc 1 221 9 is_stmt 0 view .LVU236
 762 0004 D0F8AC01 		ldr	r0, [r0, #428]
 763              	.LVL52:
 764              		.loc 1 221 9 view .LVU237
 765 0008 FFF7FEFF 		bl	DaemonIsOnline
 766              	.LVL53:
 767              		.loc 1 221 8 discriminator 1 view .LVU238
 768 000c 18B1     		cbz	r0, .L47
 222:modules/motor/DJImotor/dji_motor.c ****         motor->online_flag = MOTOR_ONLINE;
 769              		.loc 1 222 9 is_stmt 1 view .LVU239
 770              		.loc 1 222 28 is_stmt 0 view .LVU240
 771 000e 0023     		movs	r3, #0
 772 0010 84F8A831 		strb	r3, [r4, #424]
 773              	.L46:
 223:modules/motor/DJImotor/dji_motor.c ****     else
 224:modules/motor/DJImotor/dji_motor.c ****         motor->online_flag = MOTOR_OFFLINE;
 225:modules/motor/DJImotor/dji_motor.c **** }
 774              		.loc 1 225 1 view .LVU241
 775 0014 10BD     		pop	{r4, pc}
 776              	.LVL54:
 777              	.L47:
 224:modules/motor/DJImotor/dji_motor.c **** }
 778              		.loc 1 224 9 is_stmt 1 view .LVU242
 224:modules/motor/DJImotor/dji_motor.c **** }
 779              		.loc 1 224 28 is_stmt 0 view .LVU243
 780 0016 0123     		movs	r3, #1
 781 0018 84F8A831 		strb	r3, [r4, #424]
 782              		.loc 1 225 1 view .LVU244
 783 001c FAE7     		b	.L46
 784              		.cfi_endproc
 785              	.LFE278:
 787              		.section	.text.DJIMotorOuterLoop,"ax",%progbits
 788              		.align	1
 789              		.global	DJIMotorOuterLoop
 790              		.syntax unified
 791              		.thumb
 792              		.thumb_func
 794              	DJIMotorOuterLoop:
 795              	.LVL55:
 796              	.LFB279:
 226:modules/motor/DJImotor/dji_motor.c **** 
 227:modules/motor/DJImotor/dji_motor.c **** /* дҝ®ж”№з”өжңәзҡ„е®һйҷ…еӨ–зҺҜеҜ№иұЎ */
 228:modules/motor/DJImotor/dji_motor.c **** void DJIMotorOuterLoop(DJIMotorInstance *motor, Closeloop_Type_e outer_loop)
 229:modules/motor/DJImotor/dji_motor.c **** {
ARM GAS  C:\Users\Administrator\AppData\Local\Temp\ccvvr9DW.s 			page 21


 797              		.loc 1 229 1 is_stmt 1 view -0
 798              		.cfi_startproc
 799              		@ args = 0, pretend = 0, frame = 0
 800              		@ frame_needed = 0, uses_anonymous_args = 0
 801              		@ link register save eliminated.
 230:modules/motor/DJImotor/dji_motor.c ****     motor->motor_settings.outer_loop_type = outer_loop;
 802              		.loc 1 230 5 view .LVU246
 803              		.loc 1 230 43 is_stmt 0 view .LVU247
 804 0000 0176     		strb	r1, [r0, #24]
 231:modules/motor/DJImotor/dji_motor.c **** }
 805              		.loc 1 231 1 view .LVU248
 806 0002 7047     		bx	lr
 807              		.cfi_endproc
 808              	.LFE279:
 810              		.section	.text.DJIMotorCloseLoop,"ax",%progbits
 811              		.align	1
 812              		.global	DJIMotorCloseLoop
 813              		.syntax unified
 814              		.thumb
 815              		.thumb_func
 817              	DJIMotorCloseLoop:
 818              	.LVL56:
 819              	.LFB280:
 232:modules/motor/DJImotor/dji_motor.c **** 
 233:modules/motor/DJImotor/dji_motor.c **** /* дҝ®ж”№з”өжңәзҡ„е®һйҷ…еӨ–зҺҜеҜ№иұЎ */
 234:modules/motor/DJImotor/dji_motor.c **** void DJIMotorCloseLoop(DJIMotorInstance *motor, Closeloop_Type_e outer_loop)
 235:modules/motor/DJImotor/dji_motor.c **** {
 820              		.loc 1 235 1 is_stmt 1 view -0
 821              		.cfi_startproc
 822              		@ args = 0, pretend = 0, frame = 0
 823              		@ frame_needed = 0, uses_anonymous_args = 0
 824              		@ link register save eliminated.
 236:modules/motor/DJImotor/dji_motor.c ****     motor->motor_settings.close_loop_type = outer_loop;
 825              		.loc 1 236 5 view .LVU250
 826              		.loc 1 236 43 is_stmt 0 view .LVU251
 827 0000 4176     		strb	r1, [r0, #25]
 237:modules/motor/DJImotor/dji_motor.c **** }
 828              		.loc 1 237 1 view .LVU252
 829 0002 7047     		bx	lr
 830              		.cfi_endproc
 831              	.LFE280:
 833              		.section	.text.DJIMotorSetRef,"ax",%progbits
 834              		.align	1
 835              		.global	DJIMotorSetRef
 836              		.syntax unified
 837              		.thumb
 838              		.thumb_func
 840              	DJIMotorSetRef:
 841              	.LVL57:
 842              	.LFB281:
 238:modules/motor/DJImotor/dji_motor.c **** 
 239:modules/motor/DJImotor/dji_motor.c **** // и®ҫзҪ®еҸӮиҖғеҖј
 240:modules/motor/DJImotor/dji_motor.c **** void DJIMotorSetRef(DJIMotorInstance *motor, float ref)
 241:modules/motor/DJImotor/dji_motor.c **** {
 843              		.loc 1 241 1 is_stmt 1 view -0
 844              		.cfi_startproc
 845              		@ args = 0, pretend = 0, frame = 0
ARM GAS  C:\Users\Administrator\AppData\Local\Temp\ccvvr9DW.s 			page 22


 846              		@ frame_needed = 0, uses_anonymous_args = 0
 847              		@ link register save eliminated.
 242:modules/motor/DJImotor/dji_motor.c ****     motor->motor_controller.pid_ref = ref;
 848              		.loc 1 242 5 view .LVU254
 849              		.loc 1 242 37 is_stmt 0 view .LVU255
 850 0000 80ED660A 		vstr.32	s0, [r0, #408]
 243:modules/motor/DJImotor/dji_motor.c **** }
 851              		.loc 1 243 1 view .LVU256
 852 0004 7047     		bx	lr
 853              		.cfi_endproc
 854              	.LFE281:
 856              		.section	.text.DJIMotorControl,"ax",%progbits
 857              		.align	1
 858              		.global	DJIMotorControl
 859              		.syntax unified
 860              		.thumb
 861              		.thumb_func
 863              	DJIMotorControl:
 864              	.LFB282:
 244:modules/motor/DJImotor/dji_motor.c **** 
 245:modules/motor/DJImotor/dji_motor.c **** // дёәжүҖжңүз”өжңәе®һдҫӢи®Ўз®—дёүзҺҜPID,еҸ‘йҖҒжҺ§еҲ¶жҠҘж–Ү
 246:modules/motor/DJImotor/dji_motor.c **** void DJIMotorControl()
 247:modules/motor/DJImotor/dji_motor.c **** {
 865              		.loc 1 247 1 is_stmt 1 view -0
 866              		.cfi_startproc
 867              		@ args = 0, pretend = 0, frame = 0
 868              		@ frame_needed = 0, uses_anonymous_args = 0
 869 0000 70B5     		push	{r4, r5, r6, lr}
 870              		.cfi_def_cfa_offset 16
 871              		.cfi_offset 4, -16
 872              		.cfi_offset 5, -12
 873              		.cfi_offset 6, -8
 874              		.cfi_offset 14, -4
 248:modules/motor/DJImotor/dji_motor.c ****     // зӣҙжҺҘдҝқеӯҳдёҖж¬ЎжҢҮй’Ҳеј•з”Ёд»ҺиҖҢеҮҸе°Ҹи®ҝеӯҳзҡ„ејҖй”Җ,еҗҢж ·еҸҜд»ҘжҸҗй«ҳеҸҜиҜ»жҖ§
 249:modules/motor/DJImotor/dji_motor.c ****     uint8_t group, num; // з”өжңәз»„еҸ·е’Ңз»„еҶ…зј–еҸ·
 875              		.loc 1 249 5 view .LVU258
 250:modules/motor/DJImotor/dji_motor.c ****     int16_t set;        // з”өжңәжҺ§еҲ¶CANеҸ‘йҖҒи®ҫе®ҡеҖј
 876              		.loc 1 250 5 view .LVU259
 251:modules/motor/DJImotor/dji_motor.c ****     DJIMotorInstance *motor;
 877              		.loc 1 251 5 view .LVU260
 252:modules/motor/DJImotor/dji_motor.c ****     Motor_Control_Setting_s *motor_setting; // з”өжңәжҺ§еҲ¶еҸӮж•°
 878              		.loc 1 252 5 view .LVU261
 253:modules/motor/DJImotor/dji_motor.c ****     Motor_Controller_s *motor_controller;   // з”өжңәжҺ§еҲ¶еҷЁ
 879              		.loc 1 253 5 view .LVU262
 254:modules/motor/DJImotor/dji_motor.c ****     DJI_Motor_Measure_s *measure;           // з”өжңәжөӢйҮҸеҖј
 880              		.loc 1 254 5 view .LVU263
 255:modules/motor/DJImotor/dji_motor.c ****     float pid_measure, pid_ref;             // з”өжңәPIDжөӢйҮҸеҖје’Ңи®ҫе®ҡеҖј
 881              		.loc 1 255 5 view .LVU264
 256:modules/motor/DJImotor/dji_motor.c **** 
 257:modules/motor/DJImotor/dji_motor.c ****     // йҒҚеҺҶжүҖжңүз”өжңәе®һдҫӢ,иҝӣиЎҢдёІзә§PIDзҡ„и®Ўз®—е№¶и®ҫзҪ®еҸ‘йҖҒжҠҘж–Үзҡ„еҖј
 258:modules/motor/DJImotor/dji_motor.c ****     for (size_t i = 0; i < idx; ++i)
 882              		.loc 1 258 5 view .LVU265
 883              	.LBB6:
 884              		.loc 1 258 10 view .LVU266
 885              	.LVL58:
 886              		.loc 1 258 17 is_stmt 0 view .LVU267
 887 0002 0025     		movs	r5, #0
ARM GAS  C:\Users\Administrator\AppData\Local\Temp\ccvvr9DW.s 			page 23


 888              		.loc 1 258 5 view .LVU268
 889 0004 50E0     		b	.L54
 890              	.LVL59:
 891              	.L78:
 259:modules/motor/DJImotor/dji_motor.c ****     { // еҮҸе°Ҹи®ҝеӯҳејҖй”Җ,е…ҲдҝқеӯҳжҢҮй’Ҳеј•з”Ё
 260:modules/motor/DJImotor/dji_motor.c ****         motor = dji_motor_instance[i];
 261:modules/motor/DJImotor/dji_motor.c ****         motor_setting = &motor->motor_settings;
 262:modules/motor/DJImotor/dji_motor.c ****         motor_controller = &motor->motor_controller;
 263:modules/motor/DJImotor/dji_motor.c ****         measure = &motor->measure;
 264:modules/motor/DJImotor/dji_motor.c ****         pid_ref = motor_controller->pid_ref; // дҝқеӯҳи®ҫе®ҡеҖј,йҳІжӯўmotor_controller->pid_refеңЁи
 265:modules/motor/DJImotor/dji_motor.c ****         if (motor_setting->motor_reverse_flag == MOTOR_DIRECTION_REVERSE && (motor_setting->outer_l
 892              		.loc 1 265 91 discriminator 1 view .LVU269
 893 0006 237E     		ldrb	r3, [r4, #24]	@ zero_extendqisi2
 894              		.loc 1 265 74 discriminator 1 view .LVU270
 895 0008 13F0060F 		tst	r3, #6
 896 000c 58D0     		beq	.L55
 266:modules/motor/DJImotor/dji_motor.c ****             pid_ref *= -1; // и®ҫзҪ®еҸҚиҪ¬
 897              		.loc 1 266 13 is_stmt 1 view .LVU271
 898              		.loc 1 266 21 is_stmt 0 view .LVU272
 899 000e F1EE600A 		vneg.f32	s1, s1
 900              	.LVL60:
 901              		.loc 1 266 21 view .LVU273
 902 0012 55E0     		b	.L55
 903              	.LVL61:
 904              	.L79:
 267:modules/motor/DJImotor/dji_motor.c **** 
 268:modules/motor/DJImotor/dji_motor.c ****         // pid_refдјҡйЎәж¬ЎйҖҡиҝҮиў«еҗҜз”Ёзҡ„й—ӯзҺҜе……еҪ“ж•°жҚ®зҡ„иҪҪдҪ“
 269:modules/motor/DJImotor/dji_motor.c ****         // и®Ўз®—дҪҚзҪ®зҺҜ,еҸӘжңүеҗҜз”ЁдҪҚзҪ®зҺҜдё”еӨ–еұӮй—ӯзҺҜдёәдҪҚзҪ®ж—¶дјҡи®Ўз®—йҖҹеәҰзҺҜиҫ“еҮә
 270:modules/motor/DJImotor/dji_motor.c ****         if ((motor_setting->close_loop_type & ANGLE_LOOP) && motor_setting->outer_loop_type == ANGL
 271:modules/motor/DJImotor/dji_motor.c ****         {
 272:modules/motor/DJImotor/dji_motor.c ****             if (motor_setting->angle_feedback_source == OTHER_FEED)
 905              		.loc 1 272 13 is_stmt 1 view .LVU274
 906              		.loc 1 272 30 is_stmt 0 view .LVU275
 907 0014 237F     		ldrb	r3, [r4, #28]	@ zero_extendqisi2
 908              		.loc 1 272 16 view .LVU276
 909 0016 012B     		cmp	r3, #1
 910 0018 08D0     		beq	.L72
 273:modules/motor/DJImotor/dji_motor.c ****                 pid_measure = *motor_controller->other_angle_feedback_ptr;
 274:modules/motor/DJImotor/dji_motor.c ****             else
 275:modules/motor/DJImotor/dji_motor.c ****                 pid_measure = measure->total_angle; // MOTOR_FEED,еҜ№total angleй—ӯзҺҜ,йҳІжӯўеңЁиҫ№
 911              		.loc 1 275 17 is_stmt 1 view .LVU277
 912              		.loc 1 275 29 is_stmt 0 view .LVU278
 913 001a 94ED040A 		vldr.32	s0, [r4, #16]
 914              	.L58:
 915              	.LVL62:
 276:modules/motor/DJImotor/dji_motor.c ****             // жӣҙж–°pid_refиҝӣе…ҘдёӢдёҖдёӘзҺҜ
 277:modules/motor/DJImotor/dji_motor.c ****             pid_ref = PIDCalculate(&motor_controller->angle_PID, pid_measure, pid_ref);
 916              		.loc 1 277 13 is_stmt 1 view .LVU279
 917              		.loc 1 277 23 is_stmt 0 view .LVU280
 918 001e 04F59070 		add	r0, r4, #288
 919 0022 FFF7FEFF 		bl	PIDCalculate
 920              	.LVL63:
 921              		.loc 1 277 23 view .LVU281
 922 0026 F0EE400A 		vmov.f32	s1, s0
 923 002a 50E0     		b	.L56
 924              	.LVL64:
 925              	.L72:
ARM GAS  C:\Users\Administrator\AppData\Local\Temp\ccvvr9DW.s 			page 24


 273:modules/motor/DJImotor/dji_motor.c ****                 pid_measure = *motor_controller->other_angle_feedback_ptr;
 926              		.loc 1 273 17 is_stmt 1 view .LVU282
 273:modules/motor/DJImotor/dji_motor.c ****                 pid_measure = *motor_controller->other_angle_feedback_ptr;
 927              		.loc 1 273 48 is_stmt 0 view .LVU283
 928 002c 236A     		ldr	r3, [r4, #32]
 273:modules/motor/DJImotor/dji_motor.c ****                 pid_measure = *motor_controller->other_angle_feedback_ptr;
 929              		.loc 1 273 29 view .LVU284
 930 002e 93ED000A 		vldr.32	s0, [r3]
 931              	.LVL65:
 273:modules/motor/DJImotor/dji_motor.c ****                 pid_measure = *motor_controller->other_angle_feedback_ptr;
 932              		.loc 1 273 29 view .LVU285
 933 0032 F4E7     		b	.L58
 934              	.LVL66:
 935              	.L60:
 278:modules/motor/DJImotor/dji_motor.c ****         }
 279:modules/motor/DJImotor/dji_motor.c **** 
 280:modules/motor/DJImotor/dji_motor.c ****         // и®Ўз®—йҖҹеәҰзҺҜ,(еӨ–еұӮй—ӯзҺҜдёәйҖҹеәҰжҲ–дҪҚзҪ®)дё”(еҗҜз”ЁйҖҹеәҰзҺҜ)ж—¶дјҡи®Ўз®—йҖҹеәҰзҺ
 281:modules/motor/DJImotor/dji_motor.c ****         if ((motor_setting->close_loop_type & SPEED_LOOP) && (motor_setting->outer_loop_type & (ANG
 282:modules/motor/DJImotor/dji_motor.c ****         {
 283:modules/motor/DJImotor/dji_motor.c ****             if (motor_setting->feedforward_flag & SPEED_FEEDFORWARD)
 284:modules/motor/DJImotor/dji_motor.c ****                 pid_ref += *motor_controller->speed_feedforward_ptr;
 285:modules/motor/DJImotor/dji_motor.c **** 
 286:modules/motor/DJImotor/dji_motor.c ****             if (motor_setting->speed_feedback_source == OTHER_FEED)
 936              		.loc 1 286 13 is_stmt 1 view .LVU286
 937              		.loc 1 286 30 is_stmt 0 view .LVU287
 938 0034 637F     		ldrb	r3, [r4, #29]	@ zero_extendqisi2
 939              		.loc 1 286 16 view .LVU288
 940 0036 012B     		cmp	r3, #1
 941 0038 5BD0     		beq	.L73
 287:modules/motor/DJImotor/dji_motor.c ****                 pid_measure = *motor_controller->other_speed_feedback_ptr;
 288:modules/motor/DJImotor/dji_motor.c ****             else // MOTOR_FEED
 289:modules/motor/DJImotor/dji_motor.c ****                 pid_measure = measure->speed_aps;
 942              		.loc 1 289 17 is_stmt 1 view .LVU289
 943              		.loc 1 289 29 is_stmt 0 view .LVU290
 944 003a 94ED020A 		vldr.32	s0, [r4, #8]
 945              	.L62:
 946              	.LVL67:
 290:modules/motor/DJImotor/dji_motor.c ****             // жӣҙж–°pid_refиҝӣе…ҘдёӢдёҖдёӘзҺҜ
 291:modules/motor/DJImotor/dji_motor.c ****             pid_ref = PIDCalculate(&motor_controller->speed_PID, pid_measure, pid_ref);
 947              		.loc 1 291 13 is_stmt 1 view .LVU291
 948              		.loc 1 291 23 is_stmt 0 view .LVU292
 949 003e 04F1A800 		add	r0, r4, #168
 950 0042 FFF7FEFF 		bl	PIDCalculate
 951              	.LVL68:
 952              		.loc 1 291 23 view .LVU293
 953 0046 F0EE400A 		vmov.f32	s1, s0
 954              	.LVL69:
 955              	.L59:
 292:modules/motor/DJImotor/dji_motor.c ****         }
 293:modules/motor/DJImotor/dji_motor.c **** 
 294:modules/motor/DJImotor/dji_motor.c ****         // и®Ўз®—з”өжөҒзҺҜ,зӣ®еүҚеҸӘиҰҒеҗҜз”ЁдәҶз”өжөҒзҺҜе°ұи®Ўз®—,дёҚз®ЎеӨ–еұӮй—ӯзҺҜжҳҜд»Җд№Ҳ,е№¶д
 295:modules/motor/DJImotor/dji_motor.c ****         if (motor_setting->feedforward_flag & CURRENT_FEEDFORWARD)
 956              		.loc 1 295 9 is_stmt 1 view .LVU294
 957              		.loc 1 295 26 is_stmt 0 view .LVU295
 958 004a A37F     		ldrb	r3, [r4, #30]	@ zero_extendqisi2
 959              		.loc 1 295 12 view .LVU296
 960 004c 13F0010F 		tst	r3, #1
ARM GAS  C:\Users\Administrator\AppData\Local\Temp\ccvvr9DW.s 			page 25


 961 0050 04D0     		beq	.L63
 296:modules/motor/DJImotor/dji_motor.c ****             pid_ref += *motor_controller->current_feedforward_ptr;
 962              		.loc 1 296 13 is_stmt 1 view .LVU297
 963              		.loc 1 296 41 is_stmt 0 view .LVU298
 964 0052 E36A     		ldr	r3, [r4, #44]
 965              		.loc 1 296 24 view .LVU299
 966 0054 D3ED007A 		vldr.32	s15, [r3]
 967              		.loc 1 296 21 view .LVU300
 968 0058 70EEA70A 		vadd.f32	s1, s1, s15
 969              	.LVL70:
 970              	.L63:
 297:modules/motor/DJImotor/dji_motor.c ****         if (motor_setting->close_loop_type & CURRENT_LOOP)
 971              		.loc 1 297 9 is_stmt 1 view .LVU301
 972              		.loc 1 297 26 is_stmt 0 view .LVU302
 973 005c 637E     		ldrb	r3, [r4, #25]	@ zero_extendqisi2
 974              		.loc 1 297 12 view .LVU303
 975 005e 13F0010F 		tst	r3, #1
 976 0062 4AD1     		bne	.L74
 977              	.LVL71:
 978              	.L64:
 298:modules/motor/DJImotor/dji_motor.c ****         {
 299:modules/motor/DJImotor/dji_motor.c ****             pid_ref = PIDCalculate(&motor_controller->current_PID, measure->real_current, pid_ref);
 300:modules/motor/DJImotor/dji_motor.c ****         }
 301:modules/motor/DJImotor/dji_motor.c **** 
 302:modules/motor/DJImotor/dji_motor.c ****         if (motor_setting->feedback_reverse_flag == FEEDBACK_DIRECTION_REVERSE && (motor_setting->o
 979              		.loc 1 302 9 is_stmt 1 view .LVU304
 980              		.loc 1 302 26 is_stmt 0 view .LVU305
 981 0064 E37E     		ldrb	r3, [r4, #27]	@ zero_extendqisi2
 982              		.loc 1 302 12 view .LVU306
 983 0066 012B     		cmp	r3, #1
 984 0068 54D0     		beq	.L75
 985              	.LVL72:
 986              	.L65:
 303:modules/motor/DJImotor/dji_motor.c ****             pid_ref *= -1;
 304:modules/motor/DJImotor/dji_motor.c **** 
 305:modules/motor/DJImotor/dji_motor.c ****         // иҺ·еҸ–жңҖз»Ҳиҫ“еҮә,еҠҹзҺҮйҷҗеҲ¶ж—¶зӣҙжҺҘиҫ“еҮәз”өжөҒеҖј
 306:modules/motor/DJImotor/dji_motor.c ****         set = (int16_t)pid_ref;
 987              		.loc 1 306 9 is_stmt 1 view .LVU307
 988              		.loc 1 306 13 is_stmt 0 view .LVU308
 989 006a FDEEE07A 		vcvt.s32.f32	s15, s1
 990 006e 17EE903A 		vmov	r3, s15	@ int
 991              	.LVL73:
 307:modules/motor/DJImotor/dji_motor.c ****         
 308:modules/motor/DJImotor/dji_motor.c ****         // еҲҶз»„еЎ«е…ҘеҸ‘йҖҒж•°жҚ®
 309:modules/motor/DJImotor/dji_motor.c ****         group = motor->sender_group;
 992              		.loc 1 309 9 is_stmt 1 view .LVU309
 993              		.loc 1 309 15 is_stmt 0 view .LVU310
 994 0072 94F8A421 		ldrb	r2, [r4, #420]	@ zero_extendqisi2
 995              	.LVL74:
 310:modules/motor/DJImotor/dji_motor.c ****         num = motor->message_num;
 996              		.loc 1 310 9 is_stmt 1 view .LVU311
 997              		.loc 1 310 13 is_stmt 0 view .LVU312
 998 0076 94F8A5C1 		ldrb	ip, [r4, #421]	@ zero_extendqisi2
 999              	.LVL75:
 311:modules/motor/DJImotor/dji_motor.c ****         sender_assignment[group].tx_buff[2 * num] = (uint8_t)(set >> 8);         // дҪҺе…«дҪҚ
 1000              		.loc 1 311 9 is_stmt 1 view .LVU313
 1001              		.loc 1 311 44 is_stmt 0 view .LVU314
ARM GAS  C:\Users\Administrator\AppData\Local\Temp\ccvvr9DW.s 			page 26


 1002 007a 4FEA4C00 		lsl	r0, ip, #1
 1003              		.loc 1 311 53 view .LVU315
 1004 007e C3F30726 		ubfx	r6, r3, #8, #8
 1005              		.loc 1 311 51 view .LVU316
 1006 0082 02EB021E 		add	lr, r2, r2, lsl #4
 1007 0086 02EB8E0E 		add	lr, r2, lr, lsl #2
 1008 008a 3649     		ldr	r1, .L81
 1009 008c 7144     		add	r1, r1, lr
 1010 008e 01EB4C0E 		add	lr, r1, ip, lsl #1
 1011 0092 8EF82460 		strb	r6, [lr, #36]
 312:modules/motor/DJImotor/dji_motor.c ****         sender_assignment[group].tx_buff[2 * num + 1] = (uint8_t)(set & 0x00ff); // й«ҳе…«дҪҚ
 1012              		.loc 1 312 9 is_stmt 1 view .LVU317
 1013              		.loc 1 312 50 is_stmt 0 view .LVU318
 1014 0096 0130     		adds	r0, r0, #1
 1015              		.loc 1 312 55 view .LVU319
 1016 0098 0144     		add	r1, r1, r0
 1017 009a 81F82430 		strb	r3, [r1, #36]
 313:modules/motor/DJImotor/dji_motor.c **** 
 314:modules/motor/DJImotor/dji_motor.c ****         // иӢҘиҜҘз”өжңәеӨ„дәҺеҒңжӯўзҠ¶жҖҒ,зӣҙжҺҘе°ҶbuffзҪ®йӣ¶
 315:modules/motor/DJImotor/dji_motor.c ****         if (motor->stop_flag == MOTOR_STOP)
 1018              		.loc 1 315 9 is_stmt 1 view .LVU320
 1019              		.loc 1 315 18 is_stmt 0 view .LVU321
 1020 009e 94F8A731 		ldrb	r3, [r4, #423]	@ zero_extendqisi2
 1021              	.LVL76:
 1022              		.loc 1 315 12 view .LVU322
 1023 00a2 002B     		cmp	r3, #0
 1024 00a4 3DD0     		beq	.L76
 1025              	.LVL77:
 1026              	.L66:
 258:modules/motor/DJImotor/dji_motor.c ****     { // еҮҸе°Ҹи®ҝеӯҳејҖй”Җ,е…ҲдҝқеӯҳжҢҮй’Ҳеј•з”Ё
 1027              		.loc 1 258 33 is_stmt 1 discriminator 2 view .LVU323
 1028 00a6 0135     		adds	r5, r5, #1
 1029              	.LVL78:
 1030              	.L54:
 258:modules/motor/DJImotor/dji_motor.c ****     { // еҮҸе°Ҹи®ҝеӯҳејҖй”Җ,е…ҲдҝқеӯҳжҢҮй’Ҳеј•з”Ё
 1031              		.loc 1 258 26 discriminator 1 view .LVU324
 1032 00a8 2F4B     		ldr	r3, .L81+4
 1033 00aa 1B78     		ldrb	r3, [r3]	@ zero_extendqisi2
 1034 00ac AB42     		cmp	r3, r5
 1035 00ae 44D9     		bls	.L77
 260:modules/motor/DJImotor/dji_motor.c ****         motor_setting = &motor->motor_settings;
 1036              		.loc 1 260 9 view .LVU325
 260:modules/motor/DJImotor/dji_motor.c ****         motor_setting = &motor->motor_settings;
 1037              		.loc 1 260 15 is_stmt 0 view .LVU326
 1038 00b0 2E4B     		ldr	r3, .L81+8
 1039 00b2 53F82540 		ldr	r4, [r3, r5, lsl #2]
 1040              	.LVL79:
 261:modules/motor/DJImotor/dji_motor.c ****         motor_controller = &motor->motor_controller;
 1041              		.loc 1 261 9 is_stmt 1 view .LVU327
 262:modules/motor/DJImotor/dji_motor.c ****         measure = &motor->measure;
 1042              		.loc 1 262 9 view .LVU328
 263:modules/motor/DJImotor/dji_motor.c ****         pid_ref = motor_controller->pid_ref; // дҝқеӯҳи®ҫе®ҡеҖј,йҳІжӯўmotor_controller->pid_refеңЁи
 1043              		.loc 1 263 9 view .LVU329
 264:modules/motor/DJImotor/dji_motor.c ****         if (motor_setting->motor_reverse_flag == MOTOR_DIRECTION_REVERSE && (motor_setting->outer_l
 1044              		.loc 1 264 9 view .LVU330
 264:modules/motor/DJImotor/dji_motor.c ****         if (motor_setting->motor_reverse_flag == MOTOR_DIRECTION_REVERSE && (motor_setting->outer_l
 1045              		.loc 1 264 17 is_stmt 0 view .LVU331
ARM GAS  C:\Users\Administrator\AppData\Local\Temp\ccvvr9DW.s 			page 27


 1046 00b6 D4ED660A 		vldr.32	s1, [r4, #408]
 1047              	.LVL80:
 265:modules/motor/DJImotor/dji_motor.c ****             pid_ref *= -1; // и®ҫзҪ®еҸҚиҪ¬
 1048              		.loc 1 265 9 is_stmt 1 view .LVU332
 265:modules/motor/DJImotor/dji_motor.c ****             pid_ref *= -1; // и®ҫзҪ®еҸҚиҪ¬
 1049              		.loc 1 265 26 is_stmt 0 view .LVU333
 1050 00ba A37E     		ldrb	r3, [r4, #26]	@ zero_extendqisi2
 265:modules/motor/DJImotor/dji_motor.c ****             pid_ref *= -1; // и®ҫзҪ®еҸҚиҪ¬
 1051              		.loc 1 265 12 view .LVU334
 1052 00bc 012B     		cmp	r3, #1
 1053 00be A2D0     		beq	.L78
 1054              	.LVL81:
 1055              	.L55:
 270:modules/motor/DJImotor/dji_motor.c ****         {
 1056              		.loc 1 270 9 is_stmt 1 view .LVU335
 270:modules/motor/DJImotor/dji_motor.c ****         {
 1057              		.loc 1 270 27 is_stmt 0 view .LVU336
 1058 00c0 637E     		ldrb	r3, [r4, #25]	@ zero_extendqisi2
 270:modules/motor/DJImotor/dji_motor.c ****         {
 1059              		.loc 1 270 12 view .LVU337
 1060 00c2 13F0040F 		tst	r3, #4
 1061 00c6 02D0     		beq	.L56
 270:modules/motor/DJImotor/dji_motor.c ****         {
 1062              		.loc 1 270 75 discriminator 1 view .LVU338
 1063 00c8 237E     		ldrb	r3, [r4, #24]	@ zero_extendqisi2
 270:modules/motor/DJImotor/dji_motor.c ****         {
 1064              		.loc 1 270 59 discriminator 1 view .LVU339
 1065 00ca 042B     		cmp	r3, #4
 1066 00cc A2D0     		beq	.L79
 1067              	.LVL82:
 1068              	.L56:
 281:modules/motor/DJImotor/dji_motor.c ****         {
 1069              		.loc 1 281 9 is_stmt 1 view .LVU340
 281:modules/motor/DJImotor/dji_motor.c ****         {
 1070              		.loc 1 281 27 is_stmt 0 view .LVU341
 1071 00ce 637E     		ldrb	r3, [r4, #25]	@ zero_extendqisi2
 281:modules/motor/DJImotor/dji_motor.c ****         {
 1072              		.loc 1 281 12 view .LVU342
 1073 00d0 13F0020F 		tst	r3, #2
 1074 00d4 B9D0     		beq	.L59
 281:modules/motor/DJImotor/dji_motor.c ****         {
 1075              		.loc 1 281 76 discriminator 1 view .LVU343
 1076 00d6 237E     		ldrb	r3, [r4, #24]	@ zero_extendqisi2
 281:modules/motor/DJImotor/dji_motor.c ****         {
 1077              		.loc 1 281 59 discriminator 1 view .LVU344
 1078 00d8 13F0060F 		tst	r3, #6
 1079 00dc B5D0     		beq	.L59
 283:modules/motor/DJImotor/dji_motor.c ****                 pid_ref += *motor_controller->speed_feedforward_ptr;
 1080              		.loc 1 283 13 is_stmt 1 view .LVU345
 283:modules/motor/DJImotor/dji_motor.c ****                 pid_ref += *motor_controller->speed_feedforward_ptr;
 1081              		.loc 1 283 30 is_stmt 0 view .LVU346
 1082 00de A37F     		ldrb	r3, [r4, #30]	@ zero_extendqisi2
 283:modules/motor/DJImotor/dji_motor.c ****                 pid_ref += *motor_controller->speed_feedforward_ptr;
 1083              		.loc 1 283 16 view .LVU347
 1084 00e0 13F0020F 		tst	r3, #2
 1085 00e4 A6D0     		beq	.L60
 284:modules/motor/DJImotor/dji_motor.c **** 
ARM GAS  C:\Users\Administrator\AppData\Local\Temp\ccvvr9DW.s 			page 28


 1086              		.loc 1 284 17 is_stmt 1 view .LVU348
 284:modules/motor/DJImotor/dji_motor.c **** 
 1087              		.loc 1 284 45 is_stmt 0 view .LVU349
 1088 00e6 A36A     		ldr	r3, [r4, #40]
 284:modules/motor/DJImotor/dji_motor.c **** 
 1089              		.loc 1 284 28 view .LVU350
 1090 00e8 D3ED007A 		vldr.32	s15, [r3]
 284:modules/motor/DJImotor/dji_motor.c **** 
 1091              		.loc 1 284 25 view .LVU351
 1092 00ec 70EEA70A 		vadd.f32	s1, s1, s15
 1093              	.LVL83:
 284:modules/motor/DJImotor/dji_motor.c **** 
 1094              		.loc 1 284 25 view .LVU352
 1095 00f0 A0E7     		b	.L60
 1096              	.LVL84:
 1097              	.L73:
 287:modules/motor/DJImotor/dji_motor.c ****             else // MOTOR_FEED
 1098              		.loc 1 287 17 is_stmt 1 view .LVU353
 287:modules/motor/DJImotor/dji_motor.c ****             else // MOTOR_FEED
 1099              		.loc 1 287 48 is_stmt 0 view .LVU354
 1100 00f2 636A     		ldr	r3, [r4, #36]
 287:modules/motor/DJImotor/dji_motor.c ****             else // MOTOR_FEED
 1101              		.loc 1 287 29 view .LVU355
 1102 00f4 93ED000A 		vldr.32	s0, [r3]
 1103              	.LVL85:
 287:modules/motor/DJImotor/dji_motor.c ****             else // MOTOR_FEED
 1104              		.loc 1 287 29 view .LVU356
 1105 00f8 A1E7     		b	.L62
 1106              	.LVL86:
 1107              	.L74:
 299:modules/motor/DJImotor/dji_motor.c ****         }
 1108              		.loc 1 299 13 is_stmt 1 view .LVU357
 299:modules/motor/DJImotor/dji_motor.c ****         }
 1109              		.loc 1 299 75 is_stmt 0 view .LVU358
 1110 00fa B4F90C30 		ldrsh	r3, [r4, #12]
 1111 00fe 00EE103A 		vmov	s0, r3	@ int
 299:modules/motor/DJImotor/dji_motor.c ****         }
 1112              		.loc 1 299 23 view .LVU359
 1113 0102 B8EEC00A 		vcvt.f32.s32	s0, s0
 1114 0106 04F13000 		add	r0, r4, #48
 1115 010a FFF7FEFF 		bl	PIDCalculate
 1116              	.LVL87:
 299:modules/motor/DJImotor/dji_motor.c ****         }
 1117              		.loc 1 299 23 view .LVU360
 1118 010e F0EE400A 		vmov.f32	s1, s0
 1119 0112 A7E7     		b	.L64
 1120              	.LVL88:
 1121              	.L75:
 302:modules/motor/DJImotor/dji_motor.c ****             pid_ref *= -1;
 1122              		.loc 1 302 97 discriminator 1 view .LVU361
 1123 0114 237E     		ldrb	r3, [r4, #24]	@ zero_extendqisi2
 302:modules/motor/DJImotor/dji_motor.c ****             pid_ref *= -1;
 1124              		.loc 1 302 80 discriminator 1 view .LVU362
 1125 0116 13F0060F 		tst	r3, #6
 1126 011a A6D0     		beq	.L65
 303:modules/motor/DJImotor/dji_motor.c **** 
 1127              		.loc 1 303 13 is_stmt 1 view .LVU363
ARM GAS  C:\Users\Administrator\AppData\Local\Temp\ccvvr9DW.s 			page 29


 303:modules/motor/DJImotor/dji_motor.c **** 
 1128              		.loc 1 303 21 is_stmt 0 view .LVU364
 1129 011c F1EE600A 		vneg.f32	s1, s1
 1130              	.LVL89:
 303:modules/motor/DJImotor/dji_motor.c **** 
 1131              		.loc 1 303 21 view .LVU365
 1132 0120 A3E7     		b	.L65
 1133              	.LVL90:
 1134              	.L76:
 316:modules/motor/DJImotor/dji_motor.c ****             memset(sender_assignment[group].tx_buff + 2 * num, 0, sizeof(uint16_t));
 1135              		.loc 1 316 13 is_stmt 1 view .LVU366
 1136              		.loc 1 316 20 is_stmt 0 view .LVU367
 1137 0122 02EB0213 		add	r3, r2, r2, lsl #4
 1138 0126 02EB8302 		add	r2, r2, r3, lsl #2
 1139 012a 2032     		adds	r2, r2, #32
 1140 012c 0D4B     		ldr	r3, .L81
 1141 012e 1A44     		add	r2, r2, r3
 1142 0130 0432     		adds	r2, r2, #4
 1143              		.loc 1 316 13 view .LVU368
 1144 0132 0023     		movs	r3, #0
 1145 0134 22F81C30 		strh	r3, [r2, ip, lsl #1]	@ unaligned
 1146              	.LVL91:
 1147              		.loc 1 316 13 view .LVU369
 1148 0138 B5E7     		b	.L66
 1149              	.LVL92:
 1150              	.L77:
 1151              		.loc 1 316 13 view .LVU370
 1152              	.LBE6:
 1153              	.LBB7:
 317:modules/motor/DJImotor/dji_motor.c ****     }
 318:modules/motor/DJImotor/dji_motor.c **** 
 319:modules/motor/DJImotor/dji_motor.c ****     // йҒҚеҺҶflag,жЈҖжҹҘжҳҜеҗҰиҰҒеҸ‘йҖҒиҝҷдёҖеё§жҠҘж–Ү
 320:modules/motor/DJImotor/dji_motor.c ****     for (size_t i = 0; i < 6; ++i)
 1154              		.loc 1 320 17 view .LVU371
 1155 013a 0024     		movs	r4, #0
 1156 013c 00E0     		b	.L68
 1157              	.LVL93:
 1158              	.L69:
 1159              		.loc 1 320 31 is_stmt 1 discriminator 2 view .LVU372
 1160 013e 0134     		adds	r4, r4, #1
 1161              	.LVL94:
 1162              	.L68:
 1163              		.loc 1 320 26 discriminator 1 view .LVU373
 1164 0140 052C     		cmp	r4, #5
 1165 0142 0ED8     		bhi	.L80
 321:modules/motor/DJImotor/dji_motor.c ****     {
 322:modules/motor/DJImotor/dji_motor.c ****         if (sender_enable_flag[i])
 1166              		.loc 1 322 9 view .LVU374
 1167              		.loc 1 322 31 is_stmt 0 view .LVU375
 1168 0144 0A4B     		ldr	r3, .L81+12
 1169 0146 1B5D     		ldrb	r3, [r3, r4]	@ zero_extendqisi2
 1170              		.loc 1 322 12 view .LVU376
 1171 0148 002B     		cmp	r3, #0
 1172 014a F8D0     		beq	.L69
 323:modules/motor/DJImotor/dji_motor.c ****         {
 324:modules/motor/DJImotor/dji_motor.c ****             CANTransmit(&sender_assignment[i], 1);
 1173              		.loc 1 324 13 is_stmt 1 view .LVU377
ARM GAS  C:\Users\Administrator\AppData\Local\Temp\ccvvr9DW.s 			page 30


 1174 014c 04EB0413 		add	r3, r4, r4, lsl #4
 1175 0150 04EB8303 		add	r3, r4, r3, lsl #2
 1176 0154 B7EE000A 		vmov.f32	s0, #1.0e+0
 1177 0158 0248     		ldr	r0, .L81
 1178 015a 1844     		add	r0, r0, r3
 1179 015c FFF7FEFF 		bl	CANTransmit
 1180              	.LVL95:
 1181 0160 EDE7     		b	.L69
 1182              	.L80:
 1183              	.LBE7:
 325:modules/motor/DJImotor/dji_motor.c ****         }
 326:modules/motor/DJImotor/dji_motor.c ****     }
 327:modules/motor/DJImotor/dji_motor.c **** }
 1184              		.loc 1 327 1 is_stmt 0 view .LVU378
 1185 0162 70BD     		pop	{r4, r5, r6, pc}
 1186              	.LVL96:
 1187              	.L82:
 1188              		.loc 1 327 1 view .LVU379
 1189              		.align	2
 1190              	.L81:
 1191 0164 00000000 		.word	sender_assignment
 1192 0168 00000000 		.word	idx
 1193 016c 00000000 		.word	dji_motor_instance
 1194 0170 00000000 		.word	sender_enable_flag
 1195              		.cfi_endproc
 1196              	.LFE282:
 1198              		.section	.bss.sender_enable_flag,"aw",%nobits
 1199              		.align	2
 1202              	sender_enable_flag:
 1203 0000 00000000 		.space	6
 1203      0000
 1204              		.section	.data.sender_assignment,"aw"
 1205              		.align	2
 1208              	sender_assignment:
 1209 0000 00000000 		.word	hcan1
 1210 0004 FF010000 		.word	511
 1211 0008 00000000 		.space	4
 1212 000c 00000000 		.word	0
 1213 0010 00000000 		.word	0
 1214 0014 08000000 		.word	8
 1215 0018 00000000 		.space	4
 1216 001c 00000000 		.space	8
 1216      00000000 
 1217 0024 0000     		.ascii	"\000\000"
 1218 0026 00000000 		.space	6
 1218      0000
 1219 002c 00000000 		.space	25
 1219      00000000 
 1219      00000000 
 1219      00000000 
 1219      00000000 
 1220 0045 00000000 		.4byte	hcan1
 1221 0049 00020000 		.4byte	512
 1222 004d 00000000 		.space	4
 1223 0051 00000000 		.4byte	0
 1224 0055 00000000 		.4byte	0
 1225 0059 08000000 		.4byte	8
ARM GAS  C:\Users\Administrator\AppData\Local\Temp\ccvvr9DW.s 			page 31


 1226 005d 00000000 		.space	4
 1227 0061 00000000 		.space	8
 1227      00000000 
 1228 0069 0000     		.ascii	"\000\000"
 1229 006b 00000000 		.space	6
 1229      0000
 1230 0071 00000000 		.space	25
 1230      00000000 
 1230      00000000 
 1230      00000000 
 1230      00000000 
 1231 008a 00000000 		.4byte	hcan1
 1232 008e FF020000 		.4byte	767
 1233 0092 00000000 		.space	4
 1234 0096 00000000 		.4byte	0
 1235 009a 00000000 		.4byte	0
 1236 009e 08000000 		.4byte	8
 1237 00a2 00000000 		.space	4
 1238 00a6 00000000 		.space	8
 1238      00000000 
 1239 00ae 0000     		.ascii	"\000\000"
 1240 00b0 00000000 		.space	6
 1240      0000
 1241 00b6 00000000 		.space	25
 1241      00000000 
 1241      00000000 
 1241      00000000 
 1241      00000000 
 1242 00cf 00000000 		.4byte	hcan2
 1243 00d3 FF010000 		.4byte	511
 1244 00d7 00000000 		.space	4
 1245 00db 00000000 		.4byte	0
 1246 00df 00000000 		.4byte	0
 1247 00e3 08000000 		.4byte	8
 1248 00e7 00000000 		.space	4
 1249 00eb 00000000 		.space	8
 1249      00000000 
 1250 00f3 0000     		.ascii	"\000\000"
 1251 00f5 00000000 		.space	6
 1251      0000
 1252 00fb 00000000 		.space	25
 1252      00000000 
 1252      00000000 
 1252      00000000 
 1252      00000000 
 1253 0114 00000000 		.word	hcan2
 1254 0118 00020000 		.word	512
 1255 011c 00000000 		.space	4
 1256 0120 00000000 		.word	0
 1257 0124 00000000 		.word	0
 1258 0128 08000000 		.word	8
 1259 012c 00000000 		.space	4
 1260 0130 00000000 		.space	8
 1260      00000000 
 1261 0138 0000     		.ascii	"\000\000"
 1262 013a 00000000 		.space	6
 1262      0000
ARM GAS  C:\Users\Administrator\AppData\Local\Temp\ccvvr9DW.s 			page 32


 1263 0140 00000000 		.space	25
 1263      00000000 
 1263      00000000 
 1263      00000000 
 1263      00000000 
 1264 0159 00000000 		.4byte	hcan2
 1265 015d FF020000 		.4byte	767
 1266 0161 00000000 		.space	4
 1267 0165 00000000 		.4byte	0
 1268 0169 00000000 		.4byte	0
 1269 016d 08000000 		.4byte	8
 1270 0171 00000000 		.space	4
 1271 0175 00000000 		.space	8
 1271      00000000 
 1272 017d 0000     		.ascii	"\000\000"
 1273 017f 00000000 		.space	6
 1273      0000
 1274 0185 00000000 		.space	25
 1274      00000000 
 1274      00000000 
 1274      00000000 
 1274      00000000 
 1275              		.section	.bss.dji_motor_instance,"aw",%nobits
 1276              		.align	2
 1279              	dji_motor_instance:
 1280 0000 00000000 		.space	48
 1280      00000000 
 1280      00000000 
 1280      00000000 
 1280      00000000 
 1281              		.section	.bss.idx,"aw",%nobits
 1284              	idx:
 1285 0000 00       		.space	1
 1286              		.text
 1287              	.Letext0:
 1288              		.file 2 "C:/Users/Administrator/AppData/Roaming/Code/User/globalStorage/bmd.stm32-for-vscode/@xpac
 1289              		.file 3 "C:/Users/Administrator/AppData/Roaming/Code/User/globalStorage/bmd.stm32-for-vscode/@xpac
 1290              		.file 4 "Drivers/CMSIS/Device/ST/STM32F4xx/Include/stm32f407xx.h"
 1291              		.file 5 "Drivers/CMSIS/Device/ST/STM32F4xx/Include/stm32f4xx.h"
 1292              		.file 6 "C:/Users/Administrator/AppData/Roaming/Code/User/globalStorage/bmd.stm32-for-vscode/@xpac
 1293              		.file 7 "Drivers/STM32F4xx_HAL_Driver/Inc/stm32f4xx_hal_can.h"
 1294              		.file 8 "Inc/can.h"
 1295              		.file 9 "bsp/can/bsp_can.h"
 1296              		.file 10 "modules/algorithm/controller.h"
 1297              		.file 11 "modules/motor/motor_def.h"
 1298              		.file 12 "modules/daemon/daemon.h"
 1299              		.file 13 "modules/motor/DJImotor/dji_motor.h"
 1300              		.file 14 "bsp/dwt/bsp_dwt.h"
 1301              		.file 15 "C:/Users/Administrator/AppData/Roaming/Code/User/globalStorage/bmd.stm32-for-vscode/@xpa
 1302              		.file 16 "C:/Users/Administrator/AppData/Roaming/Code/User/globalStorage/bmd.stm32-for-vscode/@xpa
 1303              		.file 17 "<built-in>"
ARM GAS  C:\Users\Administrator\AppData\Local\Temp\ccvvr9DW.s 			page 33

