ARM GAS  C:\Users\Administrator\AppData\Local\Temp\ccELzVUd.s 			page 1


   1              		.cpu cortex-m4
   2              		.arch armv7e-m
   3              		.fpu fpv4-sp-d16
   4              		.eabi_attribute 27, 1
   5              		.eabi_attribute 28, 1
   6              		.eabi_attribute 20, 1
   7              		.eabi_attribute 21, 1
   8              		.eabi_attribute 23, 3
   9              		.eabi_attribute 24, 1
  10              		.eabi_attribute 25, 1
  11              		.eabi_attribute 26, 1
  12              		.eabi_attribute 30, 1
  13              		.eabi_attribute 34, 1
  14              		.eabi_attribute 18, 4
  15              		.file	"gpio.c"
  16              		.text
  17              	.Ltext0:
  18              		.cfi_sections	.debug_frame
  19              		.file 1 "Src/gpio.c"
  20              		.section	.text.MX_GPIO_Init,"ax",%progbits
  21              		.align	1
  22              		.global	MX_GPIO_Init
  23              		.syntax unified
  24              		.thumb
  25              		.thumb_func
  27              	MX_GPIO_Init:
  28              	.LFB235:
   1:Src/gpio.c    **** /* USER CODE BEGIN Header */
   2:Src/gpio.c    **** /**
   3:Src/gpio.c    ****   ******************************************************************************
   4:Src/gpio.c    ****   * @file    gpio.c
   5:Src/gpio.c    ****   * @brief   This file provides code for the configuration
   6:Src/gpio.c    ****   *          of all used GPIO pins.
   7:Src/gpio.c    ****   ******************************************************************************
   8:Src/gpio.c    ****   * @attention
   9:Src/gpio.c    ****   *
  10:Src/gpio.c    ****   * Copyright (c) 2023 STMicroelectronics.
  11:Src/gpio.c    ****   * All rights reserved.
  12:Src/gpio.c    ****   *
  13:Src/gpio.c    ****   * This software is licensed under terms that can be found in the LICENSE file
  14:Src/gpio.c    ****   * in the root directory of this software component.
  15:Src/gpio.c    ****   * If no LICENSE file comes with this software, it is provided AS-IS.
  16:Src/gpio.c    ****   *
  17:Src/gpio.c    ****   ******************************************************************************
  18:Src/gpio.c    ****   */
  19:Src/gpio.c    **** /* USER CODE END Header */
  20:Src/gpio.c    **** 
  21:Src/gpio.c    **** /* Includes ------------------------------------------------------------------*/
  22:Src/gpio.c    **** #include "gpio.h"
  23:Src/gpio.c    **** 
  24:Src/gpio.c    **** /* USER CODE BEGIN 0 */
  25:Src/gpio.c    **** 
  26:Src/gpio.c    **** /* USER CODE END 0 */
  27:Src/gpio.c    **** 
  28:Src/gpio.c    **** /*----------------------------------------------------------------------------*/
  29:Src/gpio.c    **** /* Configure GPIO                                                             */
  30:Src/gpio.c    **** /*----------------------------------------------------------------------------*/
ARM GAS  C:\Users\Administrator\AppData\Local\Temp\ccELzVUd.s 			page 2


  31:Src/gpio.c    **** /* USER CODE BEGIN 1 */
  32:Src/gpio.c    **** 
  33:Src/gpio.c    **** /* USER CODE END 1 */
  34:Src/gpio.c    **** 
  35:Src/gpio.c    **** /** Configure pins as
  36:Src/gpio.c    ****         * Analog
  37:Src/gpio.c    ****         * Input
  38:Src/gpio.c    ****         * Output
  39:Src/gpio.c    ****         * EVENT_OUT
  40:Src/gpio.c    ****         * EXTI
  41:Src/gpio.c    **** */
  42:Src/gpio.c    **** void MX_GPIO_Init(void)
  43:Src/gpio.c    **** {
  29              		.loc 1 43 1 view -0
  30              		.cfi_startproc
  31              		@ args = 0, pretend = 0, frame = 56
  32              		@ frame_needed = 0, uses_anonymous_args = 0
  33 0000 2DE9F047 		push	{r4, r5, r6, r7, r8, r9, r10, lr}
  34              		.cfi_def_cfa_offset 32
  35              		.cfi_offset 4, -32
  36              		.cfi_offset 5, -28
  37              		.cfi_offset 6, -24
  38              		.cfi_offset 7, -20
  39              		.cfi_offset 8, -16
  40              		.cfi_offset 9, -12
  41              		.cfi_offset 10, -8
  42              		.cfi_offset 14, -4
  43 0004 8EB0     		sub	sp, sp, #56
  44              		.cfi_def_cfa_offset 88
  44:Src/gpio.c    **** 
  45:Src/gpio.c    ****   GPIO_InitTypeDef GPIO_InitStruct = {0};
  45              		.loc 1 45 3 view .LVU1
  46              		.loc 1 45 20 is_stmt 0 view .LVU2
  47 0006 09AD     		add	r5, sp, #36
  48 0008 0024     		movs	r4, #0
  49 000a 0994     		str	r4, [sp, #36]
  50 000c 0A94     		str	r4, [sp, #40]
  51 000e 0B94     		str	r4, [sp, #44]
  52 0010 0C94     		str	r4, [sp, #48]
  53 0012 0D94     		str	r4, [sp, #52]
  46:Src/gpio.c    **** 
  47:Src/gpio.c    ****   /* GPIO Ports Clock Enable */
  48:Src/gpio.c    ****   __HAL_RCC_GPIOB_CLK_ENABLE();
  54              		.loc 1 48 3 is_stmt 1 view .LVU3
  55              	.LBB2:
  56              		.loc 1 48 3 view .LVU4
  57 0014 0094     		str	r4, [sp]
  58              		.loc 1 48 3 view .LVU5
  59 0016 614B     		ldr	r3, .L3
  60 0018 1A6B     		ldr	r2, [r3, #48]
  61 001a 42F00202 		orr	r2, r2, #2
  62 001e 1A63     		str	r2, [r3, #48]
  63              		.loc 1 48 3 view .LVU6
  64 0020 1A6B     		ldr	r2, [r3, #48]
  65 0022 02F00202 		and	r2, r2, #2
  66 0026 0092     		str	r2, [sp]
  67              		.loc 1 48 3 view .LVU7
ARM GAS  C:\Users\Administrator\AppData\Local\Temp\ccELzVUd.s 			page 3


  68 0028 009A     		ldr	r2, [sp]
  69              	.LBE2:
  70              		.loc 1 48 3 view .LVU8
  49:Src/gpio.c    ****   __HAL_RCC_GPIOG_CLK_ENABLE();
  71              		.loc 1 49 3 view .LVU9
  72              	.LBB3:
  73              		.loc 1 49 3 view .LVU10
  74 002a 0194     		str	r4, [sp, #4]
  75              		.loc 1 49 3 view .LVU11
  76 002c 1A6B     		ldr	r2, [r3, #48]
  77 002e 42F04002 		orr	r2, r2, #64
  78 0032 1A63     		str	r2, [r3, #48]
  79              		.loc 1 49 3 view .LVU12
  80 0034 1A6B     		ldr	r2, [r3, #48]
  81 0036 02F04002 		and	r2, r2, #64
  82 003a 0192     		str	r2, [sp, #4]
  83              		.loc 1 49 3 view .LVU13
  84 003c 019A     		ldr	r2, [sp, #4]
  85              	.LBE3:
  86              		.loc 1 49 3 view .LVU14
  50:Src/gpio.c    ****   __HAL_RCC_GPIOA_CLK_ENABLE();
  87              		.loc 1 50 3 view .LVU15
  88              	.LBB4:
  89              		.loc 1 50 3 view .LVU16
  90 003e 0294     		str	r4, [sp, #8]
  91              		.loc 1 50 3 view .LVU17
  92 0040 1A6B     		ldr	r2, [r3, #48]
  93 0042 42F00102 		orr	r2, r2, #1
  94 0046 1A63     		str	r2, [r3, #48]
  95              		.loc 1 50 3 view .LVU18
  96 0048 1A6B     		ldr	r2, [r3, #48]
  97 004a 02F00102 		and	r2, r2, #1
  98 004e 0292     		str	r2, [sp, #8]
  99              		.loc 1 50 3 view .LVU19
 100 0050 029A     		ldr	r2, [sp, #8]
 101              	.LBE4:
 102              		.loc 1 50 3 view .LVU20
  51:Src/gpio.c    ****   __HAL_RCC_GPIOD_CLK_ENABLE();
 103              		.loc 1 51 3 view .LVU21
 104              	.LBB5:
 105              		.loc 1 51 3 view .LVU22
 106 0052 0394     		str	r4, [sp, #12]
 107              		.loc 1 51 3 view .LVU23
 108 0054 1A6B     		ldr	r2, [r3, #48]
 109 0056 42F00802 		orr	r2, r2, #8
 110 005a 1A63     		str	r2, [r3, #48]
 111              		.loc 1 51 3 view .LVU24
 112 005c 1A6B     		ldr	r2, [r3, #48]
 113 005e 02F00802 		and	r2, r2, #8
 114 0062 0392     		str	r2, [sp, #12]
 115              		.loc 1 51 3 view .LVU25
 116 0064 039A     		ldr	r2, [sp, #12]
 117              	.LBE5:
 118              		.loc 1 51 3 view .LVU26
  52:Src/gpio.c    ****   __HAL_RCC_GPIOC_CLK_ENABLE();
 119              		.loc 1 52 3 view .LVU27
 120              	.LBB6:
ARM GAS  C:\Users\Administrator\AppData\Local\Temp\ccELzVUd.s 			page 4


 121              		.loc 1 52 3 view .LVU28
 122 0066 0494     		str	r4, [sp, #16]
 123              		.loc 1 52 3 view .LVU29
 124 0068 1A6B     		ldr	r2, [r3, #48]
 125 006a 42F00402 		orr	r2, r2, #4
 126 006e 1A63     		str	r2, [r3, #48]
 127              		.loc 1 52 3 view .LVU30
 128 0070 1A6B     		ldr	r2, [r3, #48]
 129 0072 02F00402 		and	r2, r2, #4
 130 0076 0492     		str	r2, [sp, #16]
 131              		.loc 1 52 3 view .LVU31
 132 0078 049A     		ldr	r2, [sp, #16]
 133              	.LBE6:
 134              		.loc 1 52 3 view .LVU32
  53:Src/gpio.c    ****   __HAL_RCC_GPIOI_CLK_ENABLE();
 135              		.loc 1 53 3 view .LVU33
 136              	.LBB7:
 137              		.loc 1 53 3 view .LVU34
 138 007a 0594     		str	r4, [sp, #20]
 139              		.loc 1 53 3 view .LVU35
 140 007c 1A6B     		ldr	r2, [r3, #48]
 141 007e 42F48072 		orr	r2, r2, #256
 142 0082 1A63     		str	r2, [r3, #48]
 143              		.loc 1 53 3 view .LVU36
 144 0084 1A6B     		ldr	r2, [r3, #48]
 145 0086 02F48072 		and	r2, r2, #256
 146 008a 0592     		str	r2, [sp, #20]
 147              		.loc 1 53 3 view .LVU37
 148 008c 059A     		ldr	r2, [sp, #20]
 149              	.LBE7:
 150              		.loc 1 53 3 view .LVU38
  54:Src/gpio.c    ****   __HAL_RCC_GPIOF_CLK_ENABLE();
 151              		.loc 1 54 3 view .LVU39
 152              	.LBB8:
 153              		.loc 1 54 3 view .LVU40
 154 008e 0694     		str	r4, [sp, #24]
 155              		.loc 1 54 3 view .LVU41
 156 0090 1A6B     		ldr	r2, [r3, #48]
 157 0092 42F02002 		orr	r2, r2, #32
 158 0096 1A63     		str	r2, [r3, #48]
 159              		.loc 1 54 3 view .LVU42
 160 0098 1A6B     		ldr	r2, [r3, #48]
 161 009a 02F02002 		and	r2, r2, #32
 162 009e 0692     		str	r2, [sp, #24]
 163              		.loc 1 54 3 view .LVU43
 164 00a0 069A     		ldr	r2, [sp, #24]
 165              	.LBE8:
 166              		.loc 1 54 3 view .LVU44
  55:Src/gpio.c    ****   __HAL_RCC_GPIOH_CLK_ENABLE();
 167              		.loc 1 55 3 view .LVU45
 168              	.LBB9:
 169              		.loc 1 55 3 view .LVU46
 170 00a2 0794     		str	r4, [sp, #28]
 171              		.loc 1 55 3 view .LVU47
 172 00a4 1A6B     		ldr	r2, [r3, #48]
 173 00a6 42F08002 		orr	r2, r2, #128
 174 00aa 1A63     		str	r2, [r3, #48]
ARM GAS  C:\Users\Administrator\AppData\Local\Temp\ccELzVUd.s 			page 5


 175              		.loc 1 55 3 view .LVU48
 176 00ac 1A6B     		ldr	r2, [r3, #48]
 177 00ae 02F08002 		and	r2, r2, #128
 178 00b2 0792     		str	r2, [sp, #28]
 179              		.loc 1 55 3 view .LVU49
 180 00b4 079A     		ldr	r2, [sp, #28]
 181              	.LBE9:
 182              		.loc 1 55 3 view .LVU50
  56:Src/gpio.c    ****   __HAL_RCC_GPIOE_CLK_ENABLE();
 183              		.loc 1 56 3 view .LVU51
 184              	.LBB10:
 185              		.loc 1 56 3 view .LVU52
 186 00b6 0894     		str	r4, [sp, #32]
 187              		.loc 1 56 3 view .LVU53
 188 00b8 1A6B     		ldr	r2, [r3, #48]
 189 00ba 42F01002 		orr	r2, r2, #16
 190 00be 1A63     		str	r2, [r3, #48]
 191              		.loc 1 56 3 view .LVU54
 192 00c0 1B6B     		ldr	r3, [r3, #48]
 193 00c2 03F01003 		and	r3, r3, #16
 194 00c6 0893     		str	r3, [sp, #32]
 195              		.loc 1 56 3 view .LVU55
 196 00c8 089B     		ldr	r3, [sp, #32]
 197              	.LBE10:
 198              		.loc 1 56 3 view .LVU56
  57:Src/gpio.c    **** 
  58:Src/gpio.c    ****   /*Configure GPIO pin Output Level */
  59:Src/gpio.c    ****   HAL_GPIO_WritePin(MAG_RST_GPIO_Port, MAG_RST_Pin, GPIO_PIN_RESET);
 199              		.loc 1 59 3 view .LVU57
 200 00ca DFF8DC80 		ldr	r8, .L3+12
 201 00ce 2246     		mov	r2, r4
 202 00d0 4021     		movs	r1, #64
 203 00d2 4046     		mov	r0, r8
 204 00d4 FFF7FEFF 		bl	HAL_GPIO_WritePin
 205              	.LVL0:
  60:Src/gpio.c    **** 
  61:Src/gpio.c    ****   /*Configure GPIO pin Output Level */
  62:Src/gpio.c    ****   HAL_GPIO_WritePin(CS1_ACCEL_GPIO_Port, CS1_ACCEL_Pin, GPIO_PIN_SET);
 206              		.loc 1 62 3 view .LVU58
 207 00d8 314F     		ldr	r7, .L3+4
 208 00da 0122     		movs	r2, #1
 209 00dc 1021     		movs	r1, #16
 210 00de 3846     		mov	r0, r7
 211 00e0 FFF7FEFF 		bl	HAL_GPIO_WritePin
 212              	.LVL1:
  63:Src/gpio.c    **** 
  64:Src/gpio.c    ****   /*Configure GPIO pin Output Level */
  65:Src/gpio.c    ****   HAL_GPIO_WritePin(CS1_GYRO_GPIO_Port, CS1_GYRO_Pin, GPIO_PIN_SET);
 213              		.loc 1 65 3 view .LVU59
 214 00e4 DFF8C490 		ldr	r9, .L3+16
 215 00e8 0122     		movs	r2, #1
 216 00ea 1146     		mov	r1, r2
 217 00ec 4846     		mov	r0, r9
 218 00ee FFF7FEFF 		bl	HAL_GPIO_WritePin
 219              	.LVL2:
  66:Src/gpio.c    **** 
  67:Src/gpio.c    ****   /*Configure GPIO pin : PtPin */
ARM GAS  C:\Users\Administrator\AppData\Local\Temp\ccELzVUd.s 			page 6


  68:Src/gpio.c    ****   GPIO_InitStruct.Pin = MAG_RST_Pin;
 220              		.loc 1 68 3 view .LVU60
 221              		.loc 1 68 23 is_stmt 0 view .LVU61
 222 00f2 4023     		movs	r3, #64
 223 00f4 0993     		str	r3, [sp, #36]
  69:Src/gpio.c    ****   GPIO_InitStruct.Mode = GPIO_MODE_OUTPUT_PP;
 224              		.loc 1 69 3 is_stmt 1 view .LVU62
 225              		.loc 1 69 24 is_stmt 0 view .LVU63
 226 00f6 0126     		movs	r6, #1
 227 00f8 0A96     		str	r6, [sp, #40]
  70:Src/gpio.c    ****   GPIO_InitStruct.Pull = GPIO_NOPULL;
 228              		.loc 1 70 3 is_stmt 1 view .LVU64
 229              		.loc 1 70 24 is_stmt 0 view .LVU65
 230 00fa 0B94     		str	r4, [sp, #44]
  71:Src/gpio.c    ****   GPIO_InitStruct.Speed = GPIO_SPEED_FREQ_LOW;
 231              		.loc 1 71 3 is_stmt 1 view .LVU66
 232              		.loc 1 71 25 is_stmt 0 view .LVU67
 233 00fc 0C94     		str	r4, [sp, #48]
  72:Src/gpio.c    ****   HAL_GPIO_Init(MAG_RST_GPIO_Port, &GPIO_InitStruct);
 234              		.loc 1 72 3 is_stmt 1 view .LVU68
 235 00fe 2946     		mov	r1, r5
 236 0100 4046     		mov	r0, r8
 237 0102 FFF7FEFF 		bl	HAL_GPIO_Init
 238              	.LVL3:
  73:Src/gpio.c    **** 
  74:Src/gpio.c    ****   /*Configure GPIO pin : PtPin */
  75:Src/gpio.c    ****   GPIO_InitStruct.Pin = INT_MAG_Pin;
 239              		.loc 1 75 3 view .LVU69
 240              		.loc 1 75 23 is_stmt 0 view .LVU70
 241 0106 0823     		movs	r3, #8
 242 0108 0993     		str	r3, [sp, #36]
  76:Src/gpio.c    ****   GPIO_InitStruct.Mode = GPIO_MODE_IT_FALLING;
 243              		.loc 1 76 3 is_stmt 1 view .LVU71
 244              		.loc 1 76 24 is_stmt 0 view .LVU72
 245 010a 4FF4041A 		mov	r10, #2162688
 246 010e CDF828A0 		str	r10, [sp, #40]
  77:Src/gpio.c    ****   GPIO_InitStruct.Pull = GPIO_PULLUP;
 247              		.loc 1 77 3 is_stmt 1 view .LVU73
 248              		.loc 1 77 24 is_stmt 0 view .LVU74
 249 0112 0B96     		str	r6, [sp, #44]
  78:Src/gpio.c    ****   HAL_GPIO_Init(INT_MAG_GPIO_Port, &GPIO_InitStruct);
 250              		.loc 1 78 3 is_stmt 1 view .LVU75
 251 0114 2946     		mov	r1, r5
 252 0116 4046     		mov	r0, r8
 253 0118 FFF7FEFF 		bl	HAL_GPIO_Init
 254              	.LVL4:
  79:Src/gpio.c    **** 
  80:Src/gpio.c    ****   /*Configure GPIO pin : PtPin */
  81:Src/gpio.c    ****   GPIO_InitStruct.Pin = KEY_Pin;
 255              		.loc 1 81 3 view .LVU76
 256              		.loc 1 81 23 is_stmt 0 view .LVU77
 257 011c 0996     		str	r6, [sp, #36]
  82:Src/gpio.c    ****   GPIO_InitStruct.Mode = GPIO_MODE_INPUT;
 258              		.loc 1 82 3 is_stmt 1 view .LVU78
 259              		.loc 1 82 24 is_stmt 0 view .LVU79
 260 011e 0A94     		str	r4, [sp, #40]
  83:Src/gpio.c    ****   GPIO_InitStruct.Pull = GPIO_PULLUP;
ARM GAS  C:\Users\Administrator\AppData\Local\Temp\ccELzVUd.s 			page 7


 261              		.loc 1 83 3 is_stmt 1 view .LVU80
 262              		.loc 1 83 24 is_stmt 0 view .LVU81
 263 0120 0B96     		str	r6, [sp, #44]
  84:Src/gpio.c    ****   HAL_GPIO_Init(KEY_GPIO_Port, &GPIO_InitStruct);
 264              		.loc 1 84 3 is_stmt 1 view .LVU82
 265 0122 2946     		mov	r1, r5
 266 0124 3846     		mov	r0, r7
 267 0126 FFF7FEFF 		bl	HAL_GPIO_Init
 268              	.LVL5:
  85:Src/gpio.c    **** 
  86:Src/gpio.c    ****   /*Configure GPIO pin : PtPin */
  87:Src/gpio.c    ****   GPIO_InitStruct.Pin = CS1_ACCEL_Pin;
 269              		.loc 1 87 3 view .LVU83
 270              		.loc 1 87 23 is_stmt 0 view .LVU84
 271 012a 1023     		movs	r3, #16
 272 012c 0993     		str	r3, [sp, #36]
  88:Src/gpio.c    ****   GPIO_InitStruct.Mode = GPIO_MODE_OUTPUT_PP;
 273              		.loc 1 88 3 is_stmt 1 view .LVU85
 274              		.loc 1 88 24 is_stmt 0 view .LVU86
 275 012e 0A96     		str	r6, [sp, #40]
  89:Src/gpio.c    ****   GPIO_InitStruct.Pull = GPIO_PULLUP;
 276              		.loc 1 89 3 is_stmt 1 view .LVU87
 277              		.loc 1 89 24 is_stmt 0 view .LVU88
 278 0130 0B96     		str	r6, [sp, #44]
  90:Src/gpio.c    ****   GPIO_InitStruct.Speed = GPIO_SPEED_FREQ_HIGH;
 279              		.loc 1 90 3 is_stmt 1 view .LVU89
 280              		.loc 1 90 25 is_stmt 0 view .LVU90
 281 0132 4FF00208 		mov	r8, #2
 282 0136 CDF83080 		str	r8, [sp, #48]
  91:Src/gpio.c    ****   HAL_GPIO_Init(CS1_ACCEL_GPIO_Port, &GPIO_InitStruct);
 283              		.loc 1 91 3 is_stmt 1 view .LVU91
 284 013a 2946     		mov	r1, r5
 285 013c 3846     		mov	r0, r7
 286 013e FFF7FEFF 		bl	HAL_GPIO_Init
 287              	.LVL6:
  92:Src/gpio.c    **** 
  93:Src/gpio.c    ****   /*Configure GPIO pins : PCPin PCPin */
  94:Src/gpio.c    ****   GPIO_InitStruct.Pin = INT_ACC_Pin|INT_GYRO_Pin;
 288              		.loc 1 94 3 view .LVU92
 289              		.loc 1 94 23 is_stmt 0 view .LVU93
 290 0142 3023     		movs	r3, #48
 291 0144 0993     		str	r3, [sp, #36]
  95:Src/gpio.c    ****   GPIO_InitStruct.Mode = GPIO_MODE_IT_FALLING;
 292              		.loc 1 95 3 is_stmt 1 view .LVU94
 293              		.loc 1 95 24 is_stmt 0 view .LVU95
 294 0146 CDF828A0 		str	r10, [sp, #40]
  96:Src/gpio.c    ****   GPIO_InitStruct.Pull = GPIO_NOPULL;
 295              		.loc 1 96 3 is_stmt 1 view .LVU96
 296              		.loc 1 96 24 is_stmt 0 view .LVU97
 297 014a 0B94     		str	r4, [sp, #44]
  97:Src/gpio.c    ****   HAL_GPIO_Init(GPIOC, &GPIO_InitStruct);
 298              		.loc 1 97 3 is_stmt 1 view .LVU98
 299 014c 2946     		mov	r1, r5
 300 014e 1548     		ldr	r0, .L3+8
 301 0150 FFF7FEFF 		bl	HAL_GPIO_Init
 302              	.LVL7:
  98:Src/gpio.c    **** 
ARM GAS  C:\Users\Administrator\AppData\Local\Temp\ccELzVUd.s 			page 8


  99:Src/gpio.c    ****   /*Configure GPIO pin : PtPin */
 100:Src/gpio.c    ****   GPIO_InitStruct.Pin = CS1_GYRO_Pin;
 303              		.loc 1 100 3 view .LVU99
 304              		.loc 1 100 23 is_stmt 0 view .LVU100
 305 0154 0996     		str	r6, [sp, #36]
 101:Src/gpio.c    ****   GPIO_InitStruct.Mode = GPIO_MODE_OUTPUT_PP;
 306              		.loc 1 101 3 is_stmt 1 view .LVU101
 307              		.loc 1 101 24 is_stmt 0 view .LVU102
 308 0156 0A96     		str	r6, [sp, #40]
 102:Src/gpio.c    ****   GPIO_InitStruct.Pull = GPIO_PULLUP;
 309              		.loc 1 102 3 is_stmt 1 view .LVU103
 310              		.loc 1 102 24 is_stmt 0 view .LVU104
 311 0158 0B96     		str	r6, [sp, #44]
 103:Src/gpio.c    ****   GPIO_InitStruct.Speed = GPIO_SPEED_FREQ_HIGH;
 312              		.loc 1 103 3 is_stmt 1 view .LVU105
 313              		.loc 1 103 25 is_stmt 0 view .LVU106
 314 015a CDF83080 		str	r8, [sp, #48]
 104:Src/gpio.c    ****   HAL_GPIO_Init(CS1_GYRO_GPIO_Port, &GPIO_InitStruct);
 315              		.loc 1 104 3 is_stmt 1 view .LVU107
 316 015e 2946     		mov	r1, r5
 317 0160 4846     		mov	r0, r9
 318 0162 FFF7FEFF 		bl	HAL_GPIO_Init
 319              	.LVL8:
 105:Src/gpio.c    **** 
 106:Src/gpio.c    ****   /* EXTI interrupt init*/
 107:Src/gpio.c    ****   HAL_NVIC_SetPriority(EXTI3_IRQn, 5, 0);
 320              		.loc 1 107 3 view .LVU108
 321 0166 2246     		mov	r2, r4
 322 0168 0521     		movs	r1, #5
 323 016a 0920     		movs	r0, #9
 324 016c FFF7FEFF 		bl	HAL_NVIC_SetPriority
 325              	.LVL9:
 108:Src/gpio.c    ****   HAL_NVIC_EnableIRQ(EXTI3_IRQn);
 326              		.loc 1 108 3 view .LVU109
 327 0170 0920     		movs	r0, #9
 328 0172 FFF7FEFF 		bl	HAL_NVIC_EnableIRQ
 329              	.LVL10:
 109:Src/gpio.c    **** 
 110:Src/gpio.c    ****   HAL_NVIC_SetPriority(EXTI4_IRQn, 5, 0);
 330              		.loc 1 110 3 view .LVU110
 331 0176 2246     		mov	r2, r4
 332 0178 0521     		movs	r1, #5
 333 017a 0A20     		movs	r0, #10
 334 017c FFF7FEFF 		bl	HAL_NVIC_SetPriority
 335              	.LVL11:
 111:Src/gpio.c    ****   HAL_NVIC_EnableIRQ(EXTI4_IRQn);
 336              		.loc 1 111 3 view .LVU111
 337 0180 0A20     		movs	r0, #10
 338 0182 FFF7FEFF 		bl	HAL_NVIC_EnableIRQ
 339              	.LVL12:
 112:Src/gpio.c    **** 
 113:Src/gpio.c    ****   HAL_NVIC_SetPriority(EXTI9_5_IRQn, 5, 0);
 340              		.loc 1 113 3 view .LVU112
 341 0186 2246     		mov	r2, r4
 342 0188 0521     		movs	r1, #5
 343 018a 1720     		movs	r0, #23
 344 018c FFF7FEFF 		bl	HAL_NVIC_SetPriority
ARM GAS  C:\Users\Administrator\AppData\Local\Temp\ccELzVUd.s 			page 9


 345              	.LVL13:
 114:Src/gpio.c    ****   HAL_NVIC_EnableIRQ(EXTI9_5_IRQn);
 346              		.loc 1 114 3 view .LVU113
 347 0190 1720     		movs	r0, #23
 348 0192 FFF7FEFF 		bl	HAL_NVIC_EnableIRQ
 349              	.LVL14:
 115:Src/gpio.c    **** 
 116:Src/gpio.c    **** }
 350              		.loc 1 116 1 is_stmt 0 view .LVU114
 351 0196 0EB0     		add	sp, sp, #56
 352              		.cfi_def_cfa_offset 32
 353              		@ sp needed
 354 0198 BDE8F087 		pop	{r4, r5, r6, r7, r8, r9, r10, pc}
 355              	.L4:
 356              		.align	2
 357              	.L3:
 358 019c 00380240 		.word	1073887232
 359 01a0 00000240 		.word	1073872896
 360 01a4 00080240 		.word	1073874944
 361 01a8 00180240 		.word	1073879040
 362 01ac 00040240 		.word	1073873920
 363              		.cfi_endproc
 364              	.LFE235:
 366              		.text
 367              	.Letext0:
 368              		.file 2 "Drivers/CMSIS/Device/ST/STM32F4xx/Include/stm32f407xx.h"
 369              		.file 3 "C:/Users/Administrator/AppData/Roaming/Code/User/globalStorage/bmd.stm32-for-vscode/@xpac
 370              		.file 4 "C:/Users/Administrator/AppData/Roaming/Code/User/globalStorage/bmd.stm32-for-vscode/@xpac
 371              		.file 5 "Drivers/STM32F4xx_HAL_Driver/Inc/stm32f4xx_hal_gpio.h"
 372              		.file 6 "Drivers/STM32F4xx_HAL_Driver/Inc/stm32f4xx_hal_cortex.h"
ARM GAS  C:\Users\Administrator\AppData\Local\Temp\ccELzVUd.s 			page 10


DEFINED SYMBOLS
                            *ABS*:00000000 gpio.c
C:\Users\Administrator\AppData\Local\Temp\ccELzVUd.s:21     .text.MX_GPIO_Init:00000000 $t
C:\Users\Administrator\AppData\Local\Temp\ccELzVUd.s:27     .text.MX_GPIO_Init:00000000 MX_GPIO_Init
C:\Users\Administrator\AppData\Local\Temp\ccELzVUd.s:358    .text.MX_GPIO_Init:0000019c $d

UNDEFINED SYMBOLS
HAL_GPIO_WritePin
HAL_GPIO_Init
HAL_NVIC_SetPriority
HAL_NVIC_EnableIRQ
