ARM GAS  C:\Users\Administrator\AppData\Local\Temp\ccPu3lUf.s 			page 1


   1              		.cpu cortex-m4
   2              		.arch armv7e-m
   3              		.fpu fpv4-sp-d16
   4              		.eabi_attribute 27, 1
   5              		.eabi_attribute 28, 1
   6              		.eabi_attribute 20, 1
   7              		.eabi_attribute 21, 1
   8              		.eabi_attribute 23, 3
   9              		.eabi_attribute 24, 1
  10              		.eabi_attribute 25, 1
  11              		.eabi_attribute 26, 1
  12              		.eabi_attribute 30, 1
  13              		.eabi_attribute 34, 1
  14              		.eabi_attribute 18, 4
  15              		.file	"HT04.c"
  16              		.text
  17              	.Ltext0:
  18              		.cfi_sections	.debug_frame
  19              		.file 1 "modules/motor/HTmotor/HT04.c"
  20              		.section	.text.float_to_uint,"ax",%progbits
  21              		.align	1
  22              		.syntax unified
  23              		.thumb
  24              		.thumb_func
  26              	float_to_uint:
  27              	.LVL0:
  28              	.LFB277:
   1:modules/motor/HTmotor/HT04.c **** #include "HT04.h"
   2:modules/motor/HTmotor/HT04.c **** #include "memory.h"
   3:modules/motor/HTmotor/HT04.c **** #include "general_def.h"
   4:modules/motor/HTmotor/HT04.c **** #include "user_lib.h"
   5:modules/motor/HTmotor/HT04.c **** #include "cmsis_os.h"
   6:modules/motor/HTmotor/HT04.c **** #include "string.h"
   7:modules/motor/HTmotor/HT04.c **** #include "daemon.h"
   8:modules/motor/HTmotor/HT04.c **** #include "stdlib.h"
   9:modules/motor/HTmotor/HT04.c **** #include "bsp_log.h"
  10:modules/motor/HTmotor/HT04.c **** 
  11:modules/motor/HTmotor/HT04.c **** static uint8_t idx;
  12:modules/motor/HTmotor/HT04.c **** static HTMotorInstance *ht_motor_instance[HT_MOTOR_CNT];
  13:modules/motor/HTmotor/HT04.c **** static osThreadId ht_task_handle[HT_MOTOR_CNT];
  14:modules/motor/HTmotor/HT04.c **** static uint8_t zero_buff[6] = {0};
  15:modules/motor/HTmotor/HT04.c **** 
  16:modules/motor/HTmotor/HT04.c **** /**
  17:modules/motor/HTmotor/HT04.c ****  * @brief и®ҫзҪ®з”өжңәжЁЎејҸ,жҠҘж–ҮеҶ…е®№[0xff,0xff,0xff,0xff,0xff,0xff,0xff,cmd]
  18:modules/motor/HTmotor/HT04.c ****  *
  19:modules/motor/HTmotor/HT04.c ****  * @param cmd
  20:modules/motor/HTmotor/HT04.c ****  * @param motor
  21:modules/motor/HTmotor/HT04.c ****  */
  22:modules/motor/HTmotor/HT04.c **** static void HTMotorSetMode(HTMotor_Mode_t cmd, HTMotorInstance *motor)
  23:modules/motor/HTmotor/HT04.c **** {
  24:modules/motor/HTmotor/HT04.c ****     memset(motor->motor_can_instace->tx_buff, 0xff, 7);  // еҸ‘йҖҒз”өжңәжҢҮд»Өзҡ„ж—¶еҖҷеүҚйқў7bytes
  25:modules/motor/HTmotor/HT04.c ****     motor->motor_can_instace->tx_buff[7] = (uint8_t)cmd; // жңҖеҗҺдёҖдҪҚжҳҜе‘Ҫд»Өid
  26:modules/motor/HTmotor/HT04.c ****     CANTransmit(motor->motor_can_instace, 1);
  27:modules/motor/HTmotor/HT04.c ****     memcpy(motor->motor_can_instace->tx_buff, zero_buff, 6);
  28:modules/motor/HTmotor/HT04.c **** }
  29:modules/motor/HTmotor/HT04.c **** /* дёӨдёӘз”ЁдәҺе°ҶuintеҖје’ҢfloatеҖјиҝӣиЎҢжҳ е°„зҡ„еҮҪж•°,еңЁи®ҫе®ҡеҸ‘йҖҒеҖје’Ңи§ЈжһҗеҸҚйҰҲеҖјж—¶дҪ
  30:modules/motor/HTmotor/HT04.c **** static uint16_t float_to_uint(float x, float x_min, float x_max, uint8_t bits)
ARM GAS  C:\Users\Administrator\AppData\Local\Temp\ccPu3lUf.s 			page 2


  31:modules/motor/HTmotor/HT04.c **** {
  29              		.loc 1 31 1 view -0
  30              		.cfi_startproc
  31              		@ args = 0, pretend = 0, frame = 0
  32              		@ frame_needed = 0, uses_anonymous_args = 0
  33              		@ link register save eliminated.
  32:modules/motor/HTmotor/HT04.c ****     float span = x_max - x_min;
  34              		.loc 1 32 5 view .LVU1
  35              		.loc 1 32 11 is_stmt 0 view .LVU2
  36 0000 31EE601A 		vsub.f32	s2, s2, s1
  37              	.LVL1:
  33:modules/motor/HTmotor/HT04.c ****     float offset = x_min;
  38              		.loc 1 33 5 is_stmt 1 view .LVU3
  34:modules/motor/HTmotor/HT04.c ****     return (uint16_t)((x - offset) * ((float)((1 << bits) - 1)) / span);
  39              		.loc 1 34 5 view .LVU4
  40              		.loc 1 34 26 is_stmt 0 view .LVU5
  41 0004 30EE600A 		vsub.f32	s0, s0, s1
  42              	.LVL2:
  43              		.loc 1 34 50 view .LVU6
  44 0008 0123     		movs	r3, #1
  45 000a 8340     		lsls	r3, r3, r0
  46              		.loc 1 34 59 view .LVU7
  47 000c 013B     		subs	r3, r3, #1
  48              		.loc 1 34 39 view .LVU8
  49 000e 07EE903A 		vmov	s15, r3	@ int
  50 0012 F8EEE77A 		vcvt.f32.s32	s15, s15
  51              		.loc 1 34 36 view .LVU9
  52 0016 20EE270A 		vmul.f32	s0, s0, s15
  53              		.loc 1 34 65 view .LVU10
  54 001a C0EE017A 		vdiv.f32	s15, s0, s2
  55              		.loc 1 34 12 view .LVU11
  56 001e FCEEE77A 		vcvt.u32.f32	s15, s15
  35:modules/motor/HTmotor/HT04.c **** }
  57              		.loc 1 35 1 view .LVU12
  58 0022 17EE903A 		vmov	r3, s15	@ int
  59 0026 98B2     		uxth	r0, r3
  60              	.LVL3:
  61              		.loc 1 35 1 view .LVU13
  62 0028 7047     		bx	lr
  63              		.cfi_endproc
  64              	.LFE277:
  66              		.section	.text.uint_to_float,"ax",%progbits
  67              		.align	1
  68              		.syntax unified
  69              		.thumb
  70              		.thumb_func
  72              	uint_to_float:
  73              	.LVL4:
  74              	.LFB278:
  36:modules/motor/HTmotor/HT04.c **** static float uint_to_float(int x_int, float x_min, float x_max, int bits)
  37:modules/motor/HTmotor/HT04.c **** {
  75              		.loc 1 37 1 is_stmt 1 view -0
  76              		.cfi_startproc
  77              		@ args = 0, pretend = 0, frame = 0
  78              		@ frame_needed = 0, uses_anonymous_args = 0
  79              		@ link register save eliminated.
  80              		.loc 1 37 1 is_stmt 0 view .LVU15
ARM GAS  C:\Users\Administrator\AppData\Local\Temp\ccPu3lUf.s 			page 3


  81 0000 07EE900A 		vmov	s15, r0	@ int
  38:modules/motor/HTmotor/HT04.c ****     float span = x_max - x_min;
  82              		.loc 1 38 5 is_stmt 1 view .LVU16
  83              		.loc 1 38 11 is_stmt 0 view .LVU17
  84 0004 70EEC00A 		vsub.f32	s1, s1, s0
  85              	.LVL5:
  39:modules/motor/HTmotor/HT04.c ****     float offset = x_min;
  86              		.loc 1 39 5 is_stmt 1 view .LVU18
  40:modules/motor/HTmotor/HT04.c ****     return ((float)x_int) * span / ((float)((1 << bits) - 1)) + offset;
  87              		.loc 1 40 5 view .LVU19
  88              		.loc 1 40 13 is_stmt 0 view .LVU20
  89 0008 F8EEE77A 		vcvt.f32.s32	s15, s15
  90              		.loc 1 40 27 view .LVU21
  91 000c 27EEA07A 		vmul.f32	s14, s15, s1
  92              		.loc 1 40 48 view .LVU22
  93 0010 0123     		movs	r3, #1
  94 0012 8B40     		lsls	r3, r3, r1
  95              		.loc 1 40 57 view .LVU23
  96 0014 013B     		subs	r3, r3, #1
  97              		.loc 1 40 37 view .LVU24
  98 0016 07EE903A 		vmov	s15, r3	@ int
  99 001a F8EEE77A 		vcvt.f32.s32	s15, s15
 100              		.loc 1 40 34 view .LVU25
 101 001e C7EE276A 		vdiv.f32	s13, s14, s15
  41:modules/motor/HTmotor/HT04.c **** }
 102              		.loc 1 41 1 view .LVU26
 103 0022 36EE800A 		vadd.f32	s0, s13, s0
 104              	.LVL6:
 105              		.loc 1 41 1 view .LVU27
 106 0026 7047     		bx	lr
 107              		.cfi_endproc
 108              	.LFE278:
 110              		.section	.text.HTMotorSetMode,"ax",%progbits
 111              		.align	1
 112              		.syntax unified
 113              		.thumb
 114              		.thumb_func
 116              	HTMotorSetMode:
 117              	.LVL7:
 118              	.LFB276:
  23:modules/motor/HTmotor/HT04.c ****     memset(motor->motor_can_instace->tx_buff, 0xff, 7);  // еҸ‘йҖҒз”өжңәжҢҮд»Өзҡ„ж—¶еҖҷеүҚйқў7bytes
 119              		.loc 1 23 1 is_stmt 1 view -0
 120              		.cfi_startproc
 121              		@ args = 0, pretend = 0, frame = 0
 122              		@ frame_needed = 0, uses_anonymous_args = 0
  23:modules/motor/HTmotor/HT04.c ****     memset(motor->motor_can_instace->tx_buff, 0xff, 7);  // еҸ‘йҖҒз”өжңәжҢҮд»Өзҡ„ж—¶еҖҷеүҚйқў7bytes
 123              		.loc 1 23 1 is_stmt 0 view .LVU29
 124 0000 10B5     		push	{r4, lr}
 125              		.cfi_def_cfa_offset 8
 126              		.cfi_offset 4, -8
 127              		.cfi_offset 14, -4
 128 0002 0C46     		mov	r4, r1
  24:modules/motor/HTmotor/HT04.c ****     motor->motor_can_instace->tx_buff[7] = (uint8_t)cmd; // жңҖеҗҺдёҖдҪҚжҳҜе‘Ҫд»Өid
 129              		.loc 1 24 5 is_stmt 1 view .LVU30
  24:modules/motor/HTmotor/HT04.c ****     motor->motor_can_instace->tx_buff[7] = (uint8_t)cmd; // жңҖеҗҺдёҖдҪҚжҳҜе‘Ҫд»Өid
 130              		.loc 1 24 17 is_stmt 0 view .LVU31
 131 0004 D1F8B831 		ldr	r3, [r1, #440]
ARM GAS  C:\Users\Administrator\AppData\Local\Temp\ccPu3lUf.s 			page 4


  24:modules/motor/HTmotor/HT04.c ****     motor->motor_can_instace->tx_buff[7] = (uint8_t)cmd; // жңҖеҗҺдёҖдҪҚжҳҜе‘Ҫд»Өid
 132              		.loc 1 24 5 view .LVU32
 133 0008 4FF0FF32 		mov	r2, #-1
 134 000c 5A62     		str	r2, [r3, #36]	@ unaligned
 135 000e C3F82720 		str	r2, [r3, #39]	@ unaligned
  25:modules/motor/HTmotor/HT04.c ****     CANTransmit(motor->motor_can_instace, 1);
 136              		.loc 1 25 5 is_stmt 1 view .LVU33
  25:modules/motor/HTmotor/HT04.c ****     CANTransmit(motor->motor_can_instace, 1);
 137              		.loc 1 25 10 is_stmt 0 view .LVU34
 138 0012 D1F8B831 		ldr	r3, [r1, #440]
  25:modules/motor/HTmotor/HT04.c ****     CANTransmit(motor->motor_can_instace, 1);
 139              		.loc 1 25 42 view .LVU35
 140 0016 83F82B00 		strb	r0, [r3, #43]
  26:modules/motor/HTmotor/HT04.c ****     memcpy(motor->motor_can_instace->tx_buff, zero_buff, 6);
 141              		.loc 1 26 5 is_stmt 1 view .LVU36
 142 001a B7EE000A 		vmov.f32	s0, #1.0e+0
 143 001e D1F8B801 		ldr	r0, [r1, #440]
 144              	.LVL8:
  26:modules/motor/HTmotor/HT04.c ****     memcpy(motor->motor_can_instace->tx_buff, zero_buff, 6);
 145              		.loc 1 26 5 is_stmt 0 view .LVU37
 146 0022 FFF7FEFF 		bl	CANTransmit
 147              	.LVL9:
  27:modules/motor/HTmotor/HT04.c **** }
 148              		.loc 1 27 5 is_stmt 1 view .LVU38
  27:modules/motor/HTmotor/HT04.c **** }
 149              		.loc 1 27 17 is_stmt 0 view .LVU39
 150 0026 D4F8B831 		ldr	r3, [r4, #440]
  27:modules/motor/HTmotor/HT04.c **** }
 151              		.loc 1 27 5 view .LVU40
 152 002a 034A     		ldr	r2, .L5
 153 002c 1068     		ldr	r0, [r2]
 154 002e 5862     		str	r0, [r3, #36]	@ unaligned
 155 0030 9288     		ldrh	r2, [r2, #4]	@ unaligned
 156 0032 1A85     		strh	r2, [r3, #40]	@ unaligned
  28:modules/motor/HTmotor/HT04.c **** /* дёӨдёӘз”ЁдәҺе°ҶuintеҖје’ҢfloatеҖјиҝӣиЎҢжҳ е°„зҡ„еҮҪж•°,еңЁи®ҫе®ҡеҸ‘йҖҒеҖје’Ңи§ЈжһҗеҸҚйҰҲеҖјж—¶дҪ
 157              		.loc 1 28 1 view .LVU41
 158 0034 10BD     		pop	{r4, pc}
 159              	.LVL10:
 160              	.L6:
  28:modules/motor/HTmotor/HT04.c **** /* дёӨдёӘз”ЁдәҺе°ҶuintеҖје’ҢfloatеҖјиҝӣиЎҢжҳ е°„зҡ„еҮҪж•°,еңЁи®ҫе®ҡеҸ‘йҖҒеҖје’Ңи§ЈжһҗеҸҚйҰҲеҖјж—¶дҪ
 161              		.loc 1 28 1 view .LVU42
 162 0036 00BF     		.align	2
 163              	.L5:
 164 0038 00000000 		.word	zero_buff
 165              		.cfi_endproc
 166              	.LFE276:
 168              		.section	.text.HTMotorLostCallback,"ax",%progbits
 169              		.align	1
 170              		.syntax unified
 171              		.thumb
 172              		.thumb_func
 174              	HTMotorLostCallback:
 175              	.LVL11:
 176              	.LFB280:
  42:modules/motor/HTmotor/HT04.c **** 
  43:modules/motor/HTmotor/HT04.c **** /**
  44:modules/motor/HTmotor/HT04.c ****  * @brief и§Јжһҗз”өжңәеҸҚйҰҲеҖј
ARM GAS  C:\Users\Administrator\AppData\Local\Temp\ccPu3lUf.s 			page 5


  45:modules/motor/HTmotor/HT04.c ****  *
  46:modules/motor/HTmotor/HT04.c ****  * @param motor_can ж”¶еҲ°
  47:modules/motor/HTmotor/HT04.c ****  */
  48:modules/motor/HTmotor/HT04.c **** static void HTMotorDecode(CANInstance *motor_can)
  49:modules/motor/HTmotor/HT04.c **** {
  50:modules/motor/HTmotor/HT04.c ****     uint16_t tmp; // з”ЁдәҺжҡӮеӯҳи§ЈжһҗеҖј,зЁҚеҗҺиҪ¬жҚўжҲҗfloatж•°жҚ®,йҒҝе…ҚеӨҡж¬ЎеҲӣе»әдёҙж—¶еҸҳйҮ
  51:modules/motor/HTmotor/HT04.c ****     uint8_t const *rxbuff = motor_can->rx_buff;
  52:modules/motor/HTmotor/HT04.c ****     HTMotorInstance *motor = (HTMotorInstance *)motor_can->id;
  53:modules/motor/HTmotor/HT04.c ****     HTMotor_Measure_t *measure = &(motor->measure); // е°Ҷcanе®һдҫӢдёӯдҝқеӯҳзҡ„idиҪ¬жҚўжҲҗз”өжңәе®һ
  54:modules/motor/HTmotor/HT04.c **** 
  55:modules/motor/HTmotor/HT04.c ****     DaemonReload(motor->motor_daemon);
  56:modules/motor/HTmotor/HT04.c ****     measure->feed_dt = DWT_GetDeltaT(&measure->feed_cnt);
  57:modules/motor/HTmotor/HT04.c **** 
  58:modules/motor/HTmotor/HT04.c ****     measure->last_angle = measure->total_angle;
  59:modules/motor/HTmotor/HT04.c ****     tmp = (uint16_t)((rxbuff[1] << 8) | rxbuff[2]);
  60:modules/motor/HTmotor/HT04.c ****     measure->total_angle = uint_to_float(tmp, P_MIN, P_MAX, 16);
  61:modules/motor/HTmotor/HT04.c **** 
  62:modules/motor/HTmotor/HT04.c ****     tmp = (uint16_t)(rxbuff[3] << 4) | (rxbuff[4] >> 4);
  63:modules/motor/HTmotor/HT04.c ****     measure->speed_rads = AverageFilter((uint_to_float(tmp, V_MIN, V_MAX, 12) - HT_SPEED_BIAS), mea
  64:modules/motor/HTmotor/HT04.c **** 
  65:modules/motor/HTmotor/HT04.c ****     tmp = (uint16_t)(((rxbuff[4] & 0x0f) << 8) | rxbuff[5]);
  66:modules/motor/HTmotor/HT04.c ****     measure->real_current = CURRENT_SMOOTH_COEF * uint_to_float(tmp, T_MIN, T_MAX, 12) +
  67:modules/motor/HTmotor/HT04.c ****                             (1 - CURRENT_SMOOTH_COEF) * measure->real_current;
  68:modules/motor/HTmotor/HT04.c **** }
  69:modules/motor/HTmotor/HT04.c **** 
  70:modules/motor/HTmotor/HT04.c **** static void HTMotorLostCallback(void *motor_ptr)
  71:modules/motor/HTmotor/HT04.c **** {
 177              		.loc 1 71 1 is_stmt 1 view -0
 178              		.cfi_startproc
 179              		@ args = 0, pretend = 0, frame = 0
 180              		@ frame_needed = 0, uses_anonymous_args = 0
 181              		.loc 1 71 1 is_stmt 0 view .LVU44
 182 0000 08B5     		push	{r3, lr}
 183              		.cfi_def_cfa_offset 8
 184              		.cfi_offset 3, -8
 185              		.cfi_offset 14, -4
 186 0002 0146     		mov	r1, r0
  72:modules/motor/HTmotor/HT04.c ****     HTMotorInstance *motor = (HTMotorInstance *)motor_ptr;
 187              		.loc 1 72 5 is_stmt 1 view .LVU45
 188              	.LVL12:
  73:modules/motor/HTmotor/HT04.c ****     LOGWARNING("[ht_motor] motor %d lost\n", motor->motor_can_instace->tx_id);
 189              		.loc 1 73 78 view .LVU46
  74:modules/motor/HTmotor/HT04.c ****     if (++motor->lost_cnt % 10 != 0)
 190              		.loc 1 74 5 view .LVU47
 191              		.loc 1 74 16 is_stmt 0 view .LVU48
 192 0004 D0F8C021 		ldr	r2, [r0, #448]
 193              		.loc 1 74 9 view .LVU49
 194 0008 0132     		adds	r2, r2, #1
 195              		.loc 1 74 8 view .LVU50
 196 000a C0F8C021 		str	r2, [r0, #448]
 197              		.loc 1 74 27 view .LVU51
 198 000e 074B     		ldr	r3, .L11
 199 0010 A3FB0203 		umull	r0, r3, r3, r2
 200              	.LVL13:
 201              		.loc 1 74 27 view .LVU52
 202 0014 DB08     		lsrs	r3, r3, #3
 203 0016 03EB8303 		add	r3, r3, r3, lsl #2
ARM GAS  C:\Users\Administrator\AppData\Local\Temp\ccPu3lUf.s 			page 6


 204              		.loc 1 74 8 view .LVU53
 205 001a B2EB430F 		cmp	r2, r3, lsl #1
 206 001e 00D1     		bne	.L10
 207              	.LVL14:
 208              	.L7:
  75:modules/motor/HTmotor/HT04.c ****         HTMotorSetMode(CMD_MOTOR_MODE, motor); // е°қиҜ•йҮҚж–°и®©з”өжңәиҝӣе…ҘжҺ§еҲ¶жЁЎејҸ
  76:modules/motor/HTmotor/HT04.c **** }
 209              		.loc 1 76 1 view .LVU54
 210 0020 08BD     		pop	{r3, pc}
 211              	.LVL15:
 212              	.L10:
  75:modules/motor/HTmotor/HT04.c ****         HTMotorSetMode(CMD_MOTOR_MODE, motor); // е°қиҜ•йҮҚж–°и®©з”өжңәиҝӣе…ҘжҺ§еҲ¶жЁЎејҸ
 213              		.loc 1 75 9 is_stmt 1 view .LVU55
 214 0022 FC20     		movs	r0, #252
 215 0024 FFF7FEFF 		bl	HTMotorSetMode
 216              	.LVL16:
 217              		.loc 1 76 1 is_stmt 0 view .LVU56
 218 0028 FAE7     		b	.L7
 219              	.L12:
 220 002a 00BF     		.align	2
 221              	.L11:
 222 002c CDCCCCCC 		.word	-858993459
 223              		.cfi_endproc
 224              	.LFE280:
 226              		.section	.text.HTMotorDecode,"ax",%progbits
 227              		.align	1
 228              		.syntax unified
 229              		.thumb
 230              		.thumb_func
 232              	HTMotorDecode:
 233              	.LVL17:
 234              	.LFB279:
  49:modules/motor/HTmotor/HT04.c ****     uint16_t tmp; // з”ЁдәҺжҡӮеӯҳи§ЈжһҗеҖј,зЁҚеҗҺиҪ¬жҚўжҲҗfloatж•°жҚ®,йҒҝе…ҚеӨҡж¬ЎеҲӣе»әдёҙж—¶еҸҳйҮ
 235              		.loc 1 49 1 is_stmt 1 view -0
 236              		.cfi_startproc
 237              		@ args = 0, pretend = 0, frame = 0
 238              		@ frame_needed = 0, uses_anonymous_args = 0
  49:modules/motor/HTmotor/HT04.c ****     uint16_t tmp; // з”ЁдәҺжҡӮеӯҳи§ЈжһҗеҖј,зЁҚеҗҺиҪ¬жҚўжҲҗfloatж•°жҚ®,йҒҝе…ҚеӨҡж¬ЎеҲӣе»әдёҙж—¶еҸҳйҮ
 239              		.loc 1 49 1 is_stmt 0 view .LVU58
 240 0000 70B5     		push	{r4, r5, r6, lr}
 241              		.cfi_def_cfa_offset 16
 242              		.cfi_offset 4, -16
 243              		.cfi_offset 5, -12
 244              		.cfi_offset 6, -8
 245              		.cfi_offset 14, -4
 246 0002 0546     		mov	r5, r0
  50:modules/motor/HTmotor/HT04.c ****     uint8_t const *rxbuff = motor_can->rx_buff;
 247              		.loc 1 50 5 is_stmt 1 view .LVU59
  51:modules/motor/HTmotor/HT04.c ****     HTMotorInstance *motor = (HTMotorInstance *)motor_can->id;
 248              		.loc 1 51 5 view .LVU60
 249              	.LVL18:
  52:modules/motor/HTmotor/HT04.c ****     HTMotor_Measure_t *measure = &(motor->measure); // е°Ҷcanе®һдҫӢдёӯдҝқеӯҳзҡ„idиҪ¬жҚўжҲҗз”өжңәе®һ
 250              		.loc 1 52 5 view .LVU61
  52:modules/motor/HTmotor/HT04.c ****     HTMotor_Measure_t *measure = &(motor->measure); // е°Ҷcanе®һдҫӢдёӯдҝқеӯҳзҡ„idиҪ¬жҚўжҲҗз”өжңәе®һ
 251              		.loc 1 52 22 is_stmt 0 view .LVU62
 252 0004 D0F84140 		ldr	r4, [r0, #65]	@ unaligned
 253              	.LVL19:
ARM GAS  C:\Users\Administrator\AppData\Local\Temp\ccPu3lUf.s 			page 7


  53:modules/motor/HTmotor/HT04.c **** 
 254              		.loc 1 53 5 is_stmt 1 view .LVU63
  55:modules/motor/HTmotor/HT04.c ****     measure->feed_dt = DWT_GetDeltaT(&measure->feed_cnt);
 255              		.loc 1 55 5 view .LVU64
 256 0008 D4F8BC01 		ldr	r0, [r4, #444]
 257              	.LVL20:
  55:modules/motor/HTmotor/HT04.c ****     measure->feed_dt = DWT_GetDeltaT(&measure->feed_cnt);
 258              		.loc 1 55 5 is_stmt 0 view .LVU65
 259 000c FFF7FEFF 		bl	DaemonReload
 260              	.LVL21:
  56:modules/motor/HTmotor/HT04.c **** 
 261              		.loc 1 56 5 is_stmt 1 view .LVU66
  56:modules/motor/HTmotor/HT04.c **** 
 262              		.loc 1 56 24 is_stmt 0 view .LVU67
 263 0010 04F12800 		add	r0, r4, #40
 264 0014 FFF7FEFF 		bl	DWT_GetDeltaT
 265              	.LVL22:
  56:modules/motor/HTmotor/HT04.c **** 
 266              		.loc 1 56 22 discriminator 1 view .LVU68
 267 0018 84ED090A 		vstr.32	s0, [r4, #36]
  58:modules/motor/HTmotor/HT04.c ****     tmp = (uint16_t)((rxbuff[1] << 8) | rxbuff[2]);
 268              		.loc 1 58 5 is_stmt 1 view .LVU69
  58:modules/motor/HTmotor/HT04.c ****     tmp = (uint16_t)((rxbuff[1] << 8) | rxbuff[2]);
 269              		.loc 1 58 34 is_stmt 0 view .LVU70
 270 001c 2368     		ldr	r3, [r4]	@ float
  58:modules/motor/HTmotor/HT04.c ****     tmp = (uint16_t)((rxbuff[1] << 8) | rxbuff[2]);
 271              		.loc 1 58 25 view .LVU71
 272 001e 6360     		str	r3, [r4, #4]	@ float
  59:modules/motor/HTmotor/HT04.c ****     measure->total_angle = uint_to_float(tmp, P_MIN, P_MAX, 16);
 273              		.loc 1 59 5 is_stmt 1 view .LVU72
  59:modules/motor/HTmotor/HT04.c ****     measure->total_angle = uint_to_float(tmp, P_MIN, P_MAX, 16);
 274              		.loc 1 59 29 is_stmt 0 view .LVU73
 275 0020 95F82D00 		ldrb	r0, [r5, #45]	@ zero_extendqisi2
  59:modules/motor/HTmotor/HT04.c ****     measure->total_angle = uint_to_float(tmp, P_MIN, P_MAX, 16);
 276              		.loc 1 59 47 view .LVU74
 277 0024 95F82E30 		ldrb	r3, [r5, #46]	@ zero_extendqisi2
 278              	.LVL23:
  60:modules/motor/HTmotor/HT04.c **** 
 279              		.loc 1 60 5 is_stmt 1 view .LVU75
  60:modules/motor/HTmotor/HT04.c **** 
 280              		.loc 1 60 28 is_stmt 0 view .LVU76
 281 0028 1021     		movs	r1, #16
 282 002a DFED210A 		vldr.32	s1, .L15
 283 002e 9FED210A 		vldr.32	s0, .L15+4
 284 0032 43EA0020 		orr	r0, r3, r0, lsl #8
 285              	.LVL24:
  60:modules/motor/HTmotor/HT04.c **** 
 286              		.loc 1 60 28 view .LVU77
 287 0036 FFF7FEFF 		bl	uint_to_float
 288              	.LVL25:
  60:modules/motor/HTmotor/HT04.c **** 
 289              		.loc 1 60 26 discriminator 1 view .LVU78
 290 003a 2646     		mov	r6, r4
 291 003c 0C36     		adds	r6, r6, #12
 292 003e 84ED000A 		vstr.32	s0, [r4]
  62:modules/motor/HTmotor/HT04.c ****     measure->speed_rads = AverageFilter((uint_to_float(tmp, V_MIN, V_MAX, 12) - HT_SPEED_BIAS), mea
 293              		.loc 1 62 5 is_stmt 1 view .LVU79
ARM GAS  C:\Users\Administrator\AppData\Local\Temp\ccPu3lUf.s 			page 8


  62:modules/motor/HTmotor/HT04.c ****     measure->speed_rads = AverageFilter((uint_to_float(tmp, V_MIN, V_MAX, 12) - HT_SPEED_BIAS), mea
 294              		.loc 1 62 28 is_stmt 0 view .LVU80
 295 0042 95F82F00 		ldrb	r0, [r5, #47]	@ zero_extendqisi2
  62:modules/motor/HTmotor/HT04.c ****     measure->speed_rads = AverageFilter((uint_to_float(tmp, V_MIN, V_MAX, 12) - HT_SPEED_BIAS), mea
 296              		.loc 1 62 47 view .LVU81
 297 0046 95F83030 		ldrb	r3, [r5, #48]	@ zero_extendqisi2
  62:modules/motor/HTmotor/HT04.c ****     measure->speed_rads = AverageFilter((uint_to_float(tmp, V_MIN, V_MAX, 12) - HT_SPEED_BIAS), mea
 298              		.loc 1 62 38 view .LVU82
 299 004a 1B09     		lsrs	r3, r3, #4
 300              	.LVL26:
  63:modules/motor/HTmotor/HT04.c **** 
 301              		.loc 1 63 5 is_stmt 1 view .LVU83
  63:modules/motor/HTmotor/HT04.c **** 
 302              		.loc 1 63 42 is_stmt 0 view .LVU84
 303 004c 0C21     		movs	r1, #12
 304 004e DFED1A0A 		vldr.32	s1, .L15+8
 305 0052 9FED1A0A 		vldr.32	s0, .L15+12
 306 0056 43EA0010 		orr	r0, r3, r0, lsl #4
 307              	.LVL27:
  63:modules/motor/HTmotor/HT04.c **** 
 308              		.loc 1 63 42 view .LVU85
 309 005a FFF7FEFF 		bl	uint_to_float
 310              	.LVL28:
  63:modules/motor/HTmotor/HT04.c **** 
 311              		.loc 1 63 27 discriminator 1 view .LVU86
 312 005e 0521     		movs	r1, #5
 313 0060 3046     		mov	r0, r6
 314 0062 DFED177A 		vldr.32	s15, .L15+16
 315 0066 30EE270A 		vadd.f32	s0, s0, s15
 316 006a FFF7FEFF 		bl	AverageFilter
 317              	.LVL29:
  63:modules/motor/HTmotor/HT04.c **** 
 318              		.loc 1 63 25 discriminator 2 view .LVU87
 319 006e 84ED020A 		vstr.32	s0, [r4, #8]
  65:modules/motor/HTmotor/HT04.c ****     measure->real_current = CURRENT_SMOOTH_COEF * uint_to_float(tmp, T_MIN, T_MAX, 12) +
 320              		.loc 1 65 5 is_stmt 1 view .LVU88
  65:modules/motor/HTmotor/HT04.c ****     measure->real_current = CURRENT_SMOOTH_COEF * uint_to_float(tmp, T_MIN, T_MAX, 12) +
 321              		.loc 1 65 30 is_stmt 0 view .LVU89
 322 0072 95F83030 		ldrb	r3, [r5, #48]	@ zero_extendqisi2
  65:modules/motor/HTmotor/HT04.c ****     measure->real_current = CURRENT_SMOOTH_COEF * uint_to_float(tmp, T_MIN, T_MAX, 12) +
 323              		.loc 1 65 56 view .LVU90
 324 0076 95F83100 		ldrb	r0, [r5, #49]	@ zero_extendqisi2
  65:modules/motor/HTmotor/HT04.c ****     measure->real_current = CURRENT_SMOOTH_COEF * uint_to_float(tmp, T_MIN, T_MAX, 12) +
 325              		.loc 1 65 48 view .LVU91
 326 007a 1B02     		lsls	r3, r3, #8
 327 007c 03F47063 		and	r3, r3, #3840
 328              	.LVL30:
  66:modules/motor/HTmotor/HT04.c ****                             (1 - CURRENT_SMOOTH_COEF) * measure->real_current;
 329              		.loc 1 66 5 is_stmt 1 view .LVU92
  66:modules/motor/HTmotor/HT04.c ****                             (1 - CURRENT_SMOOTH_COEF) * measure->real_current;
 330              		.loc 1 66 51 is_stmt 0 view .LVU93
 331 0080 0C21     		movs	r1, #12
 332 0082 F3EE020A 		vmov.f32	s1, #1.8e+1
 333 0086 BBEE020A 		vmov.f32	s0, #-1.8e+1
 334 008a 1843     		orrs	r0, r0, r3
 335              	.LVL31:
  66:modules/motor/HTmotor/HT04.c ****                             (1 - CURRENT_SMOOTH_COEF) * measure->real_current;
ARM GAS  C:\Users\Administrator\AppData\Local\Temp\ccPu3lUf.s 			page 9


 336              		.loc 1 66 51 view .LVU94
 337 008c FFF7FEFF 		bl	uint_to_float
 338              	.LVL32:
  66:modules/motor/HTmotor/HT04.c ****                             (1 - CURRENT_SMOOTH_COEF) * measure->real_current;
 339              		.loc 1 66 49 discriminator 1 view .LVU95
 340 0090 DFED0C7A 		vldr.32	s15, .L15+20
 341 0094 20EE270A 		vmul.f32	s0, s0, s15
  67:modules/motor/HTmotor/HT04.c **** }
 342              		.loc 1 67 64 view .LVU96
 343 0098 D4ED087A 		vldr.32	s15, [r4, #32]
  67:modules/motor/HTmotor/HT04.c **** }
 344              		.loc 1 67 55 view .LVU97
 345 009c 9FED0A7A 		vldr.32	s14, .L15+24
 346 00a0 67EE877A 		vmul.f32	s15, s15, s14
  66:modules/motor/HTmotor/HT04.c ****                             (1 - CURRENT_SMOOTH_COEF) * measure->real_current;
 347              		.loc 1 66 88 view .LVU98
 348 00a4 30EE270A 		vadd.f32	s0, s0, s15
  66:modules/motor/HTmotor/HT04.c ****                             (1 - CURRENT_SMOOTH_COEF) * measure->real_current;
 349              		.loc 1 66 27 view .LVU99
 350 00a8 84ED080A 		vstr.32	s0, [r4, #32]
  68:modules/motor/HTmotor/HT04.c **** 
 351              		.loc 1 68 1 view .LVU100
 352 00ac 70BD     		pop	{r4, r5, r6, pc}
 353              	.LVL33:
 354              	.L16:
  68:modules/motor/HTmotor/HT04.c **** 
 355              		.loc 1 68 1 view .LVU101
 356 00ae 00BF     		.align	2
 357              	.L15:
 358 00b0 0000BF42 		.word	1119813632
 359 00b4 0000BFC2 		.word	-1027670016
 360 00b8 00003442 		.word	1110704128
 361 00bc 000034C2 		.word	-1036779520
 362 00c0 0010343C 		.word	1010044928
 363 00c4 6666663F 		.word	1063675494
 364 00c8 D0CCCC3D 		.word	1036831952
 365              		.cfi_endproc
 366              	.LFE279:
 368              		.section	.text.HTMotorTask,"ax",%progbits
 369              		.align	1
 370              		.global	HTMotorTask
 371              		.syntax unified
 372              		.thumb
 373              		.thumb_func
 375              	HTMotorTask:
 376              	.LVL34:
 377              	.LFB284:
  77:modules/motor/HTmotor/HT04.c **** 
  78:modules/motor/HTmotor/HT04.c **** /* жө·жі°з”өжңәдёҖз”ҹй»‘,д»Җд№ҲеһғеңҫеҚҸи®®! */
  79:modules/motor/HTmotor/HT04.c **** void HTMotorCalibEncoder(HTMotorInstance *motor)
  80:modules/motor/HTmotor/HT04.c **** {
  81:modules/motor/HTmotor/HT04.c ****     uint16_t p, v, kp, kd, t;
  82:modules/motor/HTmotor/HT04.c ****     p = float_to_uint(0, P_MIN, P_MAX, 16);
  83:modules/motor/HTmotor/HT04.c ****     v = float_to_uint(0, V_MIN, V_MAX, 12);
  84:modules/motor/HTmotor/HT04.c ****     kp = float_to_uint(0, KP_MIN, KP_MAX, 12);
  85:modules/motor/HTmotor/HT04.c ****     kd = float_to_uint(0, KD_MIN, KD_MAX, 12);
  86:modules/motor/HTmotor/HT04.c ****     t = float_to_uint(0, T_MIN, T_MAX, 12);
ARM GAS  C:\Users\Administrator\AppData\Local\Temp\ccPu3lUf.s 			page 10


  87:modules/motor/HTmotor/HT04.c **** 
  88:modules/motor/HTmotor/HT04.c ****     uint8_t *buf = motor->motor_can_instace->tx_buff;
  89:modules/motor/HTmotor/HT04.c ****     buf[0] = p >> 8;
  90:modules/motor/HTmotor/HT04.c ****     buf[1] = p & 0xFF;
  91:modules/motor/HTmotor/HT04.c ****     buf[2] = v >> 4;
  92:modules/motor/HTmotor/HT04.c ****     buf[3] = ((v & 0xF) << 4) | (kp >> 8);
  93:modules/motor/HTmotor/HT04.c ****     buf[4] = kp & 0xFF;
  94:modules/motor/HTmotor/HT04.c ****     buf[5] = kd >> 4;
  95:modules/motor/HTmotor/HT04.c ****     buf[6] = ((kd & 0xF) << 4) | (t >> 8);
  96:modules/motor/HTmotor/HT04.c ****     buf[7] = t & 0xff;
  97:modules/motor/HTmotor/HT04.c ****     memcpy(zero_buff, buf, 6); // еҲқе§ӢеҢ–зҡ„ж—¶еҖҷиҮіе°‘и°ғз”ЁдёҖж¬Ў,ж•…е°Ҷе…¶д»–жҢҮд»Өдёә0ж—¶еҸ‘
  98:modules/motor/HTmotor/HT04.c ****     CANTransmit(motor->motor_can_instace, 1);
  99:modules/motor/HTmotor/HT04.c ****     DWT_Delay(0.005);
 100:modules/motor/HTmotor/HT04.c ****     HTMotorSetMode(CMD_ZERO_POSITION, motor); // sb зҺ©ж„Ҹж ЎеҮҶе®ҢдәҶзј–з ҒеҷЁд№ҹдёҚдёә0
 101:modules/motor/HTmotor/HT04.c ****     DWT_Delay(0.005);
 102:modules/motor/HTmotor/HT04.c ****     // HTMotorSetMode(CMD_MOTOR_MODE, motor);
 103:modules/motor/HTmotor/HT04.c **** }
 104:modules/motor/HTmotor/HT04.c **** 
 105:modules/motor/HTmotor/HT04.c **** HTMotorInstance *HTMotorInit(Motor_Init_Config_s *config)
 106:modules/motor/HTmotor/HT04.c **** {
 107:modules/motor/HTmotor/HT04.c ****     HTMotorInstance *motor = (HTMotorInstance *)malloc(sizeof(HTMotorInstance));
 108:modules/motor/HTmotor/HT04.c ****     memset(motor, 0, sizeof(HTMotorInstance));
 109:modules/motor/HTmotor/HT04.c **** 
 110:modules/motor/HTmotor/HT04.c ****     motor->motor_settings = config->controller_setting_init_config;
 111:modules/motor/HTmotor/HT04.c ****     PIDInit(&motor->current_PID, &config->controller_param_init_config.current_PID);
 112:modules/motor/HTmotor/HT04.c ****     PIDInit(&motor->speed_PID, &config->controller_param_init_config.speed_PID);
 113:modules/motor/HTmotor/HT04.c ****     PIDInit(&motor->angle_PID, &config->controller_param_init_config.angle_PID);
 114:modules/motor/HTmotor/HT04.c ****     motor->other_angle_feedback_ptr = config->controller_param_init_config.other_angle_feedback_ptr
 115:modules/motor/HTmotor/HT04.c ****     motor->other_speed_feedback_ptr = config->controller_param_init_config.other_speed_feedback_ptr
 116:modules/motor/HTmotor/HT04.c **** 
 117:modules/motor/HTmotor/HT04.c ****     config->can_init_config.can_module_callback = HTMotorDecode;
 118:modules/motor/HTmotor/HT04.c ****     config->can_init_config.id = motor;
 119:modules/motor/HTmotor/HT04.c ****     motor->motor_can_instace = CANRegister(&config->can_init_config);
 120:modules/motor/HTmotor/HT04.c **** 
 121:modules/motor/HTmotor/HT04.c ****     Daemon_Init_Config_s conf = {
 122:modules/motor/HTmotor/HT04.c ****         .callback = HTMotorLostCallback,
 123:modules/motor/HTmotor/HT04.c ****         .owner_id = motor,
 124:modules/motor/HTmotor/HT04.c ****         .reload_count = 5, // 50ms
 125:modules/motor/HTmotor/HT04.c ****     };
 126:modules/motor/HTmotor/HT04.c ****     motor->motor_daemon = DaemonRegister(&conf);
 127:modules/motor/HTmotor/HT04.c **** 
 128:modules/motor/HTmotor/HT04.c ****     HTMotorEnable(motor);
 129:modules/motor/HTmotor/HT04.c ****     HTMotorSetMode(CMD_MOTOR_MODE, motor); // зЎ®дҝқз”өжңәе·Із»ҸдёҠз”өе№¶жү§иЎҢз”өжңәжЁЎејҸ
 130:modules/motor/HTmotor/HT04.c ****     DWT_Delay(0.05f);
 131:modules/motor/HTmotor/HT04.c ****     HTMotorCalibEncoder(motor); // е°ҶеҪ“еүҚзј–з ҒеҷЁдҪҚзҪ®дҪңдёәйӣ¶дҪҚ
 132:modules/motor/HTmotor/HT04.c ****     DWT_Delay(0.05f);           // дҝқиҜҒдёӢдёҖдёӘз”өжңәеҸ‘йҖҒж—¶CANжҳҜз©әй—Ізҡ„,жіЁж„Ҹеә”з”ЁеңЁеҲқ
 133:modules/motor/HTmotor/HT04.c ****     ht_motor_instance[idx++] = motor;
 134:modules/motor/HTmotor/HT04.c ****     return motor;
 135:modules/motor/HTmotor/HT04.c **** }
 136:modules/motor/HTmotor/HT04.c **** 
 137:modules/motor/HTmotor/HT04.c **** void HTMotorSetRef(HTMotorInstance *motor, float ref)
 138:modules/motor/HTmotor/HT04.c **** {
 139:modules/motor/HTmotor/HT04.c ****     motor->pid_ref = ref;
 140:modules/motor/HTmotor/HT04.c **** }
 141:modules/motor/HTmotor/HT04.c **** 
 142:modules/motor/HTmotor/HT04.c **** /**
 143:modules/motor/HTmotor/HT04.c ****  * @brief дёәдәҶйҒҝе…ҚжҖ»зәҝе өеЎһ,дёәжҜҸдёӘз”өжңәеҲӣе»әдёҖдёӘеҸ‘йҖҒд»»еҠЎ
ARM GAS  C:\Users\Administrator\AppData\Local\Temp\ccPu3lUf.s 			page 11


 144:modules/motor/HTmotor/HT04.c ****  * @param argument дј е…Ҙзҡ„з”өжңәжҢҮй’Ҳ
 145:modules/motor/HTmotor/HT04.c ****  */
 146:modules/motor/HTmotor/HT04.c **** __attribute__((noreturn)) void HTMotorTask(void const *argument)
 147:modules/motor/HTmotor/HT04.c **** {
 378              		.loc 1 147 1 is_stmt 1 view -0
 379              		.cfi_startproc
 380              		@ Volatile: function does not return.
 381              		@ args = 0, pretend = 0, frame = 0
 382              		@ frame_needed = 0, uses_anonymous_args = 0
 383              		.loc 1 147 1 is_stmt 0 view .LVU103
 384 0000 08B5     		push	{r3, lr}
 385              		.cfi_def_cfa_offset 8
 386              		.cfi_offset 3, -8
 387              		.cfi_offset 14, -4
 388 0002 0446     		mov	r4, r0
 148:modules/motor/HTmotor/HT04.c ****     float set, pid_measure, pid_ref;
 389              		.loc 1 148 5 is_stmt 1 view .LVU104
 149:modules/motor/HTmotor/HT04.c ****     HTMotorInstance *motor = (HTMotorInstance *)argument;
 390              		.loc 1 149 5 view .LVU105
 391              	.LVL35:
 150:modules/motor/HTmotor/HT04.c ****     HTMotor_Measure_t *measure = &motor->measure;
 392              		.loc 1 150 5 view .LVU106
 151:modules/motor/HTmotor/HT04.c ****     Motor_Control_Setting_s *setting = &motor->motor_settings;
 393              		.loc 1 151 5 view .LVU107
 152:modules/motor/HTmotor/HT04.c ****     CANInstance *motor_can = motor->motor_can_instace;
 394              		.loc 1 152 5 view .LVU108
 395              		.loc 1 152 18 is_stmt 0 view .LVU109
 396 0004 D0F8B851 		ldr	r5, [r0, #440]
 397              	.LVL36:
 398              		.loc 1 152 18 view .LVU110
 399 0008 48E0     		b	.L31
 400              	.LVL37:
 401              	.L36:
 153:modules/motor/HTmotor/HT04.c ****     uint16_t tmp;
 154:modules/motor/HTmotor/HT04.c **** 
 155:modules/motor/HTmotor/HT04.c ****     while (1)
 156:modules/motor/HTmotor/HT04.c ****     {
 157:modules/motor/HTmotor/HT04.c ****         pid_ref = motor->pid_ref;
 158:modules/motor/HTmotor/HT04.c ****         if (setting->motor_reverse_flag == MOTOR_DIRECTION_REVERSE)
 159:modules/motor/HTmotor/HT04.c ****             pid_ref *= -1;
 402              		.loc 1 159 13 is_stmt 1 view .LVU111
 403              		.loc 1 159 21 is_stmt 0 view .LVU112
 404 000a B1EE400A 		vneg.f32	s0, s0
 405              	.LVL38:
 406              		.loc 1 159 21 view .LVU113
 407 000e 4BE0     		b	.L18
 408              	.LVL39:
 409              	.L37:
 160:modules/motor/HTmotor/HT04.c **** 
 161:modules/motor/HTmotor/HT04.c ****         if ((setting->close_loop_type & ANGLE_LOOP) && setting->outer_loop_type == ANGLE_LOOP)
 162:modules/motor/HTmotor/HT04.c ****         {
 163:modules/motor/HTmotor/HT04.c ****             if (setting->angle_feedback_source == OTHER_FEED)
 410              		.loc 1 163 13 is_stmt 1 view .LVU114
 411              		.loc 1 163 24 is_stmt 0 view .LVU115
 412 0010 94F83030 		ldrb	r3, [r4, #48]	@ zero_extendqisi2
 413              		.loc 1 163 16 view .LVU116
 414 0014 012B     		cmp	r3, #1
ARM GAS  C:\Users\Administrator\AppData\Local\Temp\ccPu3lUf.s 			page 12


 415 0016 0CD0     		beq	.L35
 164:modules/motor/HTmotor/HT04.c ****                 pid_measure = *motor->other_angle_feedback_ptr;
 165:modules/motor/HTmotor/HT04.c ****             else
 166:modules/motor/HTmotor/HT04.c ****                 pid_measure = measure->total_angle;
 416              		.loc 1 166 17 is_stmt 1 view .LVU117
 417              		.loc 1 166 29 is_stmt 0 view .LVU118
 418 0018 94ED007A 		vldr.32	s14, [r4]
 419              	.L21:
 420              	.LVL40:
 167:modules/motor/HTmotor/HT04.c ****             // measureеҚ•дҪҚжҳҜrad,refжҳҜи§’еәҰ,з»ҹдёҖеҲ°angleдёӢи®Ўз®—,ж–№дҫҝе»әжЁЎ
 168:modules/motor/HTmotor/HT04.c ****             pid_ref = PIDCalculate(&motor->angle_PID, pid_measure * RAD_2_DEGREE, pid_ref);
 421              		.loc 1 168 13 is_stmt 1 view .LVU119
 422              		.loc 1 168 23 is_stmt 0 view .LVU120
 423 001c F0EE400A 		vmov.f32	s1, s0
 424 0020 9FED490A 		vldr.32	s0, .L40
 425              	.LVL41:
 426              		.loc 1 168 23 view .LVU121
 427 0024 27EE000A 		vmul.f32	s0, s14, s0
 428 0028 04F59470 		add	r0, r4, #296
 429 002c FFF7FEFF 		bl	PIDCalculate
 430              	.LVL42:
 431              		.loc 1 168 23 view .LVU122
 432 0030 43E0     		b	.L19
 433              	.LVL43:
 434              	.L35:
 164:modules/motor/HTmotor/HT04.c ****                 pid_measure = *motor->other_angle_feedback_ptr;
 435              		.loc 1 164 17 is_stmt 1 view .LVU123
 164:modules/motor/HTmotor/HT04.c ****                 pid_measure = *motor->other_angle_feedback_ptr;
 436              		.loc 1 164 37 is_stmt 0 view .LVU124
 437 0032 D4F8A031 		ldr	r3, [r4, #416]
 164:modules/motor/HTmotor/HT04.c ****                 pid_measure = *motor->other_angle_feedback_ptr;
 438              		.loc 1 164 29 view .LVU125
 439 0036 93ED007A 		vldr.32	s14, [r3]
 440              	.LVL44:
 164:modules/motor/HTmotor/HT04.c ****                 pid_measure = *motor->other_angle_feedback_ptr;
 441              		.loc 1 164 29 view .LVU126
 442 003a EFE7     		b	.L21
 443              	.LVL45:
 444              	.L38:
 169:modules/motor/HTmotor/HT04.c ****         }
 170:modules/motor/HTmotor/HT04.c **** 
 171:modules/motor/HTmotor/HT04.c ****         if ((setting->close_loop_type & SPEED_LOOP) && setting->outer_loop_type & (ANGLE_LOOP | SPE
 172:modules/motor/HTmotor/HT04.c ****         {
 173:modules/motor/HTmotor/HT04.c ****             if (setting->feedforward_flag & SPEED_FEEDFORWARD)
 174:modules/motor/HTmotor/HT04.c ****                 pid_ref += *motor->speed_feedforward_ptr;
 175:modules/motor/HTmotor/HT04.c **** 
 176:modules/motor/HTmotor/HT04.c ****             if (setting->angle_feedback_source == OTHER_FEED)
 177:modules/motor/HTmotor/HT04.c ****                 pid_measure = *motor->other_speed_feedback_ptr;
 445              		.loc 1 177 17 is_stmt 1 view .LVU127
 446              		.loc 1 177 37 is_stmt 0 view .LVU128
 447 003c D4F8A431 		ldr	r3, [r4, #420]
 448              		.loc 1 177 29 view .LVU129
 449 0040 93ED007A 		vldr.32	s14, [r3]
 450              	.LVL46:
 451              		.loc 1 177 29 view .LVU130
 452 0044 54E0     		b	.L25
 453              	.LVL47:
ARM GAS  C:\Users\Administrator\AppData\Local\Temp\ccPu3lUf.s 			page 13


 454              	.L39:
 178:modules/motor/HTmotor/HT04.c ****             else
 179:modules/motor/HTmotor/HT04.c ****                 pid_measure = measure->speed_rads;
 180:modules/motor/HTmotor/HT04.c ****             // measureеҚ•дҪҚжҳҜrad / s ,refжҳҜangle per sec,з»ҹдёҖеҲ°angleдёӢи®Ўз®—
 181:modules/motor/HTmotor/HT04.c ****             pid_ref = PIDCalculate(&motor->speed_PID, pid_measure * RAD_2_DEGREE, pid_ref);
 182:modules/motor/HTmotor/HT04.c ****         }
 183:modules/motor/HTmotor/HT04.c **** 
 184:modules/motor/HTmotor/HT04.c ****         if (setting->feedforward_flag & CURRENT_FEEDFORWARD)
 185:modules/motor/HTmotor/HT04.c ****             pid_ref += *motor->current_feedforward_ptr;
 186:modules/motor/HTmotor/HT04.c ****         if (setting->close_loop_type & CURRENT_LOOP)
 187:modules/motor/HTmotor/HT04.c ****         {
 188:modules/motor/HTmotor/HT04.c ****             pid_ref = PIDCalculate(&motor->current_PID, measure->real_current, pid_ref);
 455              		.loc 1 188 13 is_stmt 1 view .LVU131
 456              		.loc 1 188 23 is_stmt 0 view .LVU132
 457 0046 F0EE400A 		vmov.f32	s1, s0
 458 004a 94ED080A 		vldr.32	s0, [r4, #32]
 459              	.LVL48:
 460              		.loc 1 188 23 view .LVU133
 461 004e 04F13800 		add	r0, r4, #56
 462 0052 FFF7FEFF 		bl	PIDCalculate
 463              	.LVL49:
 464              		.loc 1 188 23 view .LVU134
 465 0056 65E0     		b	.L27
 466              	.LVL50:
 467              	.L32:
 189:modules/motor/HTmotor/HT04.c ****         }
 190:modules/motor/HTmotor/HT04.c **** 
 191:modules/motor/HTmotor/HT04.c ****         set = pid_ref;
 192:modules/motor/HTmotor/HT04.c **** 
 193:modules/motor/HTmotor/HT04.c ****         LIMIT_MIN_MAX(set, T_MIN, T_MAX);
 468              		.loc 1 193 9 discriminator 1 view .LVU135
 469 0058 BBEE020A 		vmov.f32	s0, #-1.8e+1
 470              	.LVL51:
 471              	.L28:
 194:modules/motor/HTmotor/HT04.c ****         tmp = float_to_uint(set, T_MIN, T_MAX, 12);
 472              		.loc 1 194 9 is_stmt 1 view .LVU136
 473              		.loc 1 194 15 is_stmt 0 view .LVU137
 474 005c 0C20     		movs	r0, #12
 475 005e B3EE021A 		vmov.f32	s2, #1.8e+1
 476 0062 FBEE020A 		vmov.f32	s1, #-1.8e+1
 477 0066 FFF7FEFF 		bl	float_to_uint
 478              	.LVL52:
 195:modules/motor/HTmotor/HT04.c ****         if (motor->stop_flag == MOTOR_STOP)
 479              		.loc 1 195 9 is_stmt 1 view .LVU138
 480              		.loc 1 195 18 is_stmt 0 view .LVU139
 481 006a 94F8B431 		ldrb	r3, [r4, #436]	@ zero_extendqisi2
 482              		.loc 1 195 12 view .LVU140
 483 006e 43B9     		cbnz	r3, .L30
 196:modules/motor/HTmotor/HT04.c ****             tmp = float_to_uint(0, T_MIN, T_MAX, 12);
 484              		.loc 1 196 13 is_stmt 1 view .LVU141
 485              		.loc 1 196 19 is_stmt 0 view .LVU142
 486 0070 0C20     		movs	r0, #12
 487              	.LVL53:
 488              		.loc 1 196 19 view .LVU143
 489 0072 B3EE021A 		vmov.f32	s2, #1.8e+1
 490 0076 FBEE020A 		vmov.f32	s1, #-1.8e+1
 491 007a 9FED340A 		vldr.32	s0, .L40+4
ARM GAS  C:\Users\Administrator\AppData\Local\Temp\ccPu3lUf.s 			page 14


 492 007e FFF7FEFF 		bl	float_to_uint
 493              	.LVL54:
 494              	.L30:
 197:modules/motor/HTmotor/HT04.c ****         motor_can->tx_buff[6] = (tmp >> 8);
 495              		.loc 1 197 9 is_stmt 1 view .LVU144
 496              		.loc 1 197 31 is_stmt 0 view .LVU145
 497 0082 030A     		lsrs	r3, r0, #8
 498 0084 85F82A30 		strb	r3, [r5, #42]
 198:modules/motor/HTmotor/HT04.c ****         motor_can->tx_buff[7] = tmp & 0xff;
 499              		.loc 1 198 9 is_stmt 1 view .LVU146
 500              		.loc 1 198 31 is_stmt 0 view .LVU147
 501 0088 85F82B00 		strb	r0, [r5, #43]
 199:modules/motor/HTmotor/HT04.c **** 
 200:modules/motor/HTmotor/HT04.c ****         CANTransmit(motor_can, 0.5);
 502              		.loc 1 200 9 is_stmt 1 view .LVU148
 503 008c B6EE000A 		vmov.f32	s0, #5.0e-1
 504 0090 2846     		mov	r0, r5
 505              	.LVL55:
 506              		.loc 1 200 9 is_stmt 0 view .LVU149
 507 0092 FFF7FEFF 		bl	CANTransmit
 508              	.LVL56:
 201:modules/motor/HTmotor/HT04.c **** 
 202:modules/motor/HTmotor/HT04.c ****         osDelay(1);
 509              		.loc 1 202 9 is_stmt 1 view .LVU150
 510 0096 0120     		movs	r0, #1
 511 0098 FFF7FEFF 		bl	osDelay
 512              	.LVL57:
 155:modules/motor/HTmotor/HT04.c ****     {
 513              		.loc 1 155 11 view .LVU151
 514              	.L31:
 153:modules/motor/HTmotor/HT04.c **** 
 515              		.loc 1 153 5 view .LVU152
 155:modules/motor/HTmotor/HT04.c ****     {
 516              		.loc 1 155 5 view .LVU153
 157:modules/motor/HTmotor/HT04.c ****         if (setting->motor_reverse_flag == MOTOR_DIRECTION_REVERSE)
 517              		.loc 1 157 9 view .LVU154
 157:modules/motor/HTmotor/HT04.c ****         if (setting->motor_reverse_flag == MOTOR_DIRECTION_REVERSE)
 518              		.loc 1 157 17 is_stmt 0 view .LVU155
 519 009c 94ED6C0A 		vldr.32	s0, [r4, #432]
 520              	.LVL58:
 158:modules/motor/HTmotor/HT04.c ****             pid_ref *= -1;
 521              		.loc 1 158 9 is_stmt 1 view .LVU156
 158:modules/motor/HTmotor/HT04.c ****             pid_ref *= -1;
 522              		.loc 1 158 20 is_stmt 0 view .LVU157
 523 00a0 94F82E30 		ldrb	r3, [r4, #46]	@ zero_extendqisi2
 158:modules/motor/HTmotor/HT04.c ****             pid_ref *= -1;
 524              		.loc 1 158 12 view .LVU158
 525 00a4 012B     		cmp	r3, #1
 526 00a6 B0D0     		beq	.L36
 527              	.LVL59:
 528              	.L18:
 161:modules/motor/HTmotor/HT04.c ****         {
 529              		.loc 1 161 9 is_stmt 1 view .LVU159
 161:modules/motor/HTmotor/HT04.c ****         {
 530              		.loc 1 161 21 is_stmt 0 view .LVU160
 531 00a8 94F82D30 		ldrb	r3, [r4, #45]	@ zero_extendqisi2
 161:modules/motor/HTmotor/HT04.c ****         {
ARM GAS  C:\Users\Administrator\AppData\Local\Temp\ccPu3lUf.s 			page 15


 532              		.loc 1 161 12 view .LVU161
 533 00ac 13F0040F 		tst	r3, #4
 534 00b0 03D0     		beq	.L19
 161:modules/motor/HTmotor/HT04.c ****         {
 535              		.loc 1 161 63 discriminator 1 view .LVU162
 536 00b2 94F82C30 		ldrb	r3, [r4, #44]	@ zero_extendqisi2
 161:modules/motor/HTmotor/HT04.c ****         {
 537              		.loc 1 161 53 discriminator 1 view .LVU163
 538 00b6 042B     		cmp	r3, #4
 539 00b8 AAD0     		beq	.L37
 540              	.LVL60:
 541              	.L19:
 171:modules/motor/HTmotor/HT04.c ****         {
 542              		.loc 1 171 9 is_stmt 1 view .LVU164
 171:modules/motor/HTmotor/HT04.c ****         {
 543              		.loc 1 171 21 is_stmt 0 view .LVU165
 544 00ba 94F82D30 		ldrb	r3, [r4, #45]	@ zero_extendqisi2
 171:modules/motor/HTmotor/HT04.c ****         {
 545              		.loc 1 171 12 view .LVU166
 546 00be 13F0020F 		tst	r3, #2
 547 00c2 1FD0     		beq	.L22
 171:modules/motor/HTmotor/HT04.c ****         {
 548              		.loc 1 171 63 discriminator 1 view .LVU167
 549 00c4 94F82C30 		ldrb	r3, [r4, #44]	@ zero_extendqisi2
 171:modules/motor/HTmotor/HT04.c ****         {
 550              		.loc 1 171 53 discriminator 1 view .LVU168
 551 00c8 13F0060F 		tst	r3, #6
 552 00cc 1AD0     		beq	.L22
 173:modules/motor/HTmotor/HT04.c ****                 pid_ref += *motor->speed_feedforward_ptr;
 553              		.loc 1 173 13 is_stmt 1 view .LVU169
 173:modules/motor/HTmotor/HT04.c ****                 pid_ref += *motor->speed_feedforward_ptr;
 554              		.loc 1 173 24 is_stmt 0 view .LVU170
 555 00ce 94F83230 		ldrb	r3, [r4, #50]	@ zero_extendqisi2
 173:modules/motor/HTmotor/HT04.c ****                 pid_ref += *motor->speed_feedforward_ptr;
 556              		.loc 1 173 16 view .LVU171
 557 00d2 13F0020F 		tst	r3, #2
 558 00d6 05D0     		beq	.L23
 174:modules/motor/HTmotor/HT04.c **** 
 559              		.loc 1 174 17 is_stmt 1 view .LVU172
 174:modules/motor/HTmotor/HT04.c **** 
 560              		.loc 1 174 34 is_stmt 0 view .LVU173
 561 00d8 D4F8A831 		ldr	r3, [r4, #424]
 174:modules/motor/HTmotor/HT04.c **** 
 562              		.loc 1 174 28 view .LVU174
 563 00dc D3ED007A 		vldr.32	s15, [r3]
 174:modules/motor/HTmotor/HT04.c **** 
 564              		.loc 1 174 25 view .LVU175
 565 00e0 30EE270A 		vadd.f32	s0, s0, s15
 566              	.LVL61:
 567              	.L23:
 176:modules/motor/HTmotor/HT04.c ****                 pid_measure = *motor->other_speed_feedback_ptr;
 568              		.loc 1 176 13 is_stmt 1 view .LVU176
 176:modules/motor/HTmotor/HT04.c ****                 pid_measure = *motor->other_speed_feedback_ptr;
 569              		.loc 1 176 24 is_stmt 0 view .LVU177
 570 00e4 94F83030 		ldrb	r3, [r4, #48]	@ zero_extendqisi2
 176:modules/motor/HTmotor/HT04.c ****                 pid_measure = *motor->other_speed_feedback_ptr;
 571              		.loc 1 176 16 view .LVU178
ARM GAS  C:\Users\Administrator\AppData\Local\Temp\ccPu3lUf.s 			page 16


 572 00e8 012B     		cmp	r3, #1
 573 00ea A7D0     		beq	.L38
 179:modules/motor/HTmotor/HT04.c ****             // measureеҚ•дҪҚжҳҜrad / s ,refжҳҜangle per sec,з»ҹдёҖеҲ°angleдёӢи®Ўз®—
 574              		.loc 1 179 17 is_stmt 1 view .LVU179
 179:modules/motor/HTmotor/HT04.c ****             // measureеҚ•дҪҚжҳҜrad / s ,refжҳҜangle per sec,з»ҹдёҖеҲ°angleдёӢи®Ўз®—
 575              		.loc 1 179 29 is_stmt 0 view .LVU180
 576 00ec 94ED027A 		vldr.32	s14, [r4, #8]
 577              	.L25:
 578              	.LVL62:
 181:modules/motor/HTmotor/HT04.c ****         }
 579              		.loc 1 181 13 is_stmt 1 view .LVU181
 181:modules/motor/HTmotor/HT04.c ****         }
 580              		.loc 1 181 23 is_stmt 0 view .LVU182
 581 00f0 F0EE400A 		vmov.f32	s1, s0
 582 00f4 9FED140A 		vldr.32	s0, .L40
 583              	.LVL63:
 181:modules/motor/HTmotor/HT04.c ****         }
 584              		.loc 1 181 23 view .LVU183
 585 00f8 27EE000A 		vmul.f32	s0, s14, s0
 586 00fc 04F1B000 		add	r0, r4, #176
 587 0100 FFF7FEFF 		bl	PIDCalculate
 588              	.LVL64:
 589              	.L22:
 184:modules/motor/HTmotor/HT04.c ****             pid_ref += *motor->current_feedforward_ptr;
 590              		.loc 1 184 9 is_stmt 1 view .LVU184
 184:modules/motor/HTmotor/HT04.c ****             pid_ref += *motor->current_feedforward_ptr;
 591              		.loc 1 184 20 is_stmt 0 view .LVU185
 592 0104 94F83230 		ldrb	r3, [r4, #50]	@ zero_extendqisi2
 184:modules/motor/HTmotor/HT04.c ****             pid_ref += *motor->current_feedforward_ptr;
 593              		.loc 1 184 12 view .LVU186
 594 0108 13F0010F 		tst	r3, #1
 595 010c 05D0     		beq	.L26
 185:modules/motor/HTmotor/HT04.c ****         if (setting->close_loop_type & CURRENT_LOOP)
 596              		.loc 1 185 13 is_stmt 1 view .LVU187
 185:modules/motor/HTmotor/HT04.c ****         if (setting->close_loop_type & CURRENT_LOOP)
 597              		.loc 1 185 30 is_stmt 0 view .LVU188
 598 010e D4F8AC31 		ldr	r3, [r4, #428]
 185:modules/motor/HTmotor/HT04.c ****         if (setting->close_loop_type & CURRENT_LOOP)
 599              		.loc 1 185 24 view .LVU189
 600 0112 D3ED007A 		vldr.32	s15, [r3]
 185:modules/motor/HTmotor/HT04.c ****         if (setting->close_loop_type & CURRENT_LOOP)
 601              		.loc 1 185 21 view .LVU190
 602 0116 30EE270A 		vadd.f32	s0, s0, s15
 603              	.LVL65:
 604              	.L26:
 186:modules/motor/HTmotor/HT04.c ****         {
 605              		.loc 1 186 9 is_stmt 1 view .LVU191
 186:modules/motor/HTmotor/HT04.c ****         {
 606              		.loc 1 186 20 is_stmt 0 view .LVU192
 607 011a 94F82D30 		ldrb	r3, [r4, #45]	@ zero_extendqisi2
 186:modules/motor/HTmotor/HT04.c ****         {
 608              		.loc 1 186 12 view .LVU193
 609 011e 13F0010F 		tst	r3, #1
 610 0122 90D1     		bne	.L39
 611              	.LVL66:
 612              	.L27:
 191:modules/motor/HTmotor/HT04.c **** 
ARM GAS  C:\Users\Administrator\AppData\Local\Temp\ccPu3lUf.s 			page 17


 613              		.loc 1 191 9 is_stmt 1 view .LVU194
 193:modules/motor/HTmotor/HT04.c ****         tmp = float_to_uint(set, T_MIN, T_MAX, 12);
 614              		.loc 1 193 9 view .LVU195
 615 0124 FBEE027A 		vmov.f32	s15, #-1.8e+1
 616 0128 B4EEE70A 		vcmpe.f32	s0, s15
 617 012c F1EE10FA 		vmrs	APSR_nzcv, FPSCR
 618 0130 92D9     		bls	.L32
 193:modules/motor/HTmotor/HT04.c ****         tmp = float_to_uint(set, T_MIN, T_MAX, 12);
 619              		.loc 1 193 9 is_stmt 0 discriminator 2 view .LVU196
 620 0132 F3EE027A 		vmov.f32	s15, #1.8e+1
 621 0136 B4EEE70A 		vcmpe.f32	s0, s15
 622 013a F1EE10FA 		vmrs	APSR_nzcv, FPSCR
 623 013e 8DDB     		blt	.L28
 193:modules/motor/HTmotor/HT04.c ****         tmp = float_to_uint(set, T_MIN, T_MAX, 12);
 624              		.loc 1 193 9 discriminator 3 view .LVU197
 625 0140 B0EE670A 		vmov.f32	s0, s15
 626              	.LVL67:
 193:modules/motor/HTmotor/HT04.c ****         tmp = float_to_uint(set, T_MIN, T_MAX, 12);
 627              		.loc 1 193 9 discriminator 3 view .LVU198
 628 0144 8AE7     		b	.L28
 629              	.L41:
 630 0146 00BF     		.align	2
 631              	.L40:
 632 0148 E12E6542 		.word	1113927393
 633 014c 00000000 		.word	0
 634              		.cfi_endproc
 635              	.LFE284:
 637              		.section	.text.HTMotorCalibEncoder,"ax",%progbits
 638              		.align	1
 639              		.global	HTMotorCalibEncoder
 640              		.syntax unified
 641              		.thumb
 642              		.thumb_func
 644              	HTMotorCalibEncoder:
 645              	.LVL68:
 646              	.LFB281:
  80:modules/motor/HTmotor/HT04.c ****     uint16_t p, v, kp, kd, t;
 647              		.loc 1 80 1 is_stmt 1 view -0
 648              		.cfi_startproc
 649              		@ args = 0, pretend = 0, frame = 0
 650              		@ frame_needed = 0, uses_anonymous_args = 0
  80:modules/motor/HTmotor/HT04.c ****     uint16_t p, v, kp, kd, t;
 651              		.loc 1 80 1 is_stmt 0 view .LVU200
 652 0000 2DE9F041 		push	{r4, r5, r6, r7, r8, lr}
 653              		.cfi_def_cfa_offset 24
 654              		.cfi_offset 4, -24
 655              		.cfi_offset 5, -20
 656              		.cfi_offset 6, -16
 657              		.cfi_offset 7, -12
 658              		.cfi_offset 8, -8
 659              		.cfi_offset 14, -4
 660 0004 2DED028B 		vpush.64	{d8}
 661              		.cfi_def_cfa_offset 32
 662              		.cfi_offset 80, -32
 663              		.cfi_offset 81, -28
 664 0008 0446     		mov	r4, r0
  81:modules/motor/HTmotor/HT04.c ****     p = float_to_uint(0, P_MIN, P_MAX, 16);
ARM GAS  C:\Users\Administrator\AppData\Local\Temp\ccPu3lUf.s 			page 18


 665              		.loc 1 81 5 is_stmt 1 view .LVU201
  82:modules/motor/HTmotor/HT04.c ****     v = float_to_uint(0, V_MIN, V_MAX, 12);
 666              		.loc 1 82 5 view .LVU202
  82:modules/motor/HTmotor/HT04.c ****     v = float_to_uint(0, V_MIN, V_MAX, 12);
 667              		.loc 1 82 9 is_stmt 0 view .LVU203
 668 000a 9FED368A 		vldr.32	s16, .L44
 669 000e 1020     		movs	r0, #16
 670              	.LVL69:
  82:modules/motor/HTmotor/HT04.c ****     v = float_to_uint(0, V_MIN, V_MAX, 12);
 671              		.loc 1 82 9 view .LVU204
 672 0010 9FED351A 		vldr.32	s2, .L44+4
 673 0014 DFED350A 		vldr.32	s1, .L44+8
 674 0018 B0EE480A 		vmov.f32	s0, s16
 675 001c FFF7FEFF 		bl	float_to_uint
 676              	.LVL70:
 677 0020 8046     		mov	r8, r0
 678              	.LVL71:
  83:modules/motor/HTmotor/HT04.c ****     kp = float_to_uint(0, KP_MIN, KP_MAX, 12);
 679              		.loc 1 83 5 is_stmt 1 view .LVU205
  83:modules/motor/HTmotor/HT04.c ****     kp = float_to_uint(0, KP_MIN, KP_MAX, 12);
 680              		.loc 1 83 9 is_stmt 0 view .LVU206
 681 0022 0C20     		movs	r0, #12
 682 0024 9FED321A 		vldr.32	s2, .L44+12
 683 0028 DFED320A 		vldr.32	s1, .L44+16
 684 002c B0EE480A 		vmov.f32	s0, s16
 685 0030 FFF7FEFF 		bl	float_to_uint
 686              	.LVL72:
 687 0034 0746     		mov	r7, r0
 688              	.LVL73:
  84:modules/motor/HTmotor/HT04.c ****     kd = float_to_uint(0, KD_MIN, KD_MAX, 12);
 689              		.loc 1 84 5 is_stmt 1 view .LVU207
  84:modules/motor/HTmotor/HT04.c ****     kd = float_to_uint(0, KD_MIN, KD_MAX, 12);
 690              		.loc 1 84 10 is_stmt 0 view .LVU208
 691 0036 0C20     		movs	r0, #12
 692 0038 9FED2F1A 		vldr.32	s2, .L44+20
 693 003c F0EE480A 		vmov.f32	s1, s16
 694 0040 B0EE480A 		vmov.f32	s0, s16
 695 0044 FFF7FEFF 		bl	float_to_uint
 696              	.LVL74:
 697 0048 0646     		mov	r6, r0
 698              	.LVL75:
  85:modules/motor/HTmotor/HT04.c ****     t = float_to_uint(0, T_MIN, T_MAX, 12);
 699              		.loc 1 85 5 is_stmt 1 view .LVU209
  85:modules/motor/HTmotor/HT04.c ****     t = float_to_uint(0, T_MIN, T_MAX, 12);
 700              		.loc 1 85 10 is_stmt 0 view .LVU210
 701 004a 0C20     		movs	r0, #12
 702 004c B1EE041A 		vmov.f32	s2, #5.0e+0
 703 0050 F0EE480A 		vmov.f32	s1, s16
 704 0054 B0EE480A 		vmov.f32	s0, s16
 705 0058 FFF7FEFF 		bl	float_to_uint
 706              	.LVL76:
 707 005c 0546     		mov	r5, r0
 708              	.LVL77:
  86:modules/motor/HTmotor/HT04.c **** 
 709              		.loc 1 86 5 is_stmt 1 view .LVU211
  86:modules/motor/HTmotor/HT04.c **** 
 710              		.loc 1 86 9 is_stmt 0 view .LVU212
ARM GAS  C:\Users\Administrator\AppData\Local\Temp\ccPu3lUf.s 			page 19


 711 005e 0C20     		movs	r0, #12
 712 0060 B3EE021A 		vmov.f32	s2, #1.8e+1
 713 0064 FBEE020A 		vmov.f32	s1, #-1.8e+1
 714 0068 B0EE480A 		vmov.f32	s0, s16
 715 006c FFF7FEFF 		bl	float_to_uint
 716              	.LVL78:
  88:modules/motor/HTmotor/HT04.c ****     buf[0] = p >> 8;
 717              		.loc 1 88 5 is_stmt 1 view .LVU213
  88:modules/motor/HTmotor/HT04.c ****     buf[0] = p >> 8;
 718              		.loc 1 88 25 is_stmt 0 view .LVU214
 719 0070 D4F8B831 		ldr	r3, [r4, #440]
 720              	.LVL79:
  89:modules/motor/HTmotor/HT04.c ****     buf[1] = p & 0xFF;
 721              		.loc 1 89 5 is_stmt 1 view .LVU215
  89:modules/motor/HTmotor/HT04.c ****     buf[1] = p & 0xFF;
 722              		.loc 1 89 12 is_stmt 0 view .LVU216
 723 0074 4FEA1821 		lsr	r1, r8, #8
 724 0078 83F82410 		strb	r1, [r3, #36]
  90:modules/motor/HTmotor/HT04.c ****     buf[2] = v >> 4;
 725              		.loc 1 90 5 is_stmt 1 view .LVU217
  90:modules/motor/HTmotor/HT04.c ****     buf[2] = v >> 4;
 726              		.loc 1 90 12 is_stmt 0 view .LVU218
 727 007c 83F82580 		strb	r8, [r3, #37]
  91:modules/motor/HTmotor/HT04.c ****     buf[3] = ((v & 0xF) << 4) | (kp >> 8);
 728              		.loc 1 91 5 is_stmt 1 view .LVU219
  91:modules/motor/HTmotor/HT04.c ****     buf[3] = ((v & 0xF) << 4) | (kp >> 8);
 729              		.loc 1 91 12 is_stmt 0 view .LVU220
 730 0080 3909     		lsrs	r1, r7, #4
 731 0082 83F82610 		strb	r1, [r3, #38]
  92:modules/motor/HTmotor/HT04.c ****     buf[4] = kp & 0xFF;
 732              		.loc 1 92 5 is_stmt 1 view .LVU221
  92:modules/motor/HTmotor/HT04.c ****     buf[4] = kp & 0xFF;
 733              		.loc 1 92 31 is_stmt 0 view .LVU222
 734 0086 310A     		lsrs	r1, r6, #8
 735 0088 41EA0711 		orr	r1, r1, r7, lsl #4
  92:modules/motor/HTmotor/HT04.c ****     buf[4] = kp & 0xFF;
 736              		.loc 1 92 12 view .LVU223
 737 008c 83F82710 		strb	r1, [r3, #39]
  93:modules/motor/HTmotor/HT04.c ****     buf[5] = kd >> 4;
 738              		.loc 1 93 5 is_stmt 1 view .LVU224
  93:modules/motor/HTmotor/HT04.c ****     buf[5] = kd >> 4;
 739              		.loc 1 93 12 is_stmt 0 view .LVU225
 740 0090 83F82860 		strb	r6, [r3, #40]
  94:modules/motor/HTmotor/HT04.c ****     buf[6] = ((kd & 0xF) << 4) | (t >> 8);
 741              		.loc 1 94 5 is_stmt 1 view .LVU226
  94:modules/motor/HTmotor/HT04.c ****     buf[6] = ((kd & 0xF) << 4) | (t >> 8);
 742              		.loc 1 94 12 is_stmt 0 view .LVU227
 743 0094 2909     		lsrs	r1, r5, #4
 744 0096 83F82910 		strb	r1, [r3, #41]
  95:modules/motor/HTmotor/HT04.c ****     buf[7] = t & 0xff;
 745              		.loc 1 95 5 is_stmt 1 view .LVU228
  95:modules/motor/HTmotor/HT04.c ****     buf[7] = t & 0xff;
 746              		.loc 1 95 32 is_stmt 0 view .LVU229
 747 009a 010A     		lsrs	r1, r0, #8
 748 009c 41EA0511 		orr	r1, r1, r5, lsl #4
  95:modules/motor/HTmotor/HT04.c ****     buf[7] = t & 0xff;
 749              		.loc 1 95 12 view .LVU230
ARM GAS  C:\Users\Administrator\AppData\Local\Temp\ccPu3lUf.s 			page 20


 750 00a0 83F82A10 		strb	r1, [r3, #42]
  96:modules/motor/HTmotor/HT04.c ****     memcpy(zero_buff, buf, 6); // еҲқе§ӢеҢ–зҡ„ж—¶еҖҷиҮіе°‘и°ғз”ЁдёҖж¬Ў,ж•…е°Ҷе…¶д»–жҢҮд»Өдёә0ж—¶еҸ‘
 751              		.loc 1 96 5 is_stmt 1 view .LVU231
  96:modules/motor/HTmotor/HT04.c ****     memcpy(zero_buff, buf, 6); // еҲқе§ӢеҢ–зҡ„ж—¶еҖҷиҮіе°‘и°ғз”ЁдёҖж¬Ў,ж•…е°Ҷе…¶д»–жҢҮд»Өдёә0ж—¶еҸ‘
 752              		.loc 1 96 12 is_stmt 0 view .LVU232
 753 00a4 83F82B00 		strb	r0, [r3, #43]
  97:modules/motor/HTmotor/HT04.c ****     CANTransmit(motor->motor_can_instace, 1);
 754              		.loc 1 97 5 is_stmt 1 view .LVU233
 755 00a8 144A     		ldr	r2, .L44+24
 756 00aa 586A     		ldr	r0, [r3, #36]	@ unaligned
 757              	.LVL80:
  97:modules/motor/HTmotor/HT04.c ****     CANTransmit(motor->motor_can_instace, 1);
 758              		.loc 1 97 5 is_stmt 0 view .LVU234
 759 00ac 1060     		str	r0, [r2]
 760 00ae 1B8D     		ldrh	r3, [r3, #40]	@ unaligned
 761              	.LVL81:
  97:modules/motor/HTmotor/HT04.c ****     CANTransmit(motor->motor_can_instace, 1);
 762              		.loc 1 97 5 view .LVU235
 763 00b0 9380     		strh	r3, [r2, #4]	@ unaligned
  98:modules/motor/HTmotor/HT04.c ****     DWT_Delay(0.005);
 764              		.loc 1 98 5 is_stmt 1 view .LVU236
 765 00b2 B7EE000A 		vmov.f32	s0, #1.0e+0
 766 00b6 D4F8B801 		ldr	r0, [r4, #440]
 767 00ba FFF7FEFF 		bl	CANTransmit
 768              	.LVL82:
  99:modules/motor/HTmotor/HT04.c ****     HTMotorSetMode(CMD_ZERO_POSITION, motor); // sb зҺ©ж„Ҹж ЎеҮҶе®ҢдәҶзј–з ҒеҷЁд№ҹдёҚдёә0
 769              		.loc 1 99 5 view .LVU237
 770 00be 9FED108A 		vldr.32	s16, .L44+28
 771 00c2 B0EE480A 		vmov.f32	s0, s16
 772 00c6 FFF7FEFF 		bl	DWT_Delay
 773              	.LVL83:
 100:modules/motor/HTmotor/HT04.c ****     DWT_Delay(0.005);
 774              		.loc 1 100 5 view .LVU238
 775 00ca 2146     		mov	r1, r4
 776 00cc FE20     		movs	r0, #254
 777 00ce FFF7FEFF 		bl	HTMotorSetMode
 778              	.LVL84:
 101:modules/motor/HTmotor/HT04.c ****     // HTMotorSetMode(CMD_MOTOR_MODE, motor);
 779              		.loc 1 101 5 view .LVU239
 780 00d2 B0EE480A 		vmov.f32	s0, s16
 781 00d6 FFF7FEFF 		bl	DWT_Delay
 782              	.LVL85:
 103:modules/motor/HTmotor/HT04.c **** 
 783              		.loc 1 103 1 is_stmt 0 view .LVU240
 784 00da BDEC028B 		vldm	sp!, {d8}
 785              		.cfi_restore 80
 786              		.cfi_restore 81
 787              		.cfi_def_cfa_offset 24
 788 00de BDE8F081 		pop	{r4, r5, r6, r7, r8, pc}
 789              	.LVL86:
 790              	.L45:
 103:modules/motor/HTmotor/HT04.c **** 
 791              		.loc 1 103 1 view .LVU241
 792 00e2 00BF     		.align	2
 793              	.L44:
 794 00e4 00000000 		.word	0
 795 00e8 0000BF42 		.word	1119813632
ARM GAS  C:\Users\Administrator\AppData\Local\Temp\ccPu3lUf.s 			page 21


 796 00ec 0000BFC2 		.word	-1027670016
 797 00f0 00003442 		.word	1110704128
 798 00f4 000034C2 		.word	-1036779520
 799 00f8 0000FA43 		.word	1140457472
 800 00fc 00000000 		.word	zero_buff
 801 0100 0AD7A33B 		.word	1000593162
 802              		.cfi_endproc
 803              	.LFE281:
 805              		.section	.text.HTMotorSetRef,"ax",%progbits
 806              		.align	1
 807              		.global	HTMotorSetRef
 808              		.syntax unified
 809              		.thumb
 810              		.thumb_func
 812              	HTMotorSetRef:
 813              	.LVL87:
 814              	.LFB283:
 138:modules/motor/HTmotor/HT04.c ****     motor->pid_ref = ref;
 815              		.loc 1 138 1 is_stmt 1 view -0
 816              		.cfi_startproc
 817              		@ args = 0, pretend = 0, frame = 0
 818              		@ frame_needed = 0, uses_anonymous_args = 0
 819              		@ link register save eliminated.
 139:modules/motor/HTmotor/HT04.c **** }
 820              		.loc 1 139 5 view .LVU243
 139:modules/motor/HTmotor/HT04.c **** }
 821              		.loc 1 139 20 is_stmt 0 view .LVU244
 822 0000 80ED6C0A 		vstr.32	s0, [r0, #432]
 140:modules/motor/HTmotor/HT04.c **** 
 823              		.loc 1 140 1 view .LVU245
 824 0004 7047     		bx	lr
 825              		.cfi_endproc
 826              	.LFE283:
 828              		.section	.text.HTMotorControlInit,"ax",%progbits
 829              		.align	1
 830              		.global	HTMotorControlInit
 831              		.syntax unified
 832              		.thumb
 833              		.thumb_func
 835              	HTMotorControlInit:
 836              	.LFB285:
 203:modules/motor/HTmotor/HT04.c ****     }
 204:modules/motor/HTmotor/HT04.c **** }
 205:modules/motor/HTmotor/HT04.c **** 
 206:modules/motor/HTmotor/HT04.c **** void HTMotorControlInit()
 207:modules/motor/HTmotor/HT04.c **** {
 837              		.loc 1 207 1 is_stmt 1 view -0
 838              		.cfi_startproc
 839              		@ args = 0, pretend = 0, frame = 40
 840              		@ frame_needed = 0, uses_anonymous_args = 0
 841 0000 30B5     		push	{r4, r5, lr}
 842              		.cfi_def_cfa_offset 12
 843              		.cfi_offset 4, -12
 844              		.cfi_offset 5, -8
 845              		.cfi_offset 14, -4
 846 0002 8BB0     		sub	sp, sp, #44
 847              		.cfi_def_cfa_offset 56
ARM GAS  C:\Users\Administrator\AppData\Local\Temp\ccPu3lUf.s 			page 22


 208:modules/motor/HTmotor/HT04.c ****     char ht_task_name[5] = "ht";
 848              		.loc 1 208 5 view .LVU247
 849              		.loc 1 208 10 is_stmt 0 view .LVU248
 850 0004 47F26843 		movw	r3, #29800
 851 0008 0893     		str	r3, [sp, #32]
 852 000a 0023     		movs	r3, #0
 853 000c 8DF82430 		strb	r3, [sp, #36]
 209:modules/motor/HTmotor/HT04.c ****     // йҒҚеҺҶжүҖжңүз”өжңәе®һдҫӢ,еҲӣе»әд»»еҠЎ
 210:modules/motor/HTmotor/HT04.c ****     if (!idx)
 854              		.loc 1 210 5 is_stmt 1 view .LVU249
 855              		.loc 1 210 9 is_stmt 0 view .LVU250
 856 0010 154B     		ldr	r3, .L53
 857 0012 1B78     		ldrb	r3, [r3]	@ zero_extendqisi2
 858              		.loc 1 210 8 view .LVU251
 859 0014 2BB3     		cbz	r3, .L47
 860              	.LBB2:
 211:modules/motor/HTmotor/HT04.c ****         return;
 212:modules/motor/HTmotor/HT04.c ****     for (size_t i = 0; i < idx; i++)
 861              		.loc 1 212 17 view .LVU252
 862 0016 0024     		movs	r4, #0
 863 0018 1FE0     		b	.L48
 864              	.LVL88:
 865              	.L50:
 866              	.LBB3:
 213:modules/motor/HTmotor/HT04.c ****     {
 214:modules/motor/HTmotor/HT04.c ****         char ht_id_buff[2] = {0};
 867              		.loc 1 214 9 is_stmt 1 view .LVU253
 868              		.loc 1 214 14 is_stmt 0 view .LVU254
 869 001a 0023     		movs	r3, #0
 870 001c ADF80030 		strh	r3, [sp]	@ movhi
 215:modules/motor/HTmotor/HT04.c ****         __itoa(i, ht_id_buff, 10);
 871              		.loc 1 215 9 is_stmt 1 view .LVU255
 872 0020 0A22     		movs	r2, #10
 873 0022 6946     		mov	r1, sp
 874 0024 2046     		mov	r0, r4
 875 0026 FFF7FEFF 		bl	__itoa
 876              	.LVL89:
 216:modules/motor/HTmotor/HT04.c ****         strcat(ht_task_name, ht_id_buff); // дјјд№ҺжІЎд»Җд№ҲеҗҠз”Ё,osthreaddefдјҡжҠҠз¬¬дёҖдёӘеҸҳйҮҸ
 877              		.loc 1 216 9 view .LVU256
 878 002a 6946     		mov	r1, sp
 879 002c 08A8     		add	r0, sp, #32
 880 002e FFF7FEFF 		bl	strcat
 881              	.LVL90:
 217:modules/motor/HTmotor/HT04.c ****         // @todo иҝҳйңҖиҰҒдёҖдёӘжӣҙдјҳйӣ…зҡ„ж–№жЎҲжқҘеҢәеҲҶдёҚеҗҢзҡ„з”өжңәд»»еҠЎ
 218:modules/motor/HTmotor/HT04.c ****         osThreadDef(ht_task_name, HTMotorTask, osPriorityNormal, 0, 128);
 882              		.loc 1 218 9 view .LVU257
 883 0032 0DF1040C 		add	ip, sp, #4
 884 0036 0D4D     		ldr	r5, .L53+4
 885 0038 0FCD     		ldmia	r5!, {r0, r1, r2, r3}
 886 003a ACE80F00 		stmia	ip!, {r0, r1, r2, r3}
 887 003e 95E80700 		ldm	r5, {r0, r1, r2}
 888 0042 8CE80700 		stm	ip, {r0, r1, r2}
 219:modules/motor/HTmotor/HT04.c ****         ht_task_handle[i] = osThreadCreate(osThread(ht_task_name), ht_motor_instance[i]);
 889              		.loc 1 219 9 view .LVU258
 890              		.loc 1 219 29 is_stmt 0 view .LVU259
 891 0046 0A4B     		ldr	r3, .L53+8
 892 0048 53F82410 		ldr	r1, [r3, r4, lsl #2]
ARM GAS  C:\Users\Administrator\AppData\Local\Temp\ccPu3lUf.s 			page 23


 893 004c 01A8     		add	r0, sp, #4
 894 004e FFF7FEFF 		bl	osThreadCreate
 895              	.LVL91:
 896              		.loc 1 219 27 discriminator 1 view .LVU260
 897 0052 084B     		ldr	r3, .L53+12
 898 0054 43F82400 		str	r0, [r3, r4, lsl #2]
 899              	.LBE3:
 212:modules/motor/HTmotor/HT04.c ****     {
 900              		.loc 1 212 34 is_stmt 1 discriminator 3 view .LVU261
 901 0058 0134     		adds	r4, r4, #1
 902              	.LVL92:
 903              	.L48:
 212:modules/motor/HTmotor/HT04.c ****     {
 904              		.loc 1 212 26 discriminator 1 view .LVU262
 905 005a 034B     		ldr	r3, .L53
 906 005c 1B78     		ldrb	r3, [r3]	@ zero_extendqisi2
 907 005e A342     		cmp	r3, r4
 908 0060 DBD8     		bhi	.L50
 909              	.LVL93:
 910              	.L47:
 212:modules/motor/HTmotor/HT04.c ****     {
 911              		.loc 1 212 26 is_stmt 0 discriminator 1 view .LVU263
 912              	.LBE2:
 220:modules/motor/HTmotor/HT04.c ****     }
 221:modules/motor/HTmotor/HT04.c **** }
 913              		.loc 1 221 1 view .LVU264
 914 0062 0BB0     		add	sp, sp, #44
 915              		.cfi_def_cfa_offset 12
 916              		@ sp needed
 917 0064 30BD     		pop	{r4, r5, pc}
 918              	.L54:
 919 0066 00BF     		.align	2
 920              	.L53:
 921 0068 00000000 		.word	idx
 922 006c 00000000 		.word	.LANCHOR0
 923 0070 00000000 		.word	ht_motor_instance
 924 0074 00000000 		.word	ht_task_handle
 925              		.cfi_endproc
 926              	.LFE285:
 928              		.section	.text.HTMotorStop,"ax",%progbits
 929              		.align	1
 930              		.global	HTMotorStop
 931              		.syntax unified
 932              		.thumb
 933              		.thumb_func
 935              	HTMotorStop:
 936              	.LVL94:
 937              	.LFB286:
 222:modules/motor/HTmotor/HT04.c **** 
 223:modules/motor/HTmotor/HT04.c **** void HTMotorStop(HTMotorInstance *motor)
 224:modules/motor/HTmotor/HT04.c **** {
 938              		.loc 1 224 1 is_stmt 1 view -0
 939              		.cfi_startproc
 940              		@ args = 0, pretend = 0, frame = 0
 941              		@ frame_needed = 0, uses_anonymous_args = 0
 942              		@ link register save eliminated.
 225:modules/motor/HTmotor/HT04.c ****     motor->stop_flag = MOTOR_STOP;
ARM GAS  C:\Users\Administrator\AppData\Local\Temp\ccPu3lUf.s 			page 24


 943              		.loc 1 225 5 view .LVU266
 944              		.loc 1 225 22 is_stmt 0 view .LVU267
 945 0000 0023     		movs	r3, #0
 946 0002 80F8B431 		strb	r3, [r0, #436]
 226:modules/motor/HTmotor/HT04.c **** }
 947              		.loc 1 226 1 view .LVU268
 948 0006 7047     		bx	lr
 949              		.cfi_endproc
 950              	.LFE286:
 952              		.section	.text.HTMotorEnable,"ax",%progbits
 953              		.align	1
 954              		.global	HTMotorEnable
 955              		.syntax unified
 956              		.thumb
 957              		.thumb_func
 959              	HTMotorEnable:
 960              	.LVL95:
 961              	.LFB287:
 227:modules/motor/HTmotor/HT04.c **** 
 228:modules/motor/HTmotor/HT04.c **** void HTMotorEnable(HTMotorInstance *motor)
 229:modules/motor/HTmotor/HT04.c **** {
 962              		.loc 1 229 1 is_stmt 1 view -0
 963              		.cfi_startproc
 964              		@ args = 0, pretend = 0, frame = 0
 965              		@ frame_needed = 0, uses_anonymous_args = 0
 966              		@ link register save eliminated.
 230:modules/motor/HTmotor/HT04.c ****     motor->stop_flag = MOTOR_ENALBED;
 967              		.loc 1 230 5 view .LVU270
 968              		.loc 1 230 22 is_stmt 0 view .LVU271
 969 0000 0123     		movs	r3, #1
 970 0002 80F8B431 		strb	r3, [r0, #436]
 231:modules/motor/HTmotor/HT04.c **** }
 971              		.loc 1 231 1 view .LVU272
 972 0006 7047     		bx	lr
 973              		.cfi_endproc
 974              	.LFE287:
 976              		.section	.text.HTMotorInit,"ax",%progbits
 977              		.align	1
 978              		.global	HTMotorInit
 979              		.syntax unified
 980              		.thumb
 981              		.thumb_func
 983              	HTMotorInit:
 984              	.LVL96:
 985              	.LFB282:
 106:modules/motor/HTmotor/HT04.c ****     HTMotorInstance *motor = (HTMotorInstance *)malloc(sizeof(HTMotorInstance));
 986              		.loc 1 106 1 is_stmt 1 view -0
 987              		.cfi_startproc
 988              		@ args = 0, pretend = 0, frame = 16
 989              		@ frame_needed = 0, uses_anonymous_args = 0
 106:modules/motor/HTmotor/HT04.c ****     HTMotorInstance *motor = (HTMotorInstance *)malloc(sizeof(HTMotorInstance));
 990              		.loc 1 106 1 is_stmt 0 view .LVU274
 991 0000 30B5     		push	{r4, r5, lr}
 992              		.cfi_def_cfa_offset 12
 993              		.cfi_offset 4, -12
 994              		.cfi_offset 5, -8
 995              		.cfi_offset 14, -4
ARM GAS  C:\Users\Administrator\AppData\Local\Temp\ccPu3lUf.s 			page 25


 996 0002 2DED028B 		vpush.64	{d8}
 997              		.cfi_def_cfa_offset 20
 998              		.cfi_offset 80, -20
 999              		.cfi_offset 81, -16
 1000 0006 85B0     		sub	sp, sp, #20
 1001              		.cfi_def_cfa_offset 40
 1002 0008 0546     		mov	r5, r0
 107:modules/motor/HTmotor/HT04.c ****     memset(motor, 0, sizeof(HTMotorInstance));
 1003              		.loc 1 107 5 is_stmt 1 view .LVU275
 107:modules/motor/HTmotor/HT04.c ****     memset(motor, 0, sizeof(HTMotorInstance));
 1004              		.loc 1 107 49 is_stmt 0 view .LVU276
 1005 000a 4FF4E470 		mov	r0, #456
 1006              	.LVL97:
 107:modules/motor/HTmotor/HT04.c ****     memset(motor, 0, sizeof(HTMotorInstance));
 1007              		.loc 1 107 49 view .LVU277
 1008 000e FFF7FEFF 		bl	malloc
 1009              	.LVL98:
 1010 0012 0446     		mov	r4, r0
 1011              	.LVL99:
 108:modules/motor/HTmotor/HT04.c **** 
 1012              		.loc 1 108 5 is_stmt 1 view .LVU278
 1013 0014 4FF4E472 		mov	r2, #456
 1014 0018 0021     		movs	r1, #0
 1015 001a FFF7FEFF 		bl	memset
 1016              	.LVL100:
 110:modules/motor/HTmotor/HT04.c ****     PIDInit(&motor->current_PID, &config->controller_param_init_config.current_PID);
 1017              		.loc 1 110 5 view .LVU279
 110:modules/motor/HTmotor/HT04.c ****     PIDInit(&motor->current_PID, &config->controller_param_init_config.current_PID);
 1018              		.loc 1 110 27 is_stmt 0 view .LVU280
 1019 001e 04F12C03 		add	r3, r4, #44
 1020 0022 05F19402 		add	r2, r5, #148
 1021 0026 92E80300 		ldm	r2, {r0, r1}
 1022 002a 83E80300 		stm	r3, {r0, r1}
 111:modules/motor/HTmotor/HT04.c ****     PIDInit(&motor->speed_PID, &config->controller_param_init_config.speed_PID);
 1023              		.loc 1 111 5 is_stmt 1 view .LVU281
 1024 002e 05F11001 		add	r1, r5, #16
 1025 0032 04F13800 		add	r0, r4, #56
 1026 0036 FFF7FEFF 		bl	PIDInit
 1027              	.LVL101:
 112:modules/motor/HTmotor/HT04.c ****     PIDInit(&motor->angle_PID, &config->controller_param_init_config.angle_PID);
 1028              		.loc 1 112 5 view .LVU282
 1029 003a 05F13C01 		add	r1, r5, #60
 1030 003e 04F1B000 		add	r0, r4, #176
 1031 0042 FFF7FEFF 		bl	PIDInit
 1032              	.LVL102:
 113:modules/motor/HTmotor/HT04.c ****     motor->other_angle_feedback_ptr = config->controller_param_init_config.other_angle_feedback_ptr
 1033              		.loc 1 113 5 view .LVU283
 1034 0046 05F16801 		add	r1, r5, #104
 1035 004a 04F59470 		add	r0, r4, #296
 1036 004e FFF7FEFF 		bl	PIDInit
 1037              	.LVL103:
 114:modules/motor/HTmotor/HT04.c ****     motor->other_speed_feedback_ptr = config->controller_param_init_config.other_speed_feedback_ptr
 1038              		.loc 1 114 5 view .LVU284
 114:modules/motor/HTmotor/HT04.c ****     motor->other_speed_feedback_ptr = config->controller_param_init_config.other_speed_feedback_ptr
 1039              		.loc 1 114 75 is_stmt 0 view .LVU285
 1040 0052 2B68     		ldr	r3, [r5]
 114:modules/motor/HTmotor/HT04.c ****     motor->other_speed_feedback_ptr = config->controller_param_init_config.other_speed_feedback_ptr
ARM GAS  C:\Users\Administrator\AppData\Local\Temp\ccPu3lUf.s 			page 26


 1041              		.loc 1 114 37 view .LVU286
 1042 0054 C4F8A031 		str	r3, [r4, #416]
 115:modules/motor/HTmotor/HT04.c **** 
 1043              		.loc 1 115 5 is_stmt 1 view .LVU287
 115:modules/motor/HTmotor/HT04.c **** 
 1044              		.loc 1 115 75 is_stmt 0 view .LVU288
 1045 0058 6B68     		ldr	r3, [r5, #4]
 115:modules/motor/HTmotor/HT04.c **** 
 1046              		.loc 1 115 37 view .LVU289
 1047 005a C4F8A431 		str	r3, [r4, #420]
 117:modules/motor/HTmotor/HT04.c ****     config->can_init_config.id = motor;
 1048              		.loc 1 117 5 is_stmt 1 view .LVU290
 117:modules/motor/HTmotor/HT04.c ****     config->can_init_config.id = motor;
 1049              		.loc 1 117 49 is_stmt 0 view .LVU291
 1050 005e 1D4B     		ldr	r3, .L59
 1051 0060 C5F8B430 		str	r3, [r5, #180]
 118:modules/motor/HTmotor/HT04.c ****     motor->motor_can_instace = CANRegister(&config->can_init_config);
 1052              		.loc 1 118 5 is_stmt 1 view .LVU292
 118:modules/motor/HTmotor/HT04.c ****     motor->motor_can_instace = CANRegister(&config->can_init_config);
 1053              		.loc 1 118 32 is_stmt 0 view .LVU293
 1054 0064 C5F8B840 		str	r4, [r5, #184]
 119:modules/motor/HTmotor/HT04.c **** 
 1055              		.loc 1 119 5 is_stmt 1 view .LVU294
 119:modules/motor/HTmotor/HT04.c **** 
 1056              		.loc 1 119 32 is_stmt 0 view .LVU295
 1057 0068 05F1A000 		add	r0, r5, #160
 1058 006c FFF7FEFF 		bl	CANRegister
 1059              	.LVL104:
 119:modules/motor/HTmotor/HT04.c **** 
 1060              		.loc 1 119 30 discriminator 1 view .LVU296
 1061 0070 C4F8B801 		str	r0, [r4, #440]
 121:modules/motor/HTmotor/HT04.c ****         .callback = HTMotorLostCallback,
 1062              		.loc 1 121 5 is_stmt 1 view .LVU297
 121:modules/motor/HTmotor/HT04.c ****         .callback = HTMotorLostCallback,
 1063              		.loc 1 121 26 is_stmt 0 view .LVU298
 1064 0074 01A8     		add	r0, sp, #4
 1065 0076 0023     		movs	r3, #0
 1066 0078 0193     		str	r3, [sp, #4]
 1067 007a 4360     		str	r3, [r0, #4]
 1068 007c 8360     		str	r3, [r0, #8]
 1069 007e 0523     		movs	r3, #5
 1070 0080 ADF80430 		strh	r3, [sp, #4]	@ movhi
 1071 0084 144B     		ldr	r3, .L59+4
 1072 0086 0293     		str	r3, [sp, #8]
 1073 0088 0394     		str	r4, [sp, #12]
 126:modules/motor/HTmotor/HT04.c **** 
 1074              		.loc 1 126 5 is_stmt 1 view .LVU299
 126:modules/motor/HTmotor/HT04.c **** 
 1075              		.loc 1 126 27 is_stmt 0 view .LVU300
 1076 008a FFF7FEFF 		bl	DaemonRegister
 1077              	.LVL105:
 126:modules/motor/HTmotor/HT04.c **** 
 1078              		.loc 1 126 25 discriminator 1 view .LVU301
 1079 008e C4F8BC01 		str	r0, [r4, #444]
 128:modules/motor/HTmotor/HT04.c ****     HTMotorSetMode(CMD_MOTOR_MODE, motor); // зЎ®дҝқз”өжңәе·Із»ҸдёҠз”өе№¶жү§иЎҢз”өжңәжЁЎејҸ
 1080              		.loc 1 128 5 is_stmt 1 view .LVU302
 1081 0092 2046     		mov	r0, r4
ARM GAS  C:\Users\Administrator\AppData\Local\Temp\ccPu3lUf.s 			page 27


 1082 0094 FFF7FEFF 		bl	HTMotorEnable
 1083              	.LVL106:
 129:modules/motor/HTmotor/HT04.c ****     DWT_Delay(0.05f);
 1084              		.loc 1 129 5 view .LVU303
 1085 0098 2146     		mov	r1, r4
 1086 009a FC20     		movs	r0, #252
 1087 009c FFF7FEFF 		bl	HTMotorSetMode
 1088              	.LVL107:
 130:modules/motor/HTmotor/HT04.c ****     HTMotorCalibEncoder(motor); // е°ҶеҪ“еүҚзј–з ҒеҷЁдҪҚзҪ®дҪңдёәйӣ¶дҪҚ
 1089              		.loc 1 130 5 view .LVU304
 1090 00a0 9FED0E8A 		vldr.32	s16, .L59+8
 1091 00a4 B0EE480A 		vmov.f32	s0, s16
 1092 00a8 FFF7FEFF 		bl	DWT_Delay
 1093              	.LVL108:
 131:modules/motor/HTmotor/HT04.c ****     DWT_Delay(0.05f);           // дҝқиҜҒдёӢдёҖдёӘз”өжңәеҸ‘йҖҒж—¶CANжҳҜз©әй—Ізҡ„,жіЁж„Ҹеә”з”ЁеңЁеҲқ
 1094              		.loc 1 131 5 view .LVU305
 1095 00ac 2046     		mov	r0, r4
 1096 00ae FFF7FEFF 		bl	HTMotorCalibEncoder
 1097              	.LVL109:
 132:modules/motor/HTmotor/HT04.c ****     ht_motor_instance[idx++] = motor;
 1098              		.loc 1 132 5 view .LVU306
 1099 00b2 B0EE480A 		vmov.f32	s0, s16
 1100 00b6 FFF7FEFF 		bl	DWT_Delay
 1101              	.LVL110:
 133:modules/motor/HTmotor/HT04.c ****     return motor;
 1102              		.loc 1 133 5 view .LVU307
 133:modules/motor/HTmotor/HT04.c ****     return motor;
 1103              		.loc 1 133 26 is_stmt 0 view .LVU308
 1104 00ba 094A     		ldr	r2, .L59+12
 1105 00bc 1378     		ldrb	r3, [r2]	@ zero_extendqisi2
 1106 00be 591C     		adds	r1, r3, #1
 1107 00c0 1170     		strb	r1, [r2]
 133:modules/motor/HTmotor/HT04.c ****     return motor;
 1108              		.loc 1 133 30 view .LVU309
 1109 00c2 084A     		ldr	r2, .L59+16
 1110 00c4 42F82340 		str	r4, [r2, r3, lsl #2]
 134:modules/motor/HTmotor/HT04.c **** }
 1111              		.loc 1 134 5 is_stmt 1 view .LVU310
 135:modules/motor/HTmotor/HT04.c **** 
 1112              		.loc 1 135 1 is_stmt 0 view .LVU311
 1113 00c8 2046     		mov	r0, r4
 1114 00ca 05B0     		add	sp, sp, #20
 1115              		.cfi_def_cfa_offset 20
 1116              		@ sp needed
 1117 00cc BDEC028B 		vldm	sp!, {d8}
 1118              		.cfi_restore 80
 1119              		.cfi_restore 81
 1120              		.cfi_def_cfa_offset 12
 1121 00d0 30BD     		pop	{r4, r5, pc}
 1122              	.LVL111:
 1123              	.L60:
 135:modules/motor/HTmotor/HT04.c **** 
 1124              		.loc 1 135 1 view .LVU312
 1125 00d2 00BF     		.align	2
 1126              	.L59:
 1127 00d4 00000000 		.word	HTMotorDecode
 1128 00d8 00000000 		.word	HTMotorLostCallback
ARM GAS  C:\Users\Administrator\AppData\Local\Temp\ccPu3lUf.s 			page 28


 1129 00dc CDCC4C3D 		.word	1028443341
 1130 00e0 00000000 		.word	idx
 1131 00e4 00000000 		.word	ht_motor_instance
 1132              		.cfi_endproc
 1133              	.LFE282:
 1135              		.section	.text.HTMotorOuterLoop,"ax",%progbits
 1136              		.align	1
 1137              		.global	HTMotorOuterLoop
 1138              		.syntax unified
 1139              		.thumb
 1140              		.thumb_func
 1142              	HTMotorOuterLoop:
 1143              	.LVL112:
 1144              	.LFB288:
 232:modules/motor/HTmotor/HT04.c **** 
 233:modules/motor/HTmotor/HT04.c **** void HTMotorOuterLoop(HTMotorInstance *motor, Closeloop_Type_e type)
 234:modules/motor/HTmotor/HT04.c **** {
 1145              		.loc 1 234 1 is_stmt 1 view -0
 1146              		.cfi_startproc
 1147              		@ args = 0, pretend = 0, frame = 0
 1148              		@ frame_needed = 0, uses_anonymous_args = 0
 1149              		@ link register save eliminated.
 235:modules/motor/HTmotor/HT04.c ****     motor->motor_settings.outer_loop_type = type;
 1150              		.loc 1 235 5 view .LVU314
 1151              		.loc 1 235 43 is_stmt 0 view .LVU315
 1152 0000 80F82C10 		strb	r1, [r0, #44]
 236:modules/motor/HTmotor/HT04.c **** }
 1153              		.loc 1 236 1 view .LVU316
 1154 0004 7047     		bx	lr
 1155              		.cfi_endproc
 1156              	.LFE288:
 1158              		.section	.rodata.str1.4,"aMS",%progbits,1
 1159              		.align	2
 1160              	.LC0:
 1161 0000 68745F74 		.ascii	"ht_task_name\000"
 1161      61736B5F 
 1161      6E616D65 
 1161      00
 1162              		.section	.bss.zero_buff,"aw",%nobits
 1163              		.align	2
 1166              	zero_buff:
 1167 0000 00000000 		.space	6
 1167      0000
 1168              		.section	.bss.ht_task_handle,"aw",%nobits
 1169              		.align	2
 1172              	ht_task_handle:
 1173 0000 00000000 		.space	16
 1173      00000000 
 1173      00000000 
 1173      00000000 
 1174              		.section	.bss.ht_motor_instance,"aw",%nobits
 1175              		.align	2
 1178              	ht_motor_instance:
 1179 0000 00000000 		.space	16
 1179      00000000 
 1179      00000000 
 1179      00000000 
ARM GAS  C:\Users\Administrator\AppData\Local\Temp\ccPu3lUf.s 			page 29


 1180              		.section	.bss.idx,"aw",%nobits
 1183              	idx:
 1184 0000 00       		.space	1
 1185              		.section	.rodata
 1186              		.align	2
 1187              		.set	.LANCHOR0,. + 0
 1188              	.LC2:
 1189 0000 00000000 		.word	.LC0
 1190 0004 00000000 		.word	HTMotorTask
 1191 0008 0000     		.short	0
 1192 000a 0000     		.space	2
 1193 000c 00000000 		.word	0
 1194 0010 80000000 		.word	128
 1195 0014 00000000 		.word	0
 1196 0018 00000000 		.word	0
 1197              		.text
 1198              	.Letext0:
 1199              		.file 2 "C:/Users/Administrator/AppData/Roaming/Code/User/globalStorage/bmd.stm32-for-vscode/@xpac
 1200              		.file 3 "C:/Users/Administrator/AppData/Roaming/Code/User/globalStorage/bmd.stm32-for-vscode/@xpac
 1201              		.file 4 "Drivers/CMSIS/Device/ST/STM32F4xx/Include/stm32f407xx.h"
 1202              		.file 5 "Drivers/CMSIS/Device/ST/STM32F4xx/Include/stm32f4xx.h"
 1203              		.file 6 "C:/Users/Administrator/AppData/Roaming/Code/User/globalStorage/bmd.stm32-for-vscode/@xpac
 1204              		.file 7 "Drivers/STM32F4xx_HAL_Driver/Inc/stm32f4xx_hal_can.h"
 1205              		.file 8 "bsp/can/bsp_can.h"
 1206              		.file 9 "modules/algorithm/controller.h"
 1207              		.file 10 "modules/motor/motor_def.h"
 1208              		.file 11 "modules/daemon/daemon.h"
 1209              		.file 12 "modules/motor/HTmotor/HT04.h"
 1210              		.file 13 "Middlewares/Third_Party/FreeRTOS/Source/portable/GCC/ARM_CM4F/portmacro.h"
 1211              		.file 14 "Middlewares/Third_Party/FreeRTOS/Source/include/FreeRTOS.h"
 1212              		.file 15 "Middlewares/Third_Party/FreeRTOS/Source/include/task.h"
 1213              		.file 16 "Middlewares/Third_Party/FreeRTOS/Source/CMSIS_RTOS/cmsis_os.h"
 1214              		.file 17 "C:/Users/Administrator/AppData/Roaming/Code/User/globalStorage/bmd.stm32-for-vscode/@xpa
 1215              		.file 18 "C:/Users/Administrator/AppData/Roaming/Code/User/globalStorage/bmd.stm32-for-vscode/@xpa
 1216              		.file 19 "modules/algorithm/user_lib.h"
 1217              		.file 20 "bsp/dwt/bsp_dwt.h"
 1218              		.file 21 "<built-in>"
ARM GAS  C:\Users\Administrator\AppData\Local\Temp\ccPu3lUf.s 			page 30

