ARM GAS  C:\Users\Administrator\AppData\Local\Temp\ccsFX16C.s 			page 1


   1              		.cpu cortex-m4
   2              		.arch armv7e-m
   3              		.fpu fpv4-sp-d16
   4              		.eabi_attribute 27, 1
   5              		.eabi_attribute 28, 1
   6              		.eabi_attribute 20, 1
   7              		.eabi_attribute 21, 1
   8              		.eabi_attribute 23, 3
   9              		.eabi_attribute 24, 1
  10              		.eabi_attribute 25, 1
  11              		.eabi_attribute 26, 1
  12              		.eabi_attribute 30, 1
  13              		.eabi_attribute 34, 1
  14              		.eabi_attribute 18, 4
  15              		.file	"kalman_filter.c"
  16              		.text
  17              	.Ltext0:
  18              		.cfi_sections	.debug_frame
  19              		.file 1 "modules/algorithm/kalman_filter.c"
  20              		.section	.text.H_K_R_Adjustment,"ax",%progbits
  21              		.align	1
  22              		.syntax unified
  23              		.thumb
  24              		.thumb_func
  26              	H_K_R_Adjustment:
  27              	.LVL0:
  28              	.LFB171:
   1:modules/algorithm/kalman_filter.c **** /**
   2:modules/algorithm/kalman_filter.c ****  ******************************************************************************
   3:modules/algorithm/kalman_filter.c ****  * @file    kalman filter.c
   4:modules/algorithm/kalman_filter.c ****  * @author  Wang Hongxi
   5:modules/algorithm/kalman_filter.c ****  * @version V1.2.2
   6:modules/algorithm/kalman_filter.c ****  * @date    2022/1/8
   7:modules/algorithm/kalman_filter.c ****  * @brief   C implementation of kalman filter
   8:modules/algorithm/kalman_filter.c ****  ******************************************************************************
   9:modules/algorithm/kalman_filter.c ****  * @attention
  10:modules/algorithm/kalman_filter.c ****  * è¯¥هچ،ه°”و›¼و»¤و³¢ه™¨هڈ¯ن»¥هœ¨ن¼ و„ںه™¨é‡‡و ·é¢‘çژ‡ن¸چهگŒçڑ„وƒ…ه†µن¸‹ï¼Œهٹ¨و€پè°ƒو•´çں©éکµH Rه’Œ
  11:modules/algorithm/kalman_filter.c ****  * This implementation of kalman filter can dynamically adjust dimension and
  12:modules/algorithm/kalman_filter.c ****  * value of matrix H R and K according to the measurement validity under any
  13:modules/algorithm/kalman_filter.c ****  * circumstance that the sampling rate of component sensors are different.
  14:modules/algorithm/kalman_filter.c ****  *
  15:modules/algorithm/kalman_filter.c ****  * ه› و­¤çں©éکµHه’ŒRçڑ„هˆ‌ه§‹هŒ–ن¼ڑن¸ژçں©éکµP Aه’ŒQوœ‰و‰€ن¸چهگŒم€‚هڈ¦ه¤–çڑ„ï¼Œهœ¨هˆ‌ه§‹هŒ–é‡ڈوµ‹هگ‘
  16:modules/algorithm/kalman_filter.c ****  * ه…¥ن¼ و„ںه™¨é‡ڈوµ‹و‰€ه¯¹ه؛”çڑ„çٹ¶و€پن¸ژè؟™ن¸ھé‡ڈوµ‹çڑ„و–¹ه¼ڈï¼Œè¯¦وƒ…è¯·è§پن¾‹ç¨‹
  17:modules/algorithm/kalman_filter.c ****  * Therefore, the initialization of matrix P, F, and Q is sometimes different
  18:modules/algorithm/kalman_filter.c ****  * from that of matrices H R. when initialization. Additionally, the corresponding
  19:modules/algorithm/kalman_filter.c ****  * state and the method of the measurement should be provided when initializing
  20:modules/algorithm/kalman_filter.c ****  * measurement vector z. For more details, please see the example.
  21:modules/algorithm/kalman_filter.c ****  *
  22:modules/algorithm/kalman_filter.c ****  * è‹¥ن¸چéœ€è¦پهٹ¨و€پè°ƒو•´é‡ڈوµ‹هگ‘é‡ڈzï¼Œهڈ¯ç®€هچ•ه°†ç»“و‍„ن½“ن¸­çڑ„Use_Auto_Adjustmentهˆ‌ه§‹هŒ–ن
  23:modules/algorithm/kalman_filter.c ****  * ه§‹هŒ–çں©éکµPé‚£و ·ç”¨ه¸¸è§„و–¹ه¼ڈهˆ‌ه§‹هŒ–z H Rهچ³هڈ¯م€‚
  24:modules/algorithm/kalman_filter.c ****  * If automatic adjustment is not required, assign zero to the UseAutoAdjustment
  25:modules/algorithm/kalman_filter.c ****  * and initialize z H R in the normal way as matrix P.
  26:modules/algorithm/kalman_filter.c ****  *
  27:modules/algorithm/kalman_filter.c ****  * è¦پو±‚é‡ڈوµ‹هگ‘é‡ڈzن¸ژوژ§هˆ¶هگ‘é‡ڈuهœ¨ن¼ و„ںه™¨ه›‍è°ƒه‡½و•°ن¸­و›´و–°م€‚و•´و•°0و„ڈه‘³ç‌€é‡ڈوµ‹و— 
  28:modules/algorithm/kalman_filter.c ****  * و»¤و³¢و›´و–°هگژو— ن¼ و„ںه™¨و•°وچ®و›´و–°م€‚ه› و­¤é‡ڈوµ‹هگ‘é‡ڈzن¸ژوژ§هˆ¶هگ‘é‡ڈuن¼ڑهœ¨هچ،ه°”و›¼و»¤و
  29:modules/algorithm/kalman_filter.c ****  * MeasuredVector and ControlVector are required to be updated in the sensor
  30:modules/algorithm/kalman_filter.c ****  * callback function. Integer 0 in measurement vector z indicates the invalidity
ARM GAS  C:\Users\Administrator\AppData\Local\Temp\ccsFX16C.s 			page 2


  31:modules/algorithm/kalman_filter.c ****  * of current measurement, so MeasuredVector and ControlVector will be reset
  32:modules/algorithm/kalman_filter.c ****  * (to 0) during each update.
  33:modules/algorithm/kalman_filter.c ****  *
  34:modules/algorithm/kalman_filter.c ****  * و­¤ه¤–ï¼Œçں©éکµPè؟‡ه؛¦و”¶و•›هگژو»¤و³¢ه™¨ه°†éڑ¾ن»¥ه†چé€‚ه؛”çٹ¶و€پçڑ„ç¼“و…¢هڈکهŒ–ï¼Œن»ژè€Œن؛§ç”ںو»
  35:modules/algorithm/kalman_filter.c ****  * é€ڑè؟‡é™گهˆ¶çں©éکµPوœ€ه°ڈه€¼çڑ„و–¹و³•ï¼Œهڈ¯وœ‰و•ˆوٹ‘هˆ¶و»¤و³¢ه™¨çڑ„è؟‡ه؛¦و”¶و•›ï¼Œè¯¦وƒ…è¯·è§پن¾
  36:modules/algorithm/kalman_filter.c ****  * Additionally, the excessive convergence of matrix P will make filter incapable
  37:modules/algorithm/kalman_filter.c ****  * of adopting the slowly changing state. This implementation can effectively
  38:modules/algorithm/kalman_filter.c ****  * suppress filter excessive convergence through boundary limiting for matrix P.
  39:modules/algorithm/kalman_filter.c ****  * For more details, please see the example.
  40:modules/algorithm/kalman_filter.c ****  *
  41:modules/algorithm/kalman_filter.c ****  * @example:
  42:modules/algorithm/kalman_filter.c ****  * x =
  43:modules/algorithm/kalman_filter.c ****  *   |   height   |
  44:modules/algorithm/kalman_filter.c ****  *   |  velocity  |
  45:modules/algorithm/kalman_filter.c ****  *   |acceleration|
  46:modules/algorithm/kalman_filter.c ****  *
  47:modules/algorithm/kalman_filter.c ****  * KalmanFilter_t Height_KF;
  48:modules/algorithm/kalman_filter.c ****  *
  49:modules/algorithm/kalman_filter.c ****  * void INS_Task_Init(void)
  50:modules/algorithm/kalman_filter.c ****  * {
  51:modules/algorithm/kalman_filter.c ****  *     static float P_Init[9] =
  52:modules/algorithm/kalman_filter.c ****  *     {
  53:modules/algorithm/kalman_filter.c ****  *         10, 0, 0,
  54:modules/algorithm/kalman_filter.c ****  *         0, 30, 0,
  55:modules/algorithm/kalman_filter.c ****  *         0, 0, 10,
  56:modules/algorithm/kalman_filter.c ****  *     };
  57:modules/algorithm/kalman_filter.c ****  *     static float F_Init[9] =
  58:modules/algorithm/kalman_filter.c ****  *     {
  59:modules/algorithm/kalman_filter.c ****  *         1, dt, 0.5*dt*dt,
  60:modules/algorithm/kalman_filter.c ****  *         0, 1, dt,
  61:modules/algorithm/kalman_filter.c ****  *         0, 0, 1,
  62:modules/algorithm/kalman_filter.c ****  *     };
  63:modules/algorithm/kalman_filter.c ****  *     static float Q_Init[9] =
  64:modules/algorithm/kalman_filter.c ****  *     {
  65:modules/algorithm/kalman_filter.c ****  *         0.25*dt*dt*dt*dt, 0.5*dt*dt*dt, 0.5*dt*dt,
  66:modules/algorithm/kalman_filter.c ****  *         0.5*dt*dt*dt,        dt*dt,         dt,
  67:modules/algorithm/kalman_filter.c ****  *         0.5*dt*dt,              dt,         1,
  68:modules/algorithm/kalman_filter.c ****  *     };
  69:modules/algorithm/kalman_filter.c ****  *
  70:modules/algorithm/kalman_filter.c ****  *     // è®¾ç½®وœ€ه°ڈو–¹ه·®
  71:modules/algorithm/kalman_filter.c ****  *     static float state_min_variance[3] = {0.03, 0.005, 0.1};
  72:modules/algorithm/kalman_filter.c ****  *
  73:modules/algorithm/kalman_filter.c ****  *     // ه¼€هگ¯è‡ھهٹ¨è°ƒو•´
  74:modules/algorithm/kalman_filter.c ****  *     Height_KF.UseAutoAdjustment = 1;
  75:modules/algorithm/kalman_filter.c ****  *
  76:modules/algorithm/kalman_filter.c ****  *     // و°”هژ‹وµ‹ه¾—é«که؛¦ GPSوµ‹ه¾—é«که؛¦ هٹ é€ںه؛¦è®،وµ‹ه¾—zè½´è؟گهٹ¨هٹ é€ںه؛¦
  77:modules/algorithm/kalman_filter.c ****  *     static uint8_t measurement_reference[3] = {1, 1, 3}
  78:modules/algorithm/kalman_filter.c ****  *
  79:modules/algorithm/kalman_filter.c ****  *     static float measurement_degree[3] = {1, 1, 1}
  80:modules/algorithm/kalman_filter.c ****  *     // و ¹وچ®measurement_referenceن¸ژmeasurement_degreeç”ںوˆگHçں©éکµه¦‚ن¸‹ï¼ˆهœ¨ه½“ه‰چه‘¨وœںه…¨é
  81:modules/algorithm/kalman_filter.c ****  *       |1   0   0|
  82:modules/algorithm/kalman_filter.c ****  *       |1   0   0|
  83:modules/algorithm/kalman_filter.c ****  *       |0   0   1|
  84:modules/algorithm/kalman_filter.c ****  *
  85:modules/algorithm/kalman_filter.c ****  *     static float mat_R_diagonal_elements = {30, 25, 35}
  86:modules/algorithm/kalman_filter.c ****  *     //و ¹وچ®mat_R_diagonal_elementsç”ںوˆگRçں©éکµه¦‚ن¸‹ï¼ˆهœ¨ه½“ه‰چه‘¨وœںه…¨éƒ¨وµ‹é‡ڈو•°وچ®وœ‰و•ˆ
  87:modules/algorithm/kalman_filter.c ****  *       |30   0   0|
ARM GAS  C:\Users\Administrator\AppData\Local\Temp\ccsFX16C.s 			page 3


  88:modules/algorithm/kalman_filter.c ****  *       | 0  25   0|
  89:modules/algorithm/kalman_filter.c ****  *       | 0   0  35|
  90:modules/algorithm/kalman_filter.c ****  *
  91:modules/algorithm/kalman_filter.c ****  *     Kalman_Filter_Init(&Height_KF, 3, 0, 3);
  92:modules/algorithm/kalman_filter.c ****  *
  93:modules/algorithm/kalman_filter.c ****  *     // è®¾ç½®çں©éکµه€¼
  94:modules/algorithm/kalman_filter.c ****  *     memcpy(Height_KF.P_data, P_Init, sizeof(P_Init));
  95:modules/algorithm/kalman_filter.c ****  *     memcpy(Height_KF.F_data, F_Init, sizeof(F_Init));
  96:modules/algorithm/kalman_filter.c ****  *     memcpy(Height_KF.Q_data, Q_Init, sizeof(Q_Init));
  97:modules/algorithm/kalman_filter.c ****  *     memcpy(Height_KF.MeasurementMap, measurement_reference, sizeof(measurement_reference));
  98:modules/algorithm/kalman_filter.c ****  *     memcpy(Height_KF.MeasurementDegree, measurement_degree, sizeof(measurement_degree));
  99:modules/algorithm/kalman_filter.c ****  *     memcpy(Height_KF.MatR_DiagonalElements, mat_R_diagonal_elements, sizeof(mat_R_diagonal_eleme
 100:modules/algorithm/kalman_filter.c ****  *     memcpy(Height_KF.StateMinVariance, state_min_variance, sizeof(state_min_variance));
 101:modules/algorithm/kalman_filter.c ****  * }
 102:modules/algorithm/kalman_filter.c ****  *
 103:modules/algorithm/kalman_filter.c ****  * void INS_Task(void const *pvParameters)
 104:modules/algorithm/kalman_filter.c ****  * {
 105:modules/algorithm/kalman_filter.c ****  *     // ه¾ھçژ¯و›´و–°
 106:modules/algorithm/kalman_filter.c ****  *     Kalman_Filter_Update(&Height_KF);
 107:modules/algorithm/kalman_filter.c ****  *     vTaskDelay(ts);
 108:modules/algorithm/kalman_filter.c ****  * }
 109:modules/algorithm/kalman_filter.c ****  *
 110:modules/algorithm/kalman_filter.c ****  * // وµ‹é‡ڈو•°وچ®و›´و–°ه؛”وŒ‰ç…§ن»¥ن¸‹ه½¢ه¼ڈ هچ³هگ‘MeasuredVectorèµ‹ه€¼
 111:modules/algorithm/kalman_filter.c ****  * void Barometer_Read_Over(void)
 112:modules/algorithm/kalman_filter.c ****  * {
 113:modules/algorithm/kalman_filter.c ****  *     ......
 114:modules/algorithm/kalman_filter.c ****  *     INS_KF.MeasuredVector[0] = baro_height;
 115:modules/algorithm/kalman_filter.c ****  * }
 116:modules/algorithm/kalman_filter.c ****  * void GPS_Read_Over(void)
 117:modules/algorithm/kalman_filter.c ****  * {
 118:modules/algorithm/kalman_filter.c ****  *     ......
 119:modules/algorithm/kalman_filter.c ****  *     INS_KF.MeasuredVector[1] = GPS_height;
 120:modules/algorithm/kalman_filter.c ****  * }
 121:modules/algorithm/kalman_filter.c ****  * void Acc_Data_Process(void)
 122:modules/algorithm/kalman_filter.c ****  * {
 123:modules/algorithm/kalman_filter.c ****  *     ......
 124:modules/algorithm/kalman_filter.c ****  *     INS_KF.MeasuredVector[2] = acc.z;
 125:modules/algorithm/kalman_filter.c ****  * }
 126:modules/algorithm/kalman_filter.c ****  ******************************************************************************
 127:modules/algorithm/kalman_filter.c ****  */
 128:modules/algorithm/kalman_filter.c **** 
 129:modules/algorithm/kalman_filter.c **** #include "kalman_filter.h"
 130:modules/algorithm/kalman_filter.c **** 
 131:modules/algorithm/kalman_filter.c **** uint16_t sizeof_float, sizeof_double;
 132:modules/algorithm/kalman_filter.c **** 
 133:modules/algorithm/kalman_filter.c **** static void H_K_R_Adjustment(KalmanFilter_t *kf);
 134:modules/algorithm/kalman_filter.c **** 
 135:modules/algorithm/kalman_filter.c **** /**
 136:modules/algorithm/kalman_filter.c ****  * @brief هˆ‌ه§‹هŒ–çں©éکµç»´ه؛¦ن؟،وپ¯ه¹¶ن¸؛çں©éکµهˆ†é…چç©؛é—´
 137:modules/algorithm/kalman_filter.c ****  *
 138:modules/algorithm/kalman_filter.c ****  * @param kf kfç±»ه‍‹ه®ڑن¹‰
 139:modules/algorithm/kalman_filter.c ****  * @param xhatSize çٹ¶و€پهڈکé‡ڈç»´ه؛¦
 140:modules/algorithm/kalman_filter.c ****  * @param uSize وژ§هˆ¶هڈکé‡ڈç»´ه؛¦
 141:modules/algorithm/kalman_filter.c ****  * @param zSize è§‚وµ‹é‡ڈç»´ه؛¦
 142:modules/algorithm/kalman_filter.c ****  */
 143:modules/algorithm/kalman_filter.c **** void Kalman_Filter_Init(KalmanFilter_t *kf, uint8_t xhatSize, uint8_t uSize, uint8_t zSize)
 144:modules/algorithm/kalman_filter.c **** {
ARM GAS  C:\Users\Administrator\AppData\Local\Temp\ccsFX16C.s 			page 4


 145:modules/algorithm/kalman_filter.c ****     sizeof_float = sizeof(float);
 146:modules/algorithm/kalman_filter.c ****     sizeof_double = sizeof(double);
 147:modules/algorithm/kalman_filter.c **** 
 148:modules/algorithm/kalman_filter.c ****     kf->xhatSize = xhatSize;
 149:modules/algorithm/kalman_filter.c ****     kf->uSize = uSize;
 150:modules/algorithm/kalman_filter.c ****     kf->zSize = zSize;
 151:modules/algorithm/kalman_filter.c **** 
 152:modules/algorithm/kalman_filter.c ****     kf->MeasurementValidNum = 0;
 153:modules/algorithm/kalman_filter.c **** 
 154:modules/algorithm/kalman_filter.c ****     // measurement flags
 155:modules/algorithm/kalman_filter.c ****     kf->MeasurementMap = (uint8_t *)user_malloc(sizeof(uint8_t) * zSize);
 156:modules/algorithm/kalman_filter.c ****     memset(kf->MeasurementMap, 0, sizeof(uint8_t) * zSize);
 157:modules/algorithm/kalman_filter.c ****     kf->MeasurementDegree = (float *)user_malloc(sizeof_float * zSize);
 158:modules/algorithm/kalman_filter.c ****     memset(kf->MeasurementDegree, 0, sizeof_float * zSize);
 159:modules/algorithm/kalman_filter.c ****     kf->MatR_DiagonalElements = (float *)user_malloc(sizeof_float * zSize);
 160:modules/algorithm/kalman_filter.c ****     memset(kf->MatR_DiagonalElements, 0, sizeof_float * zSize);
 161:modules/algorithm/kalman_filter.c ****     kf->StateMinVariance = (float *)user_malloc(sizeof_float * xhatSize);
 162:modules/algorithm/kalman_filter.c ****     memset(kf->StateMinVariance, 0, sizeof_float * xhatSize);
 163:modules/algorithm/kalman_filter.c ****     kf->temp = (uint8_t *)user_malloc(sizeof(uint8_t) * zSize);
 164:modules/algorithm/kalman_filter.c ****     memset(kf->temp, 0, sizeof(uint8_t) * zSize);
 165:modules/algorithm/kalman_filter.c **** 
 166:modules/algorithm/kalman_filter.c ****     // filter data
 167:modules/algorithm/kalman_filter.c ****     kf->FilteredValue = (float *)user_malloc(sizeof_float * xhatSize);
 168:modules/algorithm/kalman_filter.c ****     memset(kf->FilteredValue, 0, sizeof_float * xhatSize);
 169:modules/algorithm/kalman_filter.c ****     kf->MeasuredVector = (float *)user_malloc(sizeof_float * zSize);
 170:modules/algorithm/kalman_filter.c ****     memset(kf->MeasuredVector, 0, sizeof_float * zSize);
 171:modules/algorithm/kalman_filter.c ****     kf->ControlVector = (float *)user_malloc(sizeof_float * uSize);
 172:modules/algorithm/kalman_filter.c ****     memset(kf->ControlVector, 0, sizeof_float * uSize);
 173:modules/algorithm/kalman_filter.c **** 
 174:modules/algorithm/kalman_filter.c ****     // xhat x(k|k)
 175:modules/algorithm/kalman_filter.c ****     kf->xhat_data = (float *)user_malloc(sizeof_float * xhatSize);
 176:modules/algorithm/kalman_filter.c ****     memset(kf->xhat_data, 0, sizeof_float * xhatSize);
 177:modules/algorithm/kalman_filter.c ****     Matrix_Init(&kf->xhat, kf->xhatSize, 1, (float *)kf->xhat_data);
 178:modules/algorithm/kalman_filter.c **** 
 179:modules/algorithm/kalman_filter.c ****     // xhatminus x(k|k-1)
 180:modules/algorithm/kalman_filter.c ****     kf->xhatminus_data = (float *)user_malloc(sizeof_float * xhatSize);
 181:modules/algorithm/kalman_filter.c ****     memset(kf->xhatminus_data, 0, sizeof_float * xhatSize);
 182:modules/algorithm/kalman_filter.c ****     Matrix_Init(&kf->xhatminus, kf->xhatSize, 1, (float *)kf->xhatminus_data);
 183:modules/algorithm/kalman_filter.c **** 
 184:modules/algorithm/kalman_filter.c ****     if (uSize != 0)
 185:modules/algorithm/kalman_filter.c ****     {
 186:modules/algorithm/kalman_filter.c ****         // control vector u
 187:modules/algorithm/kalman_filter.c ****         kf->u_data = (float *)user_malloc(sizeof_float * uSize);
 188:modules/algorithm/kalman_filter.c ****         memset(kf->u_data, 0, sizeof_float * uSize);
 189:modules/algorithm/kalman_filter.c ****         Matrix_Init(&kf->u, kf->uSize, 1, (float *)kf->u_data);
 190:modules/algorithm/kalman_filter.c ****     }
 191:modules/algorithm/kalman_filter.c **** 
 192:modules/algorithm/kalman_filter.c ****     // measurement vector z
 193:modules/algorithm/kalman_filter.c ****     kf->z_data = (float *)user_malloc(sizeof_float * zSize);
 194:modules/algorithm/kalman_filter.c ****     memset(kf->z_data, 0, sizeof_float * zSize);
 195:modules/algorithm/kalman_filter.c ****     Matrix_Init(&kf->z, kf->zSize, 1, (float *)kf->z_data);
 196:modules/algorithm/kalman_filter.c **** 
 197:modules/algorithm/kalman_filter.c ****     // covariance matrix P(k|k)
 198:modules/algorithm/kalman_filter.c ****     kf->P_data = (float *)user_malloc(sizeof_float * xhatSize * xhatSize);
 199:modules/algorithm/kalman_filter.c ****     memset(kf->P_data, 0, sizeof_float * xhatSize * xhatSize);
 200:modules/algorithm/kalman_filter.c ****     Matrix_Init(&kf->P, kf->xhatSize, kf->xhatSize, (float *)kf->P_data);
 201:modules/algorithm/kalman_filter.c **** 
ARM GAS  C:\Users\Administrator\AppData\Local\Temp\ccsFX16C.s 			page 5


 202:modules/algorithm/kalman_filter.c ****     // create covariance matrix P(k|k-1)
 203:modules/algorithm/kalman_filter.c ****     kf->Pminus_data = (float *)user_malloc(sizeof_float * xhatSize * xhatSize);
 204:modules/algorithm/kalman_filter.c ****     memset(kf->Pminus_data, 0, sizeof_float * xhatSize * xhatSize);
 205:modules/algorithm/kalman_filter.c ****     Matrix_Init(&kf->Pminus, kf->xhatSize, kf->xhatSize, (float *)kf->Pminus_data);
 206:modules/algorithm/kalman_filter.c **** 
 207:modules/algorithm/kalman_filter.c ****     // state transition matrix F FT
 208:modules/algorithm/kalman_filter.c ****     kf->F_data = (float *)user_malloc(sizeof_float * xhatSize * xhatSize);
 209:modules/algorithm/kalman_filter.c ****     kf->FT_data = (float *)user_malloc(sizeof_float * xhatSize * xhatSize);
 210:modules/algorithm/kalman_filter.c ****     memset(kf->F_data, 0, sizeof_float * xhatSize * xhatSize);
 211:modules/algorithm/kalman_filter.c ****     memset(kf->FT_data, 0, sizeof_float * xhatSize * xhatSize);
 212:modules/algorithm/kalman_filter.c ****     Matrix_Init(&kf->F, kf->xhatSize, kf->xhatSize, (float *)kf->F_data);
 213:modules/algorithm/kalman_filter.c ****     Matrix_Init(&kf->FT, kf->xhatSize, kf->xhatSize, (float *)kf->FT_data);
 214:modules/algorithm/kalman_filter.c **** 
 215:modules/algorithm/kalman_filter.c ****     if (uSize != 0)
 216:modules/algorithm/kalman_filter.c ****     {
 217:modules/algorithm/kalman_filter.c ****         // control matrix B
 218:modules/algorithm/kalman_filter.c ****         kf->B_data = (float *)user_malloc(sizeof_float * xhatSize * uSize);
 219:modules/algorithm/kalman_filter.c ****         memset(kf->B_data, 0, sizeof_float * xhatSize * uSize);
 220:modules/algorithm/kalman_filter.c ****         Matrix_Init(&kf->B, kf->xhatSize, kf->uSize, (float *)kf->B_data);
 221:modules/algorithm/kalman_filter.c ****     }
 222:modules/algorithm/kalman_filter.c **** 
 223:modules/algorithm/kalman_filter.c ****     // measurement matrix H
 224:modules/algorithm/kalman_filter.c ****     kf->H_data = (float *)user_malloc(sizeof_float * zSize * xhatSize);
 225:modules/algorithm/kalman_filter.c ****     kf->HT_data = (float *)user_malloc(sizeof_float * xhatSize * zSize);
 226:modules/algorithm/kalman_filter.c ****     memset(kf->H_data, 0, sizeof_float * zSize * xhatSize);
 227:modules/algorithm/kalman_filter.c ****     memset(kf->HT_data, 0, sizeof_float * xhatSize * zSize);
 228:modules/algorithm/kalman_filter.c ****     Matrix_Init(&kf->H, kf->zSize, kf->xhatSize, (float *)kf->H_data);
 229:modules/algorithm/kalman_filter.c ****     Matrix_Init(&kf->HT, kf->xhatSize, kf->zSize, (float *)kf->HT_data);
 230:modules/algorithm/kalman_filter.c **** 
 231:modules/algorithm/kalman_filter.c ****     // process noise covariance matrix Q
 232:modules/algorithm/kalman_filter.c ****     kf->Q_data = (float *)user_malloc(sizeof_float * xhatSize * xhatSize);
 233:modules/algorithm/kalman_filter.c ****     memset(kf->Q_data, 0, sizeof_float * xhatSize * xhatSize);
 234:modules/algorithm/kalman_filter.c ****     Matrix_Init(&kf->Q, kf->xhatSize, kf->xhatSize, (float *)kf->Q_data);
 235:modules/algorithm/kalman_filter.c **** 
 236:modules/algorithm/kalman_filter.c ****     // measurement noise covariance matrix R
 237:modules/algorithm/kalman_filter.c ****     kf->R_data = (float *)user_malloc(sizeof_float * zSize * zSize);
 238:modules/algorithm/kalman_filter.c ****     memset(kf->R_data, 0, sizeof_float * zSize * zSize);
 239:modules/algorithm/kalman_filter.c ****     Matrix_Init(&kf->R, kf->zSize, kf->zSize, (float *)kf->R_data);
 240:modules/algorithm/kalman_filter.c **** 
 241:modules/algorithm/kalman_filter.c ****     // kalman gain K
 242:modules/algorithm/kalman_filter.c ****     kf->K_data = (float *)user_malloc(sizeof_float * xhatSize * zSize);
 243:modules/algorithm/kalman_filter.c ****     memset(kf->K_data, 0, sizeof_float * xhatSize * zSize);
 244:modules/algorithm/kalman_filter.c ****     Matrix_Init(&kf->K, kf->xhatSize, kf->zSize, (float *)kf->K_data);
 245:modules/algorithm/kalman_filter.c **** 
 246:modules/algorithm/kalman_filter.c ****     kf->S_data = (float *)user_malloc(sizeof_float * kf->xhatSize * kf->xhatSize);
 247:modules/algorithm/kalman_filter.c ****     kf->temp_matrix_data = (float *)user_malloc(sizeof_float * kf->xhatSize * kf->xhatSize);
 248:modules/algorithm/kalman_filter.c ****     kf->temp_matrix_data1 = (float *)user_malloc(sizeof_float * kf->xhatSize * kf->xhatSize);
 249:modules/algorithm/kalman_filter.c ****     kf->temp_vector_data = (float *)user_malloc(sizeof_float * kf->xhatSize);
 250:modules/algorithm/kalman_filter.c ****     kf->temp_vector_data1 = (float *)user_malloc(sizeof_float * kf->xhatSize);
 251:modules/algorithm/kalman_filter.c ****     Matrix_Init(&kf->S, kf->xhatSize, kf->xhatSize, (float *)kf->S_data);
 252:modules/algorithm/kalman_filter.c ****     Matrix_Init(&kf->temp_matrix, kf->xhatSize, kf->xhatSize, (float *)kf->temp_matrix_data);
 253:modules/algorithm/kalman_filter.c ****     Matrix_Init(&kf->temp_matrix1, kf->xhatSize, kf->xhatSize, (float *)kf->temp_matrix_data1);
 254:modules/algorithm/kalman_filter.c ****     Matrix_Init(&kf->temp_vector, kf->xhatSize, 1, (float *)kf->temp_vector_data);
 255:modules/algorithm/kalman_filter.c ****     Matrix_Init(&kf->temp_vector1, kf->xhatSize, 1, (float *)kf->temp_vector_data1);
 256:modules/algorithm/kalman_filter.c **** 
 257:modules/algorithm/kalman_filter.c ****     kf->SkipEq1 = 0;
 258:modules/algorithm/kalman_filter.c ****     kf->SkipEq2 = 0;
ARM GAS  C:\Users\Administrator\AppData\Local\Temp\ccsFX16C.s 			page 6


 259:modules/algorithm/kalman_filter.c ****     kf->SkipEq3 = 0;
 260:modules/algorithm/kalman_filter.c ****     kf->SkipEq4 = 0;
 261:modules/algorithm/kalman_filter.c ****     kf->SkipEq5 = 0;
 262:modules/algorithm/kalman_filter.c **** }
 263:modules/algorithm/kalman_filter.c **** 
 264:modules/algorithm/kalman_filter.c **** void Kalman_Filter_Measure(KalmanFilter_t *kf)
 265:modules/algorithm/kalman_filter.c **** {
 266:modules/algorithm/kalman_filter.c ****     // çں©éکµH K Rو ¹وچ®é‡ڈوµ‹وƒ…ه†µè‡ھهٹ¨è°ƒو•´
 267:modules/algorithm/kalman_filter.c ****     // matrix H K R auto adjustment
 268:modules/algorithm/kalman_filter.c ****     if (kf->UseAutoAdjustment != 0)
 269:modules/algorithm/kalman_filter.c ****         H_K_R_Adjustment(kf);
 270:modules/algorithm/kalman_filter.c ****     else
 271:modules/algorithm/kalman_filter.c ****     {
 272:modules/algorithm/kalman_filter.c ****         memcpy(kf->z_data, kf->MeasuredVector, sizeof_float * kf->zSize);
 273:modules/algorithm/kalman_filter.c ****         memset(kf->MeasuredVector, 0, sizeof_float * kf->zSize);
 274:modules/algorithm/kalman_filter.c ****     }
 275:modules/algorithm/kalman_filter.c **** 
 276:modules/algorithm/kalman_filter.c ****     memcpy(kf->u_data, kf->ControlVector, sizeof_float * kf->uSize);
 277:modules/algorithm/kalman_filter.c **** }
 278:modules/algorithm/kalman_filter.c **** 
 279:modules/algorithm/kalman_filter.c **** void Kalman_Filter_xhatMinusUpdate(KalmanFilter_t *kf)
 280:modules/algorithm/kalman_filter.c **** {
 281:modules/algorithm/kalman_filter.c ****     if (!kf->SkipEq1)
 282:modules/algorithm/kalman_filter.c ****     {
 283:modules/algorithm/kalman_filter.c ****         if (kf->uSize > 0)
 284:modules/algorithm/kalman_filter.c ****         {
 285:modules/algorithm/kalman_filter.c ****             kf->temp_vector.numRows = kf->xhatSize;
 286:modules/algorithm/kalman_filter.c ****             kf->temp_vector.numCols = 1;
 287:modules/algorithm/kalman_filter.c ****             kf->MatStatus = Matrix_Multiply(&kf->F, &kf->xhat, &kf->temp_vector);
 288:modules/algorithm/kalman_filter.c ****             kf->temp_vector1.numRows = kf->xhatSize;
 289:modules/algorithm/kalman_filter.c ****             kf->temp_vector1.numCols = 1;
 290:modules/algorithm/kalman_filter.c ****             kf->MatStatus = Matrix_Multiply(&kf->B, &kf->u, &kf->temp_vector1);
 291:modules/algorithm/kalman_filter.c ****             kf->MatStatus = Matrix_Add(&kf->temp_vector, &kf->temp_vector1, &kf->xhatminus);
 292:modules/algorithm/kalman_filter.c ****         }
 293:modules/algorithm/kalman_filter.c ****         else
 294:modules/algorithm/kalman_filter.c ****         {
 295:modules/algorithm/kalman_filter.c ****             kf->MatStatus = Matrix_Multiply(&kf->F, &kf->xhat, &kf->xhatminus);
 296:modules/algorithm/kalman_filter.c ****         }
 297:modules/algorithm/kalman_filter.c ****     }
 298:modules/algorithm/kalman_filter.c **** }
 299:modules/algorithm/kalman_filter.c **** 
 300:modules/algorithm/kalman_filter.c **** void Kalman_Filter_PminusUpdate(KalmanFilter_t *kf)
 301:modules/algorithm/kalman_filter.c **** {
 302:modules/algorithm/kalman_filter.c ****     if (!kf->SkipEq2)
 303:modules/algorithm/kalman_filter.c ****     {
 304:modules/algorithm/kalman_filter.c ****         kf->MatStatus = Matrix_Transpose(&kf->F, &kf->FT);
 305:modules/algorithm/kalman_filter.c ****         kf->MatStatus = Matrix_Multiply(&kf->F, &kf->P, &kf->Pminus);
 306:modules/algorithm/kalman_filter.c ****         kf->temp_matrix.numRows = kf->Pminus.numRows;
 307:modules/algorithm/kalman_filter.c ****         kf->temp_matrix.numCols = kf->FT.numCols;
 308:modules/algorithm/kalman_filter.c ****         kf->MatStatus = Matrix_Multiply(&kf->Pminus, &kf->FT, &kf->temp_matrix); // temp_matrix = F
 309:modules/algorithm/kalman_filter.c ****         kf->MatStatus = Matrix_Add(&kf->temp_matrix, &kf->Q, &kf->Pminus);
 310:modules/algorithm/kalman_filter.c ****     }
 311:modules/algorithm/kalman_filter.c **** }
 312:modules/algorithm/kalman_filter.c **** void Kalman_Filter_SetK(KalmanFilter_t *kf)
 313:modules/algorithm/kalman_filter.c **** {
 314:modules/algorithm/kalman_filter.c ****     if (!kf->SkipEq3)
 315:modules/algorithm/kalman_filter.c ****     {
ARM GAS  C:\Users\Administrator\AppData\Local\Temp\ccsFX16C.s 			page 7


 316:modules/algorithm/kalman_filter.c ****         kf->MatStatus = Matrix_Transpose(&kf->H, &kf->HT); // z|x => x|z
 317:modules/algorithm/kalman_filter.c ****         kf->temp_matrix.numRows = kf->H.numRows;
 318:modules/algorithm/kalman_filter.c ****         kf->temp_matrix.numCols = kf->Pminus.numCols;
 319:modules/algorithm/kalman_filter.c ****         kf->MatStatus = Matrix_Multiply(&kf->H, &kf->Pminus, &kf->temp_matrix); // temp_matrix = Hآ
 320:modules/algorithm/kalman_filter.c ****         kf->temp_matrix1.numRows = kf->temp_matrix.numRows;
 321:modules/algorithm/kalman_filter.c ****         kf->temp_matrix1.numCols = kf->HT.numCols;
 322:modules/algorithm/kalman_filter.c ****         kf->MatStatus = Matrix_Multiply(&kf->temp_matrix, &kf->HT, &kf->temp_matrix1); // temp_matr
 323:modules/algorithm/kalman_filter.c ****         kf->S.numRows = kf->R.numRows;
 324:modules/algorithm/kalman_filter.c ****         kf->S.numCols = kf->R.numCols;
 325:modules/algorithm/kalman_filter.c ****         kf->MatStatus = Matrix_Add(&kf->temp_matrix1, &kf->R, &kf->S); // S = H P'(k) HT + R
 326:modules/algorithm/kalman_filter.c ****         kf->MatStatus = Matrix_Inverse(&kf->S, &kf->temp_matrix1);     // temp_matrix1 = inv(Hآ·P'(
 327:modules/algorithm/kalman_filter.c ****         kf->temp_matrix.numRows = kf->Pminus.numRows;
 328:modules/algorithm/kalman_filter.c ****         kf->temp_matrix.numCols = kf->HT.numCols;
 329:modules/algorithm/kalman_filter.c ****         kf->MatStatus = Matrix_Multiply(&kf->Pminus, &kf->HT, &kf->temp_matrix); // temp_matrix = P
 330:modules/algorithm/kalman_filter.c ****         kf->MatStatus = Matrix_Multiply(&kf->temp_matrix, &kf->temp_matrix1, &kf->K);
 331:modules/algorithm/kalman_filter.c ****     }
 332:modules/algorithm/kalman_filter.c **** }
 333:modules/algorithm/kalman_filter.c **** void Kalman_Filter_xhatUpdate(KalmanFilter_t *kf)
 334:modules/algorithm/kalman_filter.c **** {
 335:modules/algorithm/kalman_filter.c ****     if (!kf->SkipEq4)
 336:modules/algorithm/kalman_filter.c ****     {
 337:modules/algorithm/kalman_filter.c ****         kf->temp_vector.numRows = kf->H.numRows;
 338:modules/algorithm/kalman_filter.c ****         kf->temp_vector.numCols = 1;
 339:modules/algorithm/kalman_filter.c ****         kf->MatStatus = Matrix_Multiply(&kf->H, &kf->xhatminus, &kf->temp_vector); // temp_vector =
 340:modules/algorithm/kalman_filter.c ****         kf->temp_vector1.numRows = kf->z.numRows;
 341:modules/algorithm/kalman_filter.c ****         kf->temp_vector1.numCols = 1;
 342:modules/algorithm/kalman_filter.c ****         kf->MatStatus = Matrix_Subtract(&kf->z, &kf->temp_vector, &kf->temp_vector1); // temp_vecto
 343:modules/algorithm/kalman_filter.c ****         kf->temp_vector.numRows = kf->K.numRows;
 344:modules/algorithm/kalman_filter.c ****         kf->temp_vector.numCols = 1;
 345:modules/algorithm/kalman_filter.c ****         kf->MatStatus = Matrix_Multiply(&kf->K, &kf->temp_vector1, &kf->temp_vector); // temp_vecto
 346:modules/algorithm/kalman_filter.c ****         kf->MatStatus = Matrix_Add(&kf->xhatminus, &kf->temp_vector, &kf->xhat);
 347:modules/algorithm/kalman_filter.c ****     }
 348:modules/algorithm/kalman_filter.c **** }
 349:modules/algorithm/kalman_filter.c **** void Kalman_Filter_P_Update(KalmanFilter_t *kf)
 350:modules/algorithm/kalman_filter.c **** {
 351:modules/algorithm/kalman_filter.c ****     if (!kf->SkipEq5)
 352:modules/algorithm/kalman_filter.c ****     {
 353:modules/algorithm/kalman_filter.c ****         kf->temp_matrix.numRows = kf->K.numRows;
 354:modules/algorithm/kalman_filter.c ****         kf->temp_matrix.numCols = kf->H.numCols;
 355:modules/algorithm/kalman_filter.c ****         kf->temp_matrix1.numRows = kf->temp_matrix.numRows;
 356:modules/algorithm/kalman_filter.c ****         kf->temp_matrix1.numCols = kf->Pminus.numCols;
 357:modules/algorithm/kalman_filter.c ****         kf->MatStatus = Matrix_Multiply(&kf->K, &kf->H, &kf->temp_matrix);                 // temp_
 358:modules/algorithm/kalman_filter.c ****         kf->MatStatus = Matrix_Multiply(&kf->temp_matrix, &kf->Pminus, &kf->temp_matrix1); // temp_
 359:modules/algorithm/kalman_filter.c ****         kf->MatStatus = Matrix_Subtract(&kf->Pminus, &kf->temp_matrix1, &kf->P);
 360:modules/algorithm/kalman_filter.c ****     }
 361:modules/algorithm/kalman_filter.c **** }
 362:modules/algorithm/kalman_filter.c **** 
 363:modules/algorithm/kalman_filter.c **** /**
 364:modules/algorithm/kalman_filter.c ****  * @brief و‰§è،Œهچ،ه°”و›¼و»¤و³¢é»„é‡‘ن؛”ه¼ڈ,وڈگن¾›ن؛†ç”¨وˆ·ه®ڑن¹‰ه‡½و•°,هڈ¯ن»¥و›؟ن»£ن؛”ن¸ھن¸­çڑ„ن»»
 365:modules/algorithm/kalman_filter.c ****  * 
 366:modules/algorithm/kalman_filter.c ****  * @param kf kfç±»ه‍‹ه®ڑن¹‰
 367:modules/algorithm/kalman_filter.c ****  * @return float* è؟”ه›‍و»¤و³¢ه€¼
 368:modules/algorithm/kalman_filter.c ****  */
 369:modules/algorithm/kalman_filter.c **** float *Kalman_Filter_Update(KalmanFilter_t *kf)
 370:modules/algorithm/kalman_filter.c **** {
 371:modules/algorithm/kalman_filter.c ****     // 0. èژ·هڈ–é‡ڈوµ‹ن؟،وپ¯
 372:modules/algorithm/kalman_filter.c ****     Kalman_Filter_Measure(kf);
ARM GAS  C:\Users\Administrator\AppData\Local\Temp\ccsFX16C.s 			page 8


 373:modules/algorithm/kalman_filter.c ****     if (kf->User_Func0_f != NULL)
 374:modules/algorithm/kalman_filter.c ****         kf->User_Func0_f(kf);
 375:modules/algorithm/kalman_filter.c **** 
 376:modules/algorithm/kalman_filter.c ****     // ه…ˆéھŒن¼°è®،
 377:modules/algorithm/kalman_filter.c ****     // 1. xhat'(k)= Aآ·xhat(k-1) + Bآ·u
 378:modules/algorithm/kalman_filter.c ****     Kalman_Filter_xhatMinusUpdate(kf);
 379:modules/algorithm/kalman_filter.c ****     if (kf->User_Func1_f != NULL)
 380:modules/algorithm/kalman_filter.c ****         kf->User_Func1_f(kf);
 381:modules/algorithm/kalman_filter.c **** 
 382:modules/algorithm/kalman_filter.c ****     // é¢„وµ‹و›´و–°
 383:modules/algorithm/kalman_filter.c ****     // 2. P'(k) = Aآ·P(k-1)آ·AT + Q
 384:modules/algorithm/kalman_filter.c ****     Kalman_Filter_PminusUpdate(kf);
 385:modules/algorithm/kalman_filter.c ****     if (kf->User_Func2_f != NULL)
 386:modules/algorithm/kalman_filter.c ****         kf->User_Func2_f(kf);
 387:modules/algorithm/kalman_filter.c **** 
 388:modules/algorithm/kalman_filter.c ****     if (kf->MeasurementValidNum != 0 || kf->UseAutoAdjustment == 0)
 389:modules/algorithm/kalman_filter.c ****     {
 390:modules/algorithm/kalman_filter.c ****         // é‡ڈوµ‹و›´و–°
 391:modules/algorithm/kalman_filter.c ****         // 3. K(k) = P'(k)آ·HT / (Hآ·P'(k)آ·HT + R)
 392:modules/algorithm/kalman_filter.c ****         Kalman_Filter_SetK(kf);
 393:modules/algorithm/kalman_filter.c **** 
 394:modules/algorithm/kalman_filter.c ****         if (kf->User_Func3_f != NULL)
 395:modules/algorithm/kalman_filter.c ****             kf->User_Func3_f(kf);
 396:modules/algorithm/kalman_filter.c **** 
 397:modules/algorithm/kalman_filter.c ****         // è‍چهگˆ
 398:modules/algorithm/kalman_filter.c ****         // 4. xhat(k) = xhat'(k) + K(k)آ·(z(k) - Hآ·xhat'(k))
 399:modules/algorithm/kalman_filter.c ****         Kalman_Filter_xhatUpdate(kf);
 400:modules/algorithm/kalman_filter.c **** 
 401:modules/algorithm/kalman_filter.c ****         if (kf->User_Func4_f != NULL)
 402:modules/algorithm/kalman_filter.c ****             kf->User_Func4_f(kf);
 403:modules/algorithm/kalman_filter.c **** 
 404:modules/algorithm/kalman_filter.c ****         // ن؟®و­£و–¹ه·®
 405:modules/algorithm/kalman_filter.c ****         // 5. P(k) = (1-K(k)آ·H)آ·P'(k) ==> P(k) = P'(k)-K(k)آ·Hآ·P'(k)
 406:modules/algorithm/kalman_filter.c ****         Kalman_Filter_P_Update(kf);
 407:modules/algorithm/kalman_filter.c ****     }
 408:modules/algorithm/kalman_filter.c ****     else
 409:modules/algorithm/kalman_filter.c ****     {
 410:modules/algorithm/kalman_filter.c ****         // و— وœ‰و•ˆé‡ڈوµ‹,ن»…é¢„وµ‹
 411:modules/algorithm/kalman_filter.c ****         // xhat(k) = xhat'(k)
 412:modules/algorithm/kalman_filter.c ****         // P(k) = P'(k)
 413:modules/algorithm/kalman_filter.c ****         memcpy(kf->xhat_data, kf->xhatminus_data, sizeof_float * kf->xhatSize);
 414:modules/algorithm/kalman_filter.c ****         memcpy(kf->P_data, kf->Pminus_data, sizeof_float * kf->xhatSize * kf->xhatSize);
 415:modules/algorithm/kalman_filter.c ****     }
 416:modules/algorithm/kalman_filter.c **** 
 417:modules/algorithm/kalman_filter.c ****     // è‡ھه®ڑن¹‰ه‡½و•°,هڈ¯ن»¥وڈگن¾›هگژه¤„çگ†ç­‰
 418:modules/algorithm/kalman_filter.c ****     if (kf->User_Func5_f != NULL)
 419:modules/algorithm/kalman_filter.c ****         kf->User_Func5_f(kf);
 420:modules/algorithm/kalman_filter.c **** 
 421:modules/algorithm/kalman_filter.c ****     // éپ؟ه…چو»¤و³¢ه™¨è؟‡ه؛¦و”¶و•›
 422:modules/algorithm/kalman_filter.c ****     // suppress filter excessive convergence
 423:modules/algorithm/kalman_filter.c ****     for (uint8_t i = 0; i < kf->xhatSize; ++i)
 424:modules/algorithm/kalman_filter.c ****     {
 425:modules/algorithm/kalman_filter.c ****         if (kf->P_data[i * kf->xhatSize + i] < kf->StateMinVariance[i])
 426:modules/algorithm/kalman_filter.c ****             kf->P_data[i * kf->xhatSize + i] = kf->StateMinVariance[i];
 427:modules/algorithm/kalman_filter.c ****     }
 428:modules/algorithm/kalman_filter.c **** 
 429:modules/algorithm/kalman_filter.c ****     memcpy(kf->FilteredValue, kf->xhat_data, sizeof_float * kf->xhatSize);
ARM GAS  C:\Users\Administrator\AppData\Local\Temp\ccsFX16C.s 			page 9


 430:modules/algorithm/kalman_filter.c **** 
 431:modules/algorithm/kalman_filter.c ****     if (kf->User_Func6_f != NULL)
 432:modules/algorithm/kalman_filter.c ****         kf->User_Func6_f(kf);
 433:modules/algorithm/kalman_filter.c **** 
 434:modules/algorithm/kalman_filter.c ****     return kf->FilteredValue;
 435:modules/algorithm/kalman_filter.c **** }
 436:modules/algorithm/kalman_filter.c **** 
 437:modules/algorithm/kalman_filter.c **** static void H_K_R_Adjustment(KalmanFilter_t *kf)
 438:modules/algorithm/kalman_filter.c **** {
  29              		.loc 1 438 1 view -0
  30              		.cfi_startproc
  31              		@ args = 0, pretend = 0, frame = 0
  32              		@ frame_needed = 0, uses_anonymous_args = 0
  33              		.loc 1 438 1 is_stmt 0 view .LVU1
  34 0000 70B5     		push	{r4, r5, r6, lr}
  35              		.cfi_def_cfa_offset 16
  36              		.cfi_offset 4, -16
  37              		.cfi_offset 5, -12
  38              		.cfi_offset 6, -8
  39              		.cfi_offset 14, -4
  40 0002 0446     		mov	r4, r0
 439:modules/algorithm/kalman_filter.c ****     kf->MeasurementValidNum = 0;
  41              		.loc 1 439 5 is_stmt 1 view .LVU2
  42              		.loc 1 439 29 is_stmt 0 view .LVU3
  43 0004 0025     		movs	r5, #0
  44 0006 0574     		strb	r5, [r0, #16]
 440:modules/algorithm/kalman_filter.c **** 
 441:modules/algorithm/kalman_filter.c ****     memcpy(kf->z_data, kf->MeasuredVector, sizeof_float * kf->zSize);
  45              		.loc 1 441 5 is_stmt 1 view .LVU4
  46              		.loc 1 441 61 is_stmt 0 view .LVU5
  47 0008 827B     		ldrb	r2, [r0, #14]	@ zero_extendqisi2
  48              		.loc 1 441 57 view .LVU6
  49 000a 414E     		ldr	r6, .L9
  50 000c 3388     		ldrh	r3, [r6]
  51              		.loc 1 441 5 view .LVU7
  52 000e 03FB02F2 		mul	r2, r3, r2
  53 0012 4168     		ldr	r1, [r0, #4]
  54 0014 D0F8F400 		ldr	r0, [r0, #244]
  55              	.LVL1:
  56              		.loc 1 441 5 view .LVU8
  57 0018 FFF7FEFF 		bl	memcpy
  58              	.LVL2:
 442:modules/algorithm/kalman_filter.c ****     memset(kf->MeasuredVector, 0, sizeof_float * kf->zSize);
  59              		.loc 1 442 5 is_stmt 1 view .LVU9
  60              		.loc 1 442 52 is_stmt 0 view .LVU10
  61 001c A27B     		ldrb	r2, [r4, #14]	@ zero_extendqisi2
  62              		.loc 1 442 48 view .LVU11
  63 001e 3388     		ldrh	r3, [r6]
  64              		.loc 1 442 5 view .LVU12
  65 0020 03FB02F2 		mul	r2, r3, r2
  66 0024 2946     		mov	r1, r5
  67 0026 6068     		ldr	r0, [r4, #4]
  68 0028 FFF7FEFF 		bl	memset
  69              	.LVL3:
 443:modules/algorithm/kalman_filter.c **** 
 444:modules/algorithm/kalman_filter.c ****     // è¯†هˆ«é‡ڈوµ‹و•°وچ®وœ‰و•ˆو€§ه¹¶è°ƒو•´çں©éکµH R K
 445:modules/algorithm/kalman_filter.c ****     // recognize measurement validity and adjust matrices H R K
ARM GAS  C:\Users\Administrator\AppData\Local\Temp\ccsFX16C.s 			page 10


 446:modules/algorithm/kalman_filter.c ****     memset(kf->R_data, 0, sizeof_float * kf->zSize * kf->zSize);
  70              		.loc 1 446 5 is_stmt 1 view .LVU13
  71              		.loc 1 446 44 is_stmt 0 view .LVU14
  72 002c A27B     		ldrb	r2, [r4, #14]	@ zero_extendqisi2
  73              		.loc 1 446 40 view .LVU15
  74 002e 3388     		ldrh	r3, [r6]
  75 0030 02FB03F3 		mul	r3, r2, r3
  76              		.loc 1 446 5 view .LVU16
  77 0034 03FB02F2 		mul	r2, r3, r2
  78 0038 2946     		mov	r1, r5
  79 003a D4F81801 		ldr	r0, [r4, #280]
  80 003e FFF7FEFF 		bl	memset
  81              	.LVL4:
 447:modules/algorithm/kalman_filter.c ****     memset(kf->H_data, 0, sizeof_float * kf->xhatSize * kf->zSize);
  82              		.loc 1 447 5 is_stmt 1 view .LVU17
  83              		.loc 1 447 44 is_stmt 0 view .LVU18
  84 0042 227B     		ldrb	r2, [r4, #12]	@ zero_extendqisi2
  85              		.loc 1 447 40 view .LVU19
  86 0044 3388     		ldrh	r3, [r6]
  87 0046 02FB03F3 		mul	r3, r2, r3
  88              		.loc 1 447 59 view .LVU20
  89 004a A27B     		ldrb	r2, [r4, #14]	@ zero_extendqisi2
  90              		.loc 1 447 5 view .LVU21
  91 004c 03FB02F2 		mul	r2, r3, r2
  92 0050 2946     		mov	r1, r5
  93 0052 D4F80C01 		ldr	r0, [r4, #268]
  94 0056 FFF7FEFF 		bl	memset
  95              	.LVL5:
 448:modules/algorithm/kalman_filter.c ****     for (uint8_t i = 0; i < kf->zSize; ++i)
  96              		.loc 1 448 5 is_stmt 1 view .LVU22
  97              	.LBB2:
  98              		.loc 1 448 10 view .LVU23
  99              		.loc 1 448 18 is_stmt 0 view .LVU24
 100 005a 2946     		mov	r1, r5
 101              		.loc 1 448 5 view .LVU25
 102 005c 01E0     		b	.L2
 103              	.LVL6:
 104              	.L3:
 105              		.loc 1 448 40 is_stmt 1 discriminator 2 view .LVU26
 106 005e 0131     		adds	r1, r1, #1
 107              	.LVL7:
 108              		.loc 1 448 40 is_stmt 0 discriminator 2 view .LVU27
 109 0060 C9B2     		uxtb	r1, r1
 110              	.LVL8:
 111              	.L2:
 112              		.loc 1 448 27 is_stmt 1 discriminator 1 view .LVU28
 113              		.loc 1 448 31 is_stmt 0 discriminator 1 view .LVU29
 114 0062 A37B     		ldrb	r3, [r4, #14]	@ zero_extendqisi2
 115              		.loc 1 448 27 discriminator 1 view .LVU30
 116 0064 8B42     		cmp	r3, r1
 117 0066 2AD9     		bls	.L8
 449:modules/algorithm/kalman_filter.c ****     {
 450:modules/algorithm/kalman_filter.c ****         if (kf->z_data[i] != 0)
 118              		.loc 1 450 9 is_stmt 1 view .LVU31
 119              		.loc 1 450 15 is_stmt 0 view .LVU32
 120 0068 D4F8F430 		ldr	r3, [r4, #244]
 121              		.loc 1 450 23 view .LVU33
ARM GAS  C:\Users\Administrator\AppData\Local\Temp\ccsFX16C.s 			page 11


 122 006c 4FEA810C 		lsl	ip, r1, #2
 123 0070 03EB8102 		add	r2, r3, r1, lsl #2
 124 0074 D2ED007A 		vldr.32	s15, [r2]
 125              		.loc 1 450 12 view .LVU34
 126 0078 F5EE407A 		vcmp.f32	s15, #0
 127 007c F1EE10FA 		vmrs	APSR_nzcv, FPSCR
 128 0080 EDD0     		beq	.L3
 451:modules/algorithm/kalman_filter.c ****         {
 452:modules/algorithm/kalman_filter.c ****             // é‡چو‍„هگ‘é‡ڈz
 453:modules/algorithm/kalman_filter.c ****             // rebuild vector z
 454:modules/algorithm/kalman_filter.c ****             kf->z_data[kf->MeasurementValidNum] = kf->z_data[i];
 129              		.loc 1 454 13 is_stmt 1 view .LVU35
 130              		.loc 1 454 26 is_stmt 0 view .LVU36
 131 0082 227C     		ldrb	r2, [r4, #16]	@ zero_extendqisi2
 132              		.loc 1 454 23 view .LVU37
 133 0084 03EB8203 		add	r3, r3, r2, lsl #2
 134              		.loc 1 454 49 view .LVU38
 135 0088 C3ED007A 		vstr.32	s15, [r3]
 455:modules/algorithm/kalman_filter.c ****             kf->temp[kf->MeasurementValidNum] = i;
 136              		.loc 1 455 13 is_stmt 1 view .LVU39
 137              		.loc 1 455 15 is_stmt 0 view .LVU40
 138 008c 626A     		ldr	r2, [r4, #36]
 139              		.loc 1 455 24 view .LVU41
 140 008e 237C     		ldrb	r3, [r4, #16]	@ zero_extendqisi2
 141              		.loc 1 455 47 view .LVU42
 142 0090 D154     		strb	r1, [r2, r3]
 456:modules/algorithm/kalman_filter.c ****             // é‡چو‍„çں©éکµH
 457:modules/algorithm/kalman_filter.c ****             // rebuild matrix H
 458:modules/algorithm/kalman_filter.c ****             kf->H_data[kf->xhatSize * kf->MeasurementValidNum + kf->MeasurementMap[i] - 1] = kf->Me
 143              		.loc 1 458 13 is_stmt 1 view .LVU43
 144              		.loc 1 458 96 is_stmt 0 view .LVU44
 145 0092 A069     		ldr	r0, [r4, #24]
 146              		.loc 1 458 15 view .LVU45
 147 0094 D4F80C21 		ldr	r2, [r4, #268]
 148              		.loc 1 458 26 view .LVU46
 149 0098 94F80CE0 		ldrb	lr, [r4, #12]	@ zero_extendqisi2
 150              		.loc 1 458 41 view .LVU47
 151 009c 257C     		ldrb	r5, [r4, #16]	@ zero_extendqisi2
 152              		.loc 1 458 67 view .LVU48
 153 009e 6369     		ldr	r3, [r4, #20]
 154              		.loc 1 458 83 view .LVU49
 155 00a0 5B5C     		ldrb	r3, [r3, r1]	@ zero_extendqisi2
 156              		.loc 1 458 63 view .LVU50
 157 00a2 05FB0E33 		mla	r3, r5, lr, r3
 158              		.loc 1 458 87 view .LVU51
 159 00a6 03F18043 		add	r3, r3, #1073741824
 160 00aa 013B     		subs	r3, r3, #1
 161              		.loc 1 458 23 view .LVU52
 162 00ac 02EB8302 		add	r2, r2, r3, lsl #2
 163              		.loc 1 458 115 view .LVU53
 164 00b0 6044     		add	r0, r0, ip
 165 00b2 0368     		ldr	r3, [r0]	@ float
 166              		.loc 1 458 92 view .LVU54
 167 00b4 1360     		str	r3, [r2]	@ float
 459:modules/algorithm/kalman_filter.c ****             kf->MeasurementValidNum++;
 168              		.loc 1 459 13 is_stmt 1 view .LVU55
 169              		.loc 1 459 15 is_stmt 0 view .LVU56
ARM GAS  C:\Users\Administrator\AppData\Local\Temp\ccsFX16C.s 			page 12


 170 00b6 237C     		ldrb	r3, [r4, #16]	@ zero_extendqisi2
 171              		.loc 1 459 36 view .LVU57
 172 00b8 0133     		adds	r3, r3, #1
 173 00ba 2374     		strb	r3, [r4, #16]
 174 00bc CFE7     		b	.L3
 175              	.L8:
 176              	.LBE2:
 177              	.LBB3:
 460:modules/algorithm/kalman_filter.c ****         }
 461:modules/algorithm/kalman_filter.c ****     }
 462:modules/algorithm/kalman_filter.c ****     for (uint8_t i = 0; i < kf->MeasurementValidNum; ++i)
 178              		.loc 1 462 18 view .LVU58
 179 00be 0023     		movs	r3, #0
 180 00c0 0FE0     		b	.L5
 181              	.LVL9:
 182              	.L6:
 463:modules/algorithm/kalman_filter.c ****     {
 464:modules/algorithm/kalman_filter.c ****         // é‡چو‍„çں©éکµR
 465:modules/algorithm/kalman_filter.c ****         // rebuild matrix R
 466:modules/algorithm/kalman_filter.c ****         kf->R_data[i * kf->MeasurementValidNum + i] = kf->MatR_DiagonalElements[kf->temp[i]];
 183              		.loc 1 466 9 is_stmt 1 view .LVU59
 184              		.loc 1 466 57 is_stmt 0 view .LVU60
 185 00c2 E069     		ldr	r0, [r4, #28]
 186              		.loc 1 466 83 view .LVU61
 187 00c4 616A     		ldr	r1, [r4, #36]
 188              		.loc 1 466 89 view .LVU62
 189 00c6 11F803C0 		ldrb	ip, [r1, r3]	@ zero_extendqisi2
 190              		.loc 1 466 11 view .LVU63
 191 00ca D4F81811 		ldr	r1, [r4, #280]
 192              		.loc 1 466 48 view .LVU64
 193 00ce 02FB0332 		mla	r2, r2, r3, r3
 194              		.loc 1 466 19 view .LVU65
 195 00d2 01EB8201 		add	r1, r1, r2, lsl #2
 196              		.loc 1 466 80 view .LVU66
 197 00d6 00EB8C00 		add	r0, r0, ip, lsl #2
 198 00da 0268     		ldr	r2, [r0]	@ float
 199              		.loc 1 466 53 view .LVU67
 200 00dc 0A60     		str	r2, [r1]	@ float
 462:modules/algorithm/kalman_filter.c ****     {
 201              		.loc 1 462 54 is_stmt 1 discriminator 3 view .LVU68
 202 00de 0133     		adds	r3, r3, #1
 203              	.LVL10:
 462:modules/algorithm/kalman_filter.c ****     {
 204              		.loc 1 462 54 is_stmt 0 discriminator 3 view .LVU69
 205 00e0 DBB2     		uxtb	r3, r3
 206              	.LVL11:
 207              	.L5:
 462:modules/algorithm/kalman_filter.c ****     {
 208              		.loc 1 462 27 is_stmt 1 discriminator 1 view .LVU70
 462:modules/algorithm/kalman_filter.c ****     {
 209              		.loc 1 462 31 is_stmt 0 discriminator 1 view .LVU71
 210 00e2 227C     		ldrb	r2, [r4, #16]	@ zero_extendqisi2
 462:modules/algorithm/kalman_filter.c ****     {
 211              		.loc 1 462 27 discriminator 1 view .LVU72
 212 00e4 9A42     		cmp	r2, r3
 213 00e6 ECD8     		bhi	.L6
 214              	.LBE3:
ARM GAS  C:\Users\Administrator\AppData\Local\Temp\ccsFX16C.s 			page 13


 467:modules/algorithm/kalman_filter.c ****     }
 468:modules/algorithm/kalman_filter.c **** 
 469:modules/algorithm/kalman_filter.c ****     // è°ƒو•´çں©éکµç»´و•°
 470:modules/algorithm/kalman_filter.c ****     // adjust the dimensions of system matrices
 471:modules/algorithm/kalman_filter.c ****     kf->H.numRows = kf->MeasurementValidNum;
 215              		.loc 1 471 5 is_stmt 1 view .LVU73
 216              		.loc 1 471 19 is_stmt 0 view .LVU74
 217 00e8 A4F87820 		strh	r2, [r4, #120]	@ movhi
 472:modules/algorithm/kalman_filter.c ****     kf->H.numCols = kf->xhatSize;
 218              		.loc 1 472 5 is_stmt 1 view .LVU75
 219              		.loc 1 472 23 is_stmt 0 view .LVU76
 220 00ec 237B     		ldrb	r3, [r4, #12]	@ zero_extendqisi2
 221              	.LVL12:
 222              		.loc 1 472 19 view .LVU77
 223 00ee A4F87A30 		strh	r3, [r4, #122]	@ movhi
 473:modules/algorithm/kalman_filter.c ****     kf->HT.numRows = kf->xhatSize;
 224              		.loc 1 473 5 is_stmt 1 view .LVU78
 225              		.loc 1 473 20 is_stmt 0 view .LVU79
 226 00f2 A4F88030 		strh	r3, [r4, #128]	@ movhi
 474:modules/algorithm/kalman_filter.c ****     kf->HT.numCols = kf->MeasurementValidNum;
 227              		.loc 1 474 5 is_stmt 1 view .LVU80
 228              		.loc 1 474 20 is_stmt 0 view .LVU81
 229 00f6 A4F88220 		strh	r2, [r4, #130]	@ movhi
 475:modules/algorithm/kalman_filter.c ****     kf->R.numRows = kf->MeasurementValidNum;
 230              		.loc 1 475 5 is_stmt 1 view .LVU82
 231              		.loc 1 475 19 is_stmt 0 view .LVU83
 232 00fa A4F89020 		strh	r2, [r4, #144]	@ movhi
 476:modules/algorithm/kalman_filter.c ****     kf->R.numCols = kf->MeasurementValidNum;
 233              		.loc 1 476 5 is_stmt 1 view .LVU84
 234              		.loc 1 476 19 is_stmt 0 view .LVU85
 235 00fe A4F89220 		strh	r2, [r4, #146]	@ movhi
 477:modules/algorithm/kalman_filter.c ****     kf->K.numRows = kf->xhatSize;
 236              		.loc 1 477 5 is_stmt 1 view .LVU86
 237              		.loc 1 477 19 is_stmt 0 view .LVU87
 238 0102 A4F89830 		strh	r3, [r4, #152]	@ movhi
 478:modules/algorithm/kalman_filter.c ****     kf->K.numCols = kf->MeasurementValidNum;
 239              		.loc 1 478 5 is_stmt 1 view .LVU88
 240              		.loc 1 478 19 is_stmt 0 view .LVU89
 241 0106 A4F89A20 		strh	r2, [r4, #154]	@ movhi
 479:modules/algorithm/kalman_filter.c ****     kf->z.numRows = kf->MeasurementValidNum;
 242              		.loc 1 479 5 is_stmt 1 view .LVU90
 243              		.loc 1 479 19 is_stmt 0 view .LVU91
 244 010a A4F84820 		strh	r2, [r4, #72]	@ movhi
 480:modules/algorithm/kalman_filter.c **** }
 245              		.loc 1 480 1 view .LVU92
 246 010e 70BD     		pop	{r4, r5, r6, pc}
 247              	.LVL13:
 248              	.L10:
 249              		.loc 1 480 1 view .LVU93
 250              		.align	2
 251              	.L9:
 252 0110 00000000 		.word	sizeof_float
 253              		.cfi_endproc
 254              	.LFE171:
 256              		.section	.text.Kalman_Filter_Init,"ax",%progbits
 257              		.align	1
 258              		.global	Kalman_Filter_Init
ARM GAS  C:\Users\Administrator\AppData\Local\Temp\ccsFX16C.s 			page 14


 259              		.syntax unified
 260              		.thumb
 261              		.thumb_func
 263              	Kalman_Filter_Init:
 264              	.LVL14:
 265              	.LFB163:
 144:modules/algorithm/kalman_filter.c ****     sizeof_float = sizeof(float);
 266              		.loc 1 144 1 is_stmt 1 view -0
 267              		.cfi_startproc
 268              		@ args = 0, pretend = 0, frame = 0
 269              		@ frame_needed = 0, uses_anonymous_args = 0
 144:modules/algorithm/kalman_filter.c ****     sizeof_float = sizeof(float);
 270              		.loc 1 144 1 is_stmt 0 view .LVU95
 271 0000 2DE9F047 		push	{r4, r5, r6, r7, r8, r9, r10, lr}
 272              		.cfi_def_cfa_offset 32
 273              		.cfi_offset 4, -32
 274              		.cfi_offset 5, -28
 275              		.cfi_offset 6, -24
 276              		.cfi_offset 7, -20
 277              		.cfi_offset 8, -16
 278              		.cfi_offset 9, -12
 279              		.cfi_offset 10, -8
 280              		.cfi_offset 14, -4
 281 0004 0446     		mov	r4, r0
 282 0006 0D46     		mov	r5, r1
 283 0008 9146     		mov	r9, r2
 284 000a 1E46     		mov	r6, r3
 145:modules/algorithm/kalman_filter.c ****     sizeof_double = sizeof(double);
 285              		.loc 1 145 5 is_stmt 1 view .LVU96
 145:modules/algorithm/kalman_filter.c ****     sizeof_double = sizeof(double);
 286              		.loc 1 145 18 is_stmt 0 view .LVU97
 287 000c DFF8B883 		ldr	r8, .L17+4
 288 0010 0423     		movs	r3, #4
 289              	.LVL15:
 145:modules/algorithm/kalman_filter.c ****     sizeof_double = sizeof(double);
 290              		.loc 1 145 18 view .LVU98
 291 0012 A8F80030 		strh	r3, [r8]	@ movhi
 146:modules/algorithm/kalman_filter.c **** 
 292              		.loc 1 146 5 is_stmt 1 view .LVU99
 146:modules/algorithm/kalman_filter.c **** 
 293              		.loc 1 146 19 is_stmt 0 view .LVU100
 294 0016 EB4B     		ldr	r3, .L17
 295 0018 0822     		movs	r2, #8
 296              	.LVL16:
 146:modules/algorithm/kalman_filter.c **** 
 297              		.loc 1 146 19 view .LVU101
 298 001a 1A80     		strh	r2, [r3]	@ movhi
 148:modules/algorithm/kalman_filter.c ****     kf->uSize = uSize;
 299              		.loc 1 148 5 is_stmt 1 view .LVU102
 148:modules/algorithm/kalman_filter.c ****     kf->uSize = uSize;
 300              		.loc 1 148 18 is_stmt 0 view .LVU103
 301 001c 0173     		strb	r1, [r0, #12]
 149:modules/algorithm/kalman_filter.c ****     kf->zSize = zSize;
 302              		.loc 1 149 5 is_stmt 1 view .LVU104
 149:modules/algorithm/kalman_filter.c ****     kf->zSize = zSize;
 303              		.loc 1 149 15 is_stmt 0 view .LVU105
 304 001e 80F80D90 		strb	r9, [r0, #13]
ARM GAS  C:\Users\Administrator\AppData\Local\Temp\ccsFX16C.s 			page 15


 150:modules/algorithm/kalman_filter.c **** 
 305              		.loc 1 150 5 is_stmt 1 view .LVU106
 150:modules/algorithm/kalman_filter.c **** 
 306              		.loc 1 150 15 is_stmt 0 view .LVU107
 307 0022 8673     		strb	r6, [r0, #14]
 152:modules/algorithm/kalman_filter.c **** 
 308              		.loc 1 152 5 is_stmt 1 view .LVU108
 152:modules/algorithm/kalman_filter.c **** 
 309              		.loc 1 152 29 is_stmt 0 view .LVU109
 310 0024 0027     		movs	r7, #0
 311 0026 0774     		strb	r7, [r0, #16]
 155:modules/algorithm/kalman_filter.c ****     memset(kf->MeasurementMap, 0, sizeof(uint8_t) * zSize);
 312              		.loc 1 155 5 is_stmt 1 view .LVU110
 155:modules/algorithm/kalman_filter.c ****     memset(kf->MeasurementMap, 0, sizeof(uint8_t) * zSize);
 313              		.loc 1 155 37 is_stmt 0 view .LVU111
 314 0028 3046     		mov	r0, r6
 315              	.LVL17:
 155:modules/algorithm/kalman_filter.c ****     memset(kf->MeasurementMap, 0, sizeof(uint8_t) * zSize);
 316              		.loc 1 155 37 view .LVU112
 317 002a FFF7FEFF 		bl	malloc
 318              	.LVL18:
 155:modules/algorithm/kalman_filter.c ****     memset(kf->MeasurementMap, 0, sizeof(uint8_t) * zSize);
 319              		.loc 1 155 24 discriminator 1 view .LVU113
 320 002e 6061     		str	r0, [r4, #20]
 156:modules/algorithm/kalman_filter.c ****     kf->MeasurementDegree = (float *)user_malloc(sizeof_float * zSize);
 321              		.loc 1 156 5 is_stmt 1 view .LVU114
 322 0030 3246     		mov	r2, r6
 323 0032 3946     		mov	r1, r7
 324 0034 FFF7FEFF 		bl	memset
 325              	.LVL19:
 157:modules/algorithm/kalman_filter.c ****     memset(kf->MeasurementDegree, 0, sizeof_float * zSize);
 326              		.loc 1 157 5 view .LVU115
 157:modules/algorithm/kalman_filter.c ****     memset(kf->MeasurementDegree, 0, sizeof_float * zSize);
 327              		.loc 1 157 63 is_stmt 0 view .LVU116
 328 0038 B8F800A0 		ldrh	r10, [r8]
 329 003c 06FB0AFA 		mul	r10, r6, r10
 157:modules/algorithm/kalman_filter.c ****     memset(kf->MeasurementDegree, 0, sizeof_float * zSize);
 330              		.loc 1 157 38 view .LVU117
 331 0040 5046     		mov	r0, r10
 332 0042 FFF7FEFF 		bl	malloc
 333              	.LVL20:
 157:modules/algorithm/kalman_filter.c ****     memset(kf->MeasurementDegree, 0, sizeof_float * zSize);
 334              		.loc 1 157 27 discriminator 1 view .LVU118
 335 0046 A061     		str	r0, [r4, #24]
 158:modules/algorithm/kalman_filter.c ****     kf->MatR_DiagonalElements = (float *)user_malloc(sizeof_float * zSize);
 336              		.loc 1 158 5 is_stmt 1 view .LVU119
 337 0048 5246     		mov	r2, r10
 338 004a 3946     		mov	r1, r7
 339 004c FFF7FEFF 		bl	memset
 340              	.LVL21:
 159:modules/algorithm/kalman_filter.c ****     memset(kf->MatR_DiagonalElements, 0, sizeof_float * zSize);
 341              		.loc 1 159 5 view .LVU120
 159:modules/algorithm/kalman_filter.c ****     memset(kf->MatR_DiagonalElements, 0, sizeof_float * zSize);
 342              		.loc 1 159 67 is_stmt 0 view .LVU121
 343 0050 B8F800A0 		ldrh	r10, [r8]
 344 0054 06FB0AFA 		mul	r10, r6, r10
 159:modules/algorithm/kalman_filter.c ****     memset(kf->MatR_DiagonalElements, 0, sizeof_float * zSize);
ARM GAS  C:\Users\Administrator\AppData\Local\Temp\ccsFX16C.s 			page 16


 345              		.loc 1 159 42 view .LVU122
 346 0058 5046     		mov	r0, r10
 347 005a FFF7FEFF 		bl	malloc
 348              	.LVL22:
 159:modules/algorithm/kalman_filter.c ****     memset(kf->MatR_DiagonalElements, 0, sizeof_float * zSize);
 349              		.loc 1 159 31 discriminator 1 view .LVU123
 350 005e E061     		str	r0, [r4, #28]
 160:modules/algorithm/kalman_filter.c ****     kf->StateMinVariance = (float *)user_malloc(sizeof_float * xhatSize);
 351              		.loc 1 160 5 is_stmt 1 view .LVU124
 352 0060 5246     		mov	r2, r10
 353 0062 3946     		mov	r1, r7
 354 0064 FFF7FEFF 		bl	memset
 355              	.LVL23:
 161:modules/algorithm/kalman_filter.c ****     memset(kf->StateMinVariance, 0, sizeof_float * xhatSize);
 356              		.loc 1 161 5 view .LVU125
 161:modules/algorithm/kalman_filter.c ****     memset(kf->StateMinVariance, 0, sizeof_float * xhatSize);
 357              		.loc 1 161 62 is_stmt 0 view .LVU126
 358 0068 B8F800A0 		ldrh	r10, [r8]
 359 006c 05FB0AFA 		mul	r10, r5, r10
 161:modules/algorithm/kalman_filter.c ****     memset(kf->StateMinVariance, 0, sizeof_float * xhatSize);
 360              		.loc 1 161 37 view .LVU127
 361 0070 5046     		mov	r0, r10
 362 0072 FFF7FEFF 		bl	malloc
 363              	.LVL24:
 161:modules/algorithm/kalman_filter.c ****     memset(kf->StateMinVariance, 0, sizeof_float * xhatSize);
 364              		.loc 1 161 26 discriminator 1 view .LVU128
 365 0076 2062     		str	r0, [r4, #32]
 162:modules/algorithm/kalman_filter.c ****     kf->temp = (uint8_t *)user_malloc(sizeof(uint8_t) * zSize);
 366              		.loc 1 162 5 is_stmt 1 view .LVU129
 367 0078 5246     		mov	r2, r10
 368 007a 3946     		mov	r1, r7
 369 007c FFF7FEFF 		bl	memset
 370              	.LVL25:
 163:modules/algorithm/kalman_filter.c ****     memset(kf->temp, 0, sizeof(uint8_t) * zSize);
 371              		.loc 1 163 5 view .LVU130
 163:modules/algorithm/kalman_filter.c ****     memset(kf->temp, 0, sizeof(uint8_t) * zSize);
 372              		.loc 1 163 27 is_stmt 0 view .LVU131
 373 0080 3046     		mov	r0, r6
 374 0082 FFF7FEFF 		bl	malloc
 375              	.LVL26:
 163:modules/algorithm/kalman_filter.c ****     memset(kf->temp, 0, sizeof(uint8_t) * zSize);
 376              		.loc 1 163 14 discriminator 1 view .LVU132
 377 0086 6062     		str	r0, [r4, #36]
 164:modules/algorithm/kalman_filter.c **** 
 378              		.loc 1 164 5 is_stmt 1 view .LVU133
 379 0088 3246     		mov	r2, r6
 380 008a 3946     		mov	r1, r7
 381 008c FFF7FEFF 		bl	memset
 382              	.LVL27:
 167:modules/algorithm/kalman_filter.c ****     memset(kf->FilteredValue, 0, sizeof_float * xhatSize);
 383              		.loc 1 167 5 view .LVU134
 167:modules/algorithm/kalman_filter.c ****     memset(kf->FilteredValue, 0, sizeof_float * xhatSize);
 384              		.loc 1 167 59 is_stmt 0 view .LVU135
 385 0090 B8F800A0 		ldrh	r10, [r8]
 386 0094 05FB0AFA 		mul	r10, r5, r10
 167:modules/algorithm/kalman_filter.c ****     memset(kf->FilteredValue, 0, sizeof_float * xhatSize);
 387              		.loc 1 167 34 view .LVU136
ARM GAS  C:\Users\Administrator\AppData\Local\Temp\ccsFX16C.s 			page 17


 388 0098 5046     		mov	r0, r10
 389 009a FFF7FEFF 		bl	malloc
 390              	.LVL28:
 167:modules/algorithm/kalman_filter.c ****     memset(kf->FilteredValue, 0, sizeof_float * xhatSize);
 391              		.loc 1 167 23 discriminator 1 view .LVU137
 392 009e 2060     		str	r0, [r4]
 168:modules/algorithm/kalman_filter.c ****     kf->MeasuredVector = (float *)user_malloc(sizeof_float * zSize);
 393              		.loc 1 168 5 is_stmt 1 view .LVU138
 394 00a0 5246     		mov	r2, r10
 395 00a2 3946     		mov	r1, r7
 396 00a4 FFF7FEFF 		bl	memset
 397              	.LVL29:
 169:modules/algorithm/kalman_filter.c ****     memset(kf->MeasuredVector, 0, sizeof_float * zSize);
 398              		.loc 1 169 5 view .LVU139
 169:modules/algorithm/kalman_filter.c ****     memset(kf->MeasuredVector, 0, sizeof_float * zSize);
 399              		.loc 1 169 60 is_stmt 0 view .LVU140
 400 00a8 B8F800A0 		ldrh	r10, [r8]
 401 00ac 06FB0AFA 		mul	r10, r6, r10
 169:modules/algorithm/kalman_filter.c ****     memset(kf->MeasuredVector, 0, sizeof_float * zSize);
 402              		.loc 1 169 35 view .LVU141
 403 00b0 5046     		mov	r0, r10
 404 00b2 FFF7FEFF 		bl	malloc
 405              	.LVL30:
 169:modules/algorithm/kalman_filter.c ****     memset(kf->MeasuredVector, 0, sizeof_float * zSize);
 406              		.loc 1 169 24 discriminator 1 view .LVU142
 407 00b6 6060     		str	r0, [r4, #4]
 170:modules/algorithm/kalman_filter.c ****     kf->ControlVector = (float *)user_malloc(sizeof_float * uSize);
 408              		.loc 1 170 5 is_stmt 1 view .LVU143
 409 00b8 5246     		mov	r2, r10
 410 00ba 3946     		mov	r1, r7
 411 00bc FFF7FEFF 		bl	memset
 412              	.LVL31:
 171:modules/algorithm/kalman_filter.c ****     memset(kf->ControlVector, 0, sizeof_float * uSize);
 413              		.loc 1 171 5 view .LVU144
 171:modules/algorithm/kalman_filter.c ****     memset(kf->ControlVector, 0, sizeof_float * uSize);
 414              		.loc 1 171 59 is_stmt 0 view .LVU145
 415 00c0 B8F800A0 		ldrh	r10, [r8]
 416 00c4 09FB0AFA 		mul	r10, r9, r10
 171:modules/algorithm/kalman_filter.c ****     memset(kf->ControlVector, 0, sizeof_float * uSize);
 417              		.loc 1 171 34 view .LVU146
 418 00c8 5046     		mov	r0, r10
 419 00ca FFF7FEFF 		bl	malloc
 420              	.LVL32:
 171:modules/algorithm/kalman_filter.c ****     memset(kf->ControlVector, 0, sizeof_float * uSize);
 421              		.loc 1 171 23 discriminator 1 view .LVU147
 422 00ce A060     		str	r0, [r4, #8]
 172:modules/algorithm/kalman_filter.c **** 
 423              		.loc 1 172 5 is_stmt 1 view .LVU148
 424 00d0 5246     		mov	r2, r10
 425 00d2 3946     		mov	r1, r7
 426 00d4 FFF7FEFF 		bl	memset
 427              	.LVL33:
 175:modules/algorithm/kalman_filter.c ****     memset(kf->xhat_data, 0, sizeof_float * xhatSize);
 428              		.loc 1 175 5 view .LVU149
 175:modules/algorithm/kalman_filter.c ****     memset(kf->xhat_data, 0, sizeof_float * xhatSize);
 429              		.loc 1 175 55 is_stmt 0 view .LVU150
 430 00d8 B8F800A0 		ldrh	r10, [r8]
ARM GAS  C:\Users\Administrator\AppData\Local\Temp\ccsFX16C.s 			page 18


 431 00dc 05FB0AFA 		mul	r10, r5, r10
 175:modules/algorithm/kalman_filter.c ****     memset(kf->xhat_data, 0, sizeof_float * xhatSize);
 432              		.loc 1 175 30 view .LVU151
 433 00e0 5046     		mov	r0, r10
 434 00e2 FFF7FEFF 		bl	malloc
 435              	.LVL34:
 175:modules/algorithm/kalman_filter.c ****     memset(kf->xhat_data, 0, sizeof_float * xhatSize);
 436              		.loc 1 175 19 discriminator 1 view .LVU152
 437 00e6 C4F8E800 		str	r0, [r4, #232]
 176:modules/algorithm/kalman_filter.c ****     Matrix_Init(&kf->xhat, kf->xhatSize, 1, (float *)kf->xhat_data);
 438              		.loc 1 176 5 is_stmt 1 view .LVU153
 439 00ea 5246     		mov	r2, r10
 440 00ec 3946     		mov	r1, r7
 441 00ee FFF7FEFF 		bl	memset
 442              	.LVL35:
 177:modules/algorithm/kalman_filter.c **** 
 443              		.loc 1 177 5 view .LVU154
 444 00f2 D4F8E830 		ldr	r3, [r4, #232]
 445 00f6 0122     		movs	r2, #1
 446 00f8 217B     		ldrb	r1, [r4, #12]	@ zero_extendqisi2
 447 00fa 04F13000 		add	r0, r4, #48
 448 00fe FFF7FEFF 		bl	arm_mat_init_f32
 449              	.LVL36:
 180:modules/algorithm/kalman_filter.c ****     memset(kf->xhatminus_data, 0, sizeof_float * xhatSize);
 450              		.loc 1 180 5 view .LVU155
 180:modules/algorithm/kalman_filter.c ****     memset(kf->xhatminus_data, 0, sizeof_float * xhatSize);
 451              		.loc 1 180 60 is_stmt 0 view .LVU156
 452 0102 B8F80080 		ldrh	r8, [r8]
 453 0106 05FB08F8 		mul	r8, r5, r8
 180:modules/algorithm/kalman_filter.c ****     memset(kf->xhatminus_data, 0, sizeof_float * xhatSize);
 454              		.loc 1 180 35 view .LVU157
 455 010a 4046     		mov	r0, r8
 456 010c FFF7FEFF 		bl	malloc
 457              	.LVL37:
 180:modules/algorithm/kalman_filter.c ****     memset(kf->xhatminus_data, 0, sizeof_float * xhatSize);
 458              		.loc 1 180 24 discriminator 1 view .LVU158
 459 0110 C4F8EC00 		str	r0, [r4, #236]
 181:modules/algorithm/kalman_filter.c ****     Matrix_Init(&kf->xhatminus, kf->xhatSize, 1, (float *)kf->xhatminus_data);
 460              		.loc 1 181 5 is_stmt 1 view .LVU159
 461 0114 4246     		mov	r2, r8
 462 0116 3946     		mov	r1, r7
 463 0118 FFF7FEFF 		bl	memset
 464              	.LVL38:
 182:modules/algorithm/kalman_filter.c **** 
 465              		.loc 1 182 5 view .LVU160
 466 011c D4F8EC30 		ldr	r3, [r4, #236]
 467 0120 0122     		movs	r2, #1
 468 0122 217B     		ldrb	r1, [r4, #12]	@ zero_extendqisi2
 469 0124 04F13800 		add	r0, r4, #56
 470 0128 FFF7FEFF 		bl	arm_mat_init_f32
 471              	.LVL39:
 184:modules/algorithm/kalman_filter.c ****     {
 472              		.loc 1 184 5 view .LVU161
 184:modules/algorithm/kalman_filter.c ****     {
 473              		.loc 1 184 8 is_stmt 0 view .LVU162
 474 012c B9F1000F 		cmp	r9, #0
 475 0130 40F04C81 		bne	.L15
ARM GAS  C:\Users\Administrator\AppData\Local\Temp\ccsFX16C.s 			page 19


 476              	.L12:
 193:modules/algorithm/kalman_filter.c ****     memset(kf->z_data, 0, sizeof_float * zSize);
 477              		.loc 1 193 5 is_stmt 1 view .LVU163
 193:modules/algorithm/kalman_filter.c ****     memset(kf->z_data, 0, sizeof_float * zSize);
 478              		.loc 1 193 52 is_stmt 0 view .LVU164
 479 0134 DFF89082 		ldr	r8, .L17+4
 480 0138 B8F80070 		ldrh	r7, [r8]
 481 013c 06FB07F7 		mul	r7, r6, r7
 193:modules/algorithm/kalman_filter.c ****     memset(kf->z_data, 0, sizeof_float * zSize);
 482              		.loc 1 193 27 view .LVU165
 483 0140 3846     		mov	r0, r7
 484 0142 FFF7FEFF 		bl	malloc
 485              	.LVL40:
 193:modules/algorithm/kalman_filter.c ****     memset(kf->z_data, 0, sizeof_float * zSize);
 486              		.loc 1 193 16 discriminator 1 view .LVU166
 487 0146 C4F8F400 		str	r0, [r4, #244]
 194:modules/algorithm/kalman_filter.c ****     Matrix_Init(&kf->z, kf->zSize, 1, (float *)kf->z_data);
 488              		.loc 1 194 5 is_stmt 1 view .LVU167
 489 014a 3A46     		mov	r2, r7
 490 014c 0021     		movs	r1, #0
 491 014e FFF7FEFF 		bl	memset
 492              	.LVL41:
 195:modules/algorithm/kalman_filter.c **** 
 493              		.loc 1 195 5 view .LVU168
 494 0152 D4F8F430 		ldr	r3, [r4, #244]
 495 0156 0122     		movs	r2, #1
 496 0158 A17B     		ldrb	r1, [r4, #14]	@ zero_extendqisi2
 497 015a 04F14800 		add	r0, r4, #72
 498 015e FFF7FEFF 		bl	arm_mat_init_f32
 499              	.LVL42:
 198:modules/algorithm/kalman_filter.c ****     memset(kf->P_data, 0, sizeof_float * xhatSize * xhatSize);
 500              		.loc 1 198 5 view .LVU169
 198:modules/algorithm/kalman_filter.c ****     memset(kf->P_data, 0, sizeof_float * xhatSize * xhatSize);
 501              		.loc 1 198 52 is_stmt 0 view .LVU170
 502 0162 B8F80070 		ldrh	r7, [r8]
 503 0166 05FB07F7 		mul	r7, r5, r7
 198:modules/algorithm/kalman_filter.c ****     memset(kf->P_data, 0, sizeof_float * xhatSize * xhatSize);
 504              		.loc 1 198 63 view .LVU171
 505 016a 05FB07F7 		mul	r7, r5, r7
 198:modules/algorithm/kalman_filter.c ****     memset(kf->P_data, 0, sizeof_float * xhatSize * xhatSize);
 506              		.loc 1 198 27 view .LVU172
 507 016e 3846     		mov	r0, r7
 508 0170 FFF7FEFF 		bl	malloc
 509              	.LVL43:
 198:modules/algorithm/kalman_filter.c ****     memset(kf->P_data, 0, sizeof_float * xhatSize * xhatSize);
 510              		.loc 1 198 16 discriminator 1 view .LVU173
 511 0174 C4F8F800 		str	r0, [r4, #248]
 199:modules/algorithm/kalman_filter.c ****     Matrix_Init(&kf->P, kf->xhatSize, kf->xhatSize, (float *)kf->P_data);
 512              		.loc 1 199 5 is_stmt 1 view .LVU174
 513 0178 3A46     		mov	r2, r7
 514 017a 0021     		movs	r1, #0
 515 017c FFF7FEFF 		bl	memset
 516              	.LVL44:
 200:modules/algorithm/kalman_filter.c **** 
 517              		.loc 1 200 5 view .LVU175
 200:modules/algorithm/kalman_filter.c **** 
 518              		.loc 1 200 27 is_stmt 0 view .LVU176
ARM GAS  C:\Users\Administrator\AppData\Local\Temp\ccsFX16C.s 			page 20


 519 0180 217B     		ldrb	r1, [r4, #12]	@ zero_extendqisi2
 200:modules/algorithm/kalman_filter.c **** 
 520              		.loc 1 200 5 view .LVU177
 521 0182 D4F8F830 		ldr	r3, [r4, #248]
 522 0186 0A46     		mov	r2, r1
 523 0188 04F15000 		add	r0, r4, #80
 524 018c FFF7FEFF 		bl	arm_mat_init_f32
 525              	.LVL45:
 203:modules/algorithm/kalman_filter.c ****     memset(kf->Pminus_data, 0, sizeof_float * xhatSize * xhatSize);
 526              		.loc 1 203 5 is_stmt 1 view .LVU178
 203:modules/algorithm/kalman_filter.c ****     memset(kf->Pminus_data, 0, sizeof_float * xhatSize * xhatSize);
 527              		.loc 1 203 57 is_stmt 0 view .LVU179
 528 0190 B8F80070 		ldrh	r7, [r8]
 529 0194 05FB07F7 		mul	r7, r5, r7
 203:modules/algorithm/kalman_filter.c ****     memset(kf->Pminus_data, 0, sizeof_float * xhatSize * xhatSize);
 530              		.loc 1 203 68 view .LVU180
 531 0198 05FB07F7 		mul	r7, r5, r7
 203:modules/algorithm/kalman_filter.c ****     memset(kf->Pminus_data, 0, sizeof_float * xhatSize * xhatSize);
 532              		.loc 1 203 32 view .LVU181
 533 019c 3846     		mov	r0, r7
 534 019e FFF7FEFF 		bl	malloc
 535              	.LVL46:
 203:modules/algorithm/kalman_filter.c ****     memset(kf->Pminus_data, 0, sizeof_float * xhatSize * xhatSize);
 536              		.loc 1 203 21 discriminator 1 view .LVU182
 537 01a2 C4F8FC00 		str	r0, [r4, #252]
 204:modules/algorithm/kalman_filter.c ****     Matrix_Init(&kf->Pminus, kf->xhatSize, kf->xhatSize, (float *)kf->Pminus_data);
 538              		.loc 1 204 5 is_stmt 1 view .LVU183
 539 01a6 3A46     		mov	r2, r7
 540 01a8 0021     		movs	r1, #0
 541 01aa FFF7FEFF 		bl	memset
 542              	.LVL47:
 205:modules/algorithm/kalman_filter.c **** 
 543              		.loc 1 205 5 view .LVU184
 205:modules/algorithm/kalman_filter.c **** 
 544              		.loc 1 205 32 is_stmt 0 view .LVU185
 545 01ae 217B     		ldrb	r1, [r4, #12]	@ zero_extendqisi2
 205:modules/algorithm/kalman_filter.c **** 
 546              		.loc 1 205 5 view .LVU186
 547 01b0 D4F8FC30 		ldr	r3, [r4, #252]
 548 01b4 0A46     		mov	r2, r1
 549 01b6 04F15800 		add	r0, r4, #88
 550 01ba FFF7FEFF 		bl	arm_mat_init_f32
 551              	.LVL48:
 208:modules/algorithm/kalman_filter.c ****     kf->FT_data = (float *)user_malloc(sizeof_float * xhatSize * xhatSize);
 552              		.loc 1 208 5 is_stmt 1 view .LVU187
 208:modules/algorithm/kalman_filter.c ****     kf->FT_data = (float *)user_malloc(sizeof_float * xhatSize * xhatSize);
 553              		.loc 1 208 52 is_stmt 0 view .LVU188
 554 01be B8F80070 		ldrh	r7, [r8]
 555 01c2 05FB07F7 		mul	r7, r5, r7
 208:modules/algorithm/kalman_filter.c ****     kf->FT_data = (float *)user_malloc(sizeof_float * xhatSize * xhatSize);
 556              		.loc 1 208 63 view .LVU189
 557 01c6 05FB07F7 		mul	r7, r5, r7
 208:modules/algorithm/kalman_filter.c ****     kf->FT_data = (float *)user_malloc(sizeof_float * xhatSize * xhatSize);
 558              		.loc 1 208 27 view .LVU190
 559 01ca 3846     		mov	r0, r7
 560 01cc FFF7FEFF 		bl	malloc
 561              	.LVL49:
ARM GAS  C:\Users\Administrator\AppData\Local\Temp\ccsFX16C.s 			page 21


 562 01d0 8246     		mov	r10, r0
 208:modules/algorithm/kalman_filter.c ****     kf->FT_data = (float *)user_malloc(sizeof_float * xhatSize * xhatSize);
 563              		.loc 1 208 16 discriminator 1 view .LVU191
 564 01d2 C4F80001 		str	r0, [r4, #256]
 209:modules/algorithm/kalman_filter.c ****     memset(kf->F_data, 0, sizeof_float * xhatSize * xhatSize);
 565              		.loc 1 209 5 is_stmt 1 view .LVU192
 209:modules/algorithm/kalman_filter.c ****     memset(kf->F_data, 0, sizeof_float * xhatSize * xhatSize);
 566              		.loc 1 209 28 is_stmt 0 view .LVU193
 567 01d6 3846     		mov	r0, r7
 568 01d8 FFF7FEFF 		bl	malloc
 569              	.LVL50:
 209:modules/algorithm/kalman_filter.c ****     memset(kf->F_data, 0, sizeof_float * xhatSize * xhatSize);
 570              		.loc 1 209 17 discriminator 1 view .LVU194
 571 01dc C4F80401 		str	r0, [r4, #260]
 210:modules/algorithm/kalman_filter.c ****     memset(kf->FT_data, 0, sizeof_float * xhatSize * xhatSize);
 572              		.loc 1 210 5 is_stmt 1 view .LVU195
 573 01e0 3A46     		mov	r2, r7
 574 01e2 0021     		movs	r1, #0
 575 01e4 5046     		mov	r0, r10
 576 01e6 FFF7FEFF 		bl	memset
 577              	.LVL51:
 211:modules/algorithm/kalman_filter.c ****     Matrix_Init(&kf->F, kf->xhatSize, kf->xhatSize, (float *)kf->F_data);
 578              		.loc 1 211 5 view .LVU196
 211:modules/algorithm/kalman_filter.c ****     Matrix_Init(&kf->F, kf->xhatSize, kf->xhatSize, (float *)kf->F_data);
 579              		.loc 1 211 41 is_stmt 0 view .LVU197
 580 01ea B8F80020 		ldrh	r2, [r8]
 581 01ee 05FB02F2 		mul	r2, r5, r2
 211:modules/algorithm/kalman_filter.c ****     Matrix_Init(&kf->F, kf->xhatSize, kf->xhatSize, (float *)kf->F_data);
 582              		.loc 1 211 5 view .LVU198
 583 01f2 05FB02F2 		mul	r2, r5, r2
 584 01f6 0021     		movs	r1, #0
 585 01f8 D4F80401 		ldr	r0, [r4, #260]
 586 01fc FFF7FEFF 		bl	memset
 587              	.LVL52:
 212:modules/algorithm/kalman_filter.c ****     Matrix_Init(&kf->FT, kf->xhatSize, kf->xhatSize, (float *)kf->FT_data);
 588              		.loc 1 212 5 is_stmt 1 view .LVU199
 212:modules/algorithm/kalman_filter.c ****     Matrix_Init(&kf->FT, kf->xhatSize, kf->xhatSize, (float *)kf->FT_data);
 589              		.loc 1 212 27 is_stmt 0 view .LVU200
 590 0200 217B     		ldrb	r1, [r4, #12]	@ zero_extendqisi2
 212:modules/algorithm/kalman_filter.c ****     Matrix_Init(&kf->FT, kf->xhatSize, kf->xhatSize, (float *)kf->FT_data);
 591              		.loc 1 212 5 view .LVU201
 592 0202 D4F80031 		ldr	r3, [r4, #256]
 593 0206 0A46     		mov	r2, r1
 594 0208 04F16000 		add	r0, r4, #96
 595 020c FFF7FEFF 		bl	arm_mat_init_f32
 596              	.LVL53:
 213:modules/algorithm/kalman_filter.c **** 
 597              		.loc 1 213 5 is_stmt 1 view .LVU202
 213:modules/algorithm/kalman_filter.c **** 
 598              		.loc 1 213 28 is_stmt 0 view .LVU203
 599 0210 217B     		ldrb	r1, [r4, #12]	@ zero_extendqisi2
 213:modules/algorithm/kalman_filter.c **** 
 600              		.loc 1 213 5 view .LVU204
 601 0212 D4F80431 		ldr	r3, [r4, #260]
 602 0216 0A46     		mov	r2, r1
 603 0218 04F16800 		add	r0, r4, #104
 604 021c FFF7FEFF 		bl	arm_mat_init_f32
ARM GAS  C:\Users\Administrator\AppData\Local\Temp\ccsFX16C.s 			page 22


 605              	.LVL54:
 215:modules/algorithm/kalman_filter.c ****     {
 606              		.loc 1 215 5 is_stmt 1 view .LVU205
 215:modules/algorithm/kalman_filter.c ****     {
 607              		.loc 1 215 8 is_stmt 0 view .LVU206
 608 0220 B9F1000F 		cmp	r9, #0
 609 0224 40F0E880 		bne	.L16
 610              	.LVL55:
 611              	.L13:
 224:modules/algorithm/kalman_filter.c ****     kf->HT_data = (float *)user_malloc(sizeof_float * xhatSize * zSize);
 612              		.loc 1 224 5 is_stmt 1 view .LVU207
 224:modules/algorithm/kalman_filter.c ****     kf->HT_data = (float *)user_malloc(sizeof_float * xhatSize * zSize);
 613              		.loc 1 224 52 is_stmt 0 view .LVU208
 614 0228 674F     		ldr	r7, .L17+4
 615 022a B7F800A0 		ldrh	r10, [r7]
 616 022e 0AFB06F9 		mul	r9, r10, r6
 224:modules/algorithm/kalman_filter.c ****     kf->HT_data = (float *)user_malloc(sizeof_float * xhatSize * zSize);
 617              		.loc 1 224 60 view .LVU209
 618 0232 09FB05F9 		mul	r9, r9, r5
 224:modules/algorithm/kalman_filter.c ****     kf->HT_data = (float *)user_malloc(sizeof_float * xhatSize * zSize);
 619              		.loc 1 224 27 view .LVU210
 620 0236 4846     		mov	r0, r9
 621 0238 FFF7FEFF 		bl	malloc
 622              	.LVL56:
 623 023c 8046     		mov	r8, r0
 224:modules/algorithm/kalman_filter.c ****     kf->HT_data = (float *)user_malloc(sizeof_float * xhatSize * zSize);
 624              		.loc 1 224 16 discriminator 1 view .LVU211
 625 023e C4F80C01 		str	r0, [r4, #268]
 225:modules/algorithm/kalman_filter.c ****     memset(kf->H_data, 0, sizeof_float * zSize * xhatSize);
 626              		.loc 1 225 5 is_stmt 1 view .LVU212
 225:modules/algorithm/kalman_filter.c ****     memset(kf->H_data, 0, sizeof_float * zSize * xhatSize);
 627              		.loc 1 225 53 is_stmt 0 view .LVU213
 628 0242 0AFB05F0 		mul	r0, r10, r5
 225:modules/algorithm/kalman_filter.c ****     memset(kf->H_data, 0, sizeof_float * zSize * xhatSize);
 629              		.loc 1 225 28 view .LVU214
 630 0246 06FB00F0 		mul	r0, r6, r0
 631 024a FFF7FEFF 		bl	malloc
 632              	.LVL57:
 225:modules/algorithm/kalman_filter.c ****     memset(kf->H_data, 0, sizeof_float * zSize * xhatSize);
 633              		.loc 1 225 17 discriminator 1 view .LVU215
 634 024e C4F81001 		str	r0, [r4, #272]
 226:modules/algorithm/kalman_filter.c ****     memset(kf->HT_data, 0, sizeof_float * xhatSize * zSize);
 635              		.loc 1 226 5 is_stmt 1 view .LVU216
 636 0252 4A46     		mov	r2, r9
 637 0254 0021     		movs	r1, #0
 638 0256 4046     		mov	r0, r8
 639 0258 FFF7FEFF 		bl	memset
 640              	.LVL58:
 227:modules/algorithm/kalman_filter.c ****     Matrix_Init(&kf->H, kf->zSize, kf->xhatSize, (float *)kf->H_data);
 641              		.loc 1 227 5 view .LVU217
 227:modules/algorithm/kalman_filter.c ****     Matrix_Init(&kf->H, kf->zSize, kf->xhatSize, (float *)kf->H_data);
 642              		.loc 1 227 41 is_stmt 0 view .LVU218
 643 025c 3A88     		ldrh	r2, [r7]
 644 025e 05FB02F2 		mul	r2, r5, r2
 227:modules/algorithm/kalman_filter.c ****     Matrix_Init(&kf->H, kf->zSize, kf->xhatSize, (float *)kf->H_data);
 645              		.loc 1 227 5 view .LVU219
 646 0262 06FB02F2 		mul	r2, r6, r2
ARM GAS  C:\Users\Administrator\AppData\Local\Temp\ccsFX16C.s 			page 23


 647 0266 0021     		movs	r1, #0
 648 0268 D4F81001 		ldr	r0, [r4, #272]
 649 026c FFF7FEFF 		bl	memset
 650              	.LVL59:
 228:modules/algorithm/kalman_filter.c ****     Matrix_Init(&kf->HT, kf->xhatSize, kf->zSize, (float *)kf->HT_data);
 651              		.loc 1 228 5 is_stmt 1 view .LVU220
 652 0270 D4F80C31 		ldr	r3, [r4, #268]
 653 0274 227B     		ldrb	r2, [r4, #12]	@ zero_extendqisi2
 654 0276 A17B     		ldrb	r1, [r4, #14]	@ zero_extendqisi2
 655 0278 04F17800 		add	r0, r4, #120
 656 027c FFF7FEFF 		bl	arm_mat_init_f32
 657              	.LVL60:
 229:modules/algorithm/kalman_filter.c **** 
 658              		.loc 1 229 5 view .LVU221
 659 0280 D4F81031 		ldr	r3, [r4, #272]
 660 0284 A27B     		ldrb	r2, [r4, #14]	@ zero_extendqisi2
 661 0286 217B     		ldrb	r1, [r4, #12]	@ zero_extendqisi2
 662 0288 04F18000 		add	r0, r4, #128
 663 028c FFF7FEFF 		bl	arm_mat_init_f32
 664              	.LVL61:
 232:modules/algorithm/kalman_filter.c ****     memset(kf->Q_data, 0, sizeof_float * xhatSize * xhatSize);
 665              		.loc 1 232 5 view .LVU222
 232:modules/algorithm/kalman_filter.c ****     memset(kf->Q_data, 0, sizeof_float * xhatSize * xhatSize);
 666              		.loc 1 232 52 is_stmt 0 view .LVU223
 667 0290 B7F80080 		ldrh	r8, [r7]
 668 0294 05FB08F8 		mul	r8, r5, r8
 232:modules/algorithm/kalman_filter.c ****     memset(kf->Q_data, 0, sizeof_float * xhatSize * xhatSize);
 669              		.loc 1 232 63 view .LVU224
 670 0298 08FB05F8 		mul	r8, r8, r5
 232:modules/algorithm/kalman_filter.c ****     memset(kf->Q_data, 0, sizeof_float * xhatSize * xhatSize);
 671              		.loc 1 232 27 view .LVU225
 672 029c 4046     		mov	r0, r8
 673 029e FFF7FEFF 		bl	malloc
 674              	.LVL62:
 232:modules/algorithm/kalman_filter.c ****     memset(kf->Q_data, 0, sizeof_float * xhatSize * xhatSize);
 675              		.loc 1 232 16 discriminator 1 view .LVU226
 676 02a2 C4F81401 		str	r0, [r4, #276]
 233:modules/algorithm/kalman_filter.c ****     Matrix_Init(&kf->Q, kf->xhatSize, kf->xhatSize, (float *)kf->Q_data);
 677              		.loc 1 233 5 is_stmt 1 view .LVU227
 678 02a6 4246     		mov	r2, r8
 679 02a8 0021     		movs	r1, #0
 680 02aa FFF7FEFF 		bl	memset
 681              	.LVL63:
 234:modules/algorithm/kalman_filter.c **** 
 682              		.loc 1 234 5 view .LVU228
 234:modules/algorithm/kalman_filter.c **** 
 683              		.loc 1 234 27 is_stmt 0 view .LVU229
 684 02ae 217B     		ldrb	r1, [r4, #12]	@ zero_extendqisi2
 234:modules/algorithm/kalman_filter.c **** 
 685              		.loc 1 234 5 view .LVU230
 686 02b0 D4F81431 		ldr	r3, [r4, #276]
 687 02b4 0A46     		mov	r2, r1
 688 02b6 04F18800 		add	r0, r4, #136
 689 02ba FFF7FEFF 		bl	arm_mat_init_f32
 690              	.LVL64:
 237:modules/algorithm/kalman_filter.c ****     memset(kf->R_data, 0, sizeof_float * zSize * zSize);
 691              		.loc 1 237 5 is_stmt 1 view .LVU231
ARM GAS  C:\Users\Administrator\AppData\Local\Temp\ccsFX16C.s 			page 24


 237:modules/algorithm/kalman_filter.c ****     memset(kf->R_data, 0, sizeof_float * zSize * zSize);
 692              		.loc 1 237 52 is_stmt 0 view .LVU232
 693 02be B7F80080 		ldrh	r8, [r7]
 694 02c2 06FB08F8 		mul	r8, r6, r8
 237:modules/algorithm/kalman_filter.c ****     memset(kf->R_data, 0, sizeof_float * zSize * zSize);
 695              		.loc 1 237 60 view .LVU233
 696 02c6 08FB06F8 		mul	r8, r8, r6
 237:modules/algorithm/kalman_filter.c ****     memset(kf->R_data, 0, sizeof_float * zSize * zSize);
 697              		.loc 1 237 27 view .LVU234
 698 02ca 4046     		mov	r0, r8
 699 02cc FFF7FEFF 		bl	malloc
 700              	.LVL65:
 237:modules/algorithm/kalman_filter.c ****     memset(kf->R_data, 0, sizeof_float * zSize * zSize);
 701              		.loc 1 237 16 discriminator 1 view .LVU235
 702 02d0 C4F81801 		str	r0, [r4, #280]
 238:modules/algorithm/kalman_filter.c ****     Matrix_Init(&kf->R, kf->zSize, kf->zSize, (float *)kf->R_data);
 703              		.loc 1 238 5 is_stmt 1 view .LVU236
 704 02d4 4246     		mov	r2, r8
 705 02d6 0021     		movs	r1, #0
 706 02d8 FFF7FEFF 		bl	memset
 707              	.LVL66:
 239:modules/algorithm/kalman_filter.c **** 
 708              		.loc 1 239 5 view .LVU237
 239:modules/algorithm/kalman_filter.c **** 
 709              		.loc 1 239 27 is_stmt 0 view .LVU238
 710 02dc A17B     		ldrb	r1, [r4, #14]	@ zero_extendqisi2
 239:modules/algorithm/kalman_filter.c **** 
 711              		.loc 1 239 5 view .LVU239
 712 02de D4F81831 		ldr	r3, [r4, #280]
 713 02e2 0A46     		mov	r2, r1
 714 02e4 04F19000 		add	r0, r4, #144
 715 02e8 FFF7FEFF 		bl	arm_mat_init_f32
 716              	.LVL67:
 242:modules/algorithm/kalman_filter.c ****     memset(kf->K_data, 0, sizeof_float * xhatSize * zSize);
 717              		.loc 1 242 5 is_stmt 1 view .LVU240
 242:modules/algorithm/kalman_filter.c ****     memset(kf->K_data, 0, sizeof_float * xhatSize * zSize);
 718              		.loc 1 242 52 is_stmt 0 view .LVU241
 719 02ec 3B88     		ldrh	r3, [r7]
 720 02ee 05FB03F3 		mul	r3, r5, r3
 242:modules/algorithm/kalman_filter.c ****     memset(kf->K_data, 0, sizeof_float * xhatSize * zSize);
 721              		.loc 1 242 63 view .LVU242
 722 02f2 03FB06F6 		mul	r6, r3, r6
 723              	.LVL68:
 242:modules/algorithm/kalman_filter.c ****     memset(kf->K_data, 0, sizeof_float * xhatSize * zSize);
 724              		.loc 1 242 27 view .LVU243
 725 02f6 3046     		mov	r0, r6
 726 02f8 FFF7FEFF 		bl	malloc
 727              	.LVL69:
 242:modules/algorithm/kalman_filter.c ****     memset(kf->K_data, 0, sizeof_float * xhatSize * zSize);
 728              		.loc 1 242 16 discriminator 1 view .LVU244
 729 02fc C4F81C01 		str	r0, [r4, #284]
 243:modules/algorithm/kalman_filter.c ****     Matrix_Init(&kf->K, kf->xhatSize, kf->zSize, (float *)kf->K_data);
 730              		.loc 1 243 5 is_stmt 1 view .LVU245
 731 0300 3246     		mov	r2, r6
 732 0302 0021     		movs	r1, #0
 733 0304 FFF7FEFF 		bl	memset
 734              	.LVL70:
ARM GAS  C:\Users\Administrator\AppData\Local\Temp\ccsFX16C.s 			page 25


 244:modules/algorithm/kalman_filter.c **** 
 735              		.loc 1 244 5 view .LVU246
 736 0308 D4F81C31 		ldr	r3, [r4, #284]
 737 030c A27B     		ldrb	r2, [r4, #14]	@ zero_extendqisi2
 738 030e 217B     		ldrb	r1, [r4, #12]	@ zero_extendqisi2
 739 0310 04F19800 		add	r0, r4, #152
 740 0314 FFF7FEFF 		bl	arm_mat_init_f32
 741              	.LVL71:
 246:modules/algorithm/kalman_filter.c ****     kf->temp_matrix_data = (float *)user_malloc(sizeof_float * kf->xhatSize * kf->xhatSize);
 742              		.loc 1 246 5 view .LVU247
 246:modules/algorithm/kalman_filter.c ****     kf->temp_matrix_data = (float *)user_malloc(sizeof_float * kf->xhatSize * kf->xhatSize);
 743              		.loc 1 246 56 is_stmt 0 view .LVU248
 744 0318 94F80C80 		ldrb	r8, [r4, #12]	@ zero_extendqisi2
 246:modules/algorithm/kalman_filter.c ****     kf->temp_matrix_data = (float *)user_malloc(sizeof_float * kf->xhatSize * kf->xhatSize);
 745              		.loc 1 246 52 view .LVU249
 746 031c 3E88     		ldrh	r6, [r7]
 747 031e 08FB06F6 		mul	r6, r8, r6
 246:modules/algorithm/kalman_filter.c ****     kf->temp_matrix_data = (float *)user_malloc(sizeof_float * kf->xhatSize * kf->xhatSize);
 748              		.loc 1 246 67 view .LVU250
 749 0322 06FB08F5 		mul	r5, r6, r8
 750              	.LVL72:
 246:modules/algorithm/kalman_filter.c ****     kf->temp_matrix_data = (float *)user_malloc(sizeof_float * kf->xhatSize * kf->xhatSize);
 751              		.loc 1 246 27 view .LVU251
 752 0326 2846     		mov	r0, r5
 753 0328 FFF7FEFF 		bl	malloc
 754              	.LVL73:
 755 032c 0746     		mov	r7, r0
 246:modules/algorithm/kalman_filter.c ****     kf->temp_matrix_data = (float *)user_malloc(sizeof_float * kf->xhatSize * kf->xhatSize);
 756              		.loc 1 246 16 discriminator 1 view .LVU252
 757 032e C4F82001 		str	r0, [r4, #288]
 247:modules/algorithm/kalman_filter.c ****     kf->temp_matrix_data1 = (float *)user_malloc(sizeof_float * kf->xhatSize * kf->xhatSize);
 758              		.loc 1 247 5 is_stmt 1 view .LVU253
 247:modules/algorithm/kalman_filter.c ****     kf->temp_matrix_data1 = (float *)user_malloc(sizeof_float * kf->xhatSize * kf->xhatSize);
 759              		.loc 1 247 37 is_stmt 0 view .LVU254
 760 0332 2846     		mov	r0, r5
 761 0334 FFF7FEFF 		bl	malloc
 762              	.LVL74:
 247:modules/algorithm/kalman_filter.c ****     kf->temp_matrix_data1 = (float *)user_malloc(sizeof_float * kf->xhatSize * kf->xhatSize);
 763              		.loc 1 247 26 discriminator 1 view .LVU255
 764 0338 C4F82401 		str	r0, [r4, #292]
 248:modules/algorithm/kalman_filter.c ****     kf->temp_vector_data = (float *)user_malloc(sizeof_float * kf->xhatSize);
 765              		.loc 1 248 5 is_stmt 1 view .LVU256
 248:modules/algorithm/kalman_filter.c ****     kf->temp_vector_data = (float *)user_malloc(sizeof_float * kf->xhatSize);
 766              		.loc 1 248 38 is_stmt 0 view .LVU257
 767 033c 2846     		mov	r0, r5
 768 033e FFF7FEFF 		bl	malloc
 769              	.LVL75:
 248:modules/algorithm/kalman_filter.c ****     kf->temp_vector_data = (float *)user_malloc(sizeof_float * kf->xhatSize);
 770              		.loc 1 248 27 discriminator 1 view .LVU258
 771 0342 C4F82801 		str	r0, [r4, #296]
 249:modules/algorithm/kalman_filter.c ****     kf->temp_vector_data1 = (float *)user_malloc(sizeof_float * kf->xhatSize);
 772              		.loc 1 249 5 is_stmt 1 view .LVU259
 249:modules/algorithm/kalman_filter.c ****     kf->temp_vector_data1 = (float *)user_malloc(sizeof_float * kf->xhatSize);
 773              		.loc 1 249 37 is_stmt 0 view .LVU260
 774 0346 3046     		mov	r0, r6
 775 0348 FFF7FEFF 		bl	malloc
 776              	.LVL76:
ARM GAS  C:\Users\Administrator\AppData\Local\Temp\ccsFX16C.s 			page 26


 249:modules/algorithm/kalman_filter.c ****     kf->temp_vector_data1 = (float *)user_malloc(sizeof_float * kf->xhatSize);
 777              		.loc 1 249 26 discriminator 1 view .LVU261
 778 034c C4F82C01 		str	r0, [r4, #300]
 250:modules/algorithm/kalman_filter.c ****     Matrix_Init(&kf->S, kf->xhatSize, kf->xhatSize, (float *)kf->S_data);
 779              		.loc 1 250 5 is_stmt 1 view .LVU262
 250:modules/algorithm/kalman_filter.c ****     Matrix_Init(&kf->S, kf->xhatSize, kf->xhatSize, (float *)kf->S_data);
 780              		.loc 1 250 38 is_stmt 0 view .LVU263
 781 0350 3046     		mov	r0, r6
 782 0352 FFF7FEFF 		bl	malloc
 783              	.LVL77:
 250:modules/algorithm/kalman_filter.c ****     Matrix_Init(&kf->S, kf->xhatSize, kf->xhatSize, (float *)kf->S_data);
 784              		.loc 1 250 27 discriminator 1 view .LVU264
 785 0356 C4F83001 		str	r0, [r4, #304]
 251:modules/algorithm/kalman_filter.c ****     Matrix_Init(&kf->temp_matrix, kf->xhatSize, kf->xhatSize, (float *)kf->temp_matrix_data);
 786              		.loc 1 251 5 is_stmt 1 view .LVU265
 787 035a 3B46     		mov	r3, r7
 788 035c 4246     		mov	r2, r8
 789 035e 4146     		mov	r1, r8
 790 0360 04F1A000 		add	r0, r4, #160
 791 0364 FFF7FEFF 		bl	arm_mat_init_f32
 792              	.LVL78:
 252:modules/algorithm/kalman_filter.c ****     Matrix_Init(&kf->temp_matrix1, kf->xhatSize, kf->xhatSize, (float *)kf->temp_matrix_data1);
 793              		.loc 1 252 5 view .LVU266
 252:modules/algorithm/kalman_filter.c ****     Matrix_Init(&kf->temp_matrix1, kf->xhatSize, kf->xhatSize, (float *)kf->temp_matrix_data1);
 794              		.loc 1 252 37 is_stmt 0 view .LVU267
 795 0368 217B     		ldrb	r1, [r4, #12]	@ zero_extendqisi2
 252:modules/algorithm/kalman_filter.c ****     Matrix_Init(&kf->temp_matrix1, kf->xhatSize, kf->xhatSize, (float *)kf->temp_matrix_data1);
 796              		.loc 1 252 5 view .LVU268
 797 036a D4F82431 		ldr	r3, [r4, #292]
 798 036e 0A46     		mov	r2, r1
 799 0370 04F1A800 		add	r0, r4, #168
 800 0374 FFF7FEFF 		bl	arm_mat_init_f32
 801              	.LVL79:
 253:modules/algorithm/kalman_filter.c ****     Matrix_Init(&kf->temp_vector, kf->xhatSize, 1, (float *)kf->temp_vector_data);
 802              		.loc 1 253 5 is_stmt 1 view .LVU269
 253:modules/algorithm/kalman_filter.c ****     Matrix_Init(&kf->temp_vector, kf->xhatSize, 1, (float *)kf->temp_vector_data);
 803              		.loc 1 253 38 is_stmt 0 view .LVU270
 804 0378 217B     		ldrb	r1, [r4, #12]	@ zero_extendqisi2
 253:modules/algorithm/kalman_filter.c ****     Matrix_Init(&kf->temp_vector, kf->xhatSize, 1, (float *)kf->temp_vector_data);
 805              		.loc 1 253 5 view .LVU271
 806 037a D4F82831 		ldr	r3, [r4, #296]
 807 037e 0A46     		mov	r2, r1
 808 0380 04F1B000 		add	r0, r4, #176
 809 0384 FFF7FEFF 		bl	arm_mat_init_f32
 810              	.LVL80:
 254:modules/algorithm/kalman_filter.c ****     Matrix_Init(&kf->temp_vector1, kf->xhatSize, 1, (float *)kf->temp_vector_data1);
 811              		.loc 1 254 5 is_stmt 1 view .LVU272
 812 0388 D4F82C31 		ldr	r3, [r4, #300]
 813 038c 0122     		movs	r2, #1
 814 038e 217B     		ldrb	r1, [r4, #12]	@ zero_extendqisi2
 815 0390 04F1B800 		add	r0, r4, #184
 816 0394 FFF7FEFF 		bl	arm_mat_init_f32
 817              	.LVL81:
 255:modules/algorithm/kalman_filter.c **** 
 818              		.loc 1 255 5 view .LVU273
 819 0398 D4F83031 		ldr	r3, [r4, #304]
 820 039c 0122     		movs	r2, #1
ARM GAS  C:\Users\Administrator\AppData\Local\Temp\ccsFX16C.s 			page 27


 821 039e 217B     		ldrb	r1, [r4, #12]	@ zero_extendqisi2
 822 03a0 04F1C000 		add	r0, r4, #192
 823 03a4 FFF7FEFF 		bl	arm_mat_init_f32
 824              	.LVL82:
 257:modules/algorithm/kalman_filter.c ****     kf->SkipEq2 = 0;
 825              		.loc 1 257 5 view .LVU274
 257:modules/algorithm/kalman_filter.c ****     kf->SkipEq2 = 0;
 826              		.loc 1 257 17 is_stmt 0 view .LVU275
 827 03a8 0023     		movs	r3, #0
 828 03aa 84F82830 		strb	r3, [r4, #40]
 258:modules/algorithm/kalman_filter.c ****     kf->SkipEq3 = 0;
 829              		.loc 1 258 5 is_stmt 1 view .LVU276
 258:modules/algorithm/kalman_filter.c ****     kf->SkipEq3 = 0;
 830              		.loc 1 258 17 is_stmt 0 view .LVU277
 831 03ae 84F82930 		strb	r3, [r4, #41]
 259:modules/algorithm/kalman_filter.c ****     kf->SkipEq4 = 0;
 832              		.loc 1 259 5 is_stmt 1 view .LVU278
 259:modules/algorithm/kalman_filter.c ****     kf->SkipEq4 = 0;
 833              		.loc 1 259 17 is_stmt 0 view .LVU279
 834 03b2 84F82A30 		strb	r3, [r4, #42]
 260:modules/algorithm/kalman_filter.c ****     kf->SkipEq5 = 0;
 835              		.loc 1 260 5 is_stmt 1 view .LVU280
 260:modules/algorithm/kalman_filter.c ****     kf->SkipEq5 = 0;
 836              		.loc 1 260 17 is_stmt 0 view .LVU281
 837 03b6 84F82B30 		strb	r3, [r4, #43]
 261:modules/algorithm/kalman_filter.c **** }
 838              		.loc 1 261 5 is_stmt 1 view .LVU282
 261:modules/algorithm/kalman_filter.c **** }
 839              		.loc 1 261 17 is_stmt 0 view .LVU283
 840 03ba 84F82C30 		strb	r3, [r4, #44]
 262:modules/algorithm/kalman_filter.c **** 
 841              		.loc 1 262 1 view .LVU284
 842 03be BDE8F087 		pop	{r4, r5, r6, r7, r8, r9, r10, pc}
 843              	.LVL83:
 844              	.L18:
 262:modules/algorithm/kalman_filter.c **** 
 845              		.loc 1 262 1 view .LVU285
 846 03c2 00BF     		.align	2
 847              	.L17:
 848 03c4 00000000 		.word	sizeof_double
 849 03c8 00000000 		.word	sizeof_float
 850              	.LVL84:
 851              	.L15:
 187:modules/algorithm/kalman_filter.c ****         memset(kf->u_data, 0, sizeof_float * uSize);
 852              		.loc 1 187 9 is_stmt 1 view .LVU286
 187:modules/algorithm/kalman_filter.c ****         memset(kf->u_data, 0, sizeof_float * uSize);
 853              		.loc 1 187 56 is_stmt 0 view .LVU287
 854 03cc 164B     		ldr	r3, .L19
 855 03ce 1F88     		ldrh	r7, [r3]
 856 03d0 09FB07F7 		mul	r7, r9, r7
 187:modules/algorithm/kalman_filter.c ****         memset(kf->u_data, 0, sizeof_float * uSize);
 857              		.loc 1 187 31 view .LVU288
 858 03d4 3846     		mov	r0, r7
 859 03d6 FFF7FEFF 		bl	malloc
 860              	.LVL85:
 187:modules/algorithm/kalman_filter.c ****         memset(kf->u_data, 0, sizeof_float * uSize);
 861              		.loc 1 187 20 discriminator 1 view .LVU289
ARM GAS  C:\Users\Administrator\AppData\Local\Temp\ccsFX16C.s 			page 28


 862 03da C4F8F000 		str	r0, [r4, #240]
 188:modules/algorithm/kalman_filter.c ****         Matrix_Init(&kf->u, kf->uSize, 1, (float *)kf->u_data);
 863              		.loc 1 188 9 is_stmt 1 view .LVU290
 864 03de 3A46     		mov	r2, r7
 865 03e0 0021     		movs	r1, #0
 866 03e2 FFF7FEFF 		bl	memset
 867              	.LVL86:
 189:modules/algorithm/kalman_filter.c ****     }
 868              		.loc 1 189 9 view .LVU291
 869 03e6 D4F8F030 		ldr	r3, [r4, #240]
 870 03ea 0122     		movs	r2, #1
 871 03ec 617B     		ldrb	r1, [r4, #13]	@ zero_extendqisi2
 872 03ee 04F14000 		add	r0, r4, #64
 873 03f2 FFF7FEFF 		bl	arm_mat_init_f32
 874              	.LVL87:
 875 03f6 9DE6     		b	.L12
 876              	.L16:
 218:modules/algorithm/kalman_filter.c ****         memset(kf->B_data, 0, sizeof_float * xhatSize * uSize);
 877              		.loc 1 218 9 view .LVU292
 218:modules/algorithm/kalman_filter.c ****         memset(kf->B_data, 0, sizeof_float * xhatSize * uSize);
 878              		.loc 1 218 56 is_stmt 0 view .LVU293
 879 03f8 B8F80030 		ldrh	r3, [r8]
 880 03fc 05FB03F3 		mul	r3, r5, r3
 218:modules/algorithm/kalman_filter.c ****         memset(kf->B_data, 0, sizeof_float * xhatSize * uSize);
 881              		.loc 1 218 67 view .LVU294
 882 0400 03FB09F9 		mul	r9, r3, r9
 218:modules/algorithm/kalman_filter.c ****         memset(kf->B_data, 0, sizeof_float * xhatSize * uSize);
 883              		.loc 1 218 31 view .LVU295
 884 0404 4846     		mov	r0, r9
 885 0406 FFF7FEFF 		bl	malloc
 886              	.LVL88:
 218:modules/algorithm/kalman_filter.c ****         memset(kf->B_data, 0, sizeof_float * xhatSize * uSize);
 887              		.loc 1 218 20 discriminator 1 view .LVU296
 888 040a C4F80801 		str	r0, [r4, #264]
 219:modules/algorithm/kalman_filter.c ****         Matrix_Init(&kf->B, kf->xhatSize, kf->uSize, (float *)kf->B_data);
 889              		.loc 1 219 9 is_stmt 1 view .LVU297
 890 040e 4A46     		mov	r2, r9
 891 0410 0021     		movs	r1, #0
 892 0412 FFF7FEFF 		bl	memset
 893              	.LVL89:
 220:modules/algorithm/kalman_filter.c ****     }
 894              		.loc 1 220 9 view .LVU298
 895 0416 D4F80831 		ldr	r3, [r4, #264]
 896 041a 627B     		ldrb	r2, [r4, #13]	@ zero_extendqisi2
 897 041c 217B     		ldrb	r1, [r4, #12]	@ zero_extendqisi2
 898 041e 04F17000 		add	r0, r4, #112
 899 0422 FFF7FEFF 		bl	arm_mat_init_f32
 900              	.LVL90:
 901 0426 FFE6     		b	.L13
 902              	.L20:
 903              		.align	2
 904              	.L19:
 905 0428 00000000 		.word	sizeof_float
 906              		.cfi_endproc
 907              	.LFE163:
 909              		.section	.text.Kalman_Filter_Measure,"ax",%progbits
 910              		.align	1
ARM GAS  C:\Users\Administrator\AppData\Local\Temp\ccsFX16C.s 			page 29


 911              		.global	Kalman_Filter_Measure
 912              		.syntax unified
 913              		.thumb
 914              		.thumb_func
 916              	Kalman_Filter_Measure:
 917              	.LVL91:
 918              	.LFB164:
 265:modules/algorithm/kalman_filter.c ****     // çں©éکµH K Rو ¹وچ®é‡ڈوµ‹وƒ…ه†µè‡ھهٹ¨è°ƒو•´
 919              		.loc 1 265 1 view -0
 920              		.cfi_startproc
 921              		@ args = 0, pretend = 0, frame = 0
 922              		@ frame_needed = 0, uses_anonymous_args = 0
 265:modules/algorithm/kalman_filter.c ****     // çں©éکµH K Rو ¹وچ®é‡ڈوµ‹وƒ…ه†µè‡ھهٹ¨è°ƒو•´
 923              		.loc 1 265 1 is_stmt 0 view .LVU300
 924 0000 38B5     		push	{r3, r4, r5, lr}
 925              		.cfi_def_cfa_offset 16
 926              		.cfi_offset 3, -16
 927              		.cfi_offset 4, -12
 928              		.cfi_offset 5, -8
 929              		.cfi_offset 14, -4
 930 0002 0446     		mov	r4, r0
 268:modules/algorithm/kalman_filter.c ****         H_K_R_Adjustment(kf);
 931              		.loc 1 268 5 is_stmt 1 view .LVU301
 268:modules/algorithm/kalman_filter.c ****         H_K_R_Adjustment(kf);
 932              		.loc 1 268 11 is_stmt 0 view .LVU302
 933 0004 C37B     		ldrb	r3, [r0, #15]	@ zero_extendqisi2
 268:modules/algorithm/kalman_filter.c ****         H_K_R_Adjustment(kf);
 934              		.loc 1 268 8 view .LVU303
 935 0006 63B1     		cbz	r3, .L22
 269:modules/algorithm/kalman_filter.c ****     else
 936              		.loc 1 269 9 is_stmt 1 view .LVU304
 937 0008 FFF7FEFF 		bl	H_K_R_Adjustment
 938              	.LVL92:
 939              	.L23:
 276:modules/algorithm/kalman_filter.c **** }
 940              		.loc 1 276 5 view .LVU305
 276:modules/algorithm/kalman_filter.c **** }
 941              		.loc 1 276 60 is_stmt 0 view .LVU306
 942 000c 627B     		ldrb	r2, [r4, #13]	@ zero_extendqisi2
 276:modules/algorithm/kalman_filter.c **** }
 943              		.loc 1 276 56 view .LVU307
 944 000e 0E4B     		ldr	r3, .L25
 945 0010 1B88     		ldrh	r3, [r3]
 276:modules/algorithm/kalman_filter.c **** }
 946              		.loc 1 276 5 view .LVU308
 947 0012 03FB02F2 		mul	r2, r3, r2
 948 0016 A168     		ldr	r1, [r4, #8]
 949 0018 D4F8F000 		ldr	r0, [r4, #240]
 950 001c FFF7FEFF 		bl	memcpy
 951              	.LVL93:
 277:modules/algorithm/kalman_filter.c **** 
 952              		.loc 1 277 1 view .LVU309
 953 0020 38BD     		pop	{r3, r4, r5, pc}
 954              	.LVL94:
 955              	.L22:
 272:modules/algorithm/kalman_filter.c ****         memset(kf->MeasuredVector, 0, sizeof_float * kf->zSize);
 956              		.loc 1 272 9 is_stmt 1 view .LVU310
ARM GAS  C:\Users\Administrator\AppData\Local\Temp\ccsFX16C.s 			page 30


 272:modules/algorithm/kalman_filter.c ****         memset(kf->MeasuredVector, 0, sizeof_float * kf->zSize);
 957              		.loc 1 272 65 is_stmt 0 view .LVU311
 958 0022 827B     		ldrb	r2, [r0, #14]	@ zero_extendqisi2
 272:modules/algorithm/kalman_filter.c ****         memset(kf->MeasuredVector, 0, sizeof_float * kf->zSize);
 959              		.loc 1 272 61 view .LVU312
 960 0024 084D     		ldr	r5, .L25
 961 0026 2B88     		ldrh	r3, [r5]
 272:modules/algorithm/kalman_filter.c ****         memset(kf->MeasuredVector, 0, sizeof_float * kf->zSize);
 962              		.loc 1 272 9 view .LVU313
 963 0028 03FB02F2 		mul	r2, r3, r2
 964 002c 4168     		ldr	r1, [r0, #4]
 965 002e D0F8F400 		ldr	r0, [r0, #244]
 966              	.LVL95:
 272:modules/algorithm/kalman_filter.c ****         memset(kf->MeasuredVector, 0, sizeof_float * kf->zSize);
 967              		.loc 1 272 9 view .LVU314
 968 0032 FFF7FEFF 		bl	memcpy
 969              	.LVL96:
 273:modules/algorithm/kalman_filter.c ****     }
 970              		.loc 1 273 9 is_stmt 1 view .LVU315
 273:modules/algorithm/kalman_filter.c ****     }
 971              		.loc 1 273 56 is_stmt 0 view .LVU316
 972 0036 A27B     		ldrb	r2, [r4, #14]	@ zero_extendqisi2
 273:modules/algorithm/kalman_filter.c ****     }
 973              		.loc 1 273 52 view .LVU317
 974 0038 2B88     		ldrh	r3, [r5]
 273:modules/algorithm/kalman_filter.c ****     }
 975              		.loc 1 273 9 view .LVU318
 976 003a 03FB02F2 		mul	r2, r3, r2
 977 003e 0021     		movs	r1, #0
 978 0040 6068     		ldr	r0, [r4, #4]
 979 0042 FFF7FEFF 		bl	memset
 980              	.LVL97:
 981 0046 E1E7     		b	.L23
 982              	.L26:
 983              		.align	2
 984              	.L25:
 985 0048 00000000 		.word	sizeof_float
 986              		.cfi_endproc
 987              	.LFE164:
 989              		.section	.text.Kalman_Filter_xhatMinusUpdate,"ax",%progbits
 990              		.align	1
 991              		.global	Kalman_Filter_xhatMinusUpdate
 992              		.syntax unified
 993              		.thumb
 994              		.thumb_func
 996              	Kalman_Filter_xhatMinusUpdate:
 997              	.LVL98:
 998              	.LFB165:
 280:modules/algorithm/kalman_filter.c ****     if (!kf->SkipEq1)
 999              		.loc 1 280 1 is_stmt 1 view -0
 1000              		.cfi_startproc
 1001              		@ args = 0, pretend = 0, frame = 0
 1002              		@ frame_needed = 0, uses_anonymous_args = 0
 281:modules/algorithm/kalman_filter.c ****     {
 1003              		.loc 1 281 5 view .LVU320
 281:modules/algorithm/kalman_filter.c ****     {
 1004              		.loc 1 281 12 is_stmt 0 view .LVU321
ARM GAS  C:\Users\Administrator\AppData\Local\Temp\ccsFX16C.s 			page 31


 1005 0000 90F82830 		ldrb	r3, [r0, #40]	@ zero_extendqisi2
 281:modules/algorithm/kalman_filter.c ****     {
 1006              		.loc 1 281 8 view .LVU322
 1007 0004 CBBB     		cbnz	r3, .L31
 280:modules/algorithm/kalman_filter.c ****     if (!kf->SkipEq1)
 1008              		.loc 1 280 1 view .LVU323
 1009 0006 70B5     		push	{r4, r5, r6, lr}
 1010              		.cfi_def_cfa_offset 16
 1011              		.cfi_offset 4, -16
 1012              		.cfi_offset 5, -12
 1013              		.cfi_offset 6, -8
 1014              		.cfi_offset 14, -4
 1015 0008 0446     		mov	r4, r0
 283:modules/algorithm/kalman_filter.c ****         {
 1016              		.loc 1 283 9 is_stmt 1 view .LVU324
 283:modules/algorithm/kalman_filter.c ****         {
 1017              		.loc 1 283 15 is_stmt 0 view .LVU325
 1018 000a 437B     		ldrb	r3, [r0, #13]	@ zero_extendqisi2
 283:modules/algorithm/kalman_filter.c ****         {
 1019              		.loc 1 283 12 view .LVU326
 1020 000c 5BB3     		cbz	r3, .L29
 285:modules/algorithm/kalman_filter.c ****             kf->temp_vector.numCols = 1;
 1021              		.loc 1 285 13 is_stmt 1 view .LVU327
 285:modules/algorithm/kalman_filter.c ****             kf->temp_vector.numCols = 1;
 1022              		.loc 1 285 41 is_stmt 0 view .LVU328
 1023 000e 037B     		ldrb	r3, [r0, #12]	@ zero_extendqisi2
 285:modules/algorithm/kalman_filter.c ****             kf->temp_vector.numCols = 1;
 1024              		.loc 1 285 37 view .LVU329
 1025 0010 A0F8B830 		strh	r3, [r0, #184]	@ movhi
 286:modules/algorithm/kalman_filter.c ****             kf->MatStatus = Matrix_Multiply(&kf->F, &kf->xhat, &kf->temp_vector);
 1026              		.loc 1 286 13 is_stmt 1 view .LVU330
 286:modules/algorithm/kalman_filter.c ****             kf->MatStatus = Matrix_Multiply(&kf->F, &kf->xhat, &kf->temp_vector);
 1027              		.loc 1 286 37 is_stmt 0 view .LVU331
 1028 0014 4FF00105 		mov	r5, #1	@ movhi
 1029 0018 A0F8BA50 		strh	r5, [r0, #186]	@ movhi
 287:modules/algorithm/kalman_filter.c ****             kf->temp_vector1.numRows = kf->xhatSize;
 1030              		.loc 1 287 13 is_stmt 1 view .LVU332
 287:modules/algorithm/kalman_filter.c ****             kf->temp_vector1.numRows = kf->xhatSize;
 1031              		.loc 1 287 29 is_stmt 0 view .LVU333
 1032 001c 00F1B803 		add	r3, r0, #184
 1033 0020 1E46     		mov	r6, r3
 1034 0022 1A46     		mov	r2, r3
 1035 0024 00F13001 		add	r1, r0, #48
 1036 0028 6030     		adds	r0, r0, #96
 1037              	.LVL99:
 287:modules/algorithm/kalman_filter.c ****             kf->temp_vector1.numRows = kf->xhatSize;
 1038              		.loc 1 287 29 view .LVU334
 1039 002a FFF7FEFF 		bl	arm_mat_mult_f32
 1040              	.LVL100:
 287:modules/algorithm/kalman_filter.c ****             kf->temp_vector1.numRows = kf->xhatSize;
 1041              		.loc 1 287 27 discriminator 1 view .LVU335
 1042 002e 84F8C800 		strb	r0, [r4, #200]
 288:modules/algorithm/kalman_filter.c ****             kf->temp_vector1.numCols = 1;
 1043              		.loc 1 288 13 is_stmt 1 view .LVU336
 288:modules/algorithm/kalman_filter.c ****             kf->temp_vector1.numCols = 1;
 1044              		.loc 1 288 42 is_stmt 0 view .LVU337
 1045 0032 237B     		ldrb	r3, [r4, #12]	@ zero_extendqisi2
ARM GAS  C:\Users\Administrator\AppData\Local\Temp\ccsFX16C.s 			page 32


 288:modules/algorithm/kalman_filter.c ****             kf->temp_vector1.numCols = 1;
 1046              		.loc 1 288 38 view .LVU338
 1047 0034 A4F8C030 		strh	r3, [r4, #192]	@ movhi
 289:modules/algorithm/kalman_filter.c ****             kf->MatStatus = Matrix_Multiply(&kf->B, &kf->u, &kf->temp_vector1);
 1048              		.loc 1 289 13 is_stmt 1 view .LVU339
 289:modules/algorithm/kalman_filter.c ****             kf->MatStatus = Matrix_Multiply(&kf->B, &kf->u, &kf->temp_vector1);
 1049              		.loc 1 289 38 is_stmt 0 view .LVU340
 1050 0038 A4F8C250 		strh	r5, [r4, #194]	@ movhi
 290:modules/algorithm/kalman_filter.c ****             kf->MatStatus = Matrix_Add(&kf->temp_vector, &kf->temp_vector1, &kf->xhatminus);
 1051              		.loc 1 290 13 is_stmt 1 view .LVU341
 290:modules/algorithm/kalman_filter.c ****             kf->MatStatus = Matrix_Add(&kf->temp_vector, &kf->temp_vector1, &kf->xhatminus);
 1052              		.loc 1 290 29 is_stmt 0 view .LVU342
 1053 003c 04F1C003 		add	r3, r4, #192
 1054 0040 1D46     		mov	r5, r3
 1055 0042 1A46     		mov	r2, r3
 1056 0044 04F14001 		add	r1, r4, #64
 1057 0048 04F17000 		add	r0, r4, #112
 1058 004c FFF7FEFF 		bl	arm_mat_mult_f32
 1059              	.LVL101:
 290:modules/algorithm/kalman_filter.c ****             kf->MatStatus = Matrix_Add(&kf->temp_vector, &kf->temp_vector1, &kf->xhatminus);
 1060              		.loc 1 290 27 discriminator 1 view .LVU343
 1061 0050 84F8C800 		strb	r0, [r4, #200]
 291:modules/algorithm/kalman_filter.c ****         }
 1062              		.loc 1 291 13 is_stmt 1 view .LVU344
 291:modules/algorithm/kalman_filter.c ****         }
 1063              		.loc 1 291 29 is_stmt 0 view .LVU345
 1064 0054 04F13802 		add	r2, r4, #56
 1065 0058 2946     		mov	r1, r5
 1066 005a 3046     		mov	r0, r6
 1067 005c FFF7FEFF 		bl	arm_mat_add_f32
 1068              	.LVL102:
 291:modules/algorithm/kalman_filter.c ****         }
 1069              		.loc 1 291 27 discriminator 1 view .LVU346
 1070 0060 84F8C800 		strb	r0, [r4, #200]
 1071              	.L27:
 298:modules/algorithm/kalman_filter.c **** 
 1072              		.loc 1 298 1 view .LVU347
 1073 0064 70BD     		pop	{r4, r5, r6, pc}
 1074              	.LVL103:
 1075              	.L29:
 295:modules/algorithm/kalman_filter.c ****         }
 1076              		.loc 1 295 13 is_stmt 1 view .LVU348
 295:modules/algorithm/kalman_filter.c ****         }
 1077              		.loc 1 295 29 is_stmt 0 view .LVU349
 1078 0066 00F13802 		add	r2, r0, #56
 1079 006a 00F13001 		add	r1, r0, #48
 1080 006e 6030     		adds	r0, r0, #96
 1081              	.LVL104:
 295:modules/algorithm/kalman_filter.c ****         }
 1082              		.loc 1 295 29 view .LVU350
 1083 0070 FFF7FEFF 		bl	arm_mat_mult_f32
 1084              	.LVL105:
 295:modules/algorithm/kalman_filter.c ****         }
 1085              		.loc 1 295 27 discriminator 1 view .LVU351
 1086 0074 84F8C800 		strb	r0, [r4, #200]
 298:modules/algorithm/kalman_filter.c **** 
 1087              		.loc 1 298 1 view .LVU352
ARM GAS  C:\Users\Administrator\AppData\Local\Temp\ccsFX16C.s 			page 33


 1088 0078 F4E7     		b	.L27
 1089              	.LVL106:
 1090              	.L31:
 1091              		.cfi_def_cfa_offset 0
 1092              		.cfi_restore 4
 1093              		.cfi_restore 5
 1094              		.cfi_restore 6
 1095              		.cfi_restore 14
 298:modules/algorithm/kalman_filter.c **** 
 1096              		.loc 1 298 1 view .LVU353
 1097 007a 7047     		bx	lr
 1098              		.cfi_endproc
 1099              	.LFE165:
 1101              		.section	.text.Kalman_Filter_PminusUpdate,"ax",%progbits
 1102              		.align	1
 1103              		.global	Kalman_Filter_PminusUpdate
 1104              		.syntax unified
 1105              		.thumb
 1106              		.thumb_func
 1108              	Kalman_Filter_PminusUpdate:
 1109              	.LVL107:
 1110              	.LFB166:
 301:modules/algorithm/kalman_filter.c ****     if (!kf->SkipEq2)
 1111              		.loc 1 301 1 is_stmt 1 view -0
 1112              		.cfi_startproc
 1113              		@ args = 0, pretend = 0, frame = 0
 1114              		@ frame_needed = 0, uses_anonymous_args = 0
 301:modules/algorithm/kalman_filter.c ****     if (!kf->SkipEq2)
 1115              		.loc 1 301 1 is_stmt 0 view .LVU355
 1116 0000 F8B5     		push	{r3, r4, r5, r6, r7, lr}
 1117              		.cfi_def_cfa_offset 24
 1118              		.cfi_offset 3, -24
 1119              		.cfi_offset 4, -20
 1120              		.cfi_offset 5, -16
 1121              		.cfi_offset 6, -12
 1122              		.cfi_offset 7, -8
 1123              		.cfi_offset 14, -4
 302:modules/algorithm/kalman_filter.c ****     {
 1124              		.loc 1 302 5 is_stmt 1 view .LVU356
 302:modules/algorithm/kalman_filter.c ****     {
 1125              		.loc 1 302 12 is_stmt 0 view .LVU357
 1126 0002 90F82930 		ldrb	r3, [r0, #41]	@ zero_extendqisi2
 302:modules/algorithm/kalman_filter.c ****     {
 1127              		.loc 1 302 8 view .LVU358
 1128 0006 03B1     		cbz	r3, .L37
 1129              	.LVL108:
 1130              	.L34:
 311:modules/algorithm/kalman_filter.c **** void Kalman_Filter_SetK(KalmanFilter_t *kf)
 1131              		.loc 1 311 1 view .LVU359
 1132 0008 F8BD     		pop	{r3, r4, r5, r6, r7, pc}
 1133              	.LVL109:
 1134              	.L37:
 311:modules/algorithm/kalman_filter.c **** void Kalman_Filter_SetK(KalmanFilter_t *kf)
 1135              		.loc 1 311 1 view .LVU360
 1136 000a 0446     		mov	r4, r0
 304:modules/algorithm/kalman_filter.c ****         kf->MatStatus = Matrix_Multiply(&kf->F, &kf->P, &kf->Pminus);
 1137              		.loc 1 304 9 is_stmt 1 view .LVU361
ARM GAS  C:\Users\Administrator\AppData\Local\Temp\ccsFX16C.s 			page 34


 304:modules/algorithm/kalman_filter.c ****         kf->MatStatus = Matrix_Multiply(&kf->F, &kf->P, &kf->Pminus);
 1138              		.loc 1 304 42 is_stmt 0 view .LVU362
 1139 000c 00F16003 		add	r3, r0, #96
 1140 0010 1E46     		mov	r6, r3
 304:modules/algorithm/kalman_filter.c ****         kf->MatStatus = Matrix_Multiply(&kf->F, &kf->P, &kf->Pminus);
 1141              		.loc 1 304 25 view .LVU363
 1142 0012 00F16802 		add	r2, r0, #104
 1143 0016 1746     		mov	r7, r2
 1144 0018 1146     		mov	r1, r2
 1145 001a 1846     		mov	r0, r3
 1146              	.LVL110:
 304:modules/algorithm/kalman_filter.c ****         kf->MatStatus = Matrix_Multiply(&kf->F, &kf->P, &kf->Pminus);
 1147              		.loc 1 304 25 view .LVU364
 1148 001c FFF7FEFF 		bl	arm_mat_trans_f32
 1149              	.LVL111:
 304:modules/algorithm/kalman_filter.c ****         kf->MatStatus = Matrix_Multiply(&kf->F, &kf->P, &kf->Pminus);
 1150              		.loc 1 304 23 discriminator 1 view .LVU365
 1151 0020 84F8C800 		strb	r0, [r4, #200]
 305:modules/algorithm/kalman_filter.c ****         kf->temp_matrix.numRows = kf->Pminus.numRows;
 1152              		.loc 1 305 9 is_stmt 1 view .LVU366
 305:modules/algorithm/kalman_filter.c ****         kf->temp_matrix.numRows = kf->Pminus.numRows;
 1153              		.loc 1 305 25 is_stmt 0 view .LVU367
 1154 0024 04F15803 		add	r3, r4, #88
 1155 0028 1D46     		mov	r5, r3
 1156 002a 1A46     		mov	r2, r3
 1157 002c 04F15001 		add	r1, r4, #80
 1158 0030 3046     		mov	r0, r6
 1159 0032 FFF7FEFF 		bl	arm_mat_mult_f32
 1160              	.LVL112:
 305:modules/algorithm/kalman_filter.c ****         kf->temp_matrix.numRows = kf->Pminus.numRows;
 1161              		.loc 1 305 23 discriminator 1 view .LVU368
 1162 0036 84F8C800 		strb	r0, [r4, #200]
 306:modules/algorithm/kalman_filter.c ****         kf->temp_matrix.numCols = kf->FT.numCols;
 1163              		.loc 1 306 9 is_stmt 1 view .LVU369
 306:modules/algorithm/kalman_filter.c ****         kf->temp_matrix.numCols = kf->FT.numCols;
 1164              		.loc 1 306 45 is_stmt 0 view .LVU370
 1165 003a B4F85830 		ldrh	r3, [r4, #88]
 306:modules/algorithm/kalman_filter.c ****         kf->temp_matrix.numCols = kf->FT.numCols;
 1166              		.loc 1 306 33 view .LVU371
 1167 003e A4F8A830 		strh	r3, [r4, #168]	@ movhi
 307:modules/algorithm/kalman_filter.c ****         kf->MatStatus = Matrix_Multiply(&kf->Pminus, &kf->FT, &kf->temp_matrix); // temp_matrix = F
 1168              		.loc 1 307 9 is_stmt 1 view .LVU372
 307:modules/algorithm/kalman_filter.c ****         kf->MatStatus = Matrix_Multiply(&kf->Pminus, &kf->FT, &kf->temp_matrix); // temp_matrix = F
 1169              		.loc 1 307 41 is_stmt 0 view .LVU373
 1170 0042 B4F86A30 		ldrh	r3, [r4, #106]
 307:modules/algorithm/kalman_filter.c ****         kf->MatStatus = Matrix_Multiply(&kf->Pminus, &kf->FT, &kf->temp_matrix); // temp_matrix = F
 1171              		.loc 1 307 33 view .LVU374
 1172 0046 A4F8AA30 		strh	r3, [r4, #170]	@ movhi
 308:modules/algorithm/kalman_filter.c ****         kf->MatStatus = Matrix_Add(&kf->temp_matrix, &kf->Q, &kf->Pminus);
 1173              		.loc 1 308 9 is_stmt 1 view .LVU375
 308:modules/algorithm/kalman_filter.c ****         kf->MatStatus = Matrix_Add(&kf->temp_matrix, &kf->Q, &kf->Pminus);
 1174              		.loc 1 308 25 is_stmt 0 view .LVU376
 1175 004a 04F1A800 		add	r0, r4, #168
 1176 004e 0646     		mov	r6, r0
 1177 0050 0246     		mov	r2, r0
 1178 0052 3946     		mov	r1, r7
 1179 0054 2846     		mov	r0, r5
ARM GAS  C:\Users\Administrator\AppData\Local\Temp\ccsFX16C.s 			page 35


 1180 0056 FFF7FEFF 		bl	arm_mat_mult_f32
 1181              	.LVL113:
 308:modules/algorithm/kalman_filter.c ****         kf->MatStatus = Matrix_Add(&kf->temp_matrix, &kf->Q, &kf->Pminus);
 1182              		.loc 1 308 23 discriminator 1 view .LVU377
 1183 005a 84F8C800 		strb	r0, [r4, #200]
 309:modules/algorithm/kalman_filter.c ****     }
 1184              		.loc 1 309 9 is_stmt 1 view .LVU378
 309:modules/algorithm/kalman_filter.c ****     }
 1185              		.loc 1 309 25 is_stmt 0 view .LVU379
 1186 005e 2A46     		mov	r2, r5
 1187 0060 04F18801 		add	r1, r4, #136
 1188 0064 3046     		mov	r0, r6
 1189 0066 FFF7FEFF 		bl	arm_mat_add_f32
 1190              	.LVL114:
 309:modules/algorithm/kalman_filter.c ****     }
 1191              		.loc 1 309 23 discriminator 1 view .LVU380
 1192 006a 84F8C800 		strb	r0, [r4, #200]
 311:modules/algorithm/kalman_filter.c **** void Kalman_Filter_SetK(KalmanFilter_t *kf)
 1193              		.loc 1 311 1 view .LVU381
 1194 006e CBE7     		b	.L34
 1195              		.cfi_endproc
 1196              	.LFE166:
 1198              		.section	.text.Kalman_Filter_SetK,"ax",%progbits
 1199              		.align	1
 1200              		.global	Kalman_Filter_SetK
 1201              		.syntax unified
 1202              		.thumb
 1203              		.thumb_func
 1205              	Kalman_Filter_SetK:
 1206              	.LVL115:
 1207              	.LFB167:
 313:modules/algorithm/kalman_filter.c ****     if (!kf->SkipEq3)
 1208              		.loc 1 313 1 is_stmt 1 view -0
 1209              		.cfi_startproc
 1210              		@ args = 0, pretend = 0, frame = 0
 1211              		@ frame_needed = 0, uses_anonymous_args = 0
 313:modules/algorithm/kalman_filter.c ****     if (!kf->SkipEq3)
 1212              		.loc 1 313 1 is_stmt 0 view .LVU383
 1213 0000 2DE9F843 		push	{r3, r4, r5, r6, r7, r8, r9, lr}
 1214              		.cfi_def_cfa_offset 32
 1215              		.cfi_offset 3, -32
 1216              		.cfi_offset 4, -28
 1217              		.cfi_offset 5, -24
 1218              		.cfi_offset 6, -20
 1219              		.cfi_offset 7, -16
 1220              		.cfi_offset 8, -12
 1221              		.cfi_offset 9, -8
 1222              		.cfi_offset 14, -4
 314:modules/algorithm/kalman_filter.c ****     {
 1223              		.loc 1 314 5 is_stmt 1 view .LVU384
 314:modules/algorithm/kalman_filter.c ****     {
 1224              		.loc 1 314 12 is_stmt 0 view .LVU385
 1225 0004 90F82A30 		ldrb	r3, [r0, #42]	@ zero_extendqisi2
 314:modules/algorithm/kalman_filter.c ****     {
 1226              		.loc 1 314 8 view .LVU386
 1227 0008 0BB1     		cbz	r3, .L41
 1228              	.LVL116:
ARM GAS  C:\Users\Administrator\AppData\Local\Temp\ccsFX16C.s 			page 36


 1229              	.L38:
 332:modules/algorithm/kalman_filter.c **** void Kalman_Filter_xhatUpdate(KalmanFilter_t *kf)
 1230              		.loc 1 332 1 view .LVU387
 1231 000a BDE8F883 		pop	{r3, r4, r5, r6, r7, r8, r9, pc}
 1232              	.LVL117:
 1233              	.L41:
 332:modules/algorithm/kalman_filter.c **** void Kalman_Filter_xhatUpdate(KalmanFilter_t *kf)
 1234              		.loc 1 332 1 view .LVU388
 1235 000e 0446     		mov	r4, r0
 316:modules/algorithm/kalman_filter.c ****         kf->temp_matrix.numRows = kf->H.numRows;
 1236              		.loc 1 316 9 is_stmt 1 view .LVU389
 316:modules/algorithm/kalman_filter.c ****         kf->temp_matrix.numRows = kf->H.numRows;
 1237              		.loc 1 316 42 is_stmt 0 view .LVU390
 1238 0010 00F17803 		add	r3, r0, #120
 1239 0014 1E46     		mov	r6, r3
 316:modules/algorithm/kalman_filter.c ****         kf->temp_matrix.numRows = kf->H.numRows;
 1240              		.loc 1 316 25 view .LVU391
 1241 0016 00F18002 		add	r2, r0, #128
 1242 001a 1746     		mov	r7, r2
 1243 001c 1146     		mov	r1, r2
 1244 001e 1846     		mov	r0, r3
 1245              	.LVL118:
 316:modules/algorithm/kalman_filter.c ****         kf->temp_matrix.numRows = kf->H.numRows;
 1246              		.loc 1 316 25 view .LVU392
 1247 0020 FFF7FEFF 		bl	arm_mat_trans_f32
 1248              	.LVL119:
 316:modules/algorithm/kalman_filter.c ****         kf->temp_matrix.numRows = kf->H.numRows;
 1249              		.loc 1 316 23 discriminator 1 view .LVU393
 1250 0024 84F8C800 		strb	r0, [r4, #200]
 317:modules/algorithm/kalman_filter.c ****         kf->temp_matrix.numCols = kf->Pminus.numCols;
 1251              		.loc 1 317 9 is_stmt 1 view .LVU394
 317:modules/algorithm/kalman_filter.c ****         kf->temp_matrix.numCols = kf->Pminus.numCols;
 1252              		.loc 1 317 40 is_stmt 0 view .LVU395
 1253 0028 B4F87830 		ldrh	r3, [r4, #120]
 317:modules/algorithm/kalman_filter.c ****         kf->temp_matrix.numCols = kf->Pminus.numCols;
 1254              		.loc 1 317 33 view .LVU396
 1255 002c A4F8A830 		strh	r3, [r4, #168]	@ movhi
 318:modules/algorithm/kalman_filter.c ****         kf->MatStatus = Matrix_Multiply(&kf->H, &kf->Pminus, &kf->temp_matrix); // temp_matrix = Hآ
 1256              		.loc 1 318 9 is_stmt 1 view .LVU397
 318:modules/algorithm/kalman_filter.c ****         kf->MatStatus = Matrix_Multiply(&kf->H, &kf->Pminus, &kf->temp_matrix); // temp_matrix = Hآ
 1257              		.loc 1 318 45 is_stmt 0 view .LVU398
 1258 0030 B4F85A30 		ldrh	r3, [r4, #90]
 318:modules/algorithm/kalman_filter.c ****         kf->MatStatus = Matrix_Multiply(&kf->H, &kf->Pminus, &kf->temp_matrix); // temp_matrix = Hآ
 1259              		.loc 1 318 33 view .LVU399
 1260 0034 A4F8AA30 		strh	r3, [r4, #170]	@ movhi
 319:modules/algorithm/kalman_filter.c ****         kf->temp_matrix1.numRows = kf->temp_matrix.numRows;
 1261              		.loc 1 319 9 is_stmt 1 view .LVU400
 319:modules/algorithm/kalman_filter.c ****         kf->temp_matrix1.numRows = kf->temp_matrix.numRows;
 1262              		.loc 1 319 49 is_stmt 0 view .LVU401
 1263 0038 04F15803 		add	r3, r4, #88
 319:modules/algorithm/kalman_filter.c ****         kf->temp_matrix1.numRows = kf->temp_matrix.numRows;
 1264              		.loc 1 319 25 view .LVU402
 1265 003c 04F1A801 		add	r1, r4, #168
 1266 0040 0D46     		mov	r5, r1
 1267 0042 0A46     		mov	r2, r1
 1268 0044 9946     		mov	r9, r3
 1269 0046 1946     		mov	r1, r3
ARM GAS  C:\Users\Administrator\AppData\Local\Temp\ccsFX16C.s 			page 37


 1270 0048 3046     		mov	r0, r6
 1271 004a FFF7FEFF 		bl	arm_mat_mult_f32
 1272              	.LVL120:
 319:modules/algorithm/kalman_filter.c ****         kf->temp_matrix1.numRows = kf->temp_matrix.numRows;
 1273              		.loc 1 319 23 discriminator 1 view .LVU403
 1274 004e 84F8C800 		strb	r0, [r4, #200]
 320:modules/algorithm/kalman_filter.c ****         kf->temp_matrix1.numCols = kf->HT.numCols;
 1275              		.loc 1 320 9 is_stmt 1 view .LVU404
 320:modules/algorithm/kalman_filter.c ****         kf->temp_matrix1.numCols = kf->HT.numCols;
 1276              		.loc 1 320 51 is_stmt 0 view .LVU405
 1277 0052 B4F8A830 		ldrh	r3, [r4, #168]
 320:modules/algorithm/kalman_filter.c ****         kf->temp_matrix1.numCols = kf->HT.numCols;
 1278              		.loc 1 320 34 view .LVU406
 1279 0056 A4F8B030 		strh	r3, [r4, #176]	@ movhi
 321:modules/algorithm/kalman_filter.c ****         kf->MatStatus = Matrix_Multiply(&kf->temp_matrix, &kf->HT, &kf->temp_matrix1); // temp_matr
 1280              		.loc 1 321 9 is_stmt 1 view .LVU407
 321:modules/algorithm/kalman_filter.c ****         kf->MatStatus = Matrix_Multiply(&kf->temp_matrix, &kf->HT, &kf->temp_matrix1); // temp_matr
 1281              		.loc 1 321 42 is_stmt 0 view .LVU408
 1282 005a B4F88230 		ldrh	r3, [r4, #130]
 321:modules/algorithm/kalman_filter.c ****         kf->MatStatus = Matrix_Multiply(&kf->temp_matrix, &kf->HT, &kf->temp_matrix1); // temp_matr
 1283              		.loc 1 321 34 view .LVU409
 1284 005e A4F8B230 		strh	r3, [r4, #178]	@ movhi
 322:modules/algorithm/kalman_filter.c ****         kf->S.numRows = kf->R.numRows;
 1285              		.loc 1 322 9 is_stmt 1 view .LVU410
 322:modules/algorithm/kalman_filter.c ****         kf->S.numRows = kf->R.numRows;
 1286              		.loc 1 322 25 is_stmt 0 view .LVU411
 1287 0062 04F1B003 		add	r3, r4, #176
 1288 0066 1E46     		mov	r6, r3
 1289 0068 1A46     		mov	r2, r3
 1290 006a 3946     		mov	r1, r7
 1291 006c 2846     		mov	r0, r5
 1292 006e FFF7FEFF 		bl	arm_mat_mult_f32
 1293              	.LVL121:
 322:modules/algorithm/kalman_filter.c ****         kf->S.numRows = kf->R.numRows;
 1294              		.loc 1 322 23 discriminator 1 view .LVU412
 1295 0072 84F8C800 		strb	r0, [r4, #200]
 323:modules/algorithm/kalman_filter.c ****         kf->S.numCols = kf->R.numCols;
 1296              		.loc 1 323 9 is_stmt 1 view .LVU413
 323:modules/algorithm/kalman_filter.c ****         kf->S.numCols = kf->R.numCols;
 1297              		.loc 1 323 30 is_stmt 0 view .LVU414
 1298 0076 B4F89030 		ldrh	r3, [r4, #144]
 323:modules/algorithm/kalman_filter.c ****         kf->S.numCols = kf->R.numCols;
 1299              		.loc 1 323 23 view .LVU415
 1300 007a A4F8A030 		strh	r3, [r4, #160]	@ movhi
 324:modules/algorithm/kalman_filter.c ****         kf->MatStatus = Matrix_Add(&kf->temp_matrix1, &kf->R, &kf->S); // S = H P'(k) HT + R
 1301              		.loc 1 324 9 is_stmt 1 view .LVU416
 324:modules/algorithm/kalman_filter.c ****         kf->MatStatus = Matrix_Add(&kf->temp_matrix1, &kf->R, &kf->S); // S = H P'(k) HT + R
 1302              		.loc 1 324 30 is_stmt 0 view .LVU417
 1303 007e B4F89230 		ldrh	r3, [r4, #146]
 324:modules/algorithm/kalman_filter.c ****         kf->MatStatus = Matrix_Add(&kf->temp_matrix1, &kf->R, &kf->S); // S = H P'(k) HT + R
 1304              		.loc 1 324 23 view .LVU418
 1305 0082 A4F8A230 		strh	r3, [r4, #162]	@ movhi
 325:modules/algorithm/kalman_filter.c ****         kf->MatStatus = Matrix_Inverse(&kf->S, &kf->temp_matrix1);     // temp_matrix1 = inv(Hآ·P'(
 1306              		.loc 1 325 9 is_stmt 1 view .LVU419
 325:modules/algorithm/kalman_filter.c ****         kf->MatStatus = Matrix_Inverse(&kf->S, &kf->temp_matrix1);     // temp_matrix1 = inv(Hآ·P'(
 1307              		.loc 1 325 25 is_stmt 0 view .LVU420
 1308 0086 04F1A003 		add	r3, r4, #160
ARM GAS  C:\Users\Administrator\AppData\Local\Temp\ccsFX16C.s 			page 38


 1309 008a 9846     		mov	r8, r3
 1310 008c 1A46     		mov	r2, r3
 1311 008e 04F19001 		add	r1, r4, #144
 1312 0092 3046     		mov	r0, r6
 1313 0094 FFF7FEFF 		bl	arm_mat_add_f32
 1314              	.LVL122:
 325:modules/algorithm/kalman_filter.c ****         kf->MatStatus = Matrix_Inverse(&kf->S, &kf->temp_matrix1);     // temp_matrix1 = inv(Hآ·P'(
 1315              		.loc 1 325 23 discriminator 1 view .LVU421
 1316 0098 84F8C800 		strb	r0, [r4, #200]
 326:modules/algorithm/kalman_filter.c ****         kf->temp_matrix.numRows = kf->Pminus.numRows;
 1317              		.loc 1 326 9 is_stmt 1 view .LVU422
 326:modules/algorithm/kalman_filter.c ****         kf->temp_matrix.numRows = kf->Pminus.numRows;
 1318              		.loc 1 326 25 is_stmt 0 view .LVU423
 1319 009c 3146     		mov	r1, r6
 1320 009e 4046     		mov	r0, r8
 1321 00a0 FFF7FEFF 		bl	arm_mat_inverse_f32
 1322              	.LVL123:
 326:modules/algorithm/kalman_filter.c ****         kf->temp_matrix.numRows = kf->Pminus.numRows;
 1323              		.loc 1 326 23 discriminator 1 view .LVU424
 1324 00a4 84F8C800 		strb	r0, [r4, #200]
 327:modules/algorithm/kalman_filter.c ****         kf->temp_matrix.numCols = kf->HT.numCols;
 1325              		.loc 1 327 9 is_stmt 1 view .LVU425
 327:modules/algorithm/kalman_filter.c ****         kf->temp_matrix.numCols = kf->HT.numCols;
 1326              		.loc 1 327 45 is_stmt 0 view .LVU426
 1327 00a8 B4F85830 		ldrh	r3, [r4, #88]
 327:modules/algorithm/kalman_filter.c ****         kf->temp_matrix.numCols = kf->HT.numCols;
 1328              		.loc 1 327 33 view .LVU427
 1329 00ac A4F8A830 		strh	r3, [r4, #168]	@ movhi
 328:modules/algorithm/kalman_filter.c ****         kf->MatStatus = Matrix_Multiply(&kf->Pminus, &kf->HT, &kf->temp_matrix); // temp_matrix = P
 1330              		.loc 1 328 9 is_stmt 1 view .LVU428
 328:modules/algorithm/kalman_filter.c ****         kf->MatStatus = Matrix_Multiply(&kf->Pminus, &kf->HT, &kf->temp_matrix); // temp_matrix = P
 1331              		.loc 1 328 41 is_stmt 0 view .LVU429
 1332 00b0 B4F88230 		ldrh	r3, [r4, #130]
 328:modules/algorithm/kalman_filter.c ****         kf->MatStatus = Matrix_Multiply(&kf->Pminus, &kf->HT, &kf->temp_matrix); // temp_matrix = P
 1333              		.loc 1 328 33 view .LVU430
 1334 00b4 A4F8AA30 		strh	r3, [r4, #170]	@ movhi
 329:modules/algorithm/kalman_filter.c ****         kf->MatStatus = Matrix_Multiply(&kf->temp_matrix, &kf->temp_matrix1, &kf->K);
 1335              		.loc 1 329 9 is_stmt 1 view .LVU431
 329:modules/algorithm/kalman_filter.c ****         kf->MatStatus = Matrix_Multiply(&kf->temp_matrix, &kf->temp_matrix1, &kf->K);
 1336              		.loc 1 329 25 is_stmt 0 view .LVU432
 1337 00b8 2A46     		mov	r2, r5
 1338 00ba 3946     		mov	r1, r7
 1339 00bc 4846     		mov	r0, r9
 1340 00be FFF7FEFF 		bl	arm_mat_mult_f32
 1341              	.LVL124:
 329:modules/algorithm/kalman_filter.c ****         kf->MatStatus = Matrix_Multiply(&kf->temp_matrix, &kf->temp_matrix1, &kf->K);
 1342              		.loc 1 329 23 discriminator 1 view .LVU433
 1343 00c2 84F8C800 		strb	r0, [r4, #200]
 330:modules/algorithm/kalman_filter.c ****     }
 1344              		.loc 1 330 9 is_stmt 1 view .LVU434
 330:modules/algorithm/kalman_filter.c ****     }
 1345              		.loc 1 330 25 is_stmt 0 view .LVU435
 1346 00c6 04F19802 		add	r2, r4, #152
 1347 00ca 3146     		mov	r1, r6
 1348 00cc 2846     		mov	r0, r5
 1349 00ce FFF7FEFF 		bl	arm_mat_mult_f32
 1350              	.LVL125:
ARM GAS  C:\Users\Administrator\AppData\Local\Temp\ccsFX16C.s 			page 39


 330:modules/algorithm/kalman_filter.c ****     }
 1351              		.loc 1 330 23 discriminator 1 view .LVU436
 1352 00d2 84F8C800 		strb	r0, [r4, #200]
 332:modules/algorithm/kalman_filter.c **** void Kalman_Filter_xhatUpdate(KalmanFilter_t *kf)
 1353              		.loc 1 332 1 view .LVU437
 1354 00d6 98E7     		b	.L38
 1355              		.cfi_endproc
 1356              	.LFE167:
 1358              		.section	.text.Kalman_Filter_xhatUpdate,"ax",%progbits
 1359              		.align	1
 1360              		.global	Kalman_Filter_xhatUpdate
 1361              		.syntax unified
 1362              		.thumb
 1363              		.thumb_func
 1365              	Kalman_Filter_xhatUpdate:
 1366              	.LVL126:
 1367              	.LFB168:
 334:modules/algorithm/kalman_filter.c ****     if (!kf->SkipEq4)
 1368              		.loc 1 334 1 is_stmt 1 view -0
 1369              		.cfi_startproc
 1370              		@ args = 0, pretend = 0, frame = 0
 1371              		@ frame_needed = 0, uses_anonymous_args = 0
 335:modules/algorithm/kalman_filter.c ****     {
 1372              		.loc 1 335 5 view .LVU439
 335:modules/algorithm/kalman_filter.c ****     {
 1373              		.loc 1 335 12 is_stmt 0 view .LVU440
 1374 0000 90F82B30 		ldrb	r3, [r0, #43]	@ zero_extendqisi2
 335:modules/algorithm/kalman_filter.c ****     {
 1375              		.loc 1 335 8 view .LVU441
 1376 0004 03B1     		cbz	r3, .L48
 1377 0006 7047     		bx	lr
 1378              	.L48:
 334:modules/algorithm/kalman_filter.c ****     if (!kf->SkipEq4)
 1379              		.loc 1 334 1 view .LVU442
 1380 0008 2DE9F041 		push	{r4, r5, r6, r7, r8, lr}
 1381              		.cfi_def_cfa_offset 24
 1382              		.cfi_offset 4, -24
 1383              		.cfi_offset 5, -20
 1384              		.cfi_offset 6, -16
 1385              		.cfi_offset 7, -12
 1386              		.cfi_offset 8, -8
 1387              		.cfi_offset 14, -4
 1388 000c 0446     		mov	r4, r0
 337:modules/algorithm/kalman_filter.c ****         kf->temp_vector.numCols = 1;
 1389              		.loc 1 337 9 is_stmt 1 view .LVU443
 337:modules/algorithm/kalman_filter.c ****         kf->temp_vector.numCols = 1;
 1390              		.loc 1 337 40 is_stmt 0 view .LVU444
 1391 000e B0F87830 		ldrh	r3, [r0, #120]
 337:modules/algorithm/kalman_filter.c ****         kf->temp_vector.numCols = 1;
 1392              		.loc 1 337 33 view .LVU445
 1393 0012 A0F8B830 		strh	r3, [r0, #184]	@ movhi
 338:modules/algorithm/kalman_filter.c ****         kf->MatStatus = Matrix_Multiply(&kf->H, &kf->xhatminus, &kf->temp_vector); // temp_vector =
 1394              		.loc 1 338 9 is_stmt 1 view .LVU446
 338:modules/algorithm/kalman_filter.c ****         kf->MatStatus = Matrix_Multiply(&kf->H, &kf->xhatminus, &kf->temp_vector); // temp_vector =
 1395              		.loc 1 338 33 is_stmt 0 view .LVU447
 1396 0016 4FF00106 		mov	r6, #1	@ movhi
 1397 001a A0F8BA60 		strh	r6, [r0, #186]	@ movhi
ARM GAS  C:\Users\Administrator\AppData\Local\Temp\ccsFX16C.s 			page 40


 339:modules/algorithm/kalman_filter.c ****         kf->temp_vector1.numRows = kf->z.numRows;
 1398              		.loc 1 339 9 is_stmt 1 view .LVU448
 339:modules/algorithm/kalman_filter.c ****         kf->temp_vector1.numRows = kf->z.numRows;
 1399              		.loc 1 339 49 is_stmt 0 view .LVU449
 1400 001e 00F13803 		add	r3, r0, #56
 339:modules/algorithm/kalman_filter.c ****         kf->temp_vector1.numRows = kf->z.numRows;
 1401              		.loc 1 339 25 view .LVU450
 1402 0022 00F1B802 		add	r2, r0, #184
 1403 0026 1546     		mov	r5, r2
 1404 0028 9846     		mov	r8, r3
 1405 002a 1946     		mov	r1, r3
 1406 002c 7830     		adds	r0, r0, #120
 1407              	.LVL127:
 339:modules/algorithm/kalman_filter.c ****         kf->temp_vector1.numRows = kf->z.numRows;
 1408              		.loc 1 339 25 view .LVU451
 1409 002e FFF7FEFF 		bl	arm_mat_mult_f32
 1410              	.LVL128:
 339:modules/algorithm/kalman_filter.c ****         kf->temp_vector1.numRows = kf->z.numRows;
 1411              		.loc 1 339 23 discriminator 1 view .LVU452
 1412 0032 84F8C800 		strb	r0, [r4, #200]
 340:modules/algorithm/kalman_filter.c ****         kf->temp_vector1.numCols = 1;
 1413              		.loc 1 340 9 is_stmt 1 view .LVU453
 340:modules/algorithm/kalman_filter.c ****         kf->temp_vector1.numCols = 1;
 1414              		.loc 1 340 41 is_stmt 0 view .LVU454
 1415 0036 B4F84830 		ldrh	r3, [r4, #72]
 340:modules/algorithm/kalman_filter.c ****         kf->temp_vector1.numCols = 1;
 1416              		.loc 1 340 34 view .LVU455
 1417 003a A4F8C030 		strh	r3, [r4, #192]	@ movhi
 341:modules/algorithm/kalman_filter.c ****         kf->MatStatus = Matrix_Subtract(&kf->z, &kf->temp_vector, &kf->temp_vector1); // temp_vecto
 1418              		.loc 1 341 9 is_stmt 1 view .LVU456
 341:modules/algorithm/kalman_filter.c ****         kf->MatStatus = Matrix_Subtract(&kf->z, &kf->temp_vector, &kf->temp_vector1); // temp_vecto
 1419              		.loc 1 341 34 is_stmt 0 view .LVU457
 1420 003e A4F8C260 		strh	r6, [r4, #194]	@ movhi
 342:modules/algorithm/kalman_filter.c ****         kf->temp_vector.numRows = kf->K.numRows;
 1421              		.loc 1 342 9 is_stmt 1 view .LVU458
 342:modules/algorithm/kalman_filter.c ****         kf->temp_vector.numRows = kf->K.numRows;
 1422              		.loc 1 342 25 is_stmt 0 view .LVU459
 1423 0042 04F1C003 		add	r3, r4, #192
 1424 0046 1F46     		mov	r7, r3
 1425 0048 1A46     		mov	r2, r3
 1426 004a 2946     		mov	r1, r5
 1427 004c 04F14800 		add	r0, r4, #72
 1428 0050 FFF7FEFF 		bl	arm_mat_sub_f32
 1429              	.LVL129:
 342:modules/algorithm/kalman_filter.c ****         kf->temp_vector.numRows = kf->K.numRows;
 1430              		.loc 1 342 23 discriminator 1 view .LVU460
 1431 0054 84F8C800 		strb	r0, [r4, #200]
 343:modules/algorithm/kalman_filter.c ****         kf->temp_vector.numCols = 1;
 1432              		.loc 1 343 9 is_stmt 1 view .LVU461
 343:modules/algorithm/kalman_filter.c ****         kf->temp_vector.numCols = 1;
 1433              		.loc 1 343 40 is_stmt 0 view .LVU462
 1434 0058 B4F89830 		ldrh	r3, [r4, #152]
 343:modules/algorithm/kalman_filter.c ****         kf->temp_vector.numCols = 1;
 1435              		.loc 1 343 33 view .LVU463
 1436 005c A4F8B830 		strh	r3, [r4, #184]	@ movhi
 344:modules/algorithm/kalman_filter.c ****         kf->MatStatus = Matrix_Multiply(&kf->K, &kf->temp_vector1, &kf->temp_vector); // temp_vecto
 1437              		.loc 1 344 9 is_stmt 1 view .LVU464
ARM GAS  C:\Users\Administrator\AppData\Local\Temp\ccsFX16C.s 			page 41


 344:modules/algorithm/kalman_filter.c ****         kf->MatStatus = Matrix_Multiply(&kf->K, &kf->temp_vector1, &kf->temp_vector); // temp_vecto
 1438              		.loc 1 344 33 is_stmt 0 view .LVU465
 1439 0060 A4F8BA60 		strh	r6, [r4, #186]	@ movhi
 345:modules/algorithm/kalman_filter.c ****         kf->MatStatus = Matrix_Add(&kf->xhatminus, &kf->temp_vector, &kf->xhat);
 1440              		.loc 1 345 9 is_stmt 1 view .LVU466
 345:modules/algorithm/kalman_filter.c ****         kf->MatStatus = Matrix_Add(&kf->xhatminus, &kf->temp_vector, &kf->xhat);
 1441              		.loc 1 345 25 is_stmt 0 view .LVU467
 1442 0064 2A46     		mov	r2, r5
 1443 0066 3946     		mov	r1, r7
 1444 0068 04F19800 		add	r0, r4, #152
 1445 006c FFF7FEFF 		bl	arm_mat_mult_f32
 1446              	.LVL130:
 345:modules/algorithm/kalman_filter.c ****         kf->MatStatus = Matrix_Add(&kf->xhatminus, &kf->temp_vector, &kf->xhat);
 1447              		.loc 1 345 23 discriminator 1 view .LVU468
 1448 0070 84F8C800 		strb	r0, [r4, #200]
 346:modules/algorithm/kalman_filter.c ****     }
 1449              		.loc 1 346 9 is_stmt 1 view .LVU469
 346:modules/algorithm/kalman_filter.c ****     }
 1450              		.loc 1 346 25 is_stmt 0 view .LVU470
 1451 0074 04F13002 		add	r2, r4, #48
 1452 0078 2946     		mov	r1, r5
 1453 007a 4046     		mov	r0, r8
 1454 007c FFF7FEFF 		bl	arm_mat_add_f32
 1455              	.LVL131:
 346:modules/algorithm/kalman_filter.c ****     }
 1456              		.loc 1 346 23 discriminator 1 view .LVU471
 1457 0080 84F8C800 		strb	r0, [r4, #200]
 348:modules/algorithm/kalman_filter.c **** void Kalman_Filter_P_Update(KalmanFilter_t *kf)
 1458              		.loc 1 348 1 view .LVU472
 1459 0084 BDE8F081 		pop	{r4, r5, r6, r7, r8, pc}
 348:modules/algorithm/kalman_filter.c **** void Kalman_Filter_P_Update(KalmanFilter_t *kf)
 1460              		.loc 1 348 1 view .LVU473
 1461              		.cfi_endproc
 1462              	.LFE168:
 1464              		.section	.text.Kalman_Filter_P_Update,"ax",%progbits
 1465              		.align	1
 1466              		.global	Kalman_Filter_P_Update
 1467              		.syntax unified
 1468              		.thumb
 1469              		.thumb_func
 1471              	Kalman_Filter_P_Update:
 1472              	.LVL132:
 1473              	.LFB169:
 350:modules/algorithm/kalman_filter.c ****     if (!kf->SkipEq5)
 1474              		.loc 1 350 1 is_stmt 1 view -0
 1475              		.cfi_startproc
 1476              		@ args = 0, pretend = 0, frame = 0
 1477              		@ frame_needed = 0, uses_anonymous_args = 0
 350:modules/algorithm/kalman_filter.c ****     if (!kf->SkipEq5)
 1478              		.loc 1 350 1 is_stmt 0 view .LVU475
 1479 0000 F8B5     		push	{r3, r4, r5, r6, r7, lr}
 1480              		.cfi_def_cfa_offset 24
 1481              		.cfi_offset 3, -24
 1482              		.cfi_offset 4, -20
 1483              		.cfi_offset 5, -16
 1484              		.cfi_offset 6, -12
 1485              		.cfi_offset 7, -8
ARM GAS  C:\Users\Administrator\AppData\Local\Temp\ccsFX16C.s 			page 42


 1486              		.cfi_offset 14, -4
 351:modules/algorithm/kalman_filter.c ****     {
 1487              		.loc 1 351 5 is_stmt 1 view .LVU476
 351:modules/algorithm/kalman_filter.c ****     {
 1488              		.loc 1 351 12 is_stmt 0 view .LVU477
 1489 0002 90F82C30 		ldrb	r3, [r0, #44]	@ zero_extendqisi2
 351:modules/algorithm/kalman_filter.c ****     {
 1490              		.loc 1 351 8 view .LVU478
 1491 0006 03B1     		cbz	r3, .L52
 1492              	.LVL133:
 1493              	.L49:
 361:modules/algorithm/kalman_filter.c **** 
 1494              		.loc 1 361 1 view .LVU479
 1495 0008 F8BD     		pop	{r3, r4, r5, r6, r7, pc}
 1496              	.LVL134:
 1497              	.L52:
 361:modules/algorithm/kalman_filter.c **** 
 1498              		.loc 1 361 1 view .LVU480
 1499 000a 0446     		mov	r4, r0
 353:modules/algorithm/kalman_filter.c ****         kf->temp_matrix.numCols = kf->H.numCols;
 1500              		.loc 1 353 9 is_stmt 1 view .LVU481
 353:modules/algorithm/kalman_filter.c ****         kf->temp_matrix.numCols = kf->H.numCols;
 1501              		.loc 1 353 40 is_stmt 0 view .LVU482
 1502 000c B0F89830 		ldrh	r3, [r0, #152]
 353:modules/algorithm/kalman_filter.c ****         kf->temp_matrix.numCols = kf->H.numCols;
 1503              		.loc 1 353 33 view .LVU483
 1504 0010 A0F8A830 		strh	r3, [r0, #168]	@ movhi
 354:modules/algorithm/kalman_filter.c ****         kf->temp_matrix1.numRows = kf->temp_matrix.numRows;
 1505              		.loc 1 354 9 is_stmt 1 view .LVU484
 354:modules/algorithm/kalman_filter.c ****         kf->temp_matrix1.numRows = kf->temp_matrix.numRows;
 1506              		.loc 1 354 40 is_stmt 0 view .LVU485
 1507 0014 B0F87A20 		ldrh	r2, [r0, #122]
 354:modules/algorithm/kalman_filter.c ****         kf->temp_matrix1.numRows = kf->temp_matrix.numRows;
 1508              		.loc 1 354 33 view .LVU486
 1509 0018 A0F8AA20 		strh	r2, [r0, #170]	@ movhi
 355:modules/algorithm/kalman_filter.c ****         kf->temp_matrix1.numCols = kf->Pminus.numCols;
 1510              		.loc 1 355 9 is_stmt 1 view .LVU487
 355:modules/algorithm/kalman_filter.c ****         kf->temp_matrix1.numCols = kf->Pminus.numCols;
 1511              		.loc 1 355 34 is_stmt 0 view .LVU488
 1512 001c A0F8B030 		strh	r3, [r0, #176]	@ movhi
 356:modules/algorithm/kalman_filter.c ****         kf->MatStatus = Matrix_Multiply(&kf->K, &kf->H, &kf->temp_matrix);                 // temp_
 1513              		.loc 1 356 9 is_stmt 1 view .LVU489
 356:modules/algorithm/kalman_filter.c ****         kf->MatStatus = Matrix_Multiply(&kf->K, &kf->H, &kf->temp_matrix);                 // temp_
 1514              		.loc 1 356 46 is_stmt 0 view .LVU490
 1515 0020 B0F85A30 		ldrh	r3, [r0, #90]
 356:modules/algorithm/kalman_filter.c ****         kf->MatStatus = Matrix_Multiply(&kf->K, &kf->H, &kf->temp_matrix);                 // temp_
 1516              		.loc 1 356 34 view .LVU491
 1517 0024 A0F8B230 		strh	r3, [r0, #178]	@ movhi
 357:modules/algorithm/kalman_filter.c ****         kf->MatStatus = Matrix_Multiply(&kf->temp_matrix, &kf->Pminus, &kf->temp_matrix1); // temp_
 1518              		.loc 1 357 9 is_stmt 1 view .LVU492
 357:modules/algorithm/kalman_filter.c ****         kf->MatStatus = Matrix_Multiply(&kf->temp_matrix, &kf->Pminus, &kf->temp_matrix1); // temp_
 1519              		.loc 1 357 25 is_stmt 0 view .LVU493
 1520 0028 00F1A803 		add	r3, r0, #168
 1521 002c 1F46     		mov	r7, r3
 1522 002e 1A46     		mov	r2, r3
 1523 0030 00F17801 		add	r1, r0, #120
 1524 0034 9830     		adds	r0, r0, #152
ARM GAS  C:\Users\Administrator\AppData\Local\Temp\ccsFX16C.s 			page 43


 1525              	.LVL135:
 357:modules/algorithm/kalman_filter.c ****         kf->MatStatus = Matrix_Multiply(&kf->temp_matrix, &kf->Pminus, &kf->temp_matrix1); // temp_
 1526              		.loc 1 357 25 view .LVU494
 1527 0036 FFF7FEFF 		bl	arm_mat_mult_f32
 1528              	.LVL136:
 357:modules/algorithm/kalman_filter.c ****         kf->MatStatus = Matrix_Multiply(&kf->temp_matrix, &kf->Pminus, &kf->temp_matrix1); // temp_
 1529              		.loc 1 357 23 discriminator 1 view .LVU495
 1530 003a 84F8C800 		strb	r0, [r4, #200]
 358:modules/algorithm/kalman_filter.c ****         kf->MatStatus = Matrix_Subtract(&kf->Pminus, &kf->temp_matrix1, &kf->P);
 1531              		.loc 1 358 9 is_stmt 1 view .LVU496
 358:modules/algorithm/kalman_filter.c ****         kf->MatStatus = Matrix_Subtract(&kf->Pminus, &kf->temp_matrix1, &kf->P);
 1532              		.loc 1 358 59 is_stmt 0 view .LVU497
 1533 003e 04F15803 		add	r3, r4, #88
 1534 0042 1D46     		mov	r5, r3
 358:modules/algorithm/kalman_filter.c ****         kf->MatStatus = Matrix_Subtract(&kf->Pminus, &kf->temp_matrix1, &kf->P);
 1535              		.loc 1 358 25 view .LVU498
 1536 0044 04F1B001 		add	r1, r4, #176
 1537 0048 0E46     		mov	r6, r1
 1538 004a 0A46     		mov	r2, r1
 1539 004c 1946     		mov	r1, r3
 1540 004e 3846     		mov	r0, r7
 1541 0050 FFF7FEFF 		bl	arm_mat_mult_f32
 1542              	.LVL137:
 358:modules/algorithm/kalman_filter.c ****         kf->MatStatus = Matrix_Subtract(&kf->Pminus, &kf->temp_matrix1, &kf->P);
 1543              		.loc 1 358 23 discriminator 1 view .LVU499
 1544 0054 84F8C800 		strb	r0, [r4, #200]
 359:modules/algorithm/kalman_filter.c ****     }
 1545              		.loc 1 359 9 is_stmt 1 view .LVU500
 359:modules/algorithm/kalman_filter.c ****     }
 1546              		.loc 1 359 25 is_stmt 0 view .LVU501
 1547 0058 04F15002 		add	r2, r4, #80
 1548 005c 3146     		mov	r1, r6
 1549 005e 2846     		mov	r0, r5
 1550 0060 FFF7FEFF 		bl	arm_mat_sub_f32
 1551              	.LVL138:
 359:modules/algorithm/kalman_filter.c ****     }
 1552              		.loc 1 359 23 discriminator 1 view .LVU502
 1553 0064 84F8C800 		strb	r0, [r4, #200]
 361:modules/algorithm/kalman_filter.c **** 
 1554              		.loc 1 361 1 view .LVU503
 1555 0068 CEE7     		b	.L49
 1556              		.cfi_endproc
 1557              	.LFE169:
 1559              		.section	.text.Kalman_Filter_Update,"ax",%progbits
 1560              		.align	1
 1561              		.global	Kalman_Filter_Update
 1562              		.syntax unified
 1563              		.thumb
 1564              		.thumb_func
 1566              	Kalman_Filter_Update:
 1567              	.LVL139:
 1568              	.LFB170:
 370:modules/algorithm/kalman_filter.c ****     // 0. èژ·هڈ–é‡ڈوµ‹ن؟،وپ¯
 1569              		.loc 1 370 1 is_stmt 1 view -0
 1570              		.cfi_startproc
 1571              		@ args = 0, pretend = 0, frame = 0
 1572              		@ frame_needed = 0, uses_anonymous_args = 0
ARM GAS  C:\Users\Administrator\AppData\Local\Temp\ccsFX16C.s 			page 44


 370:modules/algorithm/kalman_filter.c ****     // 0. èژ·هڈ–é‡ڈوµ‹ن؟،وپ¯
 1573              		.loc 1 370 1 is_stmt 0 view .LVU505
 1574 0000 38B5     		push	{r3, r4, r5, lr}
 1575              		.cfi_def_cfa_offset 16
 1576              		.cfi_offset 3, -16
 1577              		.cfi_offset 4, -12
 1578              		.cfi_offset 5, -8
 1579              		.cfi_offset 14, -4
 1580 0002 0446     		mov	r4, r0
 372:modules/algorithm/kalman_filter.c ****     if (kf->User_Func0_f != NULL)
 1581              		.loc 1 372 5 is_stmt 1 view .LVU506
 1582 0004 FFF7FEFF 		bl	Kalman_Filter_Measure
 1583              	.LVL140:
 373:modules/algorithm/kalman_filter.c ****         kf->User_Func0_f(kf);
 1584              		.loc 1 373 5 view .LVU507
 373:modules/algorithm/kalman_filter.c ****         kf->User_Func0_f(kf);
 1585              		.loc 1 373 11 is_stmt 0 view .LVU508
 1586 0008 D4F8CC30 		ldr	r3, [r4, #204]
 373:modules/algorithm/kalman_filter.c ****         kf->User_Func0_f(kf);
 1587              		.loc 1 373 8 view .LVU509
 1588 000c 0BB1     		cbz	r3, .L54
 374:modules/algorithm/kalman_filter.c **** 
 1589              		.loc 1 374 9 is_stmt 1 view .LVU510
 1590 000e 2046     		mov	r0, r4
 1591 0010 9847     		blx	r3
 1592              	.LVL141:
 1593              	.L54:
 378:modules/algorithm/kalman_filter.c ****     if (kf->User_Func1_f != NULL)
 1594              		.loc 1 378 5 view .LVU511
 1595 0012 2046     		mov	r0, r4
 1596 0014 FFF7FEFF 		bl	Kalman_Filter_xhatMinusUpdate
 1597              	.LVL142:
 379:modules/algorithm/kalman_filter.c ****         kf->User_Func1_f(kf);
 1598              		.loc 1 379 5 view .LVU512
 379:modules/algorithm/kalman_filter.c ****         kf->User_Func1_f(kf);
 1599              		.loc 1 379 11 is_stmt 0 view .LVU513
 1600 0018 D4F8D030 		ldr	r3, [r4, #208]
 379:modules/algorithm/kalman_filter.c ****         kf->User_Func1_f(kf);
 1601              		.loc 1 379 8 view .LVU514
 1602 001c 0BB1     		cbz	r3, .L55
 380:modules/algorithm/kalman_filter.c **** 
 1603              		.loc 1 380 9 is_stmt 1 view .LVU515
 1604 001e 2046     		mov	r0, r4
 1605 0020 9847     		blx	r3
 1606              	.LVL143:
 1607              	.L55:
 384:modules/algorithm/kalman_filter.c ****     if (kf->User_Func2_f != NULL)
 1608              		.loc 1 384 5 view .LVU516
 1609 0022 2046     		mov	r0, r4
 1610 0024 FFF7FEFF 		bl	Kalman_Filter_PminusUpdate
 1611              	.LVL144:
 385:modules/algorithm/kalman_filter.c ****         kf->User_Func2_f(kf);
 1612              		.loc 1 385 5 view .LVU517
 385:modules/algorithm/kalman_filter.c ****         kf->User_Func2_f(kf);
 1613              		.loc 1 385 11 is_stmt 0 view .LVU518
 1614 0028 D4F8D430 		ldr	r3, [r4, #212]
 385:modules/algorithm/kalman_filter.c ****         kf->User_Func2_f(kf);
ARM GAS  C:\Users\Administrator\AppData\Local\Temp\ccsFX16C.s 			page 45


 1615              		.loc 1 385 8 view .LVU519
 1616 002c 0BB1     		cbz	r3, .L56
 386:modules/algorithm/kalman_filter.c **** 
 1617              		.loc 1 386 9 is_stmt 1 view .LVU520
 1618 002e 2046     		mov	r0, r4
 1619 0030 9847     		blx	r3
 1620              	.LVL145:
 1621              	.L56:
 388:modules/algorithm/kalman_filter.c ****     {
 1622              		.loc 1 388 5 view .LVU521
 388:modules/algorithm/kalman_filter.c ****     {
 1623              		.loc 1 388 11 is_stmt 0 view .LVU522
 1624 0032 237C     		ldrb	r3, [r4, #16]	@ zero_extendqisi2
 388:modules/algorithm/kalman_filter.c ****     {
 1625              		.loc 1 388 8 view .LVU523
 1626 0034 0BB9     		cbnz	r3, .L57
 388:modules/algorithm/kalman_filter.c ****     {
 1627              		.loc 1 388 43 discriminator 1 view .LVU524
 1628 0036 E37B     		ldrb	r3, [r4, #15]	@ zero_extendqisi2
 388:modules/algorithm/kalman_filter.c ****     {
 1629              		.loc 1 388 38 discriminator 1 view .LVU525
 1630 0038 CBB9     		cbnz	r3, .L58
 1631              	.L57:
 392:modules/algorithm/kalman_filter.c **** 
 1632              		.loc 1 392 9 is_stmt 1 view .LVU526
 1633 003a 2046     		mov	r0, r4
 1634 003c FFF7FEFF 		bl	Kalman_Filter_SetK
 1635              	.LVL146:
 394:modules/algorithm/kalman_filter.c ****             kf->User_Func3_f(kf);
 1636              		.loc 1 394 9 view .LVU527
 394:modules/algorithm/kalman_filter.c ****             kf->User_Func3_f(kf);
 1637              		.loc 1 394 15 is_stmt 0 view .LVU528
 1638 0040 D4F8D830 		ldr	r3, [r4, #216]
 394:modules/algorithm/kalman_filter.c ****             kf->User_Func3_f(kf);
 1639              		.loc 1 394 12 view .LVU529
 1640 0044 0BB1     		cbz	r3, .L59
 395:modules/algorithm/kalman_filter.c **** 
 1641              		.loc 1 395 13 is_stmt 1 view .LVU530
 1642 0046 2046     		mov	r0, r4
 1643 0048 9847     		blx	r3
 1644              	.LVL147:
 1645              	.L59:
 399:modules/algorithm/kalman_filter.c **** 
 1646              		.loc 1 399 9 view .LVU531
 1647 004a 2046     		mov	r0, r4
 1648 004c FFF7FEFF 		bl	Kalman_Filter_xhatUpdate
 1649              	.LVL148:
 401:modules/algorithm/kalman_filter.c ****             kf->User_Func4_f(kf);
 1650              		.loc 1 401 9 view .LVU532
 401:modules/algorithm/kalman_filter.c ****             kf->User_Func4_f(kf);
 1651              		.loc 1 401 15 is_stmt 0 view .LVU533
 1652 0050 D4F8DC30 		ldr	r3, [r4, #220]
 401:modules/algorithm/kalman_filter.c ****             kf->User_Func4_f(kf);
 1653              		.loc 1 401 12 view .LVU534
 1654 0054 0BB1     		cbz	r3, .L60
 402:modules/algorithm/kalman_filter.c **** 
 1655              		.loc 1 402 13 is_stmt 1 view .LVU535
ARM GAS  C:\Users\Administrator\AppData\Local\Temp\ccsFX16C.s 			page 46


 1656 0056 2046     		mov	r0, r4
 1657 0058 9847     		blx	r3
 1658              	.LVL149:
 1659              	.L60:
 406:modules/algorithm/kalman_filter.c ****     }
 1660              		.loc 1 406 9 view .LVU536
 1661 005a 2046     		mov	r0, r4
 1662 005c FFF7FEFF 		bl	Kalman_Filter_P_Update
 1663              	.LVL150:
 1664              	.L61:
 418:modules/algorithm/kalman_filter.c ****         kf->User_Func5_f(kf);
 1665              		.loc 1 418 5 view .LVU537
 418:modules/algorithm/kalman_filter.c ****         kf->User_Func5_f(kf);
 1666              		.loc 1 418 11 is_stmt 0 view .LVU538
 1667 0060 D4F8E030 		ldr	r3, [r4, #224]
 418:modules/algorithm/kalman_filter.c ****         kf->User_Func5_f(kf);
 1668              		.loc 1 418 8 view .LVU539
 1669 0064 0BB1     		cbz	r3, .L62
 419:modules/algorithm/kalman_filter.c **** 
 1670              		.loc 1 419 9 is_stmt 1 view .LVU540
 1671 0066 2046     		mov	r0, r4
 1672 0068 9847     		blx	r3
 1673              	.LVL151:
 1674              	.L62:
 370:modules/algorithm/kalman_filter.c ****     // 0. èژ·هڈ–é‡ڈوµ‹ن؟،وپ¯
 1675              		.loc 1 370 1 is_stmt 0 view .LVU541
 1676 006a 0023     		movs	r3, #0
 1677 006c 19E0     		b	.L65
 1678              	.L58:
 413:modules/algorithm/kalman_filter.c ****         memcpy(kf->P_data, kf->Pminus_data, sizeof_float * kf->xhatSize * kf->xhatSize);
 1679              		.loc 1 413 9 is_stmt 1 view .LVU542
 413:modules/algorithm/kalman_filter.c ****         memcpy(kf->P_data, kf->Pminus_data, sizeof_float * kf->xhatSize * kf->xhatSize);
 1680              		.loc 1 413 68 is_stmt 0 view .LVU543
 1681 006e 227B     		ldrb	r2, [r4, #12]	@ zero_extendqisi2
 413:modules/algorithm/kalman_filter.c ****         memcpy(kf->P_data, kf->Pminus_data, sizeof_float * kf->xhatSize * kf->xhatSize);
 1682              		.loc 1 413 64 view .LVU544
 1683 0070 204D     		ldr	r5, .L71
 1684 0072 2B88     		ldrh	r3, [r5]
 413:modules/algorithm/kalman_filter.c ****         memcpy(kf->P_data, kf->Pminus_data, sizeof_float * kf->xhatSize * kf->xhatSize);
 1685              		.loc 1 413 9 view .LVU545
 1686 0074 03FB02F2 		mul	r2, r3, r2
 1687 0078 D4F8EC10 		ldr	r1, [r4, #236]
 1688 007c D4F8E800 		ldr	r0, [r4, #232]
 1689 0080 FFF7FEFF 		bl	memcpy
 1690              	.LVL152:
 414:modules/algorithm/kalman_filter.c ****     }
 1691              		.loc 1 414 9 is_stmt 1 view .LVU546
 414:modules/algorithm/kalman_filter.c ****     }
 1692              		.loc 1 414 62 is_stmt 0 view .LVU547
 1693 0084 227B     		ldrb	r2, [r4, #12]	@ zero_extendqisi2
 414:modules/algorithm/kalman_filter.c ****     }
 1694              		.loc 1 414 58 view .LVU548
 1695 0086 2B88     		ldrh	r3, [r5]
 1696 0088 02FB03F3 		mul	r3, r2, r3
 414:modules/algorithm/kalman_filter.c ****     }
 1697              		.loc 1 414 9 view .LVU549
 1698 008c 03FB02F2 		mul	r2, r3, r2
ARM GAS  C:\Users\Administrator\AppData\Local\Temp\ccsFX16C.s 			page 47


 1699 0090 D4F8FC10 		ldr	r1, [r4, #252]
 1700 0094 D4F8F800 		ldr	r0, [r4, #248]
 1701 0098 FFF7FEFF 		bl	memcpy
 1702              	.LVL153:
 1703 009c E0E7     		b	.L61
 1704              	.LVL154:
 1705              	.L63:
 1706              	.LBB4:
 423:modules/algorithm/kalman_filter.c ****     {
 1707              		.loc 1 423 43 is_stmt 1 discriminator 2 view .LVU550
 1708 009e 0133     		adds	r3, r3, #1
 1709              	.LVL155:
 423:modules/algorithm/kalman_filter.c ****     {
 1710              		.loc 1 423 43 is_stmt 0 discriminator 2 view .LVU551
 1711 00a0 DBB2     		uxtb	r3, r3
 1712              	.LVL156:
 1713              	.L65:
 423:modules/algorithm/kalman_filter.c ****     {
 1714              		.loc 1 423 27 is_stmt 1 discriminator 1 view .LVU552
 423:modules/algorithm/kalman_filter.c ****     {
 1715              		.loc 1 423 31 is_stmt 0 discriminator 1 view .LVU553
 1716 00a2 227B     		ldrb	r2, [r4, #12]	@ zero_extendqisi2
 423:modules/algorithm/kalman_filter.c ****     {
 1717              		.loc 1 423 27 discriminator 1 view .LVU554
 1718 00a4 9A42     		cmp	r2, r3
 1719 00a6 14D9     		bls	.L70
 425:modules/algorithm/kalman_filter.c ****             kf->P_data[i * kf->xhatSize + i] = kf->StateMinVariance[i];
 1720              		.loc 1 425 9 is_stmt 1 view .LVU555
 425:modules/algorithm/kalman_filter.c ****             kf->P_data[i * kf->xhatSize + i] = kf->StateMinVariance[i];
 1721              		.loc 1 425 15 is_stmt 0 view .LVU556
 1722 00a8 D4F8F810 		ldr	r1, [r4, #248]
 425:modules/algorithm/kalman_filter.c ****             kf->P_data[i * kf->xhatSize + i] = kf->StateMinVariance[i];
 1723              		.loc 1 425 41 view .LVU557
 1724 00ac 02FB0332 		mla	r2, r2, r3, r3
 425:modules/algorithm/kalman_filter.c ****             kf->P_data[i * kf->xhatSize + i] = kf->StateMinVariance[i];
 1725              		.loc 1 425 23 view .LVU558
 1726 00b0 01EB8202 		add	r2, r1, r2, lsl #2
 1727 00b4 92ED007A 		vldr.32	s14, [r2]
 425:modules/algorithm/kalman_filter.c ****             kf->P_data[i * kf->xhatSize + i] = kf->StateMinVariance[i];
 1728              		.loc 1 425 50 view .LVU559
 1729 00b8 216A     		ldr	r1, [r4, #32]
 425:modules/algorithm/kalman_filter.c ****             kf->P_data[i * kf->xhatSize + i] = kf->StateMinVariance[i];
 1730              		.loc 1 425 68 view .LVU560
 1731 00ba 01EB8301 		add	r1, r1, r3, lsl #2
 1732 00be D1ED007A 		vldr.32	s15, [r1]
 425:modules/algorithm/kalman_filter.c ****             kf->P_data[i * kf->xhatSize + i] = kf->StateMinVariance[i];
 1733              		.loc 1 425 12 view .LVU561
 1734 00c2 B4EEE77A 		vcmpe.f32	s14, s15
 1735 00c6 F1EE10FA 		vmrs	APSR_nzcv, FPSCR
 1736 00ca E8D5     		bpl	.L63
 426:modules/algorithm/kalman_filter.c ****     }
 1737              		.loc 1 426 13 is_stmt 1 view .LVU562
 426:modules/algorithm/kalman_filter.c ****     }
 1738              		.loc 1 426 46 is_stmt 0 view .LVU563
 1739 00cc C2ED007A 		vstr.32	s15, [r2]
 1740 00d0 E5E7     		b	.L63
 1741              	.L70:
ARM GAS  C:\Users\Administrator\AppData\Local\Temp\ccsFX16C.s 			page 48


 1742              	.LBE4:
 429:modules/algorithm/kalman_filter.c **** 
 1743              		.loc 1 429 5 is_stmt 1 view .LVU564
 429:modules/algorithm/kalman_filter.c **** 
 1744              		.loc 1 429 59 is_stmt 0 view .LVU565
 1745 00d2 084B     		ldr	r3, .L71
 1746              	.LVL157:
 429:modules/algorithm/kalman_filter.c **** 
 1747              		.loc 1 429 59 view .LVU566
 1748 00d4 1B88     		ldrh	r3, [r3]
 429:modules/algorithm/kalman_filter.c **** 
 1749              		.loc 1 429 5 view .LVU567
 1750 00d6 03FB02F2 		mul	r2, r3, r2
 1751 00da D4F8E810 		ldr	r1, [r4, #232]
 1752 00de 2068     		ldr	r0, [r4]
 1753 00e0 FFF7FEFF 		bl	memcpy
 1754              	.LVL158:
 431:modules/algorithm/kalman_filter.c ****         kf->User_Func6_f(kf);
 1755              		.loc 1 431 5 is_stmt 1 view .LVU568
 431:modules/algorithm/kalman_filter.c ****         kf->User_Func6_f(kf);
 1756              		.loc 1 431 11 is_stmt 0 view .LVU569
 1757 00e4 D4F8E430 		ldr	r3, [r4, #228]
 431:modules/algorithm/kalman_filter.c ****         kf->User_Func6_f(kf);
 1758              		.loc 1 431 8 view .LVU570
 1759 00e8 0BB1     		cbz	r3, .L67
 432:modules/algorithm/kalman_filter.c **** 
 1760              		.loc 1 432 9 is_stmt 1 view .LVU571
 1761 00ea 2046     		mov	r0, r4
 1762 00ec 9847     		blx	r3
 1763              	.LVL159:
 1764              	.L67:
 434:modules/algorithm/kalman_filter.c **** }
 1765              		.loc 1 434 5 view .LVU572
 435:modules/algorithm/kalman_filter.c **** 
 1766              		.loc 1 435 1 is_stmt 0 view .LVU573
 1767 00ee 2068     		ldr	r0, [r4]
 1768 00f0 38BD     		pop	{r3, r4, r5, pc}
 1769              	.LVL160:
 1770              	.L72:
 435:modules/algorithm/kalman_filter.c **** 
 1771              		.loc 1 435 1 view .LVU574
 1772 00f2 00BF     		.align	2
 1773              	.L71:
 1774 00f4 00000000 		.word	sizeof_float
 1775              		.cfi_endproc
 1776              	.LFE170:
 1778              		.global	sizeof_double
 1779              		.section	.bss.sizeof_double,"aw",%nobits
 1780              		.align	1
 1783              	sizeof_double:
 1784 0000 0000     		.space	2
 1785              		.global	sizeof_float
 1786              		.section	.bss.sizeof_float,"aw",%nobits
 1787              		.align	1
 1790              	sizeof_float:
 1791 0000 0000     		.space	2
 1792              		.text
ARM GAS  C:\Users\Administrator\AppData\Local\Temp\ccsFX16C.s 			page 49


 1793              	.Letext0:
 1794              		.file 2 "C:/Users/Administrator/AppData/Roaming/Code/User/globalStorage/bmd.stm32-for-vscode/@xpac
 1795              		.file 3 "C:/Users/Administrator/AppData/Roaming/Code/User/globalStorage/bmd.stm32-for-vscode/@xpac
 1796              		.file 4 "Middlewares/ST/ARM/DSP/Inc/arm_math.h"
 1797              		.file 5 "modules/algorithm/kalman_filter.h"
 1798              		.file 6 "C:/Users/Administrator/AppData/Roaming/Code/User/globalStorage/bmd.stm32-for-vscode/@xpac
 1799              		.file 7 "C:/Users/Administrator/AppData/Roaming/Code/User/globalStorage/bmd.stm32-for-vscode/@xpac
 1800              		.file 8 "<built-in>"
ARM GAS  C:\Users\Administrator\AppData\Local\Temp\ccsFX16C.s 			page 50

