ARM GAS  C:\Users\Administrator\AppData\Local\Temp\cc9MOR3I.s 			page 1


   1              		.cpu cortex-m4
   2              		.arch armv7e-m
   3              		.fpu fpv4-sp-d16
   4              		.eabi_attribute 27, 1
   5              		.eabi_attribute 28, 1
   6              		.eabi_attribute 20, 1
   7              		.eabi_attribute 21, 1
   8              		.eabi_attribute 23, 3
   9              		.eabi_attribute 24, 1
  10              		.eabi_attribute 25, 1
  11              		.eabi_attribute 26, 1
  12              		.eabi_attribute 30, 1
  13              		.eabi_attribute 34, 1
  14              		.eabi_attribute 18, 4
  15              		.file	"rtc.c"
  16              		.text
  17              	.Ltext0:
  18              		.cfi_sections	.debug_frame
  19              		.file 1 "Src/rtc.c"
  20              		.section	.text.MX_RTC_Init,"ax",%progbits
  21              		.align	1
  22              		.global	MX_RTC_Init
  23              		.syntax unified
  24              		.thumb
  25              		.thumb_func
  27              	MX_RTC_Init:
  28              	.LFB235:
   1:Src/rtc.c     **** /* USER CODE BEGIN Header */
   2:Src/rtc.c     **** /**
   3:Src/rtc.c     ****   ******************************************************************************
   4:Src/rtc.c     ****   * @file    rtc.c
   5:Src/rtc.c     ****   * @brief   This file provides code for the configuration
   6:Src/rtc.c     ****   *          of the RTC instances.
   7:Src/rtc.c     ****   ******************************************************************************
   8:Src/rtc.c     ****   * @attention
   9:Src/rtc.c     ****   *
  10:Src/rtc.c     ****   * Copyright (c) 2023 STMicroelectronics.
  11:Src/rtc.c     ****   * All rights reserved.
  12:Src/rtc.c     ****   *
  13:Src/rtc.c     ****   * This software is licensed under terms that can be found in the LICENSE file
  14:Src/rtc.c     ****   * in the root directory of this software component.
  15:Src/rtc.c     ****   * If no LICENSE file comes with this software, it is provided AS-IS.
  16:Src/rtc.c     ****   *
  17:Src/rtc.c     ****   ******************************************************************************
  18:Src/rtc.c     ****   */
  19:Src/rtc.c     **** /* USER CODE END Header */
  20:Src/rtc.c     **** /* Includes ------------------------------------------------------------------*/
  21:Src/rtc.c     **** #include "rtc.h"
  22:Src/rtc.c     **** 
  23:Src/rtc.c     **** /* USER CODE BEGIN 0 */
  24:Src/rtc.c     **** 
  25:Src/rtc.c     **** /* USER CODE END 0 */
  26:Src/rtc.c     **** 
  27:Src/rtc.c     **** RTC_HandleTypeDef hrtc;
  28:Src/rtc.c     **** 
  29:Src/rtc.c     **** /* RTC init function */
  30:Src/rtc.c     **** void MX_RTC_Init(void)
ARM GAS  C:\Users\Administrator\AppData\Local\Temp\cc9MOR3I.s 			page 2


  31:Src/rtc.c     **** {
  29              		.loc 1 31 1 view -0
  30              		.cfi_startproc
  31              		@ args = 0, pretend = 0, frame = 0
  32              		@ frame_needed = 0, uses_anonymous_args = 0
  33 0000 08B5     		push	{r3, lr}
  34              		.cfi_def_cfa_offset 8
  35              		.cfi_offset 3, -8
  36              		.cfi_offset 14, -4
  32:Src/rtc.c     **** 
  33:Src/rtc.c     ****   /* USER CODE BEGIN RTC_Init 0 */
  34:Src/rtc.c     **** 
  35:Src/rtc.c     ****   /* USER CODE END RTC_Init 0 */
  36:Src/rtc.c     **** 
  37:Src/rtc.c     ****   /* USER CODE BEGIN RTC_Init 1 */
  38:Src/rtc.c     **** 
  39:Src/rtc.c     ****   /* USER CODE END RTC_Init 1 */
  40:Src/rtc.c     **** 
  41:Src/rtc.c     ****   /** Initialize RTC Only
  42:Src/rtc.c     ****   */
  43:Src/rtc.c     ****   hrtc.Instance = RTC;
  37              		.loc 1 43 3 view .LVU1
  38              		.loc 1 43 17 is_stmt 0 view .LVU2
  39 0002 0A48     		ldr	r0, .L5
  40 0004 0A4B     		ldr	r3, .L5+4
  41 0006 0360     		str	r3, [r0]
  44:Src/rtc.c     ****   hrtc.Init.HourFormat = RTC_HOURFORMAT_24;
  42              		.loc 1 44 3 is_stmt 1 view .LVU3
  43              		.loc 1 44 24 is_stmt 0 view .LVU4
  44 0008 0023     		movs	r3, #0
  45 000a 4360     		str	r3, [r0, #4]
  45:Src/rtc.c     ****   hrtc.Init.AsynchPrediv = 124;
  46              		.loc 1 45 3 is_stmt 1 view .LVU5
  47              		.loc 1 45 26 is_stmt 0 view .LVU6
  48 000c 7C22     		movs	r2, #124
  49 000e 8260     		str	r2, [r0, #8]
  46:Src/rtc.c     ****   hrtc.Init.SynchPrediv = 3199;
  50              		.loc 1 46 3 is_stmt 1 view .LVU7
  51              		.loc 1 46 25 is_stmt 0 view .LVU8
  52 0010 40F67F42 		movw	r2, #3199
  53 0014 C260     		str	r2, [r0, #12]
  47:Src/rtc.c     ****   hrtc.Init.OutPut = RTC_OUTPUT_DISABLE;
  54              		.loc 1 47 3 is_stmt 1 view .LVU9
  55              		.loc 1 47 20 is_stmt 0 view .LVU10
  56 0016 0361     		str	r3, [r0, #16]
  48:Src/rtc.c     ****   hrtc.Init.OutPutPolarity = RTC_OUTPUT_POLARITY_HIGH;
  57              		.loc 1 48 3 is_stmt 1 view .LVU11
  58              		.loc 1 48 28 is_stmt 0 view .LVU12
  59 0018 4361     		str	r3, [r0, #20]
  49:Src/rtc.c     ****   hrtc.Init.OutPutType = RTC_OUTPUT_TYPE_OPENDRAIN;
  60              		.loc 1 49 3 is_stmt 1 view .LVU13
  61              		.loc 1 49 24 is_stmt 0 view .LVU14
  62 001a 8361     		str	r3, [r0, #24]
  50:Src/rtc.c     ****   if (HAL_RTC_Init(&hrtc) != HAL_OK)
  63              		.loc 1 50 3 is_stmt 1 view .LVU15
  64              		.loc 1 50 7 is_stmt 0 view .LVU16
  65 001c FFF7FEFF 		bl	HAL_RTC_Init
ARM GAS  C:\Users\Administrator\AppData\Local\Temp\cc9MOR3I.s 			page 3


  66              	.LVL0:
  67              		.loc 1 50 6 discriminator 1 view .LVU17
  68 0020 00B9     		cbnz	r0, .L4
  69              	.L1:
  51:Src/rtc.c     ****   {
  52:Src/rtc.c     ****     Error_Handler();
  53:Src/rtc.c     ****   }
  54:Src/rtc.c     ****   /* USER CODE BEGIN RTC_Init 2 */
  55:Src/rtc.c     **** 
  56:Src/rtc.c     ****   /* USER CODE END RTC_Init 2 */
  57:Src/rtc.c     **** 
  58:Src/rtc.c     **** }
  70              		.loc 1 58 1 view .LVU18
  71 0022 08BD     		pop	{r3, pc}
  72              	.L4:
  52:Src/rtc.c     ****   }
  73              		.loc 1 52 5 is_stmt 1 view .LVU19
  74 0024 FFF7FEFF 		bl	Error_Handler
  75              	.LVL1:
  76              		.loc 1 58 1 is_stmt 0 view .LVU20
  77 0028 FBE7     		b	.L1
  78              	.L6:
  79 002a 00BF     		.align	2
  80              	.L5:
  81 002c 00000000 		.word	hrtc
  82 0030 00280040 		.word	1073752064
  83              		.cfi_endproc
  84              	.LFE235:
  86              		.section	.text.HAL_RTC_MspInit,"ax",%progbits
  87              		.align	1
  88              		.global	HAL_RTC_MspInit
  89              		.syntax unified
  90              		.thumb
  91              		.thumb_func
  93              	HAL_RTC_MspInit:
  94              	.LVL2:
  95              	.LFB236:
  59:Src/rtc.c     **** 
  60:Src/rtc.c     **** void HAL_RTC_MspInit(RTC_HandleTypeDef* rtcHandle)
  61:Src/rtc.c     **** {
  96              		.loc 1 61 1 is_stmt 1 view -0
  97              		.cfi_startproc
  98              		@ args = 0, pretend = 0, frame = 16
  99              		@ frame_needed = 0, uses_anonymous_args = 0
 100              		.loc 1 61 1 is_stmt 0 view .LVU22
 101 0000 00B5     		push	{lr}
 102              		.cfi_def_cfa_offset 4
 103              		.cfi_offset 14, -4
 104 0002 85B0     		sub	sp, sp, #20
 105              		.cfi_def_cfa_offset 24
  62:Src/rtc.c     **** 
  63:Src/rtc.c     ****   RCC_PeriphCLKInitTypeDef PeriphClkInitStruct = {0};
 106              		.loc 1 63 3 is_stmt 1 view .LVU23
 107              		.loc 1 63 28 is_stmt 0 view .LVU24
 108 0004 0023     		movs	r3, #0
 109 0006 0093     		str	r3, [sp]
 110 0008 0193     		str	r3, [sp, #4]
ARM GAS  C:\Users\Administrator\AppData\Local\Temp\cc9MOR3I.s 			page 4


 111 000a 0293     		str	r3, [sp, #8]
 112 000c 0393     		str	r3, [sp, #12]
  64:Src/rtc.c     ****   if(rtcHandle->Instance==RTC)
 113              		.loc 1 64 3 is_stmt 1 view .LVU25
 114              		.loc 1 64 15 is_stmt 0 view .LVU26
 115 000e 0268     		ldr	r2, [r0]
 116              		.loc 1 64 5 view .LVU27
 117 0010 0A4B     		ldr	r3, .L13
 118 0012 9A42     		cmp	r2, r3
 119 0014 01D0     		beq	.L11
 120              	.LVL3:
 121              	.L7:
  65:Src/rtc.c     ****   {
  66:Src/rtc.c     ****   /* USER CODE BEGIN RTC_MspInit 0 */
  67:Src/rtc.c     **** 
  68:Src/rtc.c     ****   /* USER CODE END RTC_MspInit 0 */
  69:Src/rtc.c     **** 
  70:Src/rtc.c     ****   /** Initializes the peripherals clock
  71:Src/rtc.c     ****   */
  72:Src/rtc.c     ****     PeriphClkInitStruct.PeriphClockSelection = RCC_PERIPHCLK_RTC;
  73:Src/rtc.c     ****     PeriphClkInitStruct.RTCClockSelection = RCC_RTCCLKSOURCE_HSE_DIV30;
  74:Src/rtc.c     ****     if (HAL_RCCEx_PeriphCLKConfig(&PeriphClkInitStruct) != HAL_OK)
  75:Src/rtc.c     ****     {
  76:Src/rtc.c     ****       Error_Handler();
  77:Src/rtc.c     ****     }
  78:Src/rtc.c     **** 
  79:Src/rtc.c     ****     /* RTC clock enable */
  80:Src/rtc.c     ****     __HAL_RCC_RTC_ENABLE();
  81:Src/rtc.c     ****   /* USER CODE BEGIN RTC_MspInit 1 */
  82:Src/rtc.c     **** 
  83:Src/rtc.c     ****   /* USER CODE END RTC_MspInit 1 */
  84:Src/rtc.c     ****   }
  85:Src/rtc.c     **** }
 122              		.loc 1 85 1 view .LVU28
 123 0016 05B0     		add	sp, sp, #20
 124              		.cfi_remember_state
 125              		.cfi_def_cfa_offset 4
 126              		@ sp needed
 127 0018 00BD     		pop	{pc}
 128              	.LVL4:
 129              	.L11:
 130              		.cfi_restore_state
  72:Src/rtc.c     ****     PeriphClkInitStruct.RTCClockSelection = RCC_RTCCLKSOURCE_HSE_DIV30;
 131              		.loc 1 72 5 is_stmt 1 view .LVU29
  72:Src/rtc.c     ****     PeriphClkInitStruct.RTCClockSelection = RCC_RTCCLKSOURCE_HSE_DIV30;
 132              		.loc 1 72 46 is_stmt 0 view .LVU30
 133 001a 0223     		movs	r3, #2
 134 001c 0093     		str	r3, [sp]
  73:Src/rtc.c     ****     if (HAL_RCCEx_PeriphCLKConfig(&PeriphClkInitStruct) != HAL_OK)
 135              		.loc 1 73 5 is_stmt 1 view .LVU31
  73:Src/rtc.c     ****     if (HAL_RCCEx_PeriphCLKConfig(&PeriphClkInitStruct) != HAL_OK)
 136              		.loc 1 73 43 is_stmt 0 view .LVU32
 137 001e 084B     		ldr	r3, .L13+4
 138 0020 0393     		str	r3, [sp, #12]
  74:Src/rtc.c     ****     {
 139              		.loc 1 74 5 is_stmt 1 view .LVU33
  74:Src/rtc.c     ****     {
ARM GAS  C:\Users\Administrator\AppData\Local\Temp\cc9MOR3I.s 			page 5


 140              		.loc 1 74 9 is_stmt 0 view .LVU34
 141 0022 6846     		mov	r0, sp
 142              	.LVL5:
  74:Src/rtc.c     ****     {
 143              		.loc 1 74 9 view .LVU35
 144 0024 FFF7FEFF 		bl	HAL_RCCEx_PeriphCLKConfig
 145              	.LVL6:
  74:Src/rtc.c     ****     {
 146              		.loc 1 74 8 discriminator 1 view .LVU36
 147 0028 20B9     		cbnz	r0, .L12
 148              	.L9:
  80:Src/rtc.c     ****   /* USER CODE BEGIN RTC_MspInit 1 */
 149              		.loc 1 80 5 is_stmt 1 view .LVU37
 150 002a 064B     		ldr	r3, .L13+8
 151 002c 0122     		movs	r2, #1
 152 002e C3F83C2E 		str	r2, [r3, #3644]
 153              		.loc 1 85 1 is_stmt 0 view .LVU38
 154 0032 F0E7     		b	.L7
 155              	.L12:
  76:Src/rtc.c     ****     }
 156              		.loc 1 76 7 is_stmt 1 view .LVU39
 157 0034 FFF7FEFF 		bl	Error_Handler
 158              	.LVL7:
 159 0038 F7E7     		b	.L9
 160              	.L14:
 161 003a 00BF     		.align	2
 162              	.L13:
 163 003c 00280040 		.word	1073752064
 164 0040 00031E00 		.word	1966848
 165 0044 00004742 		.word	1111949312
 166              		.cfi_endproc
 167              	.LFE236:
 169              		.section	.text.HAL_RTC_MspDeInit,"ax",%progbits
 170              		.align	1
 171              		.global	HAL_RTC_MspDeInit
 172              		.syntax unified
 173              		.thumb
 174              		.thumb_func
 176              	HAL_RTC_MspDeInit:
 177              	.LVL8:
 178              	.LFB237:
  86:Src/rtc.c     **** 
  87:Src/rtc.c     **** void HAL_RTC_MspDeInit(RTC_HandleTypeDef* rtcHandle)
  88:Src/rtc.c     **** {
 179              		.loc 1 88 1 view -0
 180              		.cfi_startproc
 181              		@ args = 0, pretend = 0, frame = 0
 182              		@ frame_needed = 0, uses_anonymous_args = 0
 183              		@ link register save eliminated.
  89:Src/rtc.c     **** 
  90:Src/rtc.c     ****   if(rtcHandle->Instance==RTC)
 184              		.loc 1 90 3 view .LVU41
 185              		.loc 1 90 15 is_stmt 0 view .LVU42
 186 0000 0268     		ldr	r2, [r0]
 187              		.loc 1 90 5 view .LVU43
 188 0002 044B     		ldr	r3, .L18
 189 0004 9A42     		cmp	r2, r3
ARM GAS  C:\Users\Administrator\AppData\Local\Temp\cc9MOR3I.s 			page 6


 190 0006 00D0     		beq	.L17
 191              	.L15:
  91:Src/rtc.c     ****   {
  92:Src/rtc.c     ****   /* USER CODE BEGIN RTC_MspDeInit 0 */
  93:Src/rtc.c     **** 
  94:Src/rtc.c     ****   /* USER CODE END RTC_MspDeInit 0 */
  95:Src/rtc.c     ****     /* Peripheral clock disable */
  96:Src/rtc.c     ****     __HAL_RCC_RTC_DISABLE();
  97:Src/rtc.c     ****   /* USER CODE BEGIN RTC_MspDeInit 1 */
  98:Src/rtc.c     **** 
  99:Src/rtc.c     ****   /* USER CODE END RTC_MspDeInit 1 */
 100:Src/rtc.c     ****   }
 101:Src/rtc.c     **** }
 192              		.loc 1 101 1 view .LVU44
 193 0008 7047     		bx	lr
 194              	.L17:
  96:Src/rtc.c     ****   /* USER CODE BEGIN RTC_MspDeInit 1 */
 195              		.loc 1 96 5 is_stmt 1 view .LVU45
 196 000a 034B     		ldr	r3, .L18+4
 197 000c 0022     		movs	r2, #0
 198 000e C3F83C2E 		str	r2, [r3, #3644]
 199              		.loc 1 101 1 is_stmt 0 view .LVU46
 200 0012 F9E7     		b	.L15
 201              	.L19:
 202              		.align	2
 203              	.L18:
 204 0014 00280040 		.word	1073752064
 205 0018 00004742 		.word	1111949312
 206              		.cfi_endproc
 207              	.LFE237:
 209              		.global	hrtc
 210              		.section	.bss.hrtc,"aw",%nobits
 211              		.align	2
 214              	hrtc:
 215 0000 00000000 		.space	32
 215      00000000 
 215      00000000 
 215      00000000 
 215      00000000 
 216              		.text
 217              	.Letext0:
 218              		.file 2 "C:/Users/Administrator/AppData/Roaming/Code/User/globalStorage/bmd.stm32-for-vscode/@xpac
 219              		.file 3 "C:/Users/Administrator/AppData/Roaming/Code/User/globalStorage/bmd.stm32-for-vscode/@xpac
 220              		.file 4 "Drivers/CMSIS/Device/ST/STM32F4xx/Include/stm32f407xx.h"
 221              		.file 5 "Drivers/CMSIS/Device/ST/STM32F4xx/Include/stm32f4xx.h"
 222              		.file 6 "Drivers/STM32F4xx_HAL_Driver/Inc/stm32f4xx_hal_def.h"
 223              		.file 7 "Drivers/STM32F4xx_HAL_Driver/Inc/stm32f4xx_hal_rcc_ex.h"
 224              		.file 8 "Drivers/STM32F4xx_HAL_Driver/Inc/stm32f4xx_hal_rtc.h"
 225              		.file 9 "Inc/rtc.h"
 226              		.file 10 "Inc/main.h"
ARM GAS  C:\Users\Administrator\AppData\Local\Temp\cc9MOR3I.s 			page 7

