ARM GAS  C:\Users\Administrator\AppData\Local\Temp\ccUGyMKj.s 			page 1


   1              		.cpu cortex-m4
   2              		.arch armv7e-m
   3              		.fpu fpv4-sp-d16
   4              		.eabi_attribute 27, 1
   5              		.eabi_attribute 28, 1
   6              		.eabi_attribute 20, 1
   7              		.eabi_attribute 21, 1
   8              		.eabi_attribute 23, 3
   9              		.eabi_attribute 24, 1
  10              		.eabi_attribute 25, 1
  11              		.eabi_attribute 26, 1
  12              		.eabi_attribute 30, 1
  13              		.eabi_attribute 34, 1
  14              		.eabi_attribute 18, 4
  15              		.file	"SEGGER_RTT.c"
  16              		.text
  17              	.Ltext0:
  18              		.cfi_sections	.debug_frame
  19              		.file 1 "Middlewares/Third_Party/SEGGER/RTT/SEGGER_RTT.c"
  20              		.section	.text._GetAvailWriteSpace,"ax",%progbits
  21              		.align	1
  22              		.syntax unified
  23              		.thumb
  24              		.thumb_func
  26              	_GetAvailWriteSpace:
  27              	.LVL0:
  28              	.LFB4:
   1:Middlewares/Third_Party/SEGGER/RTT/SEGGER_RTT.c **** /*********************************************************************
   2:Middlewares/Third_Party/SEGGER/RTT/SEGGER_RTT.c **** *                    SEGGER Microcontroller GmbH                     *
   3:Middlewares/Third_Party/SEGGER/RTT/SEGGER_RTT.c **** *                        The Embedded Experts                        *
   4:Middlewares/Third_Party/SEGGER/RTT/SEGGER_RTT.c **** **********************************************************************
   5:Middlewares/Third_Party/SEGGER/RTT/SEGGER_RTT.c **** *                                                                    *
   6:Middlewares/Third_Party/SEGGER/RTT/SEGGER_RTT.c **** *            (c) 1995 - 2021 SEGGER Microcontroller GmbH             *
   7:Middlewares/Third_Party/SEGGER/RTT/SEGGER_RTT.c **** *                                                                    *
   8:Middlewares/Third_Party/SEGGER/RTT/SEGGER_RTT.c **** *       www.segger.com     Support: support@segger.com               *
   9:Middlewares/Third_Party/SEGGER/RTT/SEGGER_RTT.c **** *                                                                    *
  10:Middlewares/Third_Party/SEGGER/RTT/SEGGER_RTT.c **** **********************************************************************
  11:Middlewares/Third_Party/SEGGER/RTT/SEGGER_RTT.c **** *                                                                    *
  12:Middlewares/Third_Party/SEGGER/RTT/SEGGER_RTT.c **** *       SEGGER RTT * Real Time Transfer for embedded targets         *
  13:Middlewares/Third_Party/SEGGER/RTT/SEGGER_RTT.c **** *                                                                    *
  14:Middlewares/Third_Party/SEGGER/RTT/SEGGER_RTT.c **** **********************************************************************
  15:Middlewares/Third_Party/SEGGER/RTT/SEGGER_RTT.c **** *                                                                    *
  16:Middlewares/Third_Party/SEGGER/RTT/SEGGER_RTT.c **** * All rights reserved.                                               *
  17:Middlewares/Third_Party/SEGGER/RTT/SEGGER_RTT.c **** *                                                                    *
  18:Middlewares/Third_Party/SEGGER/RTT/SEGGER_RTT.c **** * SEGGER strongly recommends to not make any changes                 *
  19:Middlewares/Third_Party/SEGGER/RTT/SEGGER_RTT.c **** * to or modify the source code of this software in order to stay     *
  20:Middlewares/Third_Party/SEGGER/RTT/SEGGER_RTT.c **** * compatible with the RTT protocol and J-Link.                       *
  21:Middlewares/Third_Party/SEGGER/RTT/SEGGER_RTT.c **** *                                                                    *
  22:Middlewares/Third_Party/SEGGER/RTT/SEGGER_RTT.c **** * Redistribution and use in source and binary forms, with or         *
  23:Middlewares/Third_Party/SEGGER/RTT/SEGGER_RTT.c **** * without modification, are permitted provided that the following    *
  24:Middlewares/Third_Party/SEGGER/RTT/SEGGER_RTT.c **** * condition is met:                                                  *
  25:Middlewares/Third_Party/SEGGER/RTT/SEGGER_RTT.c **** *                                                                    *
  26:Middlewares/Third_Party/SEGGER/RTT/SEGGER_RTT.c **** * o Redistributions of source code must retain the above copyright   *
  27:Middlewares/Third_Party/SEGGER/RTT/SEGGER_RTT.c **** *   notice, this condition and the following disclaimer.             *
  28:Middlewares/Third_Party/SEGGER/RTT/SEGGER_RTT.c **** *                                                                    *
  29:Middlewares/Third_Party/SEGGER/RTT/SEGGER_RTT.c **** * THIS SOFTWARE IS PROVIDED BY THE COPYRIGHT HOLDERS AND             *
  30:Middlewares/Third_Party/SEGGER/RTT/SEGGER_RTT.c **** * CONTRIBUTORS "AS IS" AND ANY EXPRESS OR IMPLIED WARRANTIES,        *
ARM GAS  C:\Users\Administrator\AppData\Local\Temp\ccUGyMKj.s 			page 2


  31:Middlewares/Third_Party/SEGGER/RTT/SEGGER_RTT.c **** * INCLUDING, BUT NOT LIMITED TO, THE IMPLIED WARRANTIES OF           *
  32:Middlewares/Third_Party/SEGGER/RTT/SEGGER_RTT.c **** * MERCHANTABILITY AND FITNESS FOR A PARTICULAR PURPOSE ARE           *
  33:Middlewares/Third_Party/SEGGER/RTT/SEGGER_RTT.c **** * DISCLAIMED. IN NO EVENT SHALL SEGGER Microcontroller BE LIABLE FOR *
  34:Middlewares/Third_Party/SEGGER/RTT/SEGGER_RTT.c **** * ANY DIRECT, INDIRECT, INCIDENTAL, SPECIAL, EXEMPLARY, OR           *
  35:Middlewares/Third_Party/SEGGER/RTT/SEGGER_RTT.c **** * CONSEQUENTIAL DAMAGES (INCLUDING, BUT NOT LIMITED TO, PROCUREMENT  *
  36:Middlewares/Third_Party/SEGGER/RTT/SEGGER_RTT.c **** * OF SUBSTITUTE GOODS OR SERVICES; LOSS OF USE, DATA, OR PROFITS;    *
  37:Middlewares/Third_Party/SEGGER/RTT/SEGGER_RTT.c **** * OR BUSINESS INTERRUPTION) HOWEVER CAUSED AND ON ANY THEORY OF      *
  38:Middlewares/Third_Party/SEGGER/RTT/SEGGER_RTT.c **** * LIABILITY, WHETHER IN CONTRACT, STRICT LIABILITY, OR TORT          *
  39:Middlewares/Third_Party/SEGGER/RTT/SEGGER_RTT.c **** * (INCLUDING NEGLIGENCE OR OTHERWISE) ARISING IN ANY WAY OUT OF THE  *
  40:Middlewares/Third_Party/SEGGER/RTT/SEGGER_RTT.c **** * USE OF THIS SOFTWARE, EVEN IF ADVISED OF THE POSSIBILITY OF SUCH   *
  41:Middlewares/Third_Party/SEGGER/RTT/SEGGER_RTT.c **** * DAMAGE.                                                            *
  42:Middlewares/Third_Party/SEGGER/RTT/SEGGER_RTT.c **** *                                                                    *
  43:Middlewares/Third_Party/SEGGER/RTT/SEGGER_RTT.c **** **********************************************************************
  44:Middlewares/Third_Party/SEGGER/RTT/SEGGER_RTT.c **** *                                                                    *
  45:Middlewares/Third_Party/SEGGER/RTT/SEGGER_RTT.c **** *       RTT version: 7.58c                                           *
  46:Middlewares/Third_Party/SEGGER/RTT/SEGGER_RTT.c **** *                                                                    *
  47:Middlewares/Third_Party/SEGGER/RTT/SEGGER_RTT.c **** **********************************************************************
  48:Middlewares/Third_Party/SEGGER/RTT/SEGGER_RTT.c **** 
  49:Middlewares/Third_Party/SEGGER/RTT/SEGGER_RTT.c **** ---------------------------END-OF-HEADER------------------------------
  50:Middlewares/Third_Party/SEGGER/RTT/SEGGER_RTT.c **** File    : SEGGER_RTT.c
  51:Middlewares/Third_Party/SEGGER/RTT/SEGGER_RTT.c **** Purpose : Implementation of SEGGER real-time transfer (RTT) which
  52:Middlewares/Third_Party/SEGGER/RTT/SEGGER_RTT.c ****           allows real-time communication on targets which support
  53:Middlewares/Third_Party/SEGGER/RTT/SEGGER_RTT.c ****           debugger memory accesses while the CPU is running.
  54:Middlewares/Third_Party/SEGGER/RTT/SEGGER_RTT.c **** Revision: $Rev: 24715 $
  55:Middlewares/Third_Party/SEGGER/RTT/SEGGER_RTT.c **** 
  56:Middlewares/Third_Party/SEGGER/RTT/SEGGER_RTT.c **** Additional information:
  57:Middlewares/Third_Party/SEGGER/RTT/SEGGER_RTT.c ****           Type "int" is assumed to be 32-bits in size
  58:Middlewares/Third_Party/SEGGER/RTT/SEGGER_RTT.c ****           H->T    Host to target communication
  59:Middlewares/Third_Party/SEGGER/RTT/SEGGER_RTT.c ****           T->H    Target to host communication
  60:Middlewares/Third_Party/SEGGER/RTT/SEGGER_RTT.c **** 
  61:Middlewares/Third_Party/SEGGER/RTT/SEGGER_RTT.c ****           RTT channel 0 is always present and reserved for Terminal usage.
  62:Middlewares/Third_Party/SEGGER/RTT/SEGGER_RTT.c ****           Name is fixed to "Terminal"
  63:Middlewares/Third_Party/SEGGER/RTT/SEGGER_RTT.c **** 
  64:Middlewares/Third_Party/SEGGER/RTT/SEGGER_RTT.c ****           Effective buffer size: SizeOfBuffer - 1
  65:Middlewares/Third_Party/SEGGER/RTT/SEGGER_RTT.c **** 
  66:Middlewares/Third_Party/SEGGER/RTT/SEGGER_RTT.c ****           WrOff == RdOff:       Buffer is empty
  67:Middlewares/Third_Party/SEGGER/RTT/SEGGER_RTT.c ****           WrOff == (RdOff - 1): Buffer is full
  68:Middlewares/Third_Party/SEGGER/RTT/SEGGER_RTT.c ****           WrOff >  RdOff:       Free space includes wrap-around
  69:Middlewares/Third_Party/SEGGER/RTT/SEGGER_RTT.c ****           WrOff <  RdOff:       Used space includes wrap-around
  70:Middlewares/Third_Party/SEGGER/RTT/SEGGER_RTT.c ****           (WrOff == (SizeOfBuffer - 1)) && (RdOff == 0):  
  71:Middlewares/Third_Party/SEGGER/RTT/SEGGER_RTT.c ****                                 Buffer full and wrap-around after next byte
  72:Middlewares/Third_Party/SEGGER/RTT/SEGGER_RTT.c **** 
  73:Middlewares/Third_Party/SEGGER/RTT/SEGGER_RTT.c **** 
  74:Middlewares/Third_Party/SEGGER/RTT/SEGGER_RTT.c **** ----------------------------------------------------------------------
  75:Middlewares/Third_Party/SEGGER/RTT/SEGGER_RTT.c **** */
  76:Middlewares/Third_Party/SEGGER/RTT/SEGGER_RTT.c **** 
  77:Middlewares/Third_Party/SEGGER/RTT/SEGGER_RTT.c **** #include "SEGGER_RTT.h"
  78:Middlewares/Third_Party/SEGGER/RTT/SEGGER_RTT.c **** 
  79:Middlewares/Third_Party/SEGGER/RTT/SEGGER_RTT.c **** #include <string.h>                 // for memcpy
  80:Middlewares/Third_Party/SEGGER/RTT/SEGGER_RTT.c **** 
  81:Middlewares/Third_Party/SEGGER/RTT/SEGGER_RTT.c **** /*********************************************************************
  82:Middlewares/Third_Party/SEGGER/RTT/SEGGER_RTT.c **** *
  83:Middlewares/Third_Party/SEGGER/RTT/SEGGER_RTT.c **** *       Configuration, default values
  84:Middlewares/Third_Party/SEGGER/RTT/SEGGER_RTT.c **** *
  85:Middlewares/Third_Party/SEGGER/RTT/SEGGER_RTT.c **** **********************************************************************
  86:Middlewares/Third_Party/SEGGER/RTT/SEGGER_RTT.c **** */
  87:Middlewares/Third_Party/SEGGER/RTT/SEGGER_RTT.c **** 
ARM GAS  C:\Users\Administrator\AppData\Local\Temp\ccUGyMKj.s 			page 3


  88:Middlewares/Third_Party/SEGGER/RTT/SEGGER_RTT.c **** #if SEGGER_RTT_CPU_CACHE_LINE_SIZE
  89:Middlewares/Third_Party/SEGGER/RTT/SEGGER_RTT.c ****   #ifdef SEGGER_RTT_CB_ALIGN
  90:Middlewares/Third_Party/SEGGER/RTT/SEGGER_RTT.c ****     #error "Custom SEGGER_RTT_CB_ALIGN() is not supported for SEGGER_RTT_CPU_CACHE_LINE_SIZE != 0"
  91:Middlewares/Third_Party/SEGGER/RTT/SEGGER_RTT.c ****   #endif
  92:Middlewares/Third_Party/SEGGER/RTT/SEGGER_RTT.c ****   #ifdef SEGGER_RTT_BUFFER_ALIGN
  93:Middlewares/Third_Party/SEGGER/RTT/SEGGER_RTT.c ****     #error "Custom SEGGER_RTT_BUFFER_ALIGN() is not supported for SEGGER_RTT_CPU_CACHE_LINE_SIZE !=
  94:Middlewares/Third_Party/SEGGER/RTT/SEGGER_RTT.c ****   #endif
  95:Middlewares/Third_Party/SEGGER/RTT/SEGGER_RTT.c ****   #ifdef SEGGER_RTT_PUT_CB_SECTION
  96:Middlewares/Third_Party/SEGGER/RTT/SEGGER_RTT.c ****     #error "Custom SEGGER_RTT_PUT_CB_SECTION() is not supported for SEGGER_RTT_CPU_CACHE_LINE_SIZE 
  97:Middlewares/Third_Party/SEGGER/RTT/SEGGER_RTT.c ****   #endif
  98:Middlewares/Third_Party/SEGGER/RTT/SEGGER_RTT.c ****   #ifdef SEGGER_RTT_PUT_BUFFER_SECTION
  99:Middlewares/Third_Party/SEGGER/RTT/SEGGER_RTT.c ****     #error "Custom SEGGER_RTT_PUT_BUFFER_SECTION() is not supported for SEGGER_RTT_CPU_CACHE_LINE_S
 100:Middlewares/Third_Party/SEGGER/RTT/SEGGER_RTT.c ****   #endif
 101:Middlewares/Third_Party/SEGGER/RTT/SEGGER_RTT.c ****   #ifdef SEGGER_RTT_BUFFER_ALIGNMENT
 102:Middlewares/Third_Party/SEGGER/RTT/SEGGER_RTT.c ****     #error "Custom SEGGER_RTT_BUFFER_ALIGNMENT is not supported for SEGGER_RTT_CPU_CACHE_LINE_SIZE 
 103:Middlewares/Third_Party/SEGGER/RTT/SEGGER_RTT.c ****   #endif
 104:Middlewares/Third_Party/SEGGER/RTT/SEGGER_RTT.c ****   #ifdef SEGGER_RTT_ALIGNMENT
 105:Middlewares/Third_Party/SEGGER/RTT/SEGGER_RTT.c ****     #error "Custom SEGGER_RTT_ALIGNMENT is not supported for SEGGER_RTT_CPU_CACHE_LINE_SIZE != 0"
 106:Middlewares/Third_Party/SEGGER/RTT/SEGGER_RTT.c ****   #endif
 107:Middlewares/Third_Party/SEGGER/RTT/SEGGER_RTT.c **** #endif
 108:Middlewares/Third_Party/SEGGER/RTT/SEGGER_RTT.c **** 
 109:Middlewares/Third_Party/SEGGER/RTT/SEGGER_RTT.c **** #ifndef   BUFFER_SIZE_UP
 110:Middlewares/Third_Party/SEGGER/RTT/SEGGER_RTT.c ****   #define BUFFER_SIZE_UP                                  1024  // Size of the buffer for terminal 
 111:Middlewares/Third_Party/SEGGER/RTT/SEGGER_RTT.c **** #endif
 112:Middlewares/Third_Party/SEGGER/RTT/SEGGER_RTT.c **** 
 113:Middlewares/Third_Party/SEGGER/RTT/SEGGER_RTT.c **** #ifndef   BUFFER_SIZE_DOWN
 114:Middlewares/Third_Party/SEGGER/RTT/SEGGER_RTT.c ****   #define BUFFER_SIZE_DOWN                                16    // Size of the buffer for terminal 
 115:Middlewares/Third_Party/SEGGER/RTT/SEGGER_RTT.c **** #endif
 116:Middlewares/Third_Party/SEGGER/RTT/SEGGER_RTT.c **** 
 117:Middlewares/Third_Party/SEGGER/RTT/SEGGER_RTT.c **** #ifndef   SEGGER_RTT_MAX_NUM_UP_BUFFERS
 118:Middlewares/Third_Party/SEGGER/RTT/SEGGER_RTT.c ****   #define SEGGER_RTT_MAX_NUM_UP_BUFFERS                    2    // Number of up-buffers (T->H) avai
 119:Middlewares/Third_Party/SEGGER/RTT/SEGGER_RTT.c **** #endif
 120:Middlewares/Third_Party/SEGGER/RTT/SEGGER_RTT.c **** 
 121:Middlewares/Third_Party/SEGGER/RTT/SEGGER_RTT.c **** #ifndef   SEGGER_RTT_MAX_NUM_DOWN_BUFFERS
 122:Middlewares/Third_Party/SEGGER/RTT/SEGGER_RTT.c ****   #define SEGGER_RTT_MAX_NUM_DOWN_BUFFERS                  2    // Number of down-buffers (H->T) av
 123:Middlewares/Third_Party/SEGGER/RTT/SEGGER_RTT.c **** #endif
 124:Middlewares/Third_Party/SEGGER/RTT/SEGGER_RTT.c **** 
 125:Middlewares/Third_Party/SEGGER/RTT/SEGGER_RTT.c **** #ifndef SEGGER_RTT_BUFFER_SECTION
 126:Middlewares/Third_Party/SEGGER/RTT/SEGGER_RTT.c ****   #if defined(SEGGER_RTT_SECTION)
 127:Middlewares/Third_Party/SEGGER/RTT/SEGGER_RTT.c ****     #define SEGGER_RTT_BUFFER_SECTION SEGGER_RTT_SECTION
 128:Middlewares/Third_Party/SEGGER/RTT/SEGGER_RTT.c ****   #endif
 129:Middlewares/Third_Party/SEGGER/RTT/SEGGER_RTT.c **** #endif
 130:Middlewares/Third_Party/SEGGER/RTT/SEGGER_RTT.c **** 
 131:Middlewares/Third_Party/SEGGER/RTT/SEGGER_RTT.c **** #ifndef   SEGGER_RTT_ALIGNMENT
 132:Middlewares/Third_Party/SEGGER/RTT/SEGGER_RTT.c ****   #define SEGGER_RTT_ALIGNMENT                            SEGGER_RTT_CPU_CACHE_LINE_SIZE
 133:Middlewares/Third_Party/SEGGER/RTT/SEGGER_RTT.c **** #endif
 134:Middlewares/Third_Party/SEGGER/RTT/SEGGER_RTT.c **** 
 135:Middlewares/Third_Party/SEGGER/RTT/SEGGER_RTT.c **** #ifndef   SEGGER_RTT_BUFFER_ALIGNMENT
 136:Middlewares/Third_Party/SEGGER/RTT/SEGGER_RTT.c ****   #define SEGGER_RTT_BUFFER_ALIGNMENT                     SEGGER_RTT_CPU_CACHE_LINE_SIZE
 137:Middlewares/Third_Party/SEGGER/RTT/SEGGER_RTT.c **** #endif
 138:Middlewares/Third_Party/SEGGER/RTT/SEGGER_RTT.c **** 
 139:Middlewares/Third_Party/SEGGER/RTT/SEGGER_RTT.c **** #ifndef   SEGGER_RTT_MODE_DEFAULT
 140:Middlewares/Third_Party/SEGGER/RTT/SEGGER_RTT.c ****   #define SEGGER_RTT_MODE_DEFAULT                         SEGGER_RTT_MODE_NO_BLOCK_SKIP
 141:Middlewares/Third_Party/SEGGER/RTT/SEGGER_RTT.c **** #endif
 142:Middlewares/Third_Party/SEGGER/RTT/SEGGER_RTT.c **** 
 143:Middlewares/Third_Party/SEGGER/RTT/SEGGER_RTT.c **** #ifndef   SEGGER_RTT_LOCK
 144:Middlewares/Third_Party/SEGGER/RTT/SEGGER_RTT.c ****   #define SEGGER_RTT_LOCK()
ARM GAS  C:\Users\Administrator\AppData\Local\Temp\ccUGyMKj.s 			page 4


 145:Middlewares/Third_Party/SEGGER/RTT/SEGGER_RTT.c **** #endif
 146:Middlewares/Third_Party/SEGGER/RTT/SEGGER_RTT.c **** 
 147:Middlewares/Third_Party/SEGGER/RTT/SEGGER_RTT.c **** #ifndef   SEGGER_RTT_UNLOCK
 148:Middlewares/Third_Party/SEGGER/RTT/SEGGER_RTT.c ****   #define SEGGER_RTT_UNLOCK()
 149:Middlewares/Third_Party/SEGGER/RTT/SEGGER_RTT.c **** #endif
 150:Middlewares/Third_Party/SEGGER/RTT/SEGGER_RTT.c **** 
 151:Middlewares/Third_Party/SEGGER/RTT/SEGGER_RTT.c **** #ifndef   STRLEN
 152:Middlewares/Third_Party/SEGGER/RTT/SEGGER_RTT.c ****   #define STRLEN(a)                                       strlen((a))
 153:Middlewares/Third_Party/SEGGER/RTT/SEGGER_RTT.c **** #endif
 154:Middlewares/Third_Party/SEGGER/RTT/SEGGER_RTT.c **** 
 155:Middlewares/Third_Party/SEGGER/RTT/SEGGER_RTT.c **** #ifndef   STRCPY
 156:Middlewares/Third_Party/SEGGER/RTT/SEGGER_RTT.c ****   #define STRCPY(pDest, pSrc)                             strcpy((pDest), (pSrc))
 157:Middlewares/Third_Party/SEGGER/RTT/SEGGER_RTT.c **** #endif
 158:Middlewares/Third_Party/SEGGER/RTT/SEGGER_RTT.c **** 
 159:Middlewares/Third_Party/SEGGER/RTT/SEGGER_RTT.c **** #ifndef   SEGGER_RTT_MEMCPY_USE_BYTELOOP
 160:Middlewares/Third_Party/SEGGER/RTT/SEGGER_RTT.c ****   #define SEGGER_RTT_MEMCPY_USE_BYTELOOP                  0
 161:Middlewares/Third_Party/SEGGER/RTT/SEGGER_RTT.c **** #endif
 162:Middlewares/Third_Party/SEGGER/RTT/SEGGER_RTT.c **** 
 163:Middlewares/Third_Party/SEGGER/RTT/SEGGER_RTT.c **** #ifndef   SEGGER_RTT_MEMCPY
 164:Middlewares/Third_Party/SEGGER/RTT/SEGGER_RTT.c ****   #ifdef  MEMCPY
 165:Middlewares/Third_Party/SEGGER/RTT/SEGGER_RTT.c ****     #define SEGGER_RTT_MEMCPY(pDest, pSrc, NumBytes)      MEMCPY((pDest), (pSrc), (NumBytes))
 166:Middlewares/Third_Party/SEGGER/RTT/SEGGER_RTT.c ****   #else
 167:Middlewares/Third_Party/SEGGER/RTT/SEGGER_RTT.c ****     #define SEGGER_RTT_MEMCPY(pDest, pSrc, NumBytes)      memcpy((pDest), (pSrc), (NumBytes))
 168:Middlewares/Third_Party/SEGGER/RTT/SEGGER_RTT.c ****   #endif
 169:Middlewares/Third_Party/SEGGER/RTT/SEGGER_RTT.c **** #endif
 170:Middlewares/Third_Party/SEGGER/RTT/SEGGER_RTT.c **** 
 171:Middlewares/Third_Party/SEGGER/RTT/SEGGER_RTT.c **** #ifndef   MIN
 172:Middlewares/Third_Party/SEGGER/RTT/SEGGER_RTT.c ****   #define MIN(a, b)         (((a) < (b)) ? (a) : (b))
 173:Middlewares/Third_Party/SEGGER/RTT/SEGGER_RTT.c **** #endif
 174:Middlewares/Third_Party/SEGGER/RTT/SEGGER_RTT.c **** 
 175:Middlewares/Third_Party/SEGGER/RTT/SEGGER_RTT.c **** #ifndef   MAX
 176:Middlewares/Third_Party/SEGGER/RTT/SEGGER_RTT.c ****   #define MAX(a, b)         (((a) > (b)) ? (a) : (b))
 177:Middlewares/Third_Party/SEGGER/RTT/SEGGER_RTT.c **** #endif
 178:Middlewares/Third_Party/SEGGER/RTT/SEGGER_RTT.c **** //
 179:Middlewares/Third_Party/SEGGER/RTT/SEGGER_RTT.c **** // For some environments, NULL may not be defined until certain headers are included
 180:Middlewares/Third_Party/SEGGER/RTT/SEGGER_RTT.c **** //
 181:Middlewares/Third_Party/SEGGER/RTT/SEGGER_RTT.c **** #ifndef NULL
 182:Middlewares/Third_Party/SEGGER/RTT/SEGGER_RTT.c ****   #define NULL 0
 183:Middlewares/Third_Party/SEGGER/RTT/SEGGER_RTT.c **** #endif
 184:Middlewares/Third_Party/SEGGER/RTT/SEGGER_RTT.c **** 
 185:Middlewares/Third_Party/SEGGER/RTT/SEGGER_RTT.c **** /*********************************************************************
 186:Middlewares/Third_Party/SEGGER/RTT/SEGGER_RTT.c **** *
 187:Middlewares/Third_Party/SEGGER/RTT/SEGGER_RTT.c **** *       Defines, fixed
 188:Middlewares/Third_Party/SEGGER/RTT/SEGGER_RTT.c **** *
 189:Middlewares/Third_Party/SEGGER/RTT/SEGGER_RTT.c **** **********************************************************************
 190:Middlewares/Third_Party/SEGGER/RTT/SEGGER_RTT.c **** */
 191:Middlewares/Third_Party/SEGGER/RTT/SEGGER_RTT.c **** #if (defined __ICCARM__) || (defined __ICCRX__)
 192:Middlewares/Third_Party/SEGGER/RTT/SEGGER_RTT.c ****   #define RTT_PRAGMA(P) _Pragma(#P)
 193:Middlewares/Third_Party/SEGGER/RTT/SEGGER_RTT.c **** #endif
 194:Middlewares/Third_Party/SEGGER/RTT/SEGGER_RTT.c **** 
 195:Middlewares/Third_Party/SEGGER/RTT/SEGGER_RTT.c **** #if SEGGER_RTT_ALIGNMENT || SEGGER_RTT_BUFFER_ALIGNMENT
 196:Middlewares/Third_Party/SEGGER/RTT/SEGGER_RTT.c ****   #if ((defined __GNUC__) || (defined __clang__))
 197:Middlewares/Third_Party/SEGGER/RTT/SEGGER_RTT.c ****     #define SEGGER_RTT_ALIGN(Var, Alignment) Var __attribute__ ((aligned (Alignment)))
 198:Middlewares/Third_Party/SEGGER/RTT/SEGGER_RTT.c ****   #elif (defined __ICCARM__) || (defined __ICCRX__)
 199:Middlewares/Third_Party/SEGGER/RTT/SEGGER_RTT.c ****     #define PRAGMA(A) _Pragma(#A)
 200:Middlewares/Third_Party/SEGGER/RTT/SEGGER_RTT.c **** #define SEGGER_RTT_ALIGN(Var, Alignment) RTT_PRAGMA(data_alignment=Alignment) \
 201:Middlewares/Third_Party/SEGGER/RTT/SEGGER_RTT.c ****                                   Var
ARM GAS  C:\Users\Administrator\AppData\Local\Temp\ccUGyMKj.s 			page 5


 202:Middlewares/Third_Party/SEGGER/RTT/SEGGER_RTT.c ****   #elif (defined __CC_ARM)
 203:Middlewares/Third_Party/SEGGER/RTT/SEGGER_RTT.c ****     #define SEGGER_RTT_ALIGN(Var, Alignment) Var __attribute__ ((aligned (Alignment)))
 204:Middlewares/Third_Party/SEGGER/RTT/SEGGER_RTT.c ****   #else
 205:Middlewares/Third_Party/SEGGER/RTT/SEGGER_RTT.c ****     #error "Alignment not supported for this compiler."
 206:Middlewares/Third_Party/SEGGER/RTT/SEGGER_RTT.c ****   #endif
 207:Middlewares/Third_Party/SEGGER/RTT/SEGGER_RTT.c **** #else
 208:Middlewares/Third_Party/SEGGER/RTT/SEGGER_RTT.c ****   #define SEGGER_RTT_ALIGN(Var, Alignment) Var
 209:Middlewares/Third_Party/SEGGER/RTT/SEGGER_RTT.c **** #endif
 210:Middlewares/Third_Party/SEGGER/RTT/SEGGER_RTT.c **** 
 211:Middlewares/Third_Party/SEGGER/RTT/SEGGER_RTT.c **** #if defined(SEGGER_RTT_SECTION) || defined (SEGGER_RTT_BUFFER_SECTION)
 212:Middlewares/Third_Party/SEGGER/RTT/SEGGER_RTT.c ****   #if ((defined __GNUC__) || (defined __clang__))
 213:Middlewares/Third_Party/SEGGER/RTT/SEGGER_RTT.c ****     #define SEGGER_RTT_PUT_SECTION(Var, Section) __attribute__ ((section (Section))) Var
 214:Middlewares/Third_Party/SEGGER/RTT/SEGGER_RTT.c ****   #elif (defined __ICCARM__) || (defined __ICCRX__)
 215:Middlewares/Third_Party/SEGGER/RTT/SEGGER_RTT.c **** #define SEGGER_RTT_PUT_SECTION(Var, Section) RTT_PRAGMA(location=Section) \
 216:Middlewares/Third_Party/SEGGER/RTT/SEGGER_RTT.c ****                                         Var
 217:Middlewares/Third_Party/SEGGER/RTT/SEGGER_RTT.c ****   #elif (defined __CC_ARM)
 218:Middlewares/Third_Party/SEGGER/RTT/SEGGER_RTT.c ****     #define SEGGER_RTT_PUT_SECTION(Var, Section) __attribute__ ((section (Section), zero_init))  Va
 219:Middlewares/Third_Party/SEGGER/RTT/SEGGER_RTT.c ****   #else
 220:Middlewares/Third_Party/SEGGER/RTT/SEGGER_RTT.c ****     #error "Section placement not supported for this compiler."
 221:Middlewares/Third_Party/SEGGER/RTT/SEGGER_RTT.c ****   #endif
 222:Middlewares/Third_Party/SEGGER/RTT/SEGGER_RTT.c **** #else
 223:Middlewares/Third_Party/SEGGER/RTT/SEGGER_RTT.c ****   #define SEGGER_RTT_PUT_SECTION(Var, Section) Var
 224:Middlewares/Third_Party/SEGGER/RTT/SEGGER_RTT.c **** #endif
 225:Middlewares/Third_Party/SEGGER/RTT/SEGGER_RTT.c **** 
 226:Middlewares/Third_Party/SEGGER/RTT/SEGGER_RTT.c **** #if SEGGER_RTT_ALIGNMENT
 227:Middlewares/Third_Party/SEGGER/RTT/SEGGER_RTT.c ****   #define SEGGER_RTT_CB_ALIGN(Var)  SEGGER_RTT_ALIGN(Var, SEGGER_RTT_ALIGNMENT)
 228:Middlewares/Third_Party/SEGGER/RTT/SEGGER_RTT.c **** #else
 229:Middlewares/Third_Party/SEGGER/RTT/SEGGER_RTT.c ****   #define SEGGER_RTT_CB_ALIGN(Var)  Var
 230:Middlewares/Third_Party/SEGGER/RTT/SEGGER_RTT.c **** #endif
 231:Middlewares/Third_Party/SEGGER/RTT/SEGGER_RTT.c **** 
 232:Middlewares/Third_Party/SEGGER/RTT/SEGGER_RTT.c **** #if SEGGER_RTT_BUFFER_ALIGNMENT
 233:Middlewares/Third_Party/SEGGER/RTT/SEGGER_RTT.c ****   #define SEGGER_RTT_BUFFER_ALIGN(Var)  SEGGER_RTT_ALIGN(Var, SEGGER_RTT_BUFFER_ALIGNMENT)
 234:Middlewares/Third_Party/SEGGER/RTT/SEGGER_RTT.c **** #else
 235:Middlewares/Third_Party/SEGGER/RTT/SEGGER_RTT.c ****   #define SEGGER_RTT_BUFFER_ALIGN(Var)  Var
 236:Middlewares/Third_Party/SEGGER/RTT/SEGGER_RTT.c **** #endif
 237:Middlewares/Third_Party/SEGGER/RTT/SEGGER_RTT.c **** 
 238:Middlewares/Third_Party/SEGGER/RTT/SEGGER_RTT.c **** 
 239:Middlewares/Third_Party/SEGGER/RTT/SEGGER_RTT.c **** #if defined(SEGGER_RTT_SECTION)
 240:Middlewares/Third_Party/SEGGER/RTT/SEGGER_RTT.c ****   #define SEGGER_RTT_PUT_CB_SECTION(Var) SEGGER_RTT_PUT_SECTION(Var, SEGGER_RTT_SECTION)
 241:Middlewares/Third_Party/SEGGER/RTT/SEGGER_RTT.c **** #else
 242:Middlewares/Third_Party/SEGGER/RTT/SEGGER_RTT.c ****   #define SEGGER_RTT_PUT_CB_SECTION(Var) Var
 243:Middlewares/Third_Party/SEGGER/RTT/SEGGER_RTT.c **** #endif
 244:Middlewares/Third_Party/SEGGER/RTT/SEGGER_RTT.c **** 
 245:Middlewares/Third_Party/SEGGER/RTT/SEGGER_RTT.c **** #if defined(SEGGER_RTT_BUFFER_SECTION)
 246:Middlewares/Third_Party/SEGGER/RTT/SEGGER_RTT.c ****   #define SEGGER_RTT_PUT_BUFFER_SECTION(Var) SEGGER_RTT_PUT_SECTION(Var, SEGGER_RTT_BUFFER_SECTION)
 247:Middlewares/Third_Party/SEGGER/RTT/SEGGER_RTT.c **** #else
 248:Middlewares/Third_Party/SEGGER/RTT/SEGGER_RTT.c ****   #define SEGGER_RTT_PUT_BUFFER_SECTION(Var) Var
 249:Middlewares/Third_Party/SEGGER/RTT/SEGGER_RTT.c **** #endif
 250:Middlewares/Third_Party/SEGGER/RTT/SEGGER_RTT.c **** 
 251:Middlewares/Third_Party/SEGGER/RTT/SEGGER_RTT.c **** /*********************************************************************
 252:Middlewares/Third_Party/SEGGER/RTT/SEGGER_RTT.c **** *
 253:Middlewares/Third_Party/SEGGER/RTT/SEGGER_RTT.c **** *       Static const data
 254:Middlewares/Third_Party/SEGGER/RTT/SEGGER_RTT.c **** *
 255:Middlewares/Third_Party/SEGGER/RTT/SEGGER_RTT.c **** **********************************************************************
 256:Middlewares/Third_Party/SEGGER/RTT/SEGGER_RTT.c **** */
 257:Middlewares/Third_Party/SEGGER/RTT/SEGGER_RTT.c **** 
 258:Middlewares/Third_Party/SEGGER/RTT/SEGGER_RTT.c **** static unsigned char _aTerminalId[16] = { '0', '1', '2', '3', '4', '5', '6', '7', '8', '9', 'A', 'B
ARM GAS  C:\Users\Administrator\AppData\Local\Temp\ccUGyMKj.s 			page 6


 259:Middlewares/Third_Party/SEGGER/RTT/SEGGER_RTT.c **** 
 260:Middlewares/Third_Party/SEGGER/RTT/SEGGER_RTT.c **** /*********************************************************************
 261:Middlewares/Third_Party/SEGGER/RTT/SEGGER_RTT.c **** *
 262:Middlewares/Third_Party/SEGGER/RTT/SEGGER_RTT.c **** *       Static data
 263:Middlewares/Third_Party/SEGGER/RTT/SEGGER_RTT.c **** *
 264:Middlewares/Third_Party/SEGGER/RTT/SEGGER_RTT.c **** **********************************************************************
 265:Middlewares/Third_Party/SEGGER/RTT/SEGGER_RTT.c **** */
 266:Middlewares/Third_Party/SEGGER/RTT/SEGGER_RTT.c **** 
 267:Middlewares/Third_Party/SEGGER/RTT/SEGGER_RTT.c **** //
 268:Middlewares/Third_Party/SEGGER/RTT/SEGGER_RTT.c **** // RTT Control Block and allocate buffers for channel 0
 269:Middlewares/Third_Party/SEGGER/RTT/SEGGER_RTT.c **** //
 270:Middlewares/Third_Party/SEGGER/RTT/SEGGER_RTT.c **** #if SEGGER_RTT_CPU_CACHE_LINE_SIZE
 271:Middlewares/Third_Party/SEGGER/RTT/SEGGER_RTT.c ****   #if ((defined __GNUC__) || (defined __clang__))
 272:Middlewares/Third_Party/SEGGER/RTT/SEGGER_RTT.c ****     SEGGER_RTT_CB _SEGGER_RTT                                                             __attribu
 273:Middlewares/Third_Party/SEGGER/RTT/SEGGER_RTT.c ****     static char   _acUpBuffer  [SEGGER_RTT__ROUND_UP_2_CACHE_LINE_SIZE(BUFFER_SIZE_UP)]   __attribu
 274:Middlewares/Third_Party/SEGGER/RTT/SEGGER_RTT.c ****     static char   _acDownBuffer[SEGGER_RTT__ROUND_UP_2_CACHE_LINE_SIZE(BUFFER_SIZE_DOWN)] __attribu
 275:Middlewares/Third_Party/SEGGER/RTT/SEGGER_RTT.c ****   #else
 276:Middlewares/Third_Party/SEGGER/RTT/SEGGER_RTT.c ****     #error "Don't know how to place _SEGGER_RTT, _acUpBuffer, _acDownBuffer cache-line aligned"
 277:Middlewares/Third_Party/SEGGER/RTT/SEGGER_RTT.c ****   #endif
 278:Middlewares/Third_Party/SEGGER/RTT/SEGGER_RTT.c **** #else
 279:Middlewares/Third_Party/SEGGER/RTT/SEGGER_RTT.c ****   SEGGER_RTT_PUT_CB_SECTION(SEGGER_RTT_CB_ALIGN(SEGGER_RTT_CB _SEGGER_RTT));
 280:Middlewares/Third_Party/SEGGER/RTT/SEGGER_RTT.c ****   SEGGER_RTT_PUT_BUFFER_SECTION(SEGGER_RTT_BUFFER_ALIGN(static char _acUpBuffer  [BUFFER_SIZE_UP]))
 281:Middlewares/Third_Party/SEGGER/RTT/SEGGER_RTT.c ****   SEGGER_RTT_PUT_BUFFER_SECTION(SEGGER_RTT_BUFFER_ALIGN(static char _acDownBuffer[BUFFER_SIZE_DOWN]
 282:Middlewares/Third_Party/SEGGER/RTT/SEGGER_RTT.c **** #endif
 283:Middlewares/Third_Party/SEGGER/RTT/SEGGER_RTT.c **** 
 284:Middlewares/Third_Party/SEGGER/RTT/SEGGER_RTT.c **** static unsigned char _ActiveTerminal;
 285:Middlewares/Third_Party/SEGGER/RTT/SEGGER_RTT.c **** 
 286:Middlewares/Third_Party/SEGGER/RTT/SEGGER_RTT.c **** /*********************************************************************
 287:Middlewares/Third_Party/SEGGER/RTT/SEGGER_RTT.c **** *
 288:Middlewares/Third_Party/SEGGER/RTT/SEGGER_RTT.c **** *       Static functions
 289:Middlewares/Third_Party/SEGGER/RTT/SEGGER_RTT.c **** *
 290:Middlewares/Third_Party/SEGGER/RTT/SEGGER_RTT.c **** **********************************************************************
 291:Middlewares/Third_Party/SEGGER/RTT/SEGGER_RTT.c **** */
 292:Middlewares/Third_Party/SEGGER/RTT/SEGGER_RTT.c **** 
 293:Middlewares/Third_Party/SEGGER/RTT/SEGGER_RTT.c **** /*********************************************************************
 294:Middlewares/Third_Party/SEGGER/RTT/SEGGER_RTT.c **** *
 295:Middlewares/Third_Party/SEGGER/RTT/SEGGER_RTT.c **** *       _DoInit()
 296:Middlewares/Third_Party/SEGGER/RTT/SEGGER_RTT.c **** *
 297:Middlewares/Third_Party/SEGGER/RTT/SEGGER_RTT.c **** *  Function description
 298:Middlewares/Third_Party/SEGGER/RTT/SEGGER_RTT.c **** *    Initializes the control block an buffers.
 299:Middlewares/Third_Party/SEGGER/RTT/SEGGER_RTT.c **** *    May only be called via INIT() to avoid overriding settings.
 300:Middlewares/Third_Party/SEGGER/RTT/SEGGER_RTT.c **** *
 301:Middlewares/Third_Party/SEGGER/RTT/SEGGER_RTT.c **** */
 302:Middlewares/Third_Party/SEGGER/RTT/SEGGER_RTT.c **** #define INIT()  {                                                                                  
 303:Middlewares/Third_Party/SEGGER/RTT/SEGGER_RTT.c ****                   volatile SEGGER_RTT_CB* pRTTCBInit;                                              
 304:Middlewares/Third_Party/SEGGER/RTT/SEGGER_RTT.c ****                   pRTTCBInit = (volatile SEGGER_RTT_CB*)((char*)&_SEGGER_RTT + SEGGER_RTT_UNCACHED_
 305:Middlewares/Third_Party/SEGGER/RTT/SEGGER_RTT.c ****                   do {                                                                             
 306:Middlewares/Third_Party/SEGGER/RTT/SEGGER_RTT.c ****                     if (pRTTCBInit->acID[0] == '\0') {                                             
 307:Middlewares/Third_Party/SEGGER/RTT/SEGGER_RTT.c ****                       _DoInit();                                                                   
 308:Middlewares/Third_Party/SEGGER/RTT/SEGGER_RTT.c ****                     }                                                                              
 309:Middlewares/Third_Party/SEGGER/RTT/SEGGER_RTT.c ****                   } while (0);                                                                     
 310:Middlewares/Third_Party/SEGGER/RTT/SEGGER_RTT.c ****                 }
 311:Middlewares/Third_Party/SEGGER/RTT/SEGGER_RTT.c **** 
 312:Middlewares/Third_Party/SEGGER/RTT/SEGGER_RTT.c **** static void _DoInit(void) {
 313:Middlewares/Third_Party/SEGGER/RTT/SEGGER_RTT.c ****   volatile SEGGER_RTT_CB* p;   // Volatile to make sure that compiler cannot change the order of ac
 314:Middlewares/Third_Party/SEGGER/RTT/SEGGER_RTT.c ****   static const char _aInitStr[] = "\0\0\0\0\0\0TTR REGGES";  // Init complete ID string to make sur
 315:Middlewares/Third_Party/SEGGER/RTT/SEGGER_RTT.c ****   unsigned i;
ARM GAS  C:\Users\Administrator\AppData\Local\Temp\ccUGyMKj.s 			page 7


 316:Middlewares/Third_Party/SEGGER/RTT/SEGGER_RTT.c ****   //
 317:Middlewares/Third_Party/SEGGER/RTT/SEGGER_RTT.c ****   // Initialize control block
 318:Middlewares/Third_Party/SEGGER/RTT/SEGGER_RTT.c ****   //
 319:Middlewares/Third_Party/SEGGER/RTT/SEGGER_RTT.c ****   p                     = (volatile SEGGER_RTT_CB*)((char*)&_SEGGER_RTT + SEGGER_RTT_UNCACHED_OFF);
 320:Middlewares/Third_Party/SEGGER/RTT/SEGGER_RTT.c ****   memset((SEGGER_RTT_CB*)p, 0, sizeof(_SEGGER_RTT));         // Make sure that the RTT CB is always
 321:Middlewares/Third_Party/SEGGER/RTT/SEGGER_RTT.c ****   p->MaxNumUpBuffers    = SEGGER_RTT_MAX_NUM_UP_BUFFERS;
 322:Middlewares/Third_Party/SEGGER/RTT/SEGGER_RTT.c ****   p->MaxNumDownBuffers  = SEGGER_RTT_MAX_NUM_DOWN_BUFFERS;
 323:Middlewares/Third_Party/SEGGER/RTT/SEGGER_RTT.c ****   //
 324:Middlewares/Third_Party/SEGGER/RTT/SEGGER_RTT.c ****   // Initialize up buffer 0
 325:Middlewares/Third_Party/SEGGER/RTT/SEGGER_RTT.c ****   //
 326:Middlewares/Third_Party/SEGGER/RTT/SEGGER_RTT.c ****   p->aUp[0].sName         = "Terminal";
 327:Middlewares/Third_Party/SEGGER/RTT/SEGGER_RTT.c ****   p->aUp[0].pBuffer       = _acUpBuffer;
 328:Middlewares/Third_Party/SEGGER/RTT/SEGGER_RTT.c ****   p->aUp[0].SizeOfBuffer  = BUFFER_SIZE_UP;
 329:Middlewares/Third_Party/SEGGER/RTT/SEGGER_RTT.c ****   p->aUp[0].RdOff         = 0u;
 330:Middlewares/Third_Party/SEGGER/RTT/SEGGER_RTT.c ****   p->aUp[0].WrOff         = 0u;
 331:Middlewares/Third_Party/SEGGER/RTT/SEGGER_RTT.c ****   p->aUp[0].Flags         = SEGGER_RTT_MODE_DEFAULT;
 332:Middlewares/Third_Party/SEGGER/RTT/SEGGER_RTT.c ****   //
 333:Middlewares/Third_Party/SEGGER/RTT/SEGGER_RTT.c ****   // Initialize down buffer 0
 334:Middlewares/Third_Party/SEGGER/RTT/SEGGER_RTT.c ****   //
 335:Middlewares/Third_Party/SEGGER/RTT/SEGGER_RTT.c ****   p->aDown[0].sName         = "Terminal";
 336:Middlewares/Third_Party/SEGGER/RTT/SEGGER_RTT.c ****   p->aDown[0].pBuffer       = _acDownBuffer;
 337:Middlewares/Third_Party/SEGGER/RTT/SEGGER_RTT.c ****   p->aDown[0].SizeOfBuffer  = BUFFER_SIZE_DOWN;
 338:Middlewares/Third_Party/SEGGER/RTT/SEGGER_RTT.c ****   p->aDown[0].RdOff         = 0u;
 339:Middlewares/Third_Party/SEGGER/RTT/SEGGER_RTT.c ****   p->aDown[0].WrOff         = 0u;
 340:Middlewares/Third_Party/SEGGER/RTT/SEGGER_RTT.c ****   p->aDown[0].Flags         = SEGGER_RTT_MODE_DEFAULT;
 341:Middlewares/Third_Party/SEGGER/RTT/SEGGER_RTT.c ****   //
 342:Middlewares/Third_Party/SEGGER/RTT/SEGGER_RTT.c ****   // Finish initialization of the control block.
 343:Middlewares/Third_Party/SEGGER/RTT/SEGGER_RTT.c ****   // Copy Id string backwards to make sure that "SEGGER RTT" is not found in initializer memory (us
 344:Middlewares/Third_Party/SEGGER/RTT/SEGGER_RTT.c ****   // as this would cause J-Link to "find" the control block at a wrong address.
 345:Middlewares/Third_Party/SEGGER/RTT/SEGGER_RTT.c ****   //
 346:Middlewares/Third_Party/SEGGER/RTT/SEGGER_RTT.c ****   RTT__DMB();                       // Force order of memory accesses for cores that may perform ou
 347:Middlewares/Third_Party/SEGGER/RTT/SEGGER_RTT.c ****   for (i = 0; i < sizeof(_aInitStr) - 1; ++i) {
 348:Middlewares/Third_Party/SEGGER/RTT/SEGGER_RTT.c ****     p->acID[i] = _aInitStr[sizeof(_aInitStr) - 2 - i];  // Skip terminating \0 at the end of the ar
 349:Middlewares/Third_Party/SEGGER/RTT/SEGGER_RTT.c ****   }
 350:Middlewares/Third_Party/SEGGER/RTT/SEGGER_RTT.c ****   RTT__DMB();                       // Force order of memory accesses for cores that may perform ou
 351:Middlewares/Third_Party/SEGGER/RTT/SEGGER_RTT.c **** }
 352:Middlewares/Third_Party/SEGGER/RTT/SEGGER_RTT.c **** 
 353:Middlewares/Third_Party/SEGGER/RTT/SEGGER_RTT.c **** /*********************************************************************
 354:Middlewares/Third_Party/SEGGER/RTT/SEGGER_RTT.c **** *
 355:Middlewares/Third_Party/SEGGER/RTT/SEGGER_RTT.c **** *       _WriteBlocking()
 356:Middlewares/Third_Party/SEGGER/RTT/SEGGER_RTT.c **** *
 357:Middlewares/Third_Party/SEGGER/RTT/SEGGER_RTT.c **** *  Function description
 358:Middlewares/Third_Party/SEGGER/RTT/SEGGER_RTT.c **** *    Stores a specified number of characters in SEGGER RTT ring buffer
 359:Middlewares/Third_Party/SEGGER/RTT/SEGGER_RTT.c **** *    and updates the associated write pointer which is periodically
 360:Middlewares/Third_Party/SEGGER/RTT/SEGGER_RTT.c **** *    read by the host.
 361:Middlewares/Third_Party/SEGGER/RTT/SEGGER_RTT.c **** *    The caller is responsible for managing the write chunk sizes as
 362:Middlewares/Third_Party/SEGGER/RTT/SEGGER_RTT.c **** *    _WriteBlocking() will block until all data has been posted successfully.
 363:Middlewares/Third_Party/SEGGER/RTT/SEGGER_RTT.c **** *
 364:Middlewares/Third_Party/SEGGER/RTT/SEGGER_RTT.c **** *  Parameters
 365:Middlewares/Third_Party/SEGGER/RTT/SEGGER_RTT.c **** *    pRing        Ring buffer to post to.
 366:Middlewares/Third_Party/SEGGER/RTT/SEGGER_RTT.c **** *    pBuffer      Pointer to character array. Does not need to point to a \0 terminated string.
 367:Middlewares/Third_Party/SEGGER/RTT/SEGGER_RTT.c **** *    NumBytes     Number of bytes to be stored in the SEGGER RTT control block.
 368:Middlewares/Third_Party/SEGGER/RTT/SEGGER_RTT.c **** *
 369:Middlewares/Third_Party/SEGGER/RTT/SEGGER_RTT.c **** *  Return value
 370:Middlewares/Third_Party/SEGGER/RTT/SEGGER_RTT.c **** *    >= 0 - Number of bytes written into buffer.
 371:Middlewares/Third_Party/SEGGER/RTT/SEGGER_RTT.c **** */
 372:Middlewares/Third_Party/SEGGER/RTT/SEGGER_RTT.c **** static unsigned _WriteBlocking(SEGGER_RTT_BUFFER_UP* pRing, const char* pBuffer, unsigned NumBytes)
ARM GAS  C:\Users\Administrator\AppData\Local\Temp\ccUGyMKj.s 			page 8


 373:Middlewares/Third_Party/SEGGER/RTT/SEGGER_RTT.c ****   unsigned NumBytesToWrite;
 374:Middlewares/Third_Party/SEGGER/RTT/SEGGER_RTT.c ****   unsigned NumBytesWritten;
 375:Middlewares/Third_Party/SEGGER/RTT/SEGGER_RTT.c ****   unsigned RdOff;
 376:Middlewares/Third_Party/SEGGER/RTT/SEGGER_RTT.c ****   unsigned WrOff;
 377:Middlewares/Third_Party/SEGGER/RTT/SEGGER_RTT.c ****   volatile char* pDst;
 378:Middlewares/Third_Party/SEGGER/RTT/SEGGER_RTT.c ****   //
 379:Middlewares/Third_Party/SEGGER/RTT/SEGGER_RTT.c ****   // Write data to buffer and handle wrap-around if necessary
 380:Middlewares/Third_Party/SEGGER/RTT/SEGGER_RTT.c ****   //
 381:Middlewares/Third_Party/SEGGER/RTT/SEGGER_RTT.c ****   NumBytesWritten = 0u;
 382:Middlewares/Third_Party/SEGGER/RTT/SEGGER_RTT.c ****   WrOff = pRing->WrOff;
 383:Middlewares/Third_Party/SEGGER/RTT/SEGGER_RTT.c ****   do {
 384:Middlewares/Third_Party/SEGGER/RTT/SEGGER_RTT.c ****     RdOff = pRing->RdOff;                         // May be changed by host (debug probe) in the me
 385:Middlewares/Third_Party/SEGGER/RTT/SEGGER_RTT.c ****     if (RdOff > WrOff) {
 386:Middlewares/Third_Party/SEGGER/RTT/SEGGER_RTT.c ****       NumBytesToWrite = RdOff - WrOff - 1u;
 387:Middlewares/Third_Party/SEGGER/RTT/SEGGER_RTT.c ****     } else {
 388:Middlewares/Third_Party/SEGGER/RTT/SEGGER_RTT.c ****       NumBytesToWrite = pRing->SizeOfBuffer - (WrOff - RdOff + 1u);
 389:Middlewares/Third_Party/SEGGER/RTT/SEGGER_RTT.c ****     }
 390:Middlewares/Third_Party/SEGGER/RTT/SEGGER_RTT.c ****     NumBytesToWrite = MIN(NumBytesToWrite, (pRing->SizeOfBuffer - WrOff));      // Number of bytes 
 391:Middlewares/Third_Party/SEGGER/RTT/SEGGER_RTT.c ****     NumBytesToWrite = MIN(NumBytesToWrite, NumBytes);
 392:Middlewares/Third_Party/SEGGER/RTT/SEGGER_RTT.c ****     pDst = (pRing->pBuffer + WrOff) + SEGGER_RTT_UNCACHED_OFF;
 393:Middlewares/Third_Party/SEGGER/RTT/SEGGER_RTT.c **** #if SEGGER_RTT_MEMCPY_USE_BYTELOOP
 394:Middlewares/Third_Party/SEGGER/RTT/SEGGER_RTT.c ****     NumBytesWritten += NumBytesToWrite;
 395:Middlewares/Third_Party/SEGGER/RTT/SEGGER_RTT.c ****     NumBytes        -= NumBytesToWrite;
 396:Middlewares/Third_Party/SEGGER/RTT/SEGGER_RTT.c ****     WrOff           += NumBytesToWrite;
 397:Middlewares/Third_Party/SEGGER/RTT/SEGGER_RTT.c ****     while (NumBytesToWrite--) {
 398:Middlewares/Third_Party/SEGGER/RTT/SEGGER_RTT.c ****       *pDst++ = *pBuffer++;
 399:Middlewares/Third_Party/SEGGER/RTT/SEGGER_RTT.c ****     };
 400:Middlewares/Third_Party/SEGGER/RTT/SEGGER_RTT.c **** #else
 401:Middlewares/Third_Party/SEGGER/RTT/SEGGER_RTT.c ****     SEGGER_RTT_MEMCPY((void*)pDst, pBuffer, NumBytesToWrite);
 402:Middlewares/Third_Party/SEGGER/RTT/SEGGER_RTT.c ****     NumBytesWritten += NumBytesToWrite;
 403:Middlewares/Third_Party/SEGGER/RTT/SEGGER_RTT.c ****     pBuffer         += NumBytesToWrite;
 404:Middlewares/Third_Party/SEGGER/RTT/SEGGER_RTT.c ****     NumBytes        -= NumBytesToWrite;
 405:Middlewares/Third_Party/SEGGER/RTT/SEGGER_RTT.c ****     WrOff           += NumBytesToWrite;
 406:Middlewares/Third_Party/SEGGER/RTT/SEGGER_RTT.c **** #endif
 407:Middlewares/Third_Party/SEGGER/RTT/SEGGER_RTT.c ****     if (WrOff == pRing->SizeOfBuffer) {
 408:Middlewares/Third_Party/SEGGER/RTT/SEGGER_RTT.c ****       WrOff = 0u;
 409:Middlewares/Third_Party/SEGGER/RTT/SEGGER_RTT.c ****     }
 410:Middlewares/Third_Party/SEGGER/RTT/SEGGER_RTT.c ****     RTT__DMB();                     // Force data write to be complete before writing the <WrOff>, 
 411:Middlewares/Third_Party/SEGGER/RTT/SEGGER_RTT.c ****     pRing->WrOff = WrOff;
 412:Middlewares/Third_Party/SEGGER/RTT/SEGGER_RTT.c ****   } while (NumBytes);
 413:Middlewares/Third_Party/SEGGER/RTT/SEGGER_RTT.c ****   return NumBytesWritten;
 414:Middlewares/Third_Party/SEGGER/RTT/SEGGER_RTT.c **** }
 415:Middlewares/Third_Party/SEGGER/RTT/SEGGER_RTT.c **** 
 416:Middlewares/Third_Party/SEGGER/RTT/SEGGER_RTT.c **** /*********************************************************************
 417:Middlewares/Third_Party/SEGGER/RTT/SEGGER_RTT.c **** *
 418:Middlewares/Third_Party/SEGGER/RTT/SEGGER_RTT.c **** *       _WriteNoCheck()
 419:Middlewares/Third_Party/SEGGER/RTT/SEGGER_RTT.c **** *
 420:Middlewares/Third_Party/SEGGER/RTT/SEGGER_RTT.c **** *  Function description
 421:Middlewares/Third_Party/SEGGER/RTT/SEGGER_RTT.c **** *    Stores a specified number of characters in SEGGER RTT ring buffer
 422:Middlewares/Third_Party/SEGGER/RTT/SEGGER_RTT.c **** *    and updates the associated write pointer which is periodically
 423:Middlewares/Third_Party/SEGGER/RTT/SEGGER_RTT.c **** *    read by the host.
 424:Middlewares/Third_Party/SEGGER/RTT/SEGGER_RTT.c **** *    It is callers responsibility to make sure data actually fits in buffer.
 425:Middlewares/Third_Party/SEGGER/RTT/SEGGER_RTT.c **** *
 426:Middlewares/Third_Party/SEGGER/RTT/SEGGER_RTT.c **** *  Parameters
 427:Middlewares/Third_Party/SEGGER/RTT/SEGGER_RTT.c **** *    pRing        Ring buffer to post to.
 428:Middlewares/Third_Party/SEGGER/RTT/SEGGER_RTT.c **** *    pBuffer      Pointer to character array. Does not need to point to a \0 terminated string.
 429:Middlewares/Third_Party/SEGGER/RTT/SEGGER_RTT.c **** *    NumBytes     Number of bytes to be stored in the SEGGER RTT control block.
ARM GAS  C:\Users\Administrator\AppData\Local\Temp\ccUGyMKj.s 			page 9


 430:Middlewares/Third_Party/SEGGER/RTT/SEGGER_RTT.c **** *
 431:Middlewares/Third_Party/SEGGER/RTT/SEGGER_RTT.c **** *  Notes
 432:Middlewares/Third_Party/SEGGER/RTT/SEGGER_RTT.c **** *    (1) If there might not be enough space in the "Up"-buffer, call _WriteBlocking
 433:Middlewares/Third_Party/SEGGER/RTT/SEGGER_RTT.c **** */
 434:Middlewares/Third_Party/SEGGER/RTT/SEGGER_RTT.c **** static void _WriteNoCheck(SEGGER_RTT_BUFFER_UP* pRing, const char* pData, unsigned NumBytes) {
 435:Middlewares/Third_Party/SEGGER/RTT/SEGGER_RTT.c ****   unsigned NumBytesAtOnce;
 436:Middlewares/Third_Party/SEGGER/RTT/SEGGER_RTT.c ****   unsigned WrOff;
 437:Middlewares/Third_Party/SEGGER/RTT/SEGGER_RTT.c ****   unsigned Rem;
 438:Middlewares/Third_Party/SEGGER/RTT/SEGGER_RTT.c ****   volatile char* pDst;
 439:Middlewares/Third_Party/SEGGER/RTT/SEGGER_RTT.c **** 
 440:Middlewares/Third_Party/SEGGER/RTT/SEGGER_RTT.c ****   WrOff = pRing->WrOff;
 441:Middlewares/Third_Party/SEGGER/RTT/SEGGER_RTT.c ****   Rem = pRing->SizeOfBuffer - WrOff;
 442:Middlewares/Third_Party/SEGGER/RTT/SEGGER_RTT.c ****   if (Rem > NumBytes) {
 443:Middlewares/Third_Party/SEGGER/RTT/SEGGER_RTT.c ****     //
 444:Middlewares/Third_Party/SEGGER/RTT/SEGGER_RTT.c ****     // All data fits before wrap around
 445:Middlewares/Third_Party/SEGGER/RTT/SEGGER_RTT.c ****     //
 446:Middlewares/Third_Party/SEGGER/RTT/SEGGER_RTT.c ****     pDst = (pRing->pBuffer + WrOff) + SEGGER_RTT_UNCACHED_OFF;
 447:Middlewares/Third_Party/SEGGER/RTT/SEGGER_RTT.c **** #if SEGGER_RTT_MEMCPY_USE_BYTELOOP
 448:Middlewares/Third_Party/SEGGER/RTT/SEGGER_RTT.c ****     WrOff += NumBytes;
 449:Middlewares/Third_Party/SEGGER/RTT/SEGGER_RTT.c ****     while (NumBytes--) {
 450:Middlewares/Third_Party/SEGGER/RTT/SEGGER_RTT.c ****       *pDst++ = *pData++;
 451:Middlewares/Third_Party/SEGGER/RTT/SEGGER_RTT.c ****     };
 452:Middlewares/Third_Party/SEGGER/RTT/SEGGER_RTT.c ****     RTT__DMB();                     // Force data write to be complete before writing the <WrOff>, 
 453:Middlewares/Third_Party/SEGGER/RTT/SEGGER_RTT.c ****     pRing->WrOff = WrOff;
 454:Middlewares/Third_Party/SEGGER/RTT/SEGGER_RTT.c **** #else
 455:Middlewares/Third_Party/SEGGER/RTT/SEGGER_RTT.c ****     SEGGER_RTT_MEMCPY((void*)pDst, pData, NumBytes);
 456:Middlewares/Third_Party/SEGGER/RTT/SEGGER_RTT.c ****     RTT__DMB();                     // Force data write to be complete before writing the <WrOff>, 
 457:Middlewares/Third_Party/SEGGER/RTT/SEGGER_RTT.c ****     pRing->WrOff = WrOff + NumBytes;
 458:Middlewares/Third_Party/SEGGER/RTT/SEGGER_RTT.c **** #endif
 459:Middlewares/Third_Party/SEGGER/RTT/SEGGER_RTT.c ****   } else {
 460:Middlewares/Third_Party/SEGGER/RTT/SEGGER_RTT.c ****     //
 461:Middlewares/Third_Party/SEGGER/RTT/SEGGER_RTT.c ****     // We reach the end of the buffer, so need to wrap around
 462:Middlewares/Third_Party/SEGGER/RTT/SEGGER_RTT.c ****     //
 463:Middlewares/Third_Party/SEGGER/RTT/SEGGER_RTT.c **** #if SEGGER_RTT_MEMCPY_USE_BYTELOOP
 464:Middlewares/Third_Party/SEGGER/RTT/SEGGER_RTT.c ****     pDst = (pRing->pBuffer + WrOff) + SEGGER_RTT_UNCACHED_OFF;
 465:Middlewares/Third_Party/SEGGER/RTT/SEGGER_RTT.c ****     NumBytesAtOnce = Rem;
 466:Middlewares/Third_Party/SEGGER/RTT/SEGGER_RTT.c ****     while (NumBytesAtOnce--) {
 467:Middlewares/Third_Party/SEGGER/RTT/SEGGER_RTT.c ****       *pDst++ = *pData++;
 468:Middlewares/Third_Party/SEGGER/RTT/SEGGER_RTT.c ****     };
 469:Middlewares/Third_Party/SEGGER/RTT/SEGGER_RTT.c ****     pDst = pRing->pBuffer + SEGGER_RTT_UNCACHED_OFF;
 470:Middlewares/Third_Party/SEGGER/RTT/SEGGER_RTT.c ****     NumBytesAtOnce = NumBytes - Rem;
 471:Middlewares/Third_Party/SEGGER/RTT/SEGGER_RTT.c ****     while (NumBytesAtOnce--) {
 472:Middlewares/Third_Party/SEGGER/RTT/SEGGER_RTT.c ****       *pDst++ = *pData++;
 473:Middlewares/Third_Party/SEGGER/RTT/SEGGER_RTT.c ****     };
 474:Middlewares/Third_Party/SEGGER/RTT/SEGGER_RTT.c ****     RTT__DMB();                     // Force data write to be complete before writing the <WrOff>, 
 475:Middlewares/Third_Party/SEGGER/RTT/SEGGER_RTT.c ****     pRing->WrOff = NumBytes - Rem;
 476:Middlewares/Third_Party/SEGGER/RTT/SEGGER_RTT.c **** #else
 477:Middlewares/Third_Party/SEGGER/RTT/SEGGER_RTT.c ****     NumBytesAtOnce = Rem;
 478:Middlewares/Third_Party/SEGGER/RTT/SEGGER_RTT.c ****     pDst = (pRing->pBuffer + WrOff) + SEGGER_RTT_UNCACHED_OFF;
 479:Middlewares/Third_Party/SEGGER/RTT/SEGGER_RTT.c ****     SEGGER_RTT_MEMCPY((void*)pDst, pData, NumBytesAtOnce);
 480:Middlewares/Third_Party/SEGGER/RTT/SEGGER_RTT.c ****     NumBytesAtOnce = NumBytes - Rem;
 481:Middlewares/Third_Party/SEGGER/RTT/SEGGER_RTT.c ****     pDst = pRing->pBuffer + SEGGER_RTT_UNCACHED_OFF;
 482:Middlewares/Third_Party/SEGGER/RTT/SEGGER_RTT.c ****     SEGGER_RTT_MEMCPY((void*)pDst, pData + Rem, NumBytesAtOnce);
 483:Middlewares/Third_Party/SEGGER/RTT/SEGGER_RTT.c ****     RTT__DMB();                     // Force data write to be complete before writing the <WrOff>, 
 484:Middlewares/Third_Party/SEGGER/RTT/SEGGER_RTT.c ****     pRing->WrOff = NumBytesAtOnce;
 485:Middlewares/Third_Party/SEGGER/RTT/SEGGER_RTT.c **** #endif
 486:Middlewares/Third_Party/SEGGER/RTT/SEGGER_RTT.c ****   }
ARM GAS  C:\Users\Administrator\AppData\Local\Temp\ccUGyMKj.s 			page 10


 487:Middlewares/Third_Party/SEGGER/RTT/SEGGER_RTT.c **** }
 488:Middlewares/Third_Party/SEGGER/RTT/SEGGER_RTT.c **** 
 489:Middlewares/Third_Party/SEGGER/RTT/SEGGER_RTT.c **** /*********************************************************************
 490:Middlewares/Third_Party/SEGGER/RTT/SEGGER_RTT.c **** *
 491:Middlewares/Third_Party/SEGGER/RTT/SEGGER_RTT.c **** *       _PostTerminalSwitch()
 492:Middlewares/Third_Party/SEGGER/RTT/SEGGER_RTT.c **** *
 493:Middlewares/Third_Party/SEGGER/RTT/SEGGER_RTT.c **** *  Function description
 494:Middlewares/Third_Party/SEGGER/RTT/SEGGER_RTT.c **** *    Switch terminal to the given terminal ID.  It is the caller's
 495:Middlewares/Third_Party/SEGGER/RTT/SEGGER_RTT.c **** *    responsibility to ensure the terminal ID is correct and there is
 496:Middlewares/Third_Party/SEGGER/RTT/SEGGER_RTT.c **** *    enough space in the buffer for this to complete successfully.
 497:Middlewares/Third_Party/SEGGER/RTT/SEGGER_RTT.c **** *
 498:Middlewares/Third_Party/SEGGER/RTT/SEGGER_RTT.c **** *  Parameters
 499:Middlewares/Third_Party/SEGGER/RTT/SEGGER_RTT.c **** *    pRing        Ring buffer to post to.
 500:Middlewares/Third_Party/SEGGER/RTT/SEGGER_RTT.c **** *    TerminalId   Terminal ID to switch to.
 501:Middlewares/Third_Party/SEGGER/RTT/SEGGER_RTT.c **** */
 502:Middlewares/Third_Party/SEGGER/RTT/SEGGER_RTT.c **** static void _PostTerminalSwitch(SEGGER_RTT_BUFFER_UP* pRing, unsigned char TerminalId) {
 503:Middlewares/Third_Party/SEGGER/RTT/SEGGER_RTT.c ****   unsigned char ac[2];
 504:Middlewares/Third_Party/SEGGER/RTT/SEGGER_RTT.c **** 
 505:Middlewares/Third_Party/SEGGER/RTT/SEGGER_RTT.c ****   ac[0] = 0xFFu;
 506:Middlewares/Third_Party/SEGGER/RTT/SEGGER_RTT.c ****   ac[1] = _aTerminalId[TerminalId];  // Caller made already sure that TerminalId does not exceed ou
 507:Middlewares/Third_Party/SEGGER/RTT/SEGGER_RTT.c ****   _WriteBlocking(pRing, (const char*)ac, 2u);
 508:Middlewares/Third_Party/SEGGER/RTT/SEGGER_RTT.c **** }
 509:Middlewares/Third_Party/SEGGER/RTT/SEGGER_RTT.c **** 
 510:Middlewares/Third_Party/SEGGER/RTT/SEGGER_RTT.c **** /*********************************************************************
 511:Middlewares/Third_Party/SEGGER/RTT/SEGGER_RTT.c **** *
 512:Middlewares/Third_Party/SEGGER/RTT/SEGGER_RTT.c **** *       _GetAvailWriteSpace()
 513:Middlewares/Third_Party/SEGGER/RTT/SEGGER_RTT.c **** *
 514:Middlewares/Third_Party/SEGGER/RTT/SEGGER_RTT.c **** *  Function description
 515:Middlewares/Third_Party/SEGGER/RTT/SEGGER_RTT.c **** *    Returns the number of bytes that can be written to the ring
 516:Middlewares/Third_Party/SEGGER/RTT/SEGGER_RTT.c **** *    buffer without blocking.
 517:Middlewares/Third_Party/SEGGER/RTT/SEGGER_RTT.c **** *
 518:Middlewares/Third_Party/SEGGER/RTT/SEGGER_RTT.c **** *  Parameters
 519:Middlewares/Third_Party/SEGGER/RTT/SEGGER_RTT.c **** *    pRing        Ring buffer to check.
 520:Middlewares/Third_Party/SEGGER/RTT/SEGGER_RTT.c **** *
 521:Middlewares/Third_Party/SEGGER/RTT/SEGGER_RTT.c **** *  Return value
 522:Middlewares/Third_Party/SEGGER/RTT/SEGGER_RTT.c **** *    Number of bytes that are free in the buffer.
 523:Middlewares/Third_Party/SEGGER/RTT/SEGGER_RTT.c **** */
 524:Middlewares/Third_Party/SEGGER/RTT/SEGGER_RTT.c **** static unsigned _GetAvailWriteSpace(SEGGER_RTT_BUFFER_UP* pRing) {
  29              		.loc 1 524 66 view -0
  30              		.cfi_startproc
  31              		@ args = 0, pretend = 0, frame = 0
  32              		@ frame_needed = 0, uses_anonymous_args = 0
  33              		@ link register save eliminated.
 525:Middlewares/Third_Party/SEGGER/RTT/SEGGER_RTT.c ****   unsigned RdOff;
  34              		.loc 1 525 3 view .LVU1
 526:Middlewares/Third_Party/SEGGER/RTT/SEGGER_RTT.c ****   unsigned WrOff;
  35              		.loc 1 526 3 view .LVU2
 527:Middlewares/Third_Party/SEGGER/RTT/SEGGER_RTT.c ****   unsigned r;
  36              		.loc 1 527 3 view .LVU3
 528:Middlewares/Third_Party/SEGGER/RTT/SEGGER_RTT.c ****   //
 529:Middlewares/Third_Party/SEGGER/RTT/SEGGER_RTT.c ****   // Avoid warnings regarding volatile access order.  It's not a problem
 530:Middlewares/Third_Party/SEGGER/RTT/SEGGER_RTT.c ****   // in this case, but dampen compiler enthusiasm.
 531:Middlewares/Third_Party/SEGGER/RTT/SEGGER_RTT.c ****   //
 532:Middlewares/Third_Party/SEGGER/RTT/SEGGER_RTT.c ****   RdOff = pRing->RdOff;
  37              		.loc 1 532 3 view .LVU4
  38              		.loc 1 532 9 is_stmt 0 view .LVU5
  39 0000 0369     		ldr	r3, [r0, #16]
ARM GAS  C:\Users\Administrator\AppData\Local\Temp\ccUGyMKj.s 			page 11


  40              	.LVL1:
 533:Middlewares/Third_Party/SEGGER/RTT/SEGGER_RTT.c ****   WrOff = pRing->WrOff;
  41              		.loc 1 533 3 is_stmt 1 view .LVU6
  42              		.loc 1 533 9 is_stmt 0 view .LVU7
  43 0002 C268     		ldr	r2, [r0, #12]
  44              	.LVL2:
 534:Middlewares/Third_Party/SEGGER/RTT/SEGGER_RTT.c ****   if (RdOff <= WrOff) {
  45              		.loc 1 534 3 is_stmt 1 view .LVU8
  46              		.loc 1 534 6 is_stmt 0 view .LVU9
  47 0004 9342     		cmp	r3, r2
  48 0006 04D8     		bhi	.L2
 535:Middlewares/Third_Party/SEGGER/RTT/SEGGER_RTT.c ****     r = pRing->SizeOfBuffer - 1u - WrOff + RdOff;
  49              		.loc 1 535 5 is_stmt 1 view .LVU10
  50              		.loc 1 535 14 is_stmt 0 view .LVU11
  51 0008 8168     		ldr	r1, [r0, #8]
  52              		.loc 1 535 34 view .LVU12
  53 000a 8A1A     		subs	r2, r1, r2
  54              	.LVL3:
  55              		.loc 1 535 42 view .LVU13
  56 000c 1344     		add	r3, r3, r2
  57              	.LVL4:
  58              		.loc 1 535 7 view .LVU14
  59 000e 581E     		subs	r0, r3, #1
  60              	.LVL5:
  61              		.loc 1 535 7 view .LVU15
  62 0010 7047     		bx	lr
  63              	.LVL6:
  64              	.L2:
 536:Middlewares/Third_Party/SEGGER/RTT/SEGGER_RTT.c ****   } else {
 537:Middlewares/Third_Party/SEGGER/RTT/SEGGER_RTT.c ****     r = RdOff - WrOff - 1u;
  65              		.loc 1 537 5 is_stmt 1 view .LVU16
  66              		.loc 1 537 15 is_stmt 0 view .LVU17
  67 0012 981A     		subs	r0, r3, r2
  68              	.LVL7:
  69              		.loc 1 537 7 view .LVU18
  70 0014 0138     		subs	r0, r0, #1
  71              	.LVL8:
 538:Middlewares/Third_Party/SEGGER/RTT/SEGGER_RTT.c ****   }
 539:Middlewares/Third_Party/SEGGER/RTT/SEGGER_RTT.c ****   return r;
  72              		.loc 1 539 3 is_stmt 1 view .LVU19
 540:Middlewares/Third_Party/SEGGER/RTT/SEGGER_RTT.c **** }
  73              		.loc 1 540 1 is_stmt 0 view .LVU20
  74 0016 7047     		bx	lr
  75              		.cfi_endproc
  76              	.LFE4:
  78              		.section	.text._WriteNoCheck,"ax",%progbits
  79              		.align	1
  80              		.syntax unified
  81              		.thumb
  82              		.thumb_func
  84              	_WriteNoCheck:
  85              	.LVL9:
  86              	.LFB2:
 434:Middlewares/Third_Party/SEGGER/RTT/SEGGER_RTT.c ****   unsigned NumBytesAtOnce;
  87              		.loc 1 434 94 is_stmt 1 view -0
  88              		.cfi_startproc
  89              		@ args = 0, pretend = 0, frame = 0
ARM GAS  C:\Users\Administrator\AppData\Local\Temp\ccUGyMKj.s 			page 12


  90              		@ frame_needed = 0, uses_anonymous_args = 0
 434:Middlewares/Third_Party/SEGGER/RTT/SEGGER_RTT.c ****   unsigned NumBytesAtOnce;
  91              		.loc 1 434 94 is_stmt 0 view .LVU22
  92 0000 2DE9F843 		push	{r3, r4, r5, r6, r7, r8, r9, lr}
  93              		.cfi_def_cfa_offset 32
  94              		.cfi_offset 3, -32
  95              		.cfi_offset 4, -28
  96              		.cfi_offset 5, -24
  97              		.cfi_offset 6, -20
  98              		.cfi_offset 7, -16
  99              		.cfi_offset 8, -12
 100              		.cfi_offset 9, -8
 101              		.cfi_offset 14, -4
 102 0004 0446     		mov	r4, r0
 103 0006 1646     		mov	r6, r2
 435:Middlewares/Third_Party/SEGGER/RTT/SEGGER_RTT.c ****   unsigned WrOff;
 104              		.loc 1 435 3 is_stmt 1 view .LVU23
 436:Middlewares/Third_Party/SEGGER/RTT/SEGGER_RTT.c ****   unsigned Rem;
 105              		.loc 1 436 3 view .LVU24
 437:Middlewares/Third_Party/SEGGER/RTT/SEGGER_RTT.c ****   volatile char* pDst;
 106              		.loc 1 437 3 view .LVU25
 438:Middlewares/Third_Party/SEGGER/RTT/SEGGER_RTT.c **** 
 107              		.loc 1 438 3 view .LVU26
 440:Middlewares/Third_Party/SEGGER/RTT/SEGGER_RTT.c ****   Rem = pRing->SizeOfBuffer - WrOff;
 108              		.loc 1 440 3 view .LVU27
 440:Middlewares/Third_Party/SEGGER/RTT/SEGGER_RTT.c ****   Rem = pRing->SizeOfBuffer - WrOff;
 109              		.loc 1 440 9 is_stmt 0 view .LVU28
 110 0008 C568     		ldr	r5, [r0, #12]
 111              	.LVL10:
 441:Middlewares/Third_Party/SEGGER/RTT/SEGGER_RTT.c ****   if (Rem > NumBytes) {
 112              		.loc 1 441 3 is_stmt 1 view .LVU29
 441:Middlewares/Third_Party/SEGGER/RTT/SEGGER_RTT.c ****   if (Rem > NumBytes) {
 113              		.loc 1 441 14 is_stmt 0 view .LVU30
 114 000a 8768     		ldr	r7, [r0, #8]
 441:Middlewares/Third_Party/SEGGER/RTT/SEGGER_RTT.c ****   if (Rem > NumBytes) {
 115              		.loc 1 441 7 view .LVU31
 116 000c A7EB0508 		sub	r8, r7, r5
 117              	.LVL11:
 442:Middlewares/Third_Party/SEGGER/RTT/SEGGER_RTT.c ****     //
 118              		.loc 1 442 3 is_stmt 1 view .LVU32
 442:Middlewares/Third_Party/SEGGER/RTT/SEGGER_RTT.c ****     //
 119              		.loc 1 442 6 is_stmt 0 view .LVU33
 120 0010 9045     		cmp	r8, r2
 121 0012 09D9     		bls	.L5
 446:Middlewares/Third_Party/SEGGER/RTT/SEGGER_RTT.c **** #if SEGGER_RTT_MEMCPY_USE_BYTELOOP
 122              		.loc 1 446 5 is_stmt 1 view .LVU34
 446:Middlewares/Third_Party/SEGGER/RTT/SEGGER_RTT.c **** #if SEGGER_RTT_MEMCPY_USE_BYTELOOP
 123              		.loc 1 446 18 is_stmt 0 view .LVU35
 124 0014 4068     		ldr	r0, [r0, #4]
 125              	.LVL12:
 455:Middlewares/Third_Party/SEGGER/RTT/SEGGER_RTT.c ****     RTT__DMB();                     // Force data write to be complete before writing the <WrOff>, 
 126              		.loc 1 455 5 is_stmt 1 view .LVU36
 127 0016 2844     		add	r0, r0, r5
 128              	.LVL13:
 455:Middlewares/Third_Party/SEGGER/RTT/SEGGER_RTT.c ****     RTT__DMB();                     // Force data write to be complete before writing the <WrOff>, 
 129              		.loc 1 455 5 is_stmt 0 view .LVU37
 130 0018 FFF7FEFF 		bl	memcpy
ARM GAS  C:\Users\Administrator\AppData\Local\Temp\ccUGyMKj.s 			page 13


 131              	.LVL14:
 456:Middlewares/Third_Party/SEGGER/RTT/SEGGER_RTT.c ****     pRing->WrOff = WrOff + NumBytes;
 132              		.loc 1 456 5 is_stmt 1 view .LVU38
 133              		.syntax unified
 134              	@ 456 "Middlewares/Third_Party/SEGGER/RTT/SEGGER_RTT.c" 1
 135 001c BFF35F8F 		dmb
 136              	
 137              	@ 0 "" 2
 456:Middlewares/Third_Party/SEGGER/RTT/SEGGER_RTT.c ****     pRing->WrOff = WrOff + NumBytes;
 138              		.loc 1 456 15 view .LVU39
 457:Middlewares/Third_Party/SEGGER/RTT/SEGGER_RTT.c **** #endif
 139              		.loc 1 457 5 view .LVU40
 457:Middlewares/Third_Party/SEGGER/RTT/SEGGER_RTT.c **** #endif
 140              		.loc 1 457 26 is_stmt 0 view .LVU41
 141              		.thumb
 142              		.syntax unified
 143 0020 3544     		add	r5, r5, r6
 144              	.LVL15:
 457:Middlewares/Third_Party/SEGGER/RTT/SEGGER_RTT.c **** #endif
 145              		.loc 1 457 18 view .LVU42
 146 0022 E560     		str	r5, [r4, #12]
 147              	.LVL16:
 148              	.L4:
 487:Middlewares/Third_Party/SEGGER/RTT/SEGGER_RTT.c **** 
 149              		.loc 1 487 1 view .LVU43
 150 0024 BDE8F883 		pop	{r3, r4, r5, r6, r7, r8, r9, pc}
 151              	.LVL17:
 152              	.L5:
 477:Middlewares/Third_Party/SEGGER/RTT/SEGGER_RTT.c ****     pDst = (pRing->pBuffer + WrOff) + SEGGER_RTT_UNCACHED_OFF;
 153              		.loc 1 477 5 is_stmt 1 view .LVU44
 478:Middlewares/Third_Party/SEGGER/RTT/SEGGER_RTT.c ****     SEGGER_RTT_MEMCPY((void*)pDst, pData, NumBytesAtOnce);
 154              		.loc 1 478 5 view .LVU45
 478:Middlewares/Third_Party/SEGGER/RTT/SEGGER_RTT.c ****     SEGGER_RTT_MEMCPY((void*)pDst, pData, NumBytesAtOnce);
 155              		.loc 1 478 18 is_stmt 0 view .LVU46
 156 0028 4068     		ldr	r0, [r0, #4]
 157              	.LVL18:
 479:Middlewares/Third_Party/SEGGER/RTT/SEGGER_RTT.c ****     NumBytesAtOnce = NumBytes - Rem;
 158              		.loc 1 479 5 is_stmt 1 view .LVU47
 159 002a 4246     		mov	r2, r8
 160              	.LVL19:
 479:Middlewares/Third_Party/SEGGER/RTT/SEGGER_RTT.c ****     NumBytesAtOnce = NumBytes - Rem;
 161              		.loc 1 479 5 is_stmt 0 view .LVU48
 162 002c 8946     		mov	r9, r1
 163 002e 2844     		add	r0, r0, r5
 164              	.LVL20:
 479:Middlewares/Third_Party/SEGGER/RTT/SEGGER_RTT.c ****     NumBytesAtOnce = NumBytes - Rem;
 165              		.loc 1 479 5 view .LVU49
 166 0030 FFF7FEFF 		bl	memcpy
 167              	.LVL21:
 480:Middlewares/Third_Party/SEGGER/RTT/SEGGER_RTT.c ****     pDst = pRing->pBuffer + SEGGER_RTT_UNCACHED_OFF;
 168              		.loc 1 480 5 is_stmt 1 view .LVU50
 480:Middlewares/Third_Party/SEGGER/RTT/SEGGER_RTT.c ****     pDst = pRing->pBuffer + SEGGER_RTT_UNCACHED_OFF;
 169              		.loc 1 480 20 is_stmt 0 view .LVU51
 170 0034 ED1B     		subs	r5, r5, r7
 171              	.LVL22:
 480:Middlewares/Third_Party/SEGGER/RTT/SEGGER_RTT.c ****     pDst = pRing->pBuffer + SEGGER_RTT_UNCACHED_OFF;
 172              		.loc 1 480 20 view .LVU52
ARM GAS  C:\Users\Administrator\AppData\Local\Temp\ccUGyMKj.s 			page 14


 173 0036 3544     		add	r5, r5, r6
 174              	.LVL23:
 481:Middlewares/Third_Party/SEGGER/RTT/SEGGER_RTT.c ****     SEGGER_RTT_MEMCPY((void*)pDst, pData + Rem, NumBytesAtOnce);
 175              		.loc 1 481 5 is_stmt 1 view .LVU53
 482:Middlewares/Third_Party/SEGGER/RTT/SEGGER_RTT.c ****     RTT__DMB();                     // Force data write to be complete before writing the <WrOff>, 
 176              		.loc 1 482 5 view .LVU54
 177 0038 2A46     		mov	r2, r5
 178 003a 4946     		mov	r1, r9
 179 003c 4144     		add	r1, r1, r8
 180 003e 6068     		ldr	r0, [r4, #4]
 181 0040 FFF7FEFF 		bl	memcpy
 182              	.LVL24:
 483:Middlewares/Third_Party/SEGGER/RTT/SEGGER_RTT.c ****     pRing->WrOff = NumBytesAtOnce;
 183              		.loc 1 483 5 view .LVU55
 184              		.syntax unified
 185              	@ 483 "Middlewares/Third_Party/SEGGER/RTT/SEGGER_RTT.c" 1
 186 0044 BFF35F8F 		dmb
 187              	
 188              	@ 0 "" 2
 483:Middlewares/Third_Party/SEGGER/RTT/SEGGER_RTT.c ****     pRing->WrOff = NumBytesAtOnce;
 189              		.loc 1 483 15 view .LVU56
 484:Middlewares/Third_Party/SEGGER/RTT/SEGGER_RTT.c **** #endif
 190              		.loc 1 484 5 view .LVU57
 484:Middlewares/Third_Party/SEGGER/RTT/SEGGER_RTT.c **** #endif
 191              		.loc 1 484 18 is_stmt 0 view .LVU58
 192              		.thumb
 193              		.syntax unified
 194 0048 E560     		str	r5, [r4, #12]
 487:Middlewares/Third_Party/SEGGER/RTT/SEGGER_RTT.c **** 
 195              		.loc 1 487 1 view .LVU59
 196 004a EBE7     		b	.L4
 197              		.cfi_endproc
 198              	.LFE2:
 200              		.section	.text._WriteBlocking,"ax",%progbits
 201              		.align	1
 202              		.syntax unified
 203              		.thumb
 204              		.thumb_func
 206              	_WriteBlocking:
 207              	.LVL25:
 208              	.LFB1:
 372:Middlewares/Third_Party/SEGGER/RTT/SEGGER_RTT.c ****   unsigned NumBytesToWrite;
 209              		.loc 1 372 101 is_stmt 1 view -0
 210              		.cfi_startproc
 211              		@ args = 0, pretend = 0, frame = 0
 212              		@ frame_needed = 0, uses_anonymous_args = 0
 372:Middlewares/Third_Party/SEGGER/RTT/SEGGER_RTT.c ****   unsigned NumBytesToWrite;
 213              		.loc 1 372 101 is_stmt 0 view .LVU61
 214 0000 2DE9F843 		push	{r3, r4, r5, r6, r7, r8, r9, lr}
 215              		.cfi_def_cfa_offset 32
 216              		.cfi_offset 3, -32
 217              		.cfi_offset 4, -28
 218              		.cfi_offset 5, -24
 219              		.cfi_offset 6, -20
 220              		.cfi_offset 7, -16
 221              		.cfi_offset 8, -12
 222              		.cfi_offset 9, -8
ARM GAS  C:\Users\Administrator\AppData\Local\Temp\ccUGyMKj.s 			page 15


 223              		.cfi_offset 14, -4
 224 0004 0646     		mov	r6, r0
 225 0006 8846     		mov	r8, r1
 226 0008 1746     		mov	r7, r2
 373:Middlewares/Third_Party/SEGGER/RTT/SEGGER_RTT.c ****   unsigned NumBytesWritten;
 227              		.loc 1 373 3 is_stmt 1 view .LVU62
 374:Middlewares/Third_Party/SEGGER/RTT/SEGGER_RTT.c ****   unsigned RdOff;
 228              		.loc 1 374 3 view .LVU63
 375:Middlewares/Third_Party/SEGGER/RTT/SEGGER_RTT.c ****   unsigned WrOff;
 229              		.loc 1 375 3 view .LVU64
 376:Middlewares/Third_Party/SEGGER/RTT/SEGGER_RTT.c ****   volatile char* pDst;
 230              		.loc 1 376 3 view .LVU65
 377:Middlewares/Third_Party/SEGGER/RTT/SEGGER_RTT.c ****   //
 231              		.loc 1 377 3 view .LVU66
 381:Middlewares/Third_Party/SEGGER/RTT/SEGGER_RTT.c ****   WrOff = pRing->WrOff;
 232              		.loc 1 381 3 view .LVU67
 233              	.LVL26:
 382:Middlewares/Third_Party/SEGGER/RTT/SEGGER_RTT.c ****   do {
 234              		.loc 1 382 3 view .LVU68
 382:Middlewares/Third_Party/SEGGER/RTT/SEGGER_RTT.c ****   do {
 235              		.loc 1 382 9 is_stmt 0 view .LVU69
 236 000a C568     		ldr	r5, [r0, #12]
 237              	.LVL27:
 381:Middlewares/Third_Party/SEGGER/RTT/SEGGER_RTT.c ****   WrOff = pRing->WrOff;
 238              		.loc 1 381 19 view .LVU70
 239 000c 4FF00009 		mov	r9, #0
 240 0010 1CE0     		b	.L12
 241              	.LVL28:
 242              	.L9:
 388:Middlewares/Third_Party/SEGGER/RTT/SEGGER_RTT.c ****     }
 243              		.loc 1 388 7 is_stmt 1 view .LVU71
 388:Middlewares/Third_Party/SEGGER/RTT/SEGGER_RTT.c ****     }
 244              		.loc 1 388 30 is_stmt 0 view .LVU72
 245 0012 B268     		ldr	r2, [r6, #8]
 388:Middlewares/Third_Party/SEGGER/RTT/SEGGER_RTT.c ****     }
 246              		.loc 1 388 62 view .LVU73
 247 0014 5B1B     		subs	r3, r3, r5
 248              	.LVL29:
 388:Middlewares/Third_Party/SEGGER/RTT/SEGGER_RTT.c ****     }
 249              		.loc 1 388 45 view .LVU74
 250 0016 1A44     		add	r2, r2, r3
 388:Middlewares/Third_Party/SEGGER/RTT/SEGGER_RTT.c ****     }
 251              		.loc 1 388 23 view .LVU75
 252 0018 013A     		subs	r2, r2, #1
 253              	.L10:
 254              	.LVL30:
 390:Middlewares/Third_Party/SEGGER/RTT/SEGGER_RTT.c ****     NumBytesToWrite = MIN(NumBytesToWrite, NumBytes);
 255              		.loc 1 390 5 is_stmt 1 view .LVU76
 390:Middlewares/Third_Party/SEGGER/RTT/SEGGER_RTT.c ****     NumBytesToWrite = MIN(NumBytesToWrite, NumBytes);
 256              		.loc 1 390 23 is_stmt 0 view .LVU77
 257 001a B368     		ldr	r3, [r6, #8]
 258 001c 5C1B     		subs	r4, r3, r5
 390:Middlewares/Third_Party/SEGGER/RTT/SEGGER_RTT.c ****     NumBytesToWrite = MIN(NumBytesToWrite, NumBytes);
 259              		.loc 1 390 21 view .LVU78
 260 001e 9442     		cmp	r4, r2
 261 0020 28BF     		it	cs
 262 0022 1446     		movcs	r4, r2
ARM GAS  C:\Users\Administrator\AppData\Local\Temp\ccUGyMKj.s 			page 16


 263              	.LVL31:
 391:Middlewares/Third_Party/SEGGER/RTT/SEGGER_RTT.c ****     pDst = (pRing->pBuffer + WrOff) + SEGGER_RTT_UNCACHED_OFF;
 264              		.loc 1 391 5 is_stmt 1 view .LVU79
 391:Middlewares/Third_Party/SEGGER/RTT/SEGGER_RTT.c ****     pDst = (pRing->pBuffer + WrOff) + SEGGER_RTT_UNCACHED_OFF;
 265              		.loc 1 391 21 is_stmt 0 view .LVU80
 266 0024 BC42     		cmp	r4, r7
 267 0026 28BF     		it	cs
 268 0028 3C46     		movcs	r4, r7
 269              	.LVL32:
 392:Middlewares/Third_Party/SEGGER/RTT/SEGGER_RTT.c **** #if SEGGER_RTT_MEMCPY_USE_BYTELOOP
 270              		.loc 1 392 5 is_stmt 1 view .LVU81
 392:Middlewares/Third_Party/SEGGER/RTT/SEGGER_RTT.c **** #if SEGGER_RTT_MEMCPY_USE_BYTELOOP
 271              		.loc 1 392 18 is_stmt 0 view .LVU82
 272 002a 7068     		ldr	r0, [r6, #4]
 273              	.LVL33:
 401:Middlewares/Third_Party/SEGGER/RTT/SEGGER_RTT.c ****     NumBytesWritten += NumBytesToWrite;
 274              		.loc 1 401 5 is_stmt 1 view .LVU83
 275 002c 2246     		mov	r2, r4
 276 002e 4146     		mov	r1, r8
 277 0030 2844     		add	r0, r0, r5
 278              	.LVL34:
 401:Middlewares/Third_Party/SEGGER/RTT/SEGGER_RTT.c ****     NumBytesWritten += NumBytesToWrite;
 279              		.loc 1 401 5 is_stmt 0 view .LVU84
 280 0032 FFF7FEFF 		bl	memcpy
 281              	.LVL35:
 402:Middlewares/Third_Party/SEGGER/RTT/SEGGER_RTT.c ****     pBuffer         += NumBytesToWrite;
 282              		.loc 1 402 5 is_stmt 1 view .LVU85
 402:Middlewares/Third_Party/SEGGER/RTT/SEGGER_RTT.c ****     pBuffer         += NumBytesToWrite;
 283              		.loc 1 402 21 is_stmt 0 view .LVU86
 284 0036 A144     		add	r9, r9, r4
 285              	.LVL36:
 403:Middlewares/Third_Party/SEGGER/RTT/SEGGER_RTT.c ****     NumBytes        -= NumBytesToWrite;
 286              		.loc 1 403 5 is_stmt 1 view .LVU87
 403:Middlewares/Third_Party/SEGGER/RTT/SEGGER_RTT.c ****     NumBytes        -= NumBytesToWrite;
 287              		.loc 1 403 21 is_stmt 0 view .LVU88
 288 0038 A044     		add	r8, r8, r4
 289              	.LVL37:
 404:Middlewares/Third_Party/SEGGER/RTT/SEGGER_RTT.c ****     WrOff           += NumBytesToWrite;
 290              		.loc 1 404 5 is_stmt 1 view .LVU89
 404:Middlewares/Third_Party/SEGGER/RTT/SEGGER_RTT.c ****     WrOff           += NumBytesToWrite;
 291              		.loc 1 404 21 is_stmt 0 view .LVU90
 292 003a 3F1B     		subs	r7, r7, r4
 293              	.LVL38:
 405:Middlewares/Third_Party/SEGGER/RTT/SEGGER_RTT.c **** #endif
 294              		.loc 1 405 5 is_stmt 1 view .LVU91
 405:Middlewares/Third_Party/SEGGER/RTT/SEGGER_RTT.c **** #endif
 295              		.loc 1 405 21 is_stmt 0 view .LVU92
 296 003c 2544     		add	r5, r5, r4
 297              	.LVL39:
 407:Middlewares/Third_Party/SEGGER/RTT/SEGGER_RTT.c ****       WrOff = 0u;
 298              		.loc 1 407 5 is_stmt 1 view .LVU93
 407:Middlewares/Third_Party/SEGGER/RTT/SEGGER_RTT.c ****       WrOff = 0u;
 299              		.loc 1 407 23 is_stmt 0 view .LVU94
 300 003e B368     		ldr	r3, [r6, #8]
 407:Middlewares/Third_Party/SEGGER/RTT/SEGGER_RTT.c ****       WrOff = 0u;
 301              		.loc 1 407 8 view .LVU95
 302 0040 AB42     		cmp	r3, r5
ARM GAS  C:\Users\Administrator\AppData\Local\Temp\ccUGyMKj.s 			page 17


 303 0042 09D0     		beq	.L15
 304              	.LVL40:
 305              	.L11:
 410:Middlewares/Third_Party/SEGGER/RTT/SEGGER_RTT.c ****     pRing->WrOff = WrOff;
 306              		.loc 1 410 5 is_stmt 1 view .LVU96
 307              		.syntax unified
 308              	@ 410 "Middlewares/Third_Party/SEGGER/RTT/SEGGER_RTT.c" 1
 309 0044 BFF35F8F 		dmb
 310              	
 311              	@ 0 "" 2
 410:Middlewares/Third_Party/SEGGER/RTT/SEGGER_RTT.c ****     pRing->WrOff = WrOff;
 312              		.loc 1 410 15 view .LVU97
 411:Middlewares/Third_Party/SEGGER/RTT/SEGGER_RTT.c ****   } while (NumBytes);
 313              		.loc 1 411 5 view .LVU98
 411:Middlewares/Third_Party/SEGGER/RTT/SEGGER_RTT.c ****   } while (NumBytes);
 314              		.loc 1 411 18 is_stmt 0 view .LVU99
 315              		.thumb
 316              		.syntax unified
 317 0048 F560     		str	r5, [r6, #12]
 412:Middlewares/Third_Party/SEGGER/RTT/SEGGER_RTT.c ****   return NumBytesWritten;
 318              		.loc 1 412 12 is_stmt 1 view .LVU100
 319 004a 3FB1     		cbz	r7, .L16
 320              	.LVL41:
 321              	.L12:
 383:Middlewares/Third_Party/SEGGER/RTT/SEGGER_RTT.c ****     RdOff = pRing->RdOff;                         // May be changed by host (debug probe) in the me
 322              		.loc 1 383 3 view .LVU101
 384:Middlewares/Third_Party/SEGGER/RTT/SEGGER_RTT.c ****     if (RdOff > WrOff) {
 323              		.loc 1 384 5 view .LVU102
 384:Middlewares/Third_Party/SEGGER/RTT/SEGGER_RTT.c ****     if (RdOff > WrOff) {
 324              		.loc 1 384 11 is_stmt 0 view .LVU103
 325 004c 3369     		ldr	r3, [r6, #16]
 326              	.LVL42:
 385:Middlewares/Third_Party/SEGGER/RTT/SEGGER_RTT.c ****       NumBytesToWrite = RdOff - WrOff - 1u;
 327              		.loc 1 385 5 is_stmt 1 view .LVU104
 385:Middlewares/Third_Party/SEGGER/RTT/SEGGER_RTT.c ****       NumBytesToWrite = RdOff - WrOff - 1u;
 328              		.loc 1 385 8 is_stmt 0 view .LVU105
 329 004e 9D42     		cmp	r5, r3
 330 0050 DFD2     		bcs	.L9
 386:Middlewares/Third_Party/SEGGER/RTT/SEGGER_RTT.c ****     } else {
 331              		.loc 1 386 7 is_stmt 1 view .LVU106
 386:Middlewares/Third_Party/SEGGER/RTT/SEGGER_RTT.c ****     } else {
 332              		.loc 1 386 31 is_stmt 0 view .LVU107
 333 0052 5B1B     		subs	r3, r3, r5
 334              	.LVL43:
 386:Middlewares/Third_Party/SEGGER/RTT/SEGGER_RTT.c ****     } else {
 335              		.loc 1 386 23 view .LVU108
 336 0054 5A1E     		subs	r2, r3, #1
 337              	.LVL44:
 386:Middlewares/Third_Party/SEGGER/RTT/SEGGER_RTT.c ****     } else {
 338              		.loc 1 386 23 view .LVU109
 339 0056 E0E7     		b	.L10
 340              	.LVL45:
 341              	.L15:
 408:Middlewares/Third_Party/SEGGER/RTT/SEGGER_RTT.c ****     }
 342              		.loc 1 408 13 view .LVU110
 343 0058 0025     		movs	r5, #0
 344              	.LVL46:
ARM GAS  C:\Users\Administrator\AppData\Local\Temp\ccUGyMKj.s 			page 18


 408:Middlewares/Third_Party/SEGGER/RTT/SEGGER_RTT.c ****     }
 345              		.loc 1 408 13 view .LVU111
 346 005a F3E7     		b	.L11
 347              	.LVL47:
 348              	.L16:
 413:Middlewares/Third_Party/SEGGER/RTT/SEGGER_RTT.c **** }
 349              		.loc 1 413 3 is_stmt 1 view .LVU112
 414:Middlewares/Third_Party/SEGGER/RTT/SEGGER_RTT.c **** 
 350              		.loc 1 414 1 is_stmt 0 view .LVU113
 351 005c 4846     		mov	r0, r9
 352 005e BDE8F883 		pop	{r3, r4, r5, r6, r7, r8, r9, pc}
 414:Middlewares/Third_Party/SEGGER/RTT/SEGGER_RTT.c **** 
 353              		.loc 1 414 1 view .LVU114
 354              		.cfi_endproc
 355              	.LFE1:
 357              		.section	.text._PostTerminalSwitch,"ax",%progbits
 358              		.align	1
 359              		.syntax unified
 360              		.thumb
 361              		.thumb_func
 363              	_PostTerminalSwitch:
 364              	.LVL48:
 365              	.LFB3:
 502:Middlewares/Third_Party/SEGGER/RTT/SEGGER_RTT.c ****   unsigned char ac[2];
 366              		.loc 1 502 88 is_stmt 1 view -0
 367              		.cfi_startproc
 368              		@ args = 0, pretend = 0, frame = 8
 369              		@ frame_needed = 0, uses_anonymous_args = 0
 502:Middlewares/Third_Party/SEGGER/RTT/SEGGER_RTT.c ****   unsigned char ac[2];
 370              		.loc 1 502 88 is_stmt 0 view .LVU116
 371 0000 00B5     		push	{lr}
 372              		.cfi_def_cfa_offset 4
 373              		.cfi_offset 14, -4
 374 0002 83B0     		sub	sp, sp, #12
 375              		.cfi_def_cfa_offset 16
 503:Middlewares/Third_Party/SEGGER/RTT/SEGGER_RTT.c **** 
 376              		.loc 1 503 3 is_stmt 1 view .LVU117
 505:Middlewares/Third_Party/SEGGER/RTT/SEGGER_RTT.c ****   ac[1] = _aTerminalId[TerminalId];  // Caller made already sure that TerminalId does not exceed ou
 377              		.loc 1 505 3 view .LVU118
 505:Middlewares/Third_Party/SEGGER/RTT/SEGGER_RTT.c ****   ac[1] = _aTerminalId[TerminalId];  // Caller made already sure that TerminalId does not exceed ou
 378              		.loc 1 505 9 is_stmt 0 view .LVU119
 379 0004 FF23     		movs	r3, #255
 380 0006 8DF80430 		strb	r3, [sp, #4]
 506:Middlewares/Third_Party/SEGGER/RTT/SEGGER_RTT.c ****   _WriteBlocking(pRing, (const char*)ac, 2u);
 381              		.loc 1 506 3 is_stmt 1 view .LVU120
 506:Middlewares/Third_Party/SEGGER/RTT/SEGGER_RTT.c ****   _WriteBlocking(pRing, (const char*)ac, 2u);
 382              		.loc 1 506 23 is_stmt 0 view .LVU121
 383 000a 054B     		ldr	r3, .L19
 384 000c 5B5C     		ldrb	r3, [r3, r1]	@ zero_extendqisi2
 506:Middlewares/Third_Party/SEGGER/RTT/SEGGER_RTT.c ****   _WriteBlocking(pRing, (const char*)ac, 2u);
 385              		.loc 1 506 9 view .LVU122
 386 000e 8DF80530 		strb	r3, [sp, #5]
 507:Middlewares/Third_Party/SEGGER/RTT/SEGGER_RTT.c **** }
 387              		.loc 1 507 3 is_stmt 1 view .LVU123
 388 0012 0222     		movs	r2, #2
 389 0014 01A9     		add	r1, sp, #4
 390              	.LVL49:
ARM GAS  C:\Users\Administrator\AppData\Local\Temp\ccUGyMKj.s 			page 19


 507:Middlewares/Third_Party/SEGGER/RTT/SEGGER_RTT.c **** }
 391              		.loc 1 507 3 is_stmt 0 view .LVU124
 392 0016 FFF7FEFF 		bl	_WriteBlocking
 393              	.LVL50:
 508:Middlewares/Third_Party/SEGGER/RTT/SEGGER_RTT.c **** 
 394              		.loc 1 508 1 view .LVU125
 395 001a 03B0     		add	sp, sp, #12
 396              		.cfi_def_cfa_offset 4
 397              		@ sp needed
 398 001c 00BD     		pop	{pc}
 399              	.L20:
 400 001e 00BF     		.align	2
 401              	.L19:
 402 0020 00000000 		.word	_aTerminalId
 403              		.cfi_endproc
 404              	.LFE3:
 406              		.section	.rodata._DoInit.str1.4,"aMS",%progbits,1
 407              		.align	2
 408              	.LC0:
 409 0000 5465726D 		.ascii	"Terminal\000"
 409      696E616C 
 409      00
 410              		.section	.text._DoInit,"ax",%progbits
 411              		.align	1
 412              		.syntax unified
 413              		.thumb
 414              		.thumb_func
 416              	_DoInit:
 417              	.LFB0:
 312:Middlewares/Third_Party/SEGGER/RTT/SEGGER_RTT.c ****   volatile SEGGER_RTT_CB* p;   // Volatile to make sure that compiler cannot change the order of ac
 418              		.loc 1 312 27 is_stmt 1 view -0
 419              		.cfi_startproc
 420              		@ args = 0, pretend = 0, frame = 0
 421              		@ frame_needed = 0, uses_anonymous_args = 0
 422 0000 10B5     		push	{r4, lr}
 423              		.cfi_def_cfa_offset 8
 424              		.cfi_offset 4, -8
 425              		.cfi_offset 14, -4
 313:Middlewares/Third_Party/SEGGER/RTT/SEGGER_RTT.c ****   static const char _aInitStr[] = "\0\0\0\0\0\0TTR REGGES";  // Init complete ID string to make sur
 426              		.loc 1 313 3 view .LVU127
 314:Middlewares/Third_Party/SEGGER/RTT/SEGGER_RTT.c ****   unsigned i;
 427              		.loc 1 314 3 view .LVU128
 315:Middlewares/Third_Party/SEGGER/RTT/SEGGER_RTT.c ****   //
 428              		.loc 1 315 3 view .LVU129
 319:Middlewares/Third_Party/SEGGER/RTT/SEGGER_RTT.c ****   memset((SEGGER_RTT_CB*)p, 0, sizeof(_SEGGER_RTT));         // Make sure that the RTT CB is always
 429              		.loc 1 319 3 view .LVU130
 430              	.LVL51:
 320:Middlewares/Third_Party/SEGGER/RTT/SEGGER_RTT.c ****   p->MaxNumUpBuffers    = SEGGER_RTT_MAX_NUM_UP_BUFFERS;
 431              		.loc 1 320 3 view .LVU131
 432 0002 154C     		ldr	r4, .L25
 433 0004 A822     		movs	r2, #168
 434 0006 0021     		movs	r1, #0
 435 0008 2046     		mov	r0, r4
 436 000a FFF7FEFF 		bl	memset
 437              	.LVL52:
 321:Middlewares/Third_Party/SEGGER/RTT/SEGGER_RTT.c ****   p->MaxNumDownBuffers  = SEGGER_RTT_MAX_NUM_DOWN_BUFFERS;
 438              		.loc 1 321 3 view .LVU132
ARM GAS  C:\Users\Administrator\AppData\Local\Temp\ccUGyMKj.s 			page 20


 321:Middlewares/Third_Party/SEGGER/RTT/SEGGER_RTT.c ****   p->MaxNumDownBuffers  = SEGGER_RTT_MAX_NUM_DOWN_BUFFERS;
 439              		.loc 1 321 25 is_stmt 0 view .LVU133
 440 000e 0323     		movs	r3, #3
 441 0010 2361     		str	r3, [r4, #16]
 322:Middlewares/Third_Party/SEGGER/RTT/SEGGER_RTT.c ****   //
 442              		.loc 1 322 3 is_stmt 1 view .LVU134
 322:Middlewares/Third_Party/SEGGER/RTT/SEGGER_RTT.c ****   //
 443              		.loc 1 322 25 is_stmt 0 view .LVU135
 444 0012 6361     		str	r3, [r4, #20]
 326:Middlewares/Third_Party/SEGGER/RTT/SEGGER_RTT.c ****   p->aUp[0].pBuffer       = _acUpBuffer;
 445              		.loc 1 326 3 is_stmt 1 view .LVU136
 326:Middlewares/Third_Party/SEGGER/RTT/SEGGER_RTT.c ****   p->aUp[0].pBuffer       = _acUpBuffer;
 446              		.loc 1 326 27 is_stmt 0 view .LVU137
 447 0014 114A     		ldr	r2, .L25+4
 448 0016 A261     		str	r2, [r4, #24]
 327:Middlewares/Third_Party/SEGGER/RTT/SEGGER_RTT.c ****   p->aUp[0].SizeOfBuffer  = BUFFER_SIZE_UP;
 449              		.loc 1 327 3 is_stmt 1 view .LVU138
 327:Middlewares/Third_Party/SEGGER/RTT/SEGGER_RTT.c ****   p->aUp[0].SizeOfBuffer  = BUFFER_SIZE_UP;
 450              		.loc 1 327 27 is_stmt 0 view .LVU139
 451 0018 114B     		ldr	r3, .L25+8
 452 001a E361     		str	r3, [r4, #28]
 328:Middlewares/Third_Party/SEGGER/RTT/SEGGER_RTT.c ****   p->aUp[0].RdOff         = 0u;
 453              		.loc 1 328 3 is_stmt 1 view .LVU140
 328:Middlewares/Third_Party/SEGGER/RTT/SEGGER_RTT.c ****   p->aUp[0].RdOff         = 0u;
 454              		.loc 1 328 27 is_stmt 0 view .LVU141
 455 001c 4FF48063 		mov	r3, #1024
 456 0020 2362     		str	r3, [r4, #32]
 329:Middlewares/Third_Party/SEGGER/RTT/SEGGER_RTT.c ****   p->aUp[0].WrOff         = 0u;
 457              		.loc 1 329 3 is_stmt 1 view .LVU142
 329:Middlewares/Third_Party/SEGGER/RTT/SEGGER_RTT.c ****   p->aUp[0].WrOff         = 0u;
 458              		.loc 1 329 27 is_stmt 0 view .LVU143
 459 0022 0023     		movs	r3, #0
 460 0024 A362     		str	r3, [r4, #40]
 330:Middlewares/Third_Party/SEGGER/RTT/SEGGER_RTT.c ****   p->aUp[0].Flags         = SEGGER_RTT_MODE_DEFAULT;
 461              		.loc 1 330 3 is_stmt 1 view .LVU144
 330:Middlewares/Third_Party/SEGGER/RTT/SEGGER_RTT.c ****   p->aUp[0].Flags         = SEGGER_RTT_MODE_DEFAULT;
 462              		.loc 1 330 27 is_stmt 0 view .LVU145
 463 0026 6362     		str	r3, [r4, #36]
 331:Middlewares/Third_Party/SEGGER/RTT/SEGGER_RTT.c ****   //
 464              		.loc 1 331 3 is_stmt 1 view .LVU146
 331:Middlewares/Third_Party/SEGGER/RTT/SEGGER_RTT.c ****   //
 465              		.loc 1 331 27 is_stmt 0 view .LVU147
 466 0028 E362     		str	r3, [r4, #44]
 335:Middlewares/Third_Party/SEGGER/RTT/SEGGER_RTT.c ****   p->aDown[0].pBuffer       = _acDownBuffer;
 467              		.loc 1 335 3 is_stmt 1 view .LVU148
 335:Middlewares/Third_Party/SEGGER/RTT/SEGGER_RTT.c ****   p->aDown[0].pBuffer       = _acDownBuffer;
 468              		.loc 1 335 29 is_stmt 0 view .LVU149
 469 002a 2266     		str	r2, [r4, #96]
 336:Middlewares/Third_Party/SEGGER/RTT/SEGGER_RTT.c ****   p->aDown[0].SizeOfBuffer  = BUFFER_SIZE_DOWN;
 470              		.loc 1 336 3 is_stmt 1 view .LVU150
 336:Middlewares/Third_Party/SEGGER/RTT/SEGGER_RTT.c ****   p->aDown[0].SizeOfBuffer  = BUFFER_SIZE_DOWN;
 471              		.loc 1 336 29 is_stmt 0 view .LVU151
 472 002c 0D4A     		ldr	r2, .L25+12
 473 002e 6266     		str	r2, [r4, #100]
 337:Middlewares/Third_Party/SEGGER/RTT/SEGGER_RTT.c ****   p->aDown[0].RdOff         = 0u;
 474              		.loc 1 337 3 is_stmt 1 view .LVU152
 337:Middlewares/Third_Party/SEGGER/RTT/SEGGER_RTT.c ****   p->aDown[0].RdOff         = 0u;
ARM GAS  C:\Users\Administrator\AppData\Local\Temp\ccUGyMKj.s 			page 21


 475              		.loc 1 337 29 is_stmt 0 view .LVU153
 476 0030 1022     		movs	r2, #16
 477 0032 A266     		str	r2, [r4, #104]
 338:Middlewares/Third_Party/SEGGER/RTT/SEGGER_RTT.c ****   p->aDown[0].WrOff         = 0u;
 478              		.loc 1 338 3 is_stmt 1 view .LVU154
 338:Middlewares/Third_Party/SEGGER/RTT/SEGGER_RTT.c ****   p->aDown[0].WrOff         = 0u;
 479              		.loc 1 338 29 is_stmt 0 view .LVU155
 480 0034 2367     		str	r3, [r4, #112]
 339:Middlewares/Third_Party/SEGGER/RTT/SEGGER_RTT.c ****   p->aDown[0].Flags         = SEGGER_RTT_MODE_DEFAULT;
 481              		.loc 1 339 3 is_stmt 1 view .LVU156
 339:Middlewares/Third_Party/SEGGER/RTT/SEGGER_RTT.c ****   p->aDown[0].Flags         = SEGGER_RTT_MODE_DEFAULT;
 482              		.loc 1 339 29 is_stmt 0 view .LVU157
 483 0036 E366     		str	r3, [r4, #108]
 340:Middlewares/Third_Party/SEGGER/RTT/SEGGER_RTT.c ****   //
 484              		.loc 1 340 3 is_stmt 1 view .LVU158
 340:Middlewares/Third_Party/SEGGER/RTT/SEGGER_RTT.c ****   //
 485              		.loc 1 340 29 is_stmt 0 view .LVU159
 486 0038 6367     		str	r3, [r4, #116]
 346:Middlewares/Third_Party/SEGGER/RTT/SEGGER_RTT.c ****   for (i = 0; i < sizeof(_aInitStr) - 1; ++i) {
 487              		.loc 1 346 3 is_stmt 1 view .LVU160
 488              		.syntax unified
 489              	@ 346 "Middlewares/Third_Party/SEGGER/RTT/SEGGER_RTT.c" 1
 490 003a BFF35F8F 		dmb
 491              	
 492              	@ 0 "" 2
 346:Middlewares/Third_Party/SEGGER/RTT/SEGGER_RTT.c ****   for (i = 0; i < sizeof(_aInitStr) - 1; ++i) {
 493              		.loc 1 346 13 view .LVU161
 347:Middlewares/Third_Party/SEGGER/RTT/SEGGER_RTT.c ****     p->acID[i] = _aInitStr[sizeof(_aInitStr) - 2 - i];  // Skip terminating \0 at the end of the ar
 494              		.loc 1 347 3 view .LVU162
 495              	.LVL53:
 347:Middlewares/Third_Party/SEGGER/RTT/SEGGER_RTT.c ****     p->acID[i] = _aInitStr[sizeof(_aInitStr) - 2 - i];  // Skip terminating \0 at the end of the ar
 496              		.loc 1 347 3 is_stmt 0 view .LVU163
 497              		.thumb
 498              		.syntax unified
 499 003e 06E0     		b	.L22
 500              	.LVL54:
 501              	.L23:
 348:Middlewares/Third_Party/SEGGER/RTT/SEGGER_RTT.c ****   }
 502              		.loc 1 348 5 is_stmt 1 view .LVU164
 348:Middlewares/Third_Party/SEGGER/RTT/SEGGER_RTT.c ****   }
 503              		.loc 1 348 50 is_stmt 0 view .LVU165
 504 0040 C3F10F02 		rsb	r2, r3, #15
 348:Middlewares/Third_Party/SEGGER/RTT/SEGGER_RTT.c ****   }
 505              		.loc 1 348 27 view .LVU166
 506 0044 0849     		ldr	r1, .L25+16
 507 0046 895C     		ldrb	r1, [r1, r2]	@ zero_extendqisi2
 348:Middlewares/Third_Party/SEGGER/RTT/SEGGER_RTT.c ****   }
 508              		.loc 1 348 16 view .LVU167
 509 0048 034A     		ldr	r2, .L25
 510 004a D154     		strb	r1, [r2, r3]
 347:Middlewares/Third_Party/SEGGER/RTT/SEGGER_RTT.c ****     p->acID[i] = _aInitStr[sizeof(_aInitStr) - 2 - i];  // Skip terminating \0 at the end of the ar
 511              		.loc 1 347 42 is_stmt 1 discriminator 3 view .LVU168
 512 004c 0133     		adds	r3, r3, #1
 513              	.LVL55:
 514              	.L22:
 347:Middlewares/Third_Party/SEGGER/RTT/SEGGER_RTT.c ****     p->acID[i] = _aInitStr[sizeof(_aInitStr) - 2 - i];  // Skip terminating \0 at the end of the ar
 515              		.loc 1 347 17 discriminator 1 view .LVU169
ARM GAS  C:\Users\Administrator\AppData\Local\Temp\ccUGyMKj.s 			page 22


 516 004e 0F2B     		cmp	r3, #15
 517 0050 F6D9     		bls	.L23
 350:Middlewares/Third_Party/SEGGER/RTT/SEGGER_RTT.c **** }
 518              		.loc 1 350 3 view .LVU170
 519              		.syntax unified
 520              	@ 350 "Middlewares/Third_Party/SEGGER/RTT/SEGGER_RTT.c" 1
 521 0052 BFF35F8F 		dmb
 522              	
 523              	@ 0 "" 2
 350:Middlewares/Third_Party/SEGGER/RTT/SEGGER_RTT.c **** }
 524              		.loc 1 350 13 view .LVU171
 351:Middlewares/Third_Party/SEGGER/RTT/SEGGER_RTT.c **** 
 525              		.loc 1 351 1 is_stmt 0 view .LVU172
 526              		.thumb
 527              		.syntax unified
 528 0056 10BD     		pop	{r4, pc}
 529              	.L26:
 530              		.align	2
 531              	.L25:
 532 0058 00000000 		.word	_SEGGER_RTT
 533 005c 00000000 		.word	.LC0
 534 0060 00000000 		.word	_acUpBuffer
 535 0064 00000000 		.word	_acDownBuffer
 536 0068 00000000 		.word	_aInitStr.0
 537              		.cfi_endproc
 538              	.LFE0:
 540              		.section	.text.SEGGER_RTT_ReadUpBufferNoLock,"ax",%progbits
 541              		.align	1
 542              		.global	SEGGER_RTT_ReadUpBufferNoLock
 543              		.syntax unified
 544              		.thumb
 545              		.thumb_func
 547              	SEGGER_RTT_ReadUpBufferNoLock:
 548              	.LVL56:
 549              	.LFB5:
 541:Middlewares/Third_Party/SEGGER/RTT/SEGGER_RTT.c **** 
 542:Middlewares/Third_Party/SEGGER/RTT/SEGGER_RTT.c **** /*********************************************************************
 543:Middlewares/Third_Party/SEGGER/RTT/SEGGER_RTT.c **** *
 544:Middlewares/Third_Party/SEGGER/RTT/SEGGER_RTT.c **** *       Public code
 545:Middlewares/Third_Party/SEGGER/RTT/SEGGER_RTT.c **** *
 546:Middlewares/Third_Party/SEGGER/RTT/SEGGER_RTT.c **** **********************************************************************
 547:Middlewares/Third_Party/SEGGER/RTT/SEGGER_RTT.c **** */
 548:Middlewares/Third_Party/SEGGER/RTT/SEGGER_RTT.c **** 
 549:Middlewares/Third_Party/SEGGER/RTT/SEGGER_RTT.c **** /*********************************************************************
 550:Middlewares/Third_Party/SEGGER/RTT/SEGGER_RTT.c **** *
 551:Middlewares/Third_Party/SEGGER/RTT/SEGGER_RTT.c **** *       SEGGER_RTT_ReadUpBufferNoLock()
 552:Middlewares/Third_Party/SEGGER/RTT/SEGGER_RTT.c **** *
 553:Middlewares/Third_Party/SEGGER/RTT/SEGGER_RTT.c **** *  Function description
 554:Middlewares/Third_Party/SEGGER/RTT/SEGGER_RTT.c **** *    Reads characters from SEGGER real-time-terminal control block
 555:Middlewares/Third_Party/SEGGER/RTT/SEGGER_RTT.c **** *    which have been previously stored by the application.
 556:Middlewares/Third_Party/SEGGER/RTT/SEGGER_RTT.c **** *    Do not lock against interrupts and multiple access.
 557:Middlewares/Third_Party/SEGGER/RTT/SEGGER_RTT.c **** *    Used to do the same operation that J-Link does, to transfer 
 558:Middlewares/Third_Party/SEGGER/RTT/SEGGER_RTT.c **** *    RTT data via other channels, such as TCP/IP or UART.
 559:Middlewares/Third_Party/SEGGER/RTT/SEGGER_RTT.c **** *
 560:Middlewares/Third_Party/SEGGER/RTT/SEGGER_RTT.c **** *  Parameters
 561:Middlewares/Third_Party/SEGGER/RTT/SEGGER_RTT.c **** *    BufferIndex  Index of Up-buffer to be used.
 562:Middlewares/Third_Party/SEGGER/RTT/SEGGER_RTT.c **** *    pBuffer      Pointer to buffer provided by target application, to copy characters from RTT-up-
ARM GAS  C:\Users\Administrator\AppData\Local\Temp\ccUGyMKj.s 			page 23


 563:Middlewares/Third_Party/SEGGER/RTT/SEGGER_RTT.c **** *    BufferSize   Size of the target application buffer.
 564:Middlewares/Third_Party/SEGGER/RTT/SEGGER_RTT.c **** *
 565:Middlewares/Third_Party/SEGGER/RTT/SEGGER_RTT.c **** *  Return value
 566:Middlewares/Third_Party/SEGGER/RTT/SEGGER_RTT.c **** *    Number of bytes that have been read.
 567:Middlewares/Third_Party/SEGGER/RTT/SEGGER_RTT.c **** *
 568:Middlewares/Third_Party/SEGGER/RTT/SEGGER_RTT.c **** *  Additional information
 569:Middlewares/Third_Party/SEGGER/RTT/SEGGER_RTT.c **** *    This function must not be called when J-Link might also do RTT.
 570:Middlewares/Third_Party/SEGGER/RTT/SEGGER_RTT.c **** */
 571:Middlewares/Third_Party/SEGGER/RTT/SEGGER_RTT.c **** unsigned SEGGER_RTT_ReadUpBufferNoLock(unsigned BufferIndex, void* pData, unsigned BufferSize) {
 550              		.loc 1 571 96 is_stmt 1 view -0
 551              		.cfi_startproc
 552              		@ args = 0, pretend = 0, frame = 8
 553              		@ frame_needed = 0, uses_anonymous_args = 0
 554              		.loc 1 571 96 is_stmt 0 view .LVU174
 555 0000 2DE9F043 		push	{r4, r5, r6, r7, r8, r9, lr}
 556              		.cfi_def_cfa_offset 28
 557              		.cfi_offset 4, -28
 558              		.cfi_offset 5, -24
 559              		.cfi_offset 6, -20
 560              		.cfi_offset 7, -16
 561              		.cfi_offset 8, -12
 562              		.cfi_offset 9, -8
 563              		.cfi_offset 14, -4
 564 0004 83B0     		sub	sp, sp, #12
 565              		.cfi_def_cfa_offset 40
 566 0006 0446     		mov	r4, r0
 567 0008 8946     		mov	r9, r1
 568 000a 9046     		mov	r8, r2
 572:Middlewares/Third_Party/SEGGER/RTT/SEGGER_RTT.c ****   unsigned                NumBytesRem;
 569              		.loc 1 572 3 is_stmt 1 view .LVU175
 573:Middlewares/Third_Party/SEGGER/RTT/SEGGER_RTT.c ****   unsigned                NumBytesRead;
 570              		.loc 1 573 3 view .LVU176
 574:Middlewares/Third_Party/SEGGER/RTT/SEGGER_RTT.c ****   unsigned                RdOff;
 571              		.loc 1 574 3 view .LVU177
 575:Middlewares/Third_Party/SEGGER/RTT/SEGGER_RTT.c ****   unsigned                WrOff;
 572              		.loc 1 575 3 view .LVU178
 576:Middlewares/Third_Party/SEGGER/RTT/SEGGER_RTT.c ****   unsigned char*          pBuffer;
 573              		.loc 1 576 3 view .LVU179
 577:Middlewares/Third_Party/SEGGER/RTT/SEGGER_RTT.c ****   SEGGER_RTT_BUFFER_UP*   pRing;
 574              		.loc 1 577 3 view .LVU180
 578:Middlewares/Third_Party/SEGGER/RTT/SEGGER_RTT.c ****   volatile char*          pSrc;
 575              		.loc 1 578 3 view .LVU181
 576              	.LBB2:
 579:Middlewares/Third_Party/SEGGER/RTT/SEGGER_RTT.c **** 
 580:Middlewares/Third_Party/SEGGER/RTT/SEGGER_RTT.c ****   INIT();
 577              		.loc 1 580 3 view .LVU182
 578              		.loc 1 580 3 view .LVU183
 579              	.LVL57:
 580              		.loc 1 580 3 view .LVU184
 581              		.loc 1 580 3 view .LVU185
 582 000c 274B     		ldr	r3, .L38
 583 000e 1B78     		ldrb	r3, [r3]	@ zero_extendqisi2
 584 0010 CBB1     		cbz	r3, .L35
 585              	.LVL58:
 586              	.L28:
 587              		.loc 1 580 3 view .LVU186
 588              	.LBE2:
ARM GAS  C:\Users\Administrator\AppData\Local\Temp\ccUGyMKj.s 			page 24


 589              		.loc 1 580 9 view .LVU187
 581:Middlewares/Third_Party/SEGGER/RTT/SEGGER_RTT.c ****   pRing = (SEGGER_RTT_BUFFER_UP*)((char*)&_SEGGER_RTT.aUp[BufferIndex] + SEGGER_RTT_UNCACHED_OFF); 
 590              		.loc 1 581 3 view .LVU188
 582:Middlewares/Third_Party/SEGGER/RTT/SEGGER_RTT.c ****   pBuffer = (unsigned char*)pData;
 591              		.loc 1 582 3 view .LVU189
 583:Middlewares/Third_Party/SEGGER/RTT/SEGGER_RTT.c ****   RdOff = pRing->RdOff;
 592              		.loc 1 583 3 view .LVU190
 593              		.loc 1 583 9 is_stmt 0 view .LVU191
 594 0012 04EB4402 		add	r2, r4, r4, lsl #1
 595 0016 254B     		ldr	r3, .L38
 596 0018 03EBC203 		add	r3, r3, r2, lsl #3
 597 001c 9F6A     		ldr	r7, [r3, #40]
 598              	.LVL59:
 584:Middlewares/Third_Party/SEGGER/RTT/SEGGER_RTT.c ****   WrOff = pRing->WrOff;
 599              		.loc 1 584 3 is_stmt 1 view .LVU192
 600              		.loc 1 584 9 is_stmt 0 view .LVU193
 601 001e 5D6A     		ldr	r5, [r3, #36]
 602              	.LVL60:
 585:Middlewares/Third_Party/SEGGER/RTT/SEGGER_RTT.c ****   NumBytesRead = 0u;
 603              		.loc 1 585 3 is_stmt 1 view .LVU194
 586:Middlewares/Third_Party/SEGGER/RTT/SEGGER_RTT.c ****   //
 587:Middlewares/Third_Party/SEGGER/RTT/SEGGER_RTT.c ****   // Read from current read position to wrap-around of buffer, first
 588:Middlewares/Third_Party/SEGGER/RTT/SEGGER_RTT.c ****   //
 589:Middlewares/Third_Party/SEGGER/RTT/SEGGER_RTT.c ****   if (RdOff > WrOff) {
 604              		.loc 1 589 3 view .LVU195
 605              		.loc 1 589 6 is_stmt 0 view .LVU196
 606 0020 AF42     		cmp	r7, r5
 607 0022 13D8     		bhi	.L36
 585:Middlewares/Third_Party/SEGGER/RTT/SEGGER_RTT.c ****   NumBytesRead = 0u;
 608              		.loc 1 585 16 view .LVU197
 609 0024 0026     		movs	r6, #0
 610              	.LVL61:
 611              	.L29:
 590:Middlewares/Third_Party/SEGGER/RTT/SEGGER_RTT.c ****     NumBytesRem = pRing->SizeOfBuffer - RdOff;
 591:Middlewares/Third_Party/SEGGER/RTT/SEGGER_RTT.c ****     NumBytesRem = MIN(NumBytesRem, BufferSize);
 592:Middlewares/Third_Party/SEGGER/RTT/SEGGER_RTT.c ****     pSrc = (pRing->pBuffer + RdOff) + SEGGER_RTT_UNCACHED_OFF;
 593:Middlewares/Third_Party/SEGGER/RTT/SEGGER_RTT.c **** #if SEGGER_RTT_MEMCPY_USE_BYTELOOP
 594:Middlewares/Third_Party/SEGGER/RTT/SEGGER_RTT.c ****     NumBytesRead += NumBytesRem;
 595:Middlewares/Third_Party/SEGGER/RTT/SEGGER_RTT.c ****     BufferSize   -= NumBytesRem;
 596:Middlewares/Third_Party/SEGGER/RTT/SEGGER_RTT.c ****     RdOff        += NumBytesRem;
 597:Middlewares/Third_Party/SEGGER/RTT/SEGGER_RTT.c ****     while (NumBytesRem--) {
 598:Middlewares/Third_Party/SEGGER/RTT/SEGGER_RTT.c ****       *pBuffer++ = *pSrc++;
 599:Middlewares/Third_Party/SEGGER/RTT/SEGGER_RTT.c ****     };
 600:Middlewares/Third_Party/SEGGER/RTT/SEGGER_RTT.c **** #else
 601:Middlewares/Third_Party/SEGGER/RTT/SEGGER_RTT.c ****     SEGGER_RTT_MEMCPY(pBuffer, (void*)pSrc, NumBytesRem);
 602:Middlewares/Third_Party/SEGGER/RTT/SEGGER_RTT.c ****     NumBytesRead += NumBytesRem;
 603:Middlewares/Third_Party/SEGGER/RTT/SEGGER_RTT.c ****     pBuffer      += NumBytesRem;
 604:Middlewares/Third_Party/SEGGER/RTT/SEGGER_RTT.c ****     BufferSize   -= NumBytesRem;
 605:Middlewares/Third_Party/SEGGER/RTT/SEGGER_RTT.c ****     RdOff        += NumBytesRem;
 606:Middlewares/Third_Party/SEGGER/RTT/SEGGER_RTT.c **** #endif
 607:Middlewares/Third_Party/SEGGER/RTT/SEGGER_RTT.c ****     //
 608:Middlewares/Third_Party/SEGGER/RTT/SEGGER_RTT.c ****     // Handle wrap-around of buffer
 609:Middlewares/Third_Party/SEGGER/RTT/SEGGER_RTT.c ****     //
 610:Middlewares/Third_Party/SEGGER/RTT/SEGGER_RTT.c ****     if (RdOff == pRing->SizeOfBuffer) {
 611:Middlewares/Third_Party/SEGGER/RTT/SEGGER_RTT.c ****       RdOff = 0u;
 612:Middlewares/Third_Party/SEGGER/RTT/SEGGER_RTT.c ****     }
 613:Middlewares/Third_Party/SEGGER/RTT/SEGGER_RTT.c ****   }
ARM GAS  C:\Users\Administrator\AppData\Local\Temp\ccUGyMKj.s 			page 25


 614:Middlewares/Third_Party/SEGGER/RTT/SEGGER_RTT.c ****   //
 615:Middlewares/Third_Party/SEGGER/RTT/SEGGER_RTT.c ****   // Read remaining items of buffer
 616:Middlewares/Third_Party/SEGGER/RTT/SEGGER_RTT.c ****   //
 617:Middlewares/Third_Party/SEGGER/RTT/SEGGER_RTT.c ****   NumBytesRem = WrOff - RdOff;
 612              		.loc 1 617 3 is_stmt 1 view .LVU198
 613              		.loc 1 617 15 is_stmt 0 view .LVU199
 614 0026 ED1B     		subs	r5, r5, r7
 615              	.LVL62:
 618:Middlewares/Third_Party/SEGGER/RTT/SEGGER_RTT.c ****   NumBytesRem = MIN(NumBytesRem, BufferSize);
 616              		.loc 1 618 3 is_stmt 1 view .LVU200
 617              		.loc 1 618 15 is_stmt 0 view .LVU201
 618 0028 4545     		cmp	r5, r8
 619 002a 28BF     		it	cs
 620 002c 4546     		movcs	r5, r8
 621              	.LVL63:
 619:Middlewares/Third_Party/SEGGER/RTT/SEGGER_RTT.c ****   if (NumBytesRem > 0u) {
 622              		.loc 1 619 3 is_stmt 1 view .LVU202
 623              		.loc 1 619 6 is_stmt 0 view .LVU203
 624 002e 6DBB     		cbnz	r5, .L37
 625              	.LVL64:
 626              	.L30:
 620:Middlewares/Third_Party/SEGGER/RTT/SEGGER_RTT.c ****     pSrc = (pRing->pBuffer + RdOff) + SEGGER_RTT_UNCACHED_OFF;
 621:Middlewares/Third_Party/SEGGER/RTT/SEGGER_RTT.c **** #if SEGGER_RTT_MEMCPY_USE_BYTELOOP
 622:Middlewares/Third_Party/SEGGER/RTT/SEGGER_RTT.c ****     NumBytesRead += NumBytesRem;
 623:Middlewares/Third_Party/SEGGER/RTT/SEGGER_RTT.c ****     BufferSize   -= NumBytesRem;
 624:Middlewares/Third_Party/SEGGER/RTT/SEGGER_RTT.c ****     RdOff        += NumBytesRem;
 625:Middlewares/Third_Party/SEGGER/RTT/SEGGER_RTT.c ****     while (NumBytesRem--) {
 626:Middlewares/Third_Party/SEGGER/RTT/SEGGER_RTT.c ****       *pBuffer++ = *pSrc++;
 627:Middlewares/Third_Party/SEGGER/RTT/SEGGER_RTT.c ****     };
 628:Middlewares/Third_Party/SEGGER/RTT/SEGGER_RTT.c **** #else
 629:Middlewares/Third_Party/SEGGER/RTT/SEGGER_RTT.c ****     SEGGER_RTT_MEMCPY(pBuffer, (void*)pSrc, NumBytesRem);
 630:Middlewares/Third_Party/SEGGER/RTT/SEGGER_RTT.c ****     NumBytesRead += NumBytesRem;
 631:Middlewares/Third_Party/SEGGER/RTT/SEGGER_RTT.c ****     pBuffer      += NumBytesRem;
 632:Middlewares/Third_Party/SEGGER/RTT/SEGGER_RTT.c ****     BufferSize   -= NumBytesRem;
 633:Middlewares/Third_Party/SEGGER/RTT/SEGGER_RTT.c ****     RdOff        += NumBytesRem;
 634:Middlewares/Third_Party/SEGGER/RTT/SEGGER_RTT.c **** #endif
 635:Middlewares/Third_Party/SEGGER/RTT/SEGGER_RTT.c ****   }
 636:Middlewares/Third_Party/SEGGER/RTT/SEGGER_RTT.c ****   //
 637:Middlewares/Third_Party/SEGGER/RTT/SEGGER_RTT.c ****   // Update read offset of buffer
 638:Middlewares/Third_Party/SEGGER/RTT/SEGGER_RTT.c ****   //
 639:Middlewares/Third_Party/SEGGER/RTT/SEGGER_RTT.c ****   if (NumBytesRead) {
 627              		.loc 1 639 3 is_stmt 1 view .LVU204
 628              		.loc 1 639 6 is_stmt 0 view .LVU205
 629 0030 2EB1     		cbz	r6, .L27
 640:Middlewares/Third_Party/SEGGER/RTT/SEGGER_RTT.c ****     pRing->RdOff = RdOff;
 630              		.loc 1 640 5 is_stmt 1 view .LVU206
 631              		.loc 1 640 18 is_stmt 0 view .LVU207
 632 0032 04EB4404 		add	r4, r4, r4, lsl #1
 633              	.LVL65:
 634              		.loc 1 640 18 view .LVU208
 635 0036 1D4B     		ldr	r3, .L38
 636 0038 03EBC403 		add	r3, r3, r4, lsl #3
 637 003c 9F62     		str	r7, [r3, #40]
 641:Middlewares/Third_Party/SEGGER/RTT/SEGGER_RTT.c ****   }
 642:Middlewares/Third_Party/SEGGER/RTT/SEGGER_RTT.c ****   //
 643:Middlewares/Third_Party/SEGGER/RTT/SEGGER_RTT.c ****   return NumBytesRead;
 638              		.loc 1 643 3 is_stmt 1 view .LVU209
ARM GAS  C:\Users\Administrator\AppData\Local\Temp\ccUGyMKj.s 			page 26


 639              	.L27:
 644:Middlewares/Third_Party/SEGGER/RTT/SEGGER_RTT.c **** }
 640              		.loc 1 644 1 is_stmt 0 view .LVU210
 641 003e 3046     		mov	r0, r6
 642 0040 03B0     		add	sp, sp, #12
 643              		.cfi_remember_state
 644              		.cfi_def_cfa_offset 28
 645              		@ sp needed
 646 0042 BDE8F083 		pop	{r4, r5, r6, r7, r8, r9, pc}
 647              	.LVL66:
 648              	.L35:
 649              		.cfi_restore_state
 650              	.LBB3:
 580:Middlewares/Third_Party/SEGGER/RTT/SEGGER_RTT.c ****   pRing = (SEGGER_RTT_BUFFER_UP*)((char*)&_SEGGER_RTT.aUp[BufferIndex] + SEGGER_RTT_UNCACHED_OFF); 
 651              		.loc 1 580 3 is_stmt 1 discriminator 1 view .LVU211
 652 0046 FFF7FEFF 		bl	_DoInit
 653              	.LVL67:
 580:Middlewares/Third_Party/SEGGER/RTT/SEGGER_RTT.c ****   pRing = (SEGGER_RTT_BUFFER_UP*)((char*)&_SEGGER_RTT.aUp[BufferIndex] + SEGGER_RTT_UNCACHED_OFF); 
 654              		.loc 1 580 3 is_stmt 0 discriminator 1 view .LVU212
 655 004a E2E7     		b	.L28
 656              	.LVL68:
 657              	.L36:
 580:Middlewares/Third_Party/SEGGER/RTT/SEGGER_RTT.c ****   pRing = (SEGGER_RTT_BUFFER_UP*)((char*)&_SEGGER_RTT.aUp[BufferIndex] + SEGGER_RTT_UNCACHED_OFF); 
 658              		.loc 1 580 3 discriminator 1 view .LVU213
 659              	.LBE3:
 590:Middlewares/Third_Party/SEGGER/RTT/SEGGER_RTT.c ****     NumBytesRem = MIN(NumBytesRem, BufferSize);
 660              		.loc 1 590 5 is_stmt 1 view .LVU214
 590:Middlewares/Third_Party/SEGGER/RTT/SEGGER_RTT.c ****     NumBytesRem = MIN(NumBytesRem, BufferSize);
 661              		.loc 1 590 24 is_stmt 0 view .LVU215
 662 004c 174B     		ldr	r3, .L38
 663 004e 03EBC202 		add	r2, r3, r2, lsl #3
 664 0052 0192     		str	r2, [sp, #4]
 665 0054 166A     		ldr	r6, [r2, #32]
 590:Middlewares/Third_Party/SEGGER/RTT/SEGGER_RTT.c ****     NumBytesRem = MIN(NumBytesRem, BufferSize);
 666              		.loc 1 590 17 view .LVU216
 667 0056 F61B     		subs	r6, r6, r7
 668              	.LVL69:
 591:Middlewares/Third_Party/SEGGER/RTT/SEGGER_RTT.c ****     pSrc = (pRing->pBuffer + RdOff) + SEGGER_RTT_UNCACHED_OFF;
 669              		.loc 1 591 5 is_stmt 1 view .LVU217
 591:Middlewares/Third_Party/SEGGER/RTT/SEGGER_RTT.c ****     pSrc = (pRing->pBuffer + RdOff) + SEGGER_RTT_UNCACHED_OFF;
 670              		.loc 1 591 17 is_stmt 0 view .LVU218
 671 0058 4645     		cmp	r6, r8
 672 005a 28BF     		it	cs
 673 005c 4646     		movcs	r6, r8
 674              	.LVL70:
 592:Middlewares/Third_Party/SEGGER/RTT/SEGGER_RTT.c **** #if SEGGER_RTT_MEMCPY_USE_BYTELOOP
 675              		.loc 1 592 5 is_stmt 1 view .LVU219
 592:Middlewares/Third_Party/SEGGER/RTT/SEGGER_RTT.c **** #if SEGGER_RTT_MEMCPY_USE_BYTELOOP
 676              		.loc 1 592 18 is_stmt 0 view .LVU220
 677 005e 621C     		adds	r2, r4, #1
 678 0060 02EB4202 		add	r2, r2, r2, lsl #1
 679 0064 03EBC203 		add	r3, r3, r2, lsl #3
 680 0068 5968     		ldr	r1, [r3, #4]
 681              	.LVL71:
 601:Middlewares/Third_Party/SEGGER/RTT/SEGGER_RTT.c ****     NumBytesRead += NumBytesRem;
 682              		.loc 1 601 5 is_stmt 1 view .LVU221
 683 006a 3246     		mov	r2, r6
ARM GAS  C:\Users\Administrator\AppData\Local\Temp\ccUGyMKj.s 			page 27


 684 006c 3944     		add	r1, r1, r7
 685              	.LVL72:
 601:Middlewares/Third_Party/SEGGER/RTT/SEGGER_RTT.c ****     NumBytesRead += NumBytesRem;
 686              		.loc 1 601 5 is_stmt 0 view .LVU222
 687 006e 4846     		mov	r0, r9
 688 0070 FFF7FEFF 		bl	memcpy
 689              	.LVL73:
 602:Middlewares/Third_Party/SEGGER/RTT/SEGGER_RTT.c ****     pBuffer      += NumBytesRem;
 690              		.loc 1 602 5 is_stmt 1 view .LVU223
 603:Middlewares/Third_Party/SEGGER/RTT/SEGGER_RTT.c ****     BufferSize   -= NumBytesRem;
 691              		.loc 1 603 5 view .LVU224
 603:Middlewares/Third_Party/SEGGER/RTT/SEGGER_RTT.c ****     BufferSize   -= NumBytesRem;
 692              		.loc 1 603 18 is_stmt 0 view .LVU225
 693 0074 4B46     		mov	r3, r9
 694 0076 3344     		add	r3, r3, r6
 695              	.LVL74:
 603:Middlewares/Third_Party/SEGGER/RTT/SEGGER_RTT.c ****     BufferSize   -= NumBytesRem;
 696              		.loc 1 603 18 view .LVU226
 697 0078 9946     		mov	r9, r3
 698              	.LVL75:
 604:Middlewares/Third_Party/SEGGER/RTT/SEGGER_RTT.c ****     RdOff        += NumBytesRem;
 699              		.loc 1 604 5 is_stmt 1 view .LVU227
 604:Middlewares/Third_Party/SEGGER/RTT/SEGGER_RTT.c ****     RdOff        += NumBytesRem;
 700              		.loc 1 604 18 is_stmt 0 view .LVU228
 701 007a A8EB0608 		sub	r8, r8, r6
 702              	.LVL76:
 605:Middlewares/Third_Party/SEGGER/RTT/SEGGER_RTT.c **** #endif
 703              		.loc 1 605 5 is_stmt 1 view .LVU229
 605:Middlewares/Third_Party/SEGGER/RTT/SEGGER_RTT.c **** #endif
 704              		.loc 1 605 18 is_stmt 0 view .LVU230
 705 007e 3744     		add	r7, r7, r6
 706              	.LVL77:
 610:Middlewares/Third_Party/SEGGER/RTT/SEGGER_RTT.c ****       RdOff = 0u;
 707              		.loc 1 610 5 is_stmt 1 view .LVU231
 610:Middlewares/Third_Party/SEGGER/RTT/SEGGER_RTT.c ****       RdOff = 0u;
 708              		.loc 1 610 23 is_stmt 0 view .LVU232
 709 0080 019A     		ldr	r2, [sp, #4]
 710 0082 136A     		ldr	r3, [r2, #32]
 711              	.LVL78:
 610:Middlewares/Third_Party/SEGGER/RTT/SEGGER_RTT.c ****       RdOff = 0u;
 712              		.loc 1 610 8 view .LVU233
 713 0084 BB42     		cmp	r3, r7
 714 0086 CED1     		bne	.L29
 611:Middlewares/Third_Party/SEGGER/RTT/SEGGER_RTT.c ****     }
 715              		.loc 1 611 13 view .LVU234
 716 0088 0027     		movs	r7, #0
 717              	.LVL79:
 611:Middlewares/Third_Party/SEGGER/RTT/SEGGER_RTT.c ****     }
 718              		.loc 1 611 13 view .LVU235
 719 008a CCE7     		b	.L29
 720              	.LVL80:
 721              	.L37:
 620:Middlewares/Third_Party/SEGGER/RTT/SEGGER_RTT.c **** #if SEGGER_RTT_MEMCPY_USE_BYTELOOP
 722              		.loc 1 620 5 is_stmt 1 view .LVU236
 620:Middlewares/Third_Party/SEGGER/RTT/SEGGER_RTT.c **** #if SEGGER_RTT_MEMCPY_USE_BYTELOOP
 723              		.loc 1 620 18 is_stmt 0 view .LVU237
 724 008c 631C     		adds	r3, r4, #1
ARM GAS  C:\Users\Administrator\AppData\Local\Temp\ccUGyMKj.s 			page 28


 725 008e 03EB4303 		add	r3, r3, r3, lsl #1
 726 0092 064A     		ldr	r2, .L38
 727 0094 02EBC303 		add	r3, r2, r3, lsl #3
 728 0098 5968     		ldr	r1, [r3, #4]
 729              	.LVL81:
 629:Middlewares/Third_Party/SEGGER/RTT/SEGGER_RTT.c ****     NumBytesRead += NumBytesRem;
 730              		.loc 1 629 5 is_stmt 1 view .LVU238
 731 009a 2A46     		mov	r2, r5
 732 009c 3944     		add	r1, r1, r7
 733              	.LVL82:
 629:Middlewares/Third_Party/SEGGER/RTT/SEGGER_RTT.c ****     NumBytesRead += NumBytesRem;
 734              		.loc 1 629 5 is_stmt 0 view .LVU239
 735 009e 4846     		mov	r0, r9
 736 00a0 FFF7FEFF 		bl	memcpy
 737              	.LVL83:
 630:Middlewares/Third_Party/SEGGER/RTT/SEGGER_RTT.c ****     pBuffer      += NumBytesRem;
 738              		.loc 1 630 5 is_stmt 1 view .LVU240
 630:Middlewares/Third_Party/SEGGER/RTT/SEGGER_RTT.c ****     pBuffer      += NumBytesRem;
 739              		.loc 1 630 18 is_stmt 0 view .LVU241
 740 00a4 2E44     		add	r6, r6, r5
 741              	.LVL84:
 631:Middlewares/Third_Party/SEGGER/RTT/SEGGER_RTT.c ****     BufferSize   -= NumBytesRem;
 742              		.loc 1 631 5 is_stmt 1 view .LVU242
 632:Middlewares/Third_Party/SEGGER/RTT/SEGGER_RTT.c ****     RdOff        += NumBytesRem;
 743              		.loc 1 632 5 view .LVU243
 633:Middlewares/Third_Party/SEGGER/RTT/SEGGER_RTT.c **** #endif
 744              		.loc 1 633 5 view .LVU244
 633:Middlewares/Third_Party/SEGGER/RTT/SEGGER_RTT.c **** #endif
 745              		.loc 1 633 18 is_stmt 0 view .LVU245
 746 00a6 2F44     		add	r7, r7, r5
 747              	.LVL85:
 633:Middlewares/Third_Party/SEGGER/RTT/SEGGER_RTT.c **** #endif
 748              		.loc 1 633 18 view .LVU246
 749 00a8 C2E7     		b	.L30
 750              	.L39:
 751 00aa 00BF     		.align	2
 752              	.L38:
 753 00ac 00000000 		.word	_SEGGER_RTT
 754              		.cfi_endproc
 755              	.LFE5:
 757              		.section	.text.SEGGER_RTT_ReadNoLock,"ax",%progbits
 758              		.align	1
 759              		.global	SEGGER_RTT_ReadNoLock
 760              		.syntax unified
 761              		.thumb
 762              		.thumb_func
 764              	SEGGER_RTT_ReadNoLock:
 765              	.LVL86:
 766              	.LFB6:
 645:Middlewares/Third_Party/SEGGER/RTT/SEGGER_RTT.c **** 
 646:Middlewares/Third_Party/SEGGER/RTT/SEGGER_RTT.c **** /*********************************************************************
 647:Middlewares/Third_Party/SEGGER/RTT/SEGGER_RTT.c **** *
 648:Middlewares/Third_Party/SEGGER/RTT/SEGGER_RTT.c **** *       SEGGER_RTT_ReadNoLock()
 649:Middlewares/Third_Party/SEGGER/RTT/SEGGER_RTT.c **** *
 650:Middlewares/Third_Party/SEGGER/RTT/SEGGER_RTT.c **** *  Function description
 651:Middlewares/Third_Party/SEGGER/RTT/SEGGER_RTT.c **** *    Reads characters from SEGGER real-time-terminal control block
 652:Middlewares/Third_Party/SEGGER/RTT/SEGGER_RTT.c **** *    which have been previously stored by the host.
ARM GAS  C:\Users\Administrator\AppData\Local\Temp\ccUGyMKj.s 			page 29


 653:Middlewares/Third_Party/SEGGER/RTT/SEGGER_RTT.c **** *    Do not lock against interrupts and multiple access.
 654:Middlewares/Third_Party/SEGGER/RTT/SEGGER_RTT.c **** *
 655:Middlewares/Third_Party/SEGGER/RTT/SEGGER_RTT.c **** *  Parameters
 656:Middlewares/Third_Party/SEGGER/RTT/SEGGER_RTT.c **** *    BufferIndex  Index of Down-buffer to be used (e.g. 0 for "Terminal").
 657:Middlewares/Third_Party/SEGGER/RTT/SEGGER_RTT.c **** *    pBuffer      Pointer to buffer provided by target application, to copy characters from RTT-dow
 658:Middlewares/Third_Party/SEGGER/RTT/SEGGER_RTT.c **** *    BufferSize   Size of the target application buffer.
 659:Middlewares/Third_Party/SEGGER/RTT/SEGGER_RTT.c **** *
 660:Middlewares/Third_Party/SEGGER/RTT/SEGGER_RTT.c **** *  Return value
 661:Middlewares/Third_Party/SEGGER/RTT/SEGGER_RTT.c **** *    Number of bytes that have been read.
 662:Middlewares/Third_Party/SEGGER/RTT/SEGGER_RTT.c **** */
 663:Middlewares/Third_Party/SEGGER/RTT/SEGGER_RTT.c **** unsigned SEGGER_RTT_ReadNoLock(unsigned BufferIndex, void* pData, unsigned BufferSize) {
 767              		.loc 1 663 88 is_stmt 1 view -0
 768              		.cfi_startproc
 769              		@ args = 0, pretend = 0, frame = 0
 770              		@ frame_needed = 0, uses_anonymous_args = 0
 771              		.loc 1 663 88 is_stmt 0 view .LVU248
 772 0000 2DE9F047 		push	{r4, r5, r6, r7, r8, r9, r10, lr}
 773              		.cfi_def_cfa_offset 32
 774              		.cfi_offset 4, -32
 775              		.cfi_offset 5, -28
 776              		.cfi_offset 6, -24
 777              		.cfi_offset 7, -20
 778              		.cfi_offset 8, -16
 779              		.cfi_offset 9, -12
 780              		.cfi_offset 10, -8
 781              		.cfi_offset 14, -4
 782 0004 0446     		mov	r4, r0
 783 0006 8A46     		mov	r10, r1
 784 0008 9046     		mov	r8, r2
 664:Middlewares/Third_Party/SEGGER/RTT/SEGGER_RTT.c ****   unsigned                NumBytesRem;
 785              		.loc 1 664 3 is_stmt 1 view .LVU249
 665:Middlewares/Third_Party/SEGGER/RTT/SEGGER_RTT.c ****   unsigned                NumBytesRead;
 786              		.loc 1 665 3 view .LVU250
 666:Middlewares/Third_Party/SEGGER/RTT/SEGGER_RTT.c ****   unsigned                RdOff;
 787              		.loc 1 666 3 view .LVU251
 667:Middlewares/Third_Party/SEGGER/RTT/SEGGER_RTT.c ****   unsigned                WrOff;
 788              		.loc 1 667 3 view .LVU252
 668:Middlewares/Third_Party/SEGGER/RTT/SEGGER_RTT.c ****   unsigned char*          pBuffer;
 789              		.loc 1 668 3 view .LVU253
 669:Middlewares/Third_Party/SEGGER/RTT/SEGGER_RTT.c ****   SEGGER_RTT_BUFFER_DOWN* pRing;
 790              		.loc 1 669 3 view .LVU254
 670:Middlewares/Third_Party/SEGGER/RTT/SEGGER_RTT.c ****   volatile char*          pSrc;
 791              		.loc 1 670 3 view .LVU255
 792              	.LBB4:
 671:Middlewares/Third_Party/SEGGER/RTT/SEGGER_RTT.c ****   //
 672:Middlewares/Third_Party/SEGGER/RTT/SEGGER_RTT.c ****   INIT();
 793              		.loc 1 672 3 view .LVU256
 794              		.loc 1 672 3 view .LVU257
 795              	.LVL87:
 796              		.loc 1 672 3 view .LVU258
 797              		.loc 1 672 3 view .LVU259
 798 000a 254B     		ldr	r3, .L51
 799 000c 1B78     		ldrb	r3, [r3]	@ zero_extendqisi2
 800 000e C3B1     		cbz	r3, .L48
 801              	.LVL88:
 802              	.L41:
 803              		.loc 1 672 3 view .LVU260
ARM GAS  C:\Users\Administrator\AppData\Local\Temp\ccUGyMKj.s 			page 30


 804              	.LBE4:
 805              		.loc 1 672 9 view .LVU261
 673:Middlewares/Third_Party/SEGGER/RTT/SEGGER_RTT.c ****   pRing = (SEGGER_RTT_BUFFER_DOWN*)((char*)&_SEGGER_RTT.aDown[BufferIndex] + SEGGER_RTT_UNCACHED_OF
 806              		.loc 1 673 3 view .LVU262
 674:Middlewares/Third_Party/SEGGER/RTT/SEGGER_RTT.c ****   pBuffer = (unsigned char*)pData;
 807              		.loc 1 674 3 view .LVU263
 675:Middlewares/Third_Party/SEGGER/RTT/SEGGER_RTT.c ****   RdOff = pRing->RdOff;
 808              		.loc 1 675 3 view .LVU264
 809              		.loc 1 675 9 is_stmt 0 view .LVU265
 810 0010 04EB4402 		add	r2, r4, r4, lsl #1
 811 0014 224B     		ldr	r3, .L51
 812 0016 03EBC203 		add	r3, r3, r2, lsl #3
 813 001a 1F6F     		ldr	r7, [r3, #112]
 814              	.LVL89:
 676:Middlewares/Third_Party/SEGGER/RTT/SEGGER_RTT.c ****   WrOff = pRing->WrOff;
 815              		.loc 1 676 3 is_stmt 1 view .LVU266
 816              		.loc 1 676 9 is_stmt 0 view .LVU267
 817 001c DD6E     		ldr	r5, [r3, #108]
 818              	.LVL90:
 677:Middlewares/Third_Party/SEGGER/RTT/SEGGER_RTT.c ****   NumBytesRead = 0u;
 819              		.loc 1 677 3 is_stmt 1 view .LVU268
 678:Middlewares/Third_Party/SEGGER/RTT/SEGGER_RTT.c ****   //
 679:Middlewares/Third_Party/SEGGER/RTT/SEGGER_RTT.c ****   // Read from current read position to wrap-around of buffer, first
 680:Middlewares/Third_Party/SEGGER/RTT/SEGGER_RTT.c ****   //
 681:Middlewares/Third_Party/SEGGER/RTT/SEGGER_RTT.c ****   if (RdOff > WrOff) {
 820              		.loc 1 681 3 view .LVU269
 821              		.loc 1 681 6 is_stmt 0 view .LVU270
 822 001e AF42     		cmp	r7, r5
 823 0020 12D8     		bhi	.L49
 677:Middlewares/Third_Party/SEGGER/RTT/SEGGER_RTT.c ****   NumBytesRead = 0u;
 824              		.loc 1 677 16 view .LVU271
 825 0022 0026     		movs	r6, #0
 826              	.LVL91:
 827              	.L42:
 682:Middlewares/Third_Party/SEGGER/RTT/SEGGER_RTT.c ****     NumBytesRem = pRing->SizeOfBuffer - RdOff;
 683:Middlewares/Third_Party/SEGGER/RTT/SEGGER_RTT.c ****     NumBytesRem = MIN(NumBytesRem, BufferSize);
 684:Middlewares/Third_Party/SEGGER/RTT/SEGGER_RTT.c ****     pSrc = (pRing->pBuffer + RdOff) + SEGGER_RTT_UNCACHED_OFF;
 685:Middlewares/Third_Party/SEGGER/RTT/SEGGER_RTT.c **** #if SEGGER_RTT_MEMCPY_USE_BYTELOOP
 686:Middlewares/Third_Party/SEGGER/RTT/SEGGER_RTT.c ****     NumBytesRead += NumBytesRem;
 687:Middlewares/Third_Party/SEGGER/RTT/SEGGER_RTT.c ****     BufferSize   -= NumBytesRem;
 688:Middlewares/Third_Party/SEGGER/RTT/SEGGER_RTT.c ****     RdOff        += NumBytesRem;
 689:Middlewares/Third_Party/SEGGER/RTT/SEGGER_RTT.c ****     while (NumBytesRem--) {
 690:Middlewares/Third_Party/SEGGER/RTT/SEGGER_RTT.c ****       *pBuffer++ = *pSrc++;
 691:Middlewares/Third_Party/SEGGER/RTT/SEGGER_RTT.c ****     };
 692:Middlewares/Third_Party/SEGGER/RTT/SEGGER_RTT.c **** #else
 693:Middlewares/Third_Party/SEGGER/RTT/SEGGER_RTT.c ****     SEGGER_RTT_MEMCPY(pBuffer, (void*)pSrc, NumBytesRem);
 694:Middlewares/Third_Party/SEGGER/RTT/SEGGER_RTT.c ****     NumBytesRead += NumBytesRem;
 695:Middlewares/Third_Party/SEGGER/RTT/SEGGER_RTT.c ****     pBuffer      += NumBytesRem;
 696:Middlewares/Third_Party/SEGGER/RTT/SEGGER_RTT.c ****     BufferSize   -= NumBytesRem;
 697:Middlewares/Third_Party/SEGGER/RTT/SEGGER_RTT.c ****     RdOff        += NumBytesRem;
 698:Middlewares/Third_Party/SEGGER/RTT/SEGGER_RTT.c **** #endif
 699:Middlewares/Third_Party/SEGGER/RTT/SEGGER_RTT.c ****     //
 700:Middlewares/Third_Party/SEGGER/RTT/SEGGER_RTT.c ****     // Handle wrap-around of buffer
 701:Middlewares/Third_Party/SEGGER/RTT/SEGGER_RTT.c ****     //
 702:Middlewares/Third_Party/SEGGER/RTT/SEGGER_RTT.c ****     if (RdOff == pRing->SizeOfBuffer) {
 703:Middlewares/Third_Party/SEGGER/RTT/SEGGER_RTT.c ****       RdOff = 0u;
 704:Middlewares/Third_Party/SEGGER/RTT/SEGGER_RTT.c ****     }
ARM GAS  C:\Users\Administrator\AppData\Local\Temp\ccUGyMKj.s 			page 31


 705:Middlewares/Third_Party/SEGGER/RTT/SEGGER_RTT.c ****   }
 706:Middlewares/Third_Party/SEGGER/RTT/SEGGER_RTT.c ****   //
 707:Middlewares/Third_Party/SEGGER/RTT/SEGGER_RTT.c ****   // Read remaining items of buffer
 708:Middlewares/Third_Party/SEGGER/RTT/SEGGER_RTT.c ****   //
 709:Middlewares/Third_Party/SEGGER/RTT/SEGGER_RTT.c ****   NumBytesRem = WrOff - RdOff;
 828              		.loc 1 709 3 is_stmt 1 view .LVU272
 829              		.loc 1 709 15 is_stmt 0 view .LVU273
 830 0024 ED1B     		subs	r5, r5, r7
 831              	.LVL92:
 710:Middlewares/Third_Party/SEGGER/RTT/SEGGER_RTT.c ****   NumBytesRem = MIN(NumBytesRem, BufferSize);
 832              		.loc 1 710 3 is_stmt 1 view .LVU274
 833              		.loc 1 710 15 is_stmt 0 view .LVU275
 834 0026 4545     		cmp	r5, r8
 835 0028 28BF     		it	cs
 836 002a 4546     		movcs	r5, r8
 837              	.LVL93:
 711:Middlewares/Third_Party/SEGGER/RTT/SEGGER_RTT.c ****   if (NumBytesRem > 0u) {
 838              		.loc 1 711 3 is_stmt 1 view .LVU276
 839              		.loc 1 711 6 is_stmt 0 view .LVU277
 840 002c 4DBB     		cbnz	r5, .L50
 841              	.LVL94:
 842              	.L43:
 712:Middlewares/Third_Party/SEGGER/RTT/SEGGER_RTT.c ****     pSrc = (pRing->pBuffer + RdOff) + SEGGER_RTT_UNCACHED_OFF;
 713:Middlewares/Third_Party/SEGGER/RTT/SEGGER_RTT.c **** #if SEGGER_RTT_MEMCPY_USE_BYTELOOP
 714:Middlewares/Third_Party/SEGGER/RTT/SEGGER_RTT.c ****     NumBytesRead += NumBytesRem;
 715:Middlewares/Third_Party/SEGGER/RTT/SEGGER_RTT.c ****     BufferSize   -= NumBytesRem;
 716:Middlewares/Third_Party/SEGGER/RTT/SEGGER_RTT.c ****     RdOff        += NumBytesRem;
 717:Middlewares/Third_Party/SEGGER/RTT/SEGGER_RTT.c ****     while (NumBytesRem--) {
 718:Middlewares/Third_Party/SEGGER/RTT/SEGGER_RTT.c ****       *pBuffer++ = *pSrc++;
 719:Middlewares/Third_Party/SEGGER/RTT/SEGGER_RTT.c ****     };
 720:Middlewares/Third_Party/SEGGER/RTT/SEGGER_RTT.c **** #else
 721:Middlewares/Third_Party/SEGGER/RTT/SEGGER_RTT.c ****     SEGGER_RTT_MEMCPY(pBuffer, (void*)pSrc, NumBytesRem);
 722:Middlewares/Third_Party/SEGGER/RTT/SEGGER_RTT.c ****     NumBytesRead += NumBytesRem;
 723:Middlewares/Third_Party/SEGGER/RTT/SEGGER_RTT.c ****     pBuffer      += NumBytesRem;
 724:Middlewares/Third_Party/SEGGER/RTT/SEGGER_RTT.c ****     BufferSize   -= NumBytesRem;
 725:Middlewares/Third_Party/SEGGER/RTT/SEGGER_RTT.c ****     RdOff        += NumBytesRem;
 726:Middlewares/Third_Party/SEGGER/RTT/SEGGER_RTT.c **** #endif
 727:Middlewares/Third_Party/SEGGER/RTT/SEGGER_RTT.c ****   }
 728:Middlewares/Third_Party/SEGGER/RTT/SEGGER_RTT.c ****   if (NumBytesRead) {
 843              		.loc 1 728 3 is_stmt 1 view .LVU278
 844              		.loc 1 728 6 is_stmt 0 view .LVU279
 845 002e 2EB1     		cbz	r6, .L40
 729:Middlewares/Third_Party/SEGGER/RTT/SEGGER_RTT.c ****     pRing->RdOff = RdOff;
 846              		.loc 1 729 5 is_stmt 1 view .LVU280
 847              		.loc 1 729 18 is_stmt 0 view .LVU281
 848 0030 04EB4404 		add	r4, r4, r4, lsl #1
 849              	.LVL95:
 850              		.loc 1 729 18 view .LVU282
 851 0034 1A4B     		ldr	r3, .L51
 852 0036 03EBC403 		add	r3, r3, r4, lsl #3
 853 003a 1F67     		str	r7, [r3, #112]
 730:Middlewares/Third_Party/SEGGER/RTT/SEGGER_RTT.c ****   }
 731:Middlewares/Third_Party/SEGGER/RTT/SEGGER_RTT.c ****   //
 732:Middlewares/Third_Party/SEGGER/RTT/SEGGER_RTT.c ****   return NumBytesRead;
 854              		.loc 1 732 3 is_stmt 1 view .LVU283
 855              	.L40:
 733:Middlewares/Third_Party/SEGGER/RTT/SEGGER_RTT.c **** }
ARM GAS  C:\Users\Administrator\AppData\Local\Temp\ccUGyMKj.s 			page 32


 856              		.loc 1 733 1 is_stmt 0 view .LVU284
 857 003c 3046     		mov	r0, r6
 858 003e BDE8F087 		pop	{r4, r5, r6, r7, r8, r9, r10, pc}
 859              	.LVL96:
 860              	.L48:
 861              	.LBB5:
 672:Middlewares/Third_Party/SEGGER/RTT/SEGGER_RTT.c ****   pRing = (SEGGER_RTT_BUFFER_DOWN*)((char*)&_SEGGER_RTT.aDown[BufferIndex] + SEGGER_RTT_UNCACHED_OF
 862              		.loc 1 672 3 is_stmt 1 discriminator 1 view .LVU285
 863 0042 FFF7FEFF 		bl	_DoInit
 864              	.LVL97:
 672:Middlewares/Third_Party/SEGGER/RTT/SEGGER_RTT.c ****   pRing = (SEGGER_RTT_BUFFER_DOWN*)((char*)&_SEGGER_RTT.aDown[BufferIndex] + SEGGER_RTT_UNCACHED_OF
 865              		.loc 1 672 3 is_stmt 0 discriminator 1 view .LVU286
 866 0046 E3E7     		b	.L41
 867              	.LVL98:
 868              	.L49:
 672:Middlewares/Third_Party/SEGGER/RTT/SEGGER_RTT.c ****   pRing = (SEGGER_RTT_BUFFER_DOWN*)((char*)&_SEGGER_RTT.aDown[BufferIndex] + SEGGER_RTT_UNCACHED_OF
 869              		.loc 1 672 3 discriminator 1 view .LVU287
 870              	.LBE5:
 682:Middlewares/Third_Party/SEGGER/RTT/SEGGER_RTT.c ****     NumBytesRem = MIN(NumBytesRem, BufferSize);
 871              		.loc 1 682 5 is_stmt 1 view .LVU288
 682:Middlewares/Third_Party/SEGGER/RTT/SEGGER_RTT.c ****     NumBytesRem = MIN(NumBytesRem, BufferSize);
 872              		.loc 1 682 24 is_stmt 0 view .LVU289
 873 0048 1346     		mov	r3, r2
 874 004a 154A     		ldr	r2, .L51
 875 004c 02EBC309 		add	r9, r2, r3, lsl #3
 876 0050 D9F86860 		ldr	r6, [r9, #104]
 682:Middlewares/Third_Party/SEGGER/RTT/SEGGER_RTT.c ****     NumBytesRem = MIN(NumBytesRem, BufferSize);
 877              		.loc 1 682 17 view .LVU290
 878 0054 F61B     		subs	r6, r6, r7
 879              	.LVL99:
 683:Middlewares/Third_Party/SEGGER/RTT/SEGGER_RTT.c ****     pSrc = (pRing->pBuffer + RdOff) + SEGGER_RTT_UNCACHED_OFF;
 880              		.loc 1 683 5 is_stmt 1 view .LVU291
 683:Middlewares/Third_Party/SEGGER/RTT/SEGGER_RTT.c ****     pSrc = (pRing->pBuffer + RdOff) + SEGGER_RTT_UNCACHED_OFF;
 881              		.loc 1 683 17 is_stmt 0 view .LVU292
 882 0056 4645     		cmp	r6, r8
 883 0058 28BF     		it	cs
 884 005a 4646     		movcs	r6, r8
 885              	.LVL100:
 684:Middlewares/Third_Party/SEGGER/RTT/SEGGER_RTT.c **** #if SEGGER_RTT_MEMCPY_USE_BYTELOOP
 886              		.loc 1 684 5 is_stmt 1 view .LVU293
 684:Middlewares/Third_Party/SEGGER/RTT/SEGGER_RTT.c **** #if SEGGER_RTT_MEMCPY_USE_BYTELOOP
 887              		.loc 1 684 18 is_stmt 0 view .LVU294
 888 005c D9F86410 		ldr	r1, [r9, #100]
 889              	.LVL101:
 693:Middlewares/Third_Party/SEGGER/RTT/SEGGER_RTT.c ****     NumBytesRead += NumBytesRem;
 890              		.loc 1 693 5 is_stmt 1 view .LVU295
 891 0060 3246     		mov	r2, r6
 892 0062 3944     		add	r1, r1, r7
 893              	.LVL102:
 693:Middlewares/Third_Party/SEGGER/RTT/SEGGER_RTT.c ****     NumBytesRead += NumBytesRem;
 894              		.loc 1 693 5 is_stmt 0 view .LVU296
 895 0064 5046     		mov	r0, r10
 896 0066 FFF7FEFF 		bl	memcpy
 897              	.LVL103:
 694:Middlewares/Third_Party/SEGGER/RTT/SEGGER_RTT.c ****     pBuffer      += NumBytesRem;
 898              		.loc 1 694 5 is_stmt 1 view .LVU297
 695:Middlewares/Third_Party/SEGGER/RTT/SEGGER_RTT.c ****     BufferSize   -= NumBytesRem;
ARM GAS  C:\Users\Administrator\AppData\Local\Temp\ccUGyMKj.s 			page 33


 899              		.loc 1 695 5 view .LVU298
 695:Middlewares/Third_Party/SEGGER/RTT/SEGGER_RTT.c ****     BufferSize   -= NumBytesRem;
 900              		.loc 1 695 18 is_stmt 0 view .LVU299
 901 006a 5346     		mov	r3, r10
 902 006c 3344     		add	r3, r3, r6
 903              	.LVL104:
 695:Middlewares/Third_Party/SEGGER/RTT/SEGGER_RTT.c ****     BufferSize   -= NumBytesRem;
 904              		.loc 1 695 18 view .LVU300
 905 006e 9A46     		mov	r10, r3
 906              	.LVL105:
 696:Middlewares/Third_Party/SEGGER/RTT/SEGGER_RTT.c ****     RdOff        += NumBytesRem;
 907              		.loc 1 696 5 is_stmt 1 view .LVU301
 696:Middlewares/Third_Party/SEGGER/RTT/SEGGER_RTT.c ****     RdOff        += NumBytesRem;
 908              		.loc 1 696 18 is_stmt 0 view .LVU302
 909 0070 A8EB0608 		sub	r8, r8, r6
 910              	.LVL106:
 697:Middlewares/Third_Party/SEGGER/RTT/SEGGER_RTT.c **** #endif
 911              		.loc 1 697 5 is_stmt 1 view .LVU303
 697:Middlewares/Third_Party/SEGGER/RTT/SEGGER_RTT.c **** #endif
 912              		.loc 1 697 18 is_stmt 0 view .LVU304
 913 0074 3744     		add	r7, r7, r6
 914              	.LVL107:
 702:Middlewares/Third_Party/SEGGER/RTT/SEGGER_RTT.c ****       RdOff = 0u;
 915              		.loc 1 702 5 is_stmt 1 view .LVU305
 702:Middlewares/Third_Party/SEGGER/RTT/SEGGER_RTT.c ****       RdOff = 0u;
 916              		.loc 1 702 23 is_stmt 0 view .LVU306
 917 0076 D9F86830 		ldr	r3, [r9, #104]
 918              	.LVL108:
 702:Middlewares/Third_Party/SEGGER/RTT/SEGGER_RTT.c ****       RdOff = 0u;
 919              		.loc 1 702 8 view .LVU307
 920 007a BB42     		cmp	r3, r7
 921 007c D2D1     		bne	.L42
 703:Middlewares/Third_Party/SEGGER/RTT/SEGGER_RTT.c ****     }
 922              		.loc 1 703 13 view .LVU308
 923 007e 0027     		movs	r7, #0
 924              	.LVL109:
 703:Middlewares/Third_Party/SEGGER/RTT/SEGGER_RTT.c ****     }
 925              		.loc 1 703 13 view .LVU309
 926 0080 D0E7     		b	.L42
 927              	.LVL110:
 928              	.L50:
 712:Middlewares/Third_Party/SEGGER/RTT/SEGGER_RTT.c **** #if SEGGER_RTT_MEMCPY_USE_BYTELOOP
 929              		.loc 1 712 5 is_stmt 1 view .LVU310
 712:Middlewares/Third_Party/SEGGER/RTT/SEGGER_RTT.c **** #if SEGGER_RTT_MEMCPY_USE_BYTELOOP
 930              		.loc 1 712 18 is_stmt 0 view .LVU311
 931 0082 04EB4402 		add	r2, r4, r4, lsl #1
 932 0086 064B     		ldr	r3, .L51
 933 0088 03EBC203 		add	r3, r3, r2, lsl #3
 934 008c 596E     		ldr	r1, [r3, #100]
 935              	.LVL111:
 721:Middlewares/Third_Party/SEGGER/RTT/SEGGER_RTT.c ****     NumBytesRead += NumBytesRem;
 936              		.loc 1 721 5 is_stmt 1 view .LVU312
 937 008e 2A46     		mov	r2, r5
 938 0090 3944     		add	r1, r1, r7
 939              	.LVL112:
 721:Middlewares/Third_Party/SEGGER/RTT/SEGGER_RTT.c ****     NumBytesRead += NumBytesRem;
 940              		.loc 1 721 5 is_stmt 0 view .LVU313
ARM GAS  C:\Users\Administrator\AppData\Local\Temp\ccUGyMKj.s 			page 34


 941 0092 5046     		mov	r0, r10
 942 0094 FFF7FEFF 		bl	memcpy
 943              	.LVL113:
 722:Middlewares/Third_Party/SEGGER/RTT/SEGGER_RTT.c ****     pBuffer      += NumBytesRem;
 944              		.loc 1 722 5 is_stmt 1 view .LVU314
 722:Middlewares/Third_Party/SEGGER/RTT/SEGGER_RTT.c ****     pBuffer      += NumBytesRem;
 945              		.loc 1 722 18 is_stmt 0 view .LVU315
 946 0098 2E44     		add	r6, r6, r5
 947              	.LVL114:
 723:Middlewares/Third_Party/SEGGER/RTT/SEGGER_RTT.c ****     BufferSize   -= NumBytesRem;
 948              		.loc 1 723 5 is_stmt 1 view .LVU316
 724:Middlewares/Third_Party/SEGGER/RTT/SEGGER_RTT.c ****     RdOff        += NumBytesRem;
 949              		.loc 1 724 5 view .LVU317
 725:Middlewares/Third_Party/SEGGER/RTT/SEGGER_RTT.c **** #endif
 950              		.loc 1 725 5 view .LVU318
 725:Middlewares/Third_Party/SEGGER/RTT/SEGGER_RTT.c **** #endif
 951              		.loc 1 725 18 is_stmt 0 view .LVU319
 952 009a 2F44     		add	r7, r7, r5
 953              	.LVL115:
 725:Middlewares/Third_Party/SEGGER/RTT/SEGGER_RTT.c **** #endif
 954              		.loc 1 725 18 view .LVU320
 955 009c C7E7     		b	.L43
 956              	.L52:
 957 009e 00BF     		.align	2
 958              	.L51:
 959 00a0 00000000 		.word	_SEGGER_RTT
 960              		.cfi_endproc
 961              	.LFE6:
 963              		.section	.text.SEGGER_RTT_ReadUpBuffer,"ax",%progbits
 964              		.align	1
 965              		.global	SEGGER_RTT_ReadUpBuffer
 966              		.syntax unified
 967              		.thumb
 968              		.thumb_func
 970              	SEGGER_RTT_ReadUpBuffer:
 971              	.LVL116:
 972              	.LFB7:
 734:Middlewares/Third_Party/SEGGER/RTT/SEGGER_RTT.c **** 
 735:Middlewares/Third_Party/SEGGER/RTT/SEGGER_RTT.c **** /*********************************************************************
 736:Middlewares/Third_Party/SEGGER/RTT/SEGGER_RTT.c **** *
 737:Middlewares/Third_Party/SEGGER/RTT/SEGGER_RTT.c **** *       SEGGER_RTT_ReadUpBuffer
 738:Middlewares/Third_Party/SEGGER/RTT/SEGGER_RTT.c **** *
 739:Middlewares/Third_Party/SEGGER/RTT/SEGGER_RTT.c **** *  Function description
 740:Middlewares/Third_Party/SEGGER/RTT/SEGGER_RTT.c **** *    Reads characters from SEGGER real-time-terminal control block
 741:Middlewares/Third_Party/SEGGER/RTT/SEGGER_RTT.c **** *    which have been previously stored by the application.
 742:Middlewares/Third_Party/SEGGER/RTT/SEGGER_RTT.c **** *    Used to do the same operation that J-Link does, to transfer 
 743:Middlewares/Third_Party/SEGGER/RTT/SEGGER_RTT.c **** *    RTT data via other channels, such as TCP/IP or UART.
 744:Middlewares/Third_Party/SEGGER/RTT/SEGGER_RTT.c **** *
 745:Middlewares/Third_Party/SEGGER/RTT/SEGGER_RTT.c **** *  Parameters
 746:Middlewares/Third_Party/SEGGER/RTT/SEGGER_RTT.c **** *    BufferIndex  Index of Up-buffer to be used.
 747:Middlewares/Third_Party/SEGGER/RTT/SEGGER_RTT.c **** *    pBuffer      Pointer to buffer provided by target application, to copy characters from RTT-up-
 748:Middlewares/Third_Party/SEGGER/RTT/SEGGER_RTT.c **** *    BufferSize   Size of the target application buffer.
 749:Middlewares/Third_Party/SEGGER/RTT/SEGGER_RTT.c **** *
 750:Middlewares/Third_Party/SEGGER/RTT/SEGGER_RTT.c **** *  Return value
 751:Middlewares/Third_Party/SEGGER/RTT/SEGGER_RTT.c **** *    Number of bytes that have been read.
 752:Middlewares/Third_Party/SEGGER/RTT/SEGGER_RTT.c **** *
 753:Middlewares/Third_Party/SEGGER/RTT/SEGGER_RTT.c **** *  Additional information
ARM GAS  C:\Users\Administrator\AppData\Local\Temp\ccUGyMKj.s 			page 35


 754:Middlewares/Third_Party/SEGGER/RTT/SEGGER_RTT.c **** *    This function must not be called when J-Link might also do RTT.
 755:Middlewares/Third_Party/SEGGER/RTT/SEGGER_RTT.c **** *    This function locks against all other RTT operations. I.e. during
 756:Middlewares/Third_Party/SEGGER/RTT/SEGGER_RTT.c **** *    the read operation, writing is also locked.
 757:Middlewares/Third_Party/SEGGER/RTT/SEGGER_RTT.c **** *    If only one consumer reads from the up buffer, 
 758:Middlewares/Third_Party/SEGGER/RTT/SEGGER_RTT.c **** *    call sEGGER_RTT_ReadUpBufferNoLock() instead.
 759:Middlewares/Third_Party/SEGGER/RTT/SEGGER_RTT.c **** */
 760:Middlewares/Third_Party/SEGGER/RTT/SEGGER_RTT.c **** unsigned SEGGER_RTT_ReadUpBuffer(unsigned BufferIndex, void* pBuffer, unsigned BufferSize) {
 973              		.loc 1 760 92 is_stmt 1 view -0
 974              		.cfi_startproc
 975              		@ args = 0, pretend = 0, frame = 0
 976              		@ frame_needed = 0, uses_anonymous_args = 0
 977              		.loc 1 760 92 is_stmt 0 view .LVU322
 978 0000 10B5     		push	{r4, lr}
 979              		.cfi_def_cfa_offset 8
 980              		.cfi_offset 4, -8
 981              		.cfi_offset 14, -4
 982 0002 0B46     		mov	r3, r1
 761:Middlewares/Third_Party/SEGGER/RTT/SEGGER_RTT.c ****   unsigned NumBytesRead;
 983              		.loc 1 761 3 is_stmt 1 view .LVU323
 984              	.LBB6:
 762:Middlewares/Third_Party/SEGGER/RTT/SEGGER_RTT.c **** 
 763:Middlewares/Third_Party/SEGGER/RTT/SEGGER_RTT.c ****   SEGGER_RTT_LOCK();
 985              		.loc 1 763 3 view .LVU324
 986              		.loc 1 763 3 view .LVU325
 987              		.syntax unified
 988              	@ 763 "Middlewares/Third_Party/SEGGER/RTT/SEGGER_RTT.c" 1
 989 0004 EFF31184 		mrs   r4, basepri  
 990 0008 4FF02001 		mov   r1, #32       
 991 000c 81F31188 		msr   basepri, r1  
 992              		
 993              	@ 0 "" 2
 994              	.LVL117:
 995              		.loc 1 763 20 view .LVU326
 764:Middlewares/Third_Party/SEGGER/RTT/SEGGER_RTT.c ****   //
 765:Middlewares/Third_Party/SEGGER/RTT/SEGGER_RTT.c ****   // Call the non-locking read function
 766:Middlewares/Third_Party/SEGGER/RTT/SEGGER_RTT.c ****   //
 767:Middlewares/Third_Party/SEGGER/RTT/SEGGER_RTT.c ****   NumBytesRead = SEGGER_RTT_ReadUpBufferNoLock(BufferIndex, pBuffer, BufferSize);
 996              		.loc 1 767 3 view .LVU327
 997              		.loc 1 767 18 is_stmt 0 view .LVU328
 998              		.thumb
 999              		.syntax unified
 1000 0010 1946     		mov	r1, r3
 1001 0012 FFF7FEFF 		bl	SEGGER_RTT_ReadUpBufferNoLock
 1002              	.LVL118:
 768:Middlewares/Third_Party/SEGGER/RTT/SEGGER_RTT.c ****   //
 769:Middlewares/Third_Party/SEGGER/RTT/SEGGER_RTT.c ****   // Finish up.
 770:Middlewares/Third_Party/SEGGER/RTT/SEGGER_RTT.c ****   //
 771:Middlewares/Third_Party/SEGGER/RTT/SEGGER_RTT.c ****   SEGGER_RTT_UNLOCK();
 1003              		.loc 1 771 3 is_stmt 1 view .LVU329
 1004              		.syntax unified
 1005              	@ 771 "Middlewares/Third_Party/SEGGER/RTT/SEGGER_RTT.c" 1
 1006 0016 84F31188 		msr   basepri, r4  
 1007              		
 1008              	@ 0 "" 2
 1009              		.thumb
 1010              		.syntax unified
 1011              	.LBE6:
ARM GAS  C:\Users\Administrator\AppData\Local\Temp\ccUGyMKj.s 			page 36


 1012              		.loc 1 771 22 view .LVU330
 772:Middlewares/Third_Party/SEGGER/RTT/SEGGER_RTT.c ****   //
 773:Middlewares/Third_Party/SEGGER/RTT/SEGGER_RTT.c ****   return NumBytesRead;
 1013              		.loc 1 773 3 view .LVU331
 774:Middlewares/Third_Party/SEGGER/RTT/SEGGER_RTT.c **** }
 1014              		.loc 1 774 1 is_stmt 0 view .LVU332
 1015 001a 10BD     		pop	{r4, pc}
 1016              		.loc 1 774 1 view .LVU333
 1017              		.cfi_endproc
 1018              	.LFE7:
 1020              		.section	.text.SEGGER_RTT_Read,"ax",%progbits
 1021              		.align	1
 1022              		.global	SEGGER_RTT_Read
 1023              		.syntax unified
 1024              		.thumb
 1025              		.thumb_func
 1027              	SEGGER_RTT_Read:
 1028              	.LVL119:
 1029              	.LFB8:
 775:Middlewares/Third_Party/SEGGER/RTT/SEGGER_RTT.c **** 
 776:Middlewares/Third_Party/SEGGER/RTT/SEGGER_RTT.c **** /*********************************************************************
 777:Middlewares/Third_Party/SEGGER/RTT/SEGGER_RTT.c **** *
 778:Middlewares/Third_Party/SEGGER/RTT/SEGGER_RTT.c **** *       SEGGER_RTT_Read
 779:Middlewares/Third_Party/SEGGER/RTT/SEGGER_RTT.c **** *
 780:Middlewares/Third_Party/SEGGER/RTT/SEGGER_RTT.c **** *  Function description
 781:Middlewares/Third_Party/SEGGER/RTT/SEGGER_RTT.c **** *    Reads characters from SEGGER real-time-terminal control block
 782:Middlewares/Third_Party/SEGGER/RTT/SEGGER_RTT.c **** *    which have been previously stored by the host.
 783:Middlewares/Third_Party/SEGGER/RTT/SEGGER_RTT.c **** *
 784:Middlewares/Third_Party/SEGGER/RTT/SEGGER_RTT.c **** *  Parameters
 785:Middlewares/Third_Party/SEGGER/RTT/SEGGER_RTT.c **** *    BufferIndex  Index of Down-buffer to be used (e.g. 0 for "Terminal").
 786:Middlewares/Third_Party/SEGGER/RTT/SEGGER_RTT.c **** *    pBuffer      Pointer to buffer provided by target application, to copy characters from RTT-dow
 787:Middlewares/Third_Party/SEGGER/RTT/SEGGER_RTT.c **** *    BufferSize   Size of the target application buffer.
 788:Middlewares/Third_Party/SEGGER/RTT/SEGGER_RTT.c **** *
 789:Middlewares/Third_Party/SEGGER/RTT/SEGGER_RTT.c **** *  Return value
 790:Middlewares/Third_Party/SEGGER/RTT/SEGGER_RTT.c **** *    Number of bytes that have been read.
 791:Middlewares/Third_Party/SEGGER/RTT/SEGGER_RTT.c **** */
 792:Middlewares/Third_Party/SEGGER/RTT/SEGGER_RTT.c **** unsigned SEGGER_RTT_Read(unsigned BufferIndex, void* pBuffer, unsigned BufferSize) {
 1030              		.loc 1 792 84 is_stmt 1 view -0
 1031              		.cfi_startproc
 1032              		@ args = 0, pretend = 0, frame = 0
 1033              		@ frame_needed = 0, uses_anonymous_args = 0
 1034              		.loc 1 792 84 is_stmt 0 view .LVU335
 1035 0000 10B5     		push	{r4, lr}
 1036              		.cfi_def_cfa_offset 8
 1037              		.cfi_offset 4, -8
 1038              		.cfi_offset 14, -4
 1039 0002 0B46     		mov	r3, r1
 793:Middlewares/Third_Party/SEGGER/RTT/SEGGER_RTT.c ****   unsigned NumBytesRead;
 1040              		.loc 1 793 3 is_stmt 1 view .LVU336
 1041              	.LBB7:
 794:Middlewares/Third_Party/SEGGER/RTT/SEGGER_RTT.c **** 
 795:Middlewares/Third_Party/SEGGER/RTT/SEGGER_RTT.c ****   SEGGER_RTT_LOCK();
 1042              		.loc 1 795 3 view .LVU337
 1043              		.loc 1 795 3 view .LVU338
 1044              		.syntax unified
 1045              	@ 795 "Middlewares/Third_Party/SEGGER/RTT/SEGGER_RTT.c" 1
 1046 0004 EFF31184 		mrs   r4, basepri  
ARM GAS  C:\Users\Administrator\AppData\Local\Temp\ccUGyMKj.s 			page 37


 1047 0008 4FF02001 		mov   r1, #32       
 1048 000c 81F31188 		msr   basepri, r1  
 1049              		
 1050              	@ 0 "" 2
 1051              	.LVL120:
 1052              		.loc 1 795 20 view .LVU339
 796:Middlewares/Third_Party/SEGGER/RTT/SEGGER_RTT.c ****   //
 797:Middlewares/Third_Party/SEGGER/RTT/SEGGER_RTT.c ****   // Call the non-locking read function
 798:Middlewares/Third_Party/SEGGER/RTT/SEGGER_RTT.c ****   //
 799:Middlewares/Third_Party/SEGGER/RTT/SEGGER_RTT.c ****   NumBytesRead = SEGGER_RTT_ReadNoLock(BufferIndex, pBuffer, BufferSize);
 1053              		.loc 1 799 3 view .LVU340
 1054              		.loc 1 799 18 is_stmt 0 view .LVU341
 1055              		.thumb
 1056              		.syntax unified
 1057 0010 1946     		mov	r1, r3
 1058 0012 FFF7FEFF 		bl	SEGGER_RTT_ReadNoLock
 1059              	.LVL121:
 800:Middlewares/Third_Party/SEGGER/RTT/SEGGER_RTT.c ****   //
 801:Middlewares/Third_Party/SEGGER/RTT/SEGGER_RTT.c ****   // Finish up.
 802:Middlewares/Third_Party/SEGGER/RTT/SEGGER_RTT.c ****   //
 803:Middlewares/Third_Party/SEGGER/RTT/SEGGER_RTT.c ****   SEGGER_RTT_UNLOCK();
 1060              		.loc 1 803 3 is_stmt 1 view .LVU342
 1061              		.syntax unified
 1062              	@ 803 "Middlewares/Third_Party/SEGGER/RTT/SEGGER_RTT.c" 1
 1063 0016 84F31188 		msr   basepri, r4  
 1064              		
 1065              	@ 0 "" 2
 1066              		.thumb
 1067              		.syntax unified
 1068              	.LBE7:
 1069              		.loc 1 803 22 view .LVU343
 804:Middlewares/Third_Party/SEGGER/RTT/SEGGER_RTT.c ****   //
 805:Middlewares/Third_Party/SEGGER/RTT/SEGGER_RTT.c ****   return NumBytesRead;
 1070              		.loc 1 805 3 view .LVU344
 806:Middlewares/Third_Party/SEGGER/RTT/SEGGER_RTT.c **** }
 1071              		.loc 1 806 1 is_stmt 0 view .LVU345
 1072 001a 10BD     		pop	{r4, pc}
 1073              		.loc 1 806 1 view .LVU346
 1074              		.cfi_endproc
 1075              	.LFE8:
 1077              		.section	.text.SEGGER_RTT_WriteWithOverwriteNoLock,"ax",%progbits
 1078              		.align	1
 1079              		.global	SEGGER_RTT_WriteWithOverwriteNoLock
 1080              		.syntax unified
 1081              		.thumb
 1082              		.thumb_func
 1084              	SEGGER_RTT_WriteWithOverwriteNoLock:
 1085              	.LVL122:
 1086              	.LFB9:
 807:Middlewares/Third_Party/SEGGER/RTT/SEGGER_RTT.c **** 
 808:Middlewares/Third_Party/SEGGER/RTT/SEGGER_RTT.c **** /*********************************************************************
 809:Middlewares/Third_Party/SEGGER/RTT/SEGGER_RTT.c **** *
 810:Middlewares/Third_Party/SEGGER/RTT/SEGGER_RTT.c **** *       SEGGER_RTT_WriteWithOverwriteNoLock
 811:Middlewares/Third_Party/SEGGER/RTT/SEGGER_RTT.c **** *
 812:Middlewares/Third_Party/SEGGER/RTT/SEGGER_RTT.c **** *  Function description
 813:Middlewares/Third_Party/SEGGER/RTT/SEGGER_RTT.c **** *    Stores a specified number of characters in SEGGER RTT
 814:Middlewares/Third_Party/SEGGER/RTT/SEGGER_RTT.c **** *    control block.
ARM GAS  C:\Users\Administrator\AppData\Local\Temp\ccUGyMKj.s 			page 38


 815:Middlewares/Third_Party/SEGGER/RTT/SEGGER_RTT.c **** *    SEGGER_RTT_WriteWithOverwriteNoLock does not lock the application 
 816:Middlewares/Third_Party/SEGGER/RTT/SEGGER_RTT.c **** *    and overwrites data if the data does not fit into the buffer.
 817:Middlewares/Third_Party/SEGGER/RTT/SEGGER_RTT.c **** *
 818:Middlewares/Third_Party/SEGGER/RTT/SEGGER_RTT.c **** *  Parameters
 819:Middlewares/Third_Party/SEGGER/RTT/SEGGER_RTT.c **** *    BufferIndex  Index of "Up"-buffer to be used (e.g. 0 for "Terminal").
 820:Middlewares/Third_Party/SEGGER/RTT/SEGGER_RTT.c **** *    pBuffer      Pointer to character array. Does not need to point to a \0 terminated string.
 821:Middlewares/Third_Party/SEGGER/RTT/SEGGER_RTT.c **** *    NumBytes     Number of bytes to be stored in the SEGGER RTT control block.
 822:Middlewares/Third_Party/SEGGER/RTT/SEGGER_RTT.c **** *
 823:Middlewares/Third_Party/SEGGER/RTT/SEGGER_RTT.c **** *  Notes
 824:Middlewares/Third_Party/SEGGER/RTT/SEGGER_RTT.c **** *    (1) If there is not enough space in the "Up"-buffer, data is overwritten.
 825:Middlewares/Third_Party/SEGGER/RTT/SEGGER_RTT.c **** *    (2) For performance reasons this function does not call Init()
 826:Middlewares/Third_Party/SEGGER/RTT/SEGGER_RTT.c **** *        and may only be called after RTT has been initialized.
 827:Middlewares/Third_Party/SEGGER/RTT/SEGGER_RTT.c **** *        Either by calling SEGGER_RTT_Init() or calling another RTT API function first.
 828:Middlewares/Third_Party/SEGGER/RTT/SEGGER_RTT.c **** *    (3) Do not use SEGGER_RTT_WriteWithOverwriteNoLock if a J-Link 
 829:Middlewares/Third_Party/SEGGER/RTT/SEGGER_RTT.c **** *        connection reads RTT data.
 830:Middlewares/Third_Party/SEGGER/RTT/SEGGER_RTT.c **** */
 831:Middlewares/Third_Party/SEGGER/RTT/SEGGER_RTT.c **** void SEGGER_RTT_WriteWithOverwriteNoLock(unsigned BufferIndex, const void* pBuffer, unsigned NumByt
 1087              		.loc 1 831 104 is_stmt 1 view -0
 1088              		.cfi_startproc
 1089              		@ args = 0, pretend = 0, frame = 8
 1090              		@ frame_needed = 0, uses_anonymous_args = 0
 1091              		.loc 1 831 104 is_stmt 0 view .LVU348
 1092 0000 2DE9F041 		push	{r4, r5, r6, r7, r8, lr}
 1093              		.cfi_def_cfa_offset 24
 1094              		.cfi_offset 4, -24
 1095              		.cfi_offset 5, -20
 1096              		.cfi_offset 6, -16
 1097              		.cfi_offset 7, -12
 1098              		.cfi_offset 8, -8
 1099              		.cfi_offset 14, -4
 1100 0004 82B0     		sub	sp, sp, #8
 1101              		.cfi_def_cfa_offset 32
 1102 0006 0646     		mov	r6, r0
 1103 0008 8846     		mov	r8, r1
 1104 000a 1746     		mov	r7, r2
 832:Middlewares/Third_Party/SEGGER/RTT/SEGGER_RTT.c ****   const char*           pData;
 1105              		.loc 1 832 3 is_stmt 1 view .LVU349
 833:Middlewares/Third_Party/SEGGER/RTT/SEGGER_RTT.c ****   SEGGER_RTT_BUFFER_UP* pRing;
 1106              		.loc 1 833 3 view .LVU350
 834:Middlewares/Third_Party/SEGGER/RTT/SEGGER_RTT.c ****   unsigned              Avail;
 1107              		.loc 1 834 3 view .LVU351
 835:Middlewares/Third_Party/SEGGER/RTT/SEGGER_RTT.c ****   volatile char*        pDst;
 1108              		.loc 1 835 3 view .LVU352
 836:Middlewares/Third_Party/SEGGER/RTT/SEGGER_RTT.c ****   //
 837:Middlewares/Third_Party/SEGGER/RTT/SEGGER_RTT.c ****   // Get "to-host" ring buffer and copy some elements into local variables.
 838:Middlewares/Third_Party/SEGGER/RTT/SEGGER_RTT.c ****   //
 839:Middlewares/Third_Party/SEGGER/RTT/SEGGER_RTT.c ****   pData = (const char *)pBuffer;
 1109              		.loc 1 839 3 view .LVU353
 1110              	.LVL123:
 840:Middlewares/Third_Party/SEGGER/RTT/SEGGER_RTT.c ****   pRing = (SEGGER_RTT_BUFFER_UP*)((char*)&_SEGGER_RTT.aUp[BufferIndex] + SEGGER_RTT_UNCACHED_OFF); 
 1111              		.loc 1 840 3 view .LVU354
 841:Middlewares/Third_Party/SEGGER/RTT/SEGGER_RTT.c ****   //
 842:Middlewares/Third_Party/SEGGER/RTT/SEGGER_RTT.c ****   // Check if we will overwrite data and need to adjust the RdOff.
 843:Middlewares/Third_Party/SEGGER/RTT/SEGGER_RTT.c ****   //
 844:Middlewares/Third_Party/SEGGER/RTT/SEGGER_RTT.c ****   if (pRing->WrOff == pRing->RdOff) {
 1112              		.loc 1 844 3 view .LVU355
 1113              		.loc 1 844 12 is_stmt 0 view .LVU356
ARM GAS  C:\Users\Administrator\AppData\Local\Temp\ccUGyMKj.s 			page 39


 1114 000c 00EB4002 		add	r2, r0, r0, lsl #1
 1115              	.LVL124:
 1116              		.loc 1 844 12 view .LVU357
 1117 0010 434B     		ldr	r3, .L70
 1118 0012 03EBC203 		add	r3, r3, r2, lsl #3
 1119 0016 596A     		ldr	r1, [r3, #36]
 1120              	.LVL125:
 1121              		.loc 1 844 28 view .LVU358
 1122 0018 9B6A     		ldr	r3, [r3, #40]
 1123              		.loc 1 844 6 view .LVU359
 1124 001a 9942     		cmp	r1, r3
 1125 001c 0ED0     		beq	.L68
 845:Middlewares/Third_Party/SEGGER/RTT/SEGGER_RTT.c ****     Avail = pRing->SizeOfBuffer - 1u;
 846:Middlewares/Third_Party/SEGGER/RTT/SEGGER_RTT.c ****   } else if ( pRing->WrOff < pRing->RdOff) {
 1126              		.loc 1 846 10 is_stmt 1 view .LVU360
 1127              		.loc 1 846 35 is_stmt 0 view .LVU361
 1128 001e 00EB4002 		add	r2, r0, r0, lsl #1
 1129 0022 3F4B     		ldr	r3, .L70
 1130 0024 03EBC203 		add	r3, r3, r2, lsl #3
 1131 0028 9B6A     		ldr	r3, [r3, #40]
 1132              		.loc 1 846 13 view .LVU362
 1133 002a 9942     		cmp	r1, r3
 1134 002c 17D2     		bcs	.L60
 847:Middlewares/Third_Party/SEGGER/RTT/SEGGER_RTT.c ****     Avail = pRing->RdOff - pRing->WrOff - 1u;
 1135              		.loc 1 847 5 is_stmt 1 view .LVU363
 1136              		.loc 1 847 18 is_stmt 0 view .LVU364
 1137 002e 3C4B     		ldr	r3, .L70
 1138 0030 03EBC203 		add	r3, r3, r2, lsl #3
 1139 0034 9B6A     		ldr	r3, [r3, #40]
 1140              		.loc 1 847 26 view .LVU365
 1141 0036 5B1A     		subs	r3, r3, r1
 1142              		.loc 1 847 11 view .LVU366
 1143 0038 013B     		subs	r3, r3, #1
 1144              	.LVL126:
 1145              		.loc 1 847 11 view .LVU367
 1146 003a 04E0     		b	.L59
 1147              	.LVL127:
 1148              	.L68:
 845:Middlewares/Third_Party/SEGGER/RTT/SEGGER_RTT.c ****     Avail = pRing->SizeOfBuffer - 1u;
 1149              		.loc 1 845 5 is_stmt 1 view .LVU368
 845:Middlewares/Third_Party/SEGGER/RTT/SEGGER_RTT.c ****     Avail = pRing->SizeOfBuffer - 1u;
 1150              		.loc 1 845 18 is_stmt 0 view .LVU369
 1151 003c 384B     		ldr	r3, .L70
 1152 003e 03EBC203 		add	r3, r3, r2, lsl #3
 1153 0042 1B6A     		ldr	r3, [r3, #32]
 845:Middlewares/Third_Party/SEGGER/RTT/SEGGER_RTT.c ****     Avail = pRing->SizeOfBuffer - 1u;
 1154              		.loc 1 845 11 view .LVU370
 1155 0044 013B     		subs	r3, r3, #1
 1156              	.LVL128:
 1157              	.L59:
 848:Middlewares/Third_Party/SEGGER/RTT/SEGGER_RTT.c ****   } else {
 849:Middlewares/Third_Party/SEGGER/RTT/SEGGER_RTT.c ****     Avail = pRing->RdOff - pRing->WrOff - 1u + pRing->SizeOfBuffer;
 850:Middlewares/Third_Party/SEGGER/RTT/SEGGER_RTT.c ****   }
 851:Middlewares/Third_Party/SEGGER/RTT/SEGGER_RTT.c ****   if (NumBytes > Avail) {
 1158              		.loc 1 851 3 is_stmt 1 view .LVU371
 1159              		.loc 1 851 6 is_stmt 0 view .LVU372
 1160 0046 BB42     		cmp	r3, r7
ARM GAS  C:\Users\Administrator\AppData\Local\Temp\ccUGyMKj.s 			page 40


 1161 0048 25D2     		bcs	.L61
 852:Middlewares/Third_Party/SEGGER/RTT/SEGGER_RTT.c ****     pRing->RdOff += (NumBytes - Avail);
 1162              		.loc 1 852 5 is_stmt 1 view .LVU373
 1163              		.loc 1 852 10 is_stmt 0 view .LVU374
 1164 004a 06EB4600 		add	r0, r6, r6, lsl #1
 1165              	.LVL129:
 1166              		.loc 1 852 10 view .LVU375
 1167 004e 344A     		ldr	r2, .L70
 1168 0050 02EBC002 		add	r2, r2, r0, lsl #3
 1169 0054 906A     		ldr	r0, [r2, #40]
 1170              		.loc 1 852 31 view .LVU376
 1171 0056 FB1A     		subs	r3, r7, r3
 1172              	.LVL130:
 1173              		.loc 1 852 18 view .LVU377
 1174 0058 0344     		add	r3, r3, r0
 1175 005a 9362     		str	r3, [r2, #40]
 853:Middlewares/Third_Party/SEGGER/RTT/SEGGER_RTT.c ****     while (pRing->RdOff >= pRing->SizeOfBuffer) {
 1176              		.loc 1 853 5 is_stmt 1 view .LVU378
 1177              		.loc 1 853 11 is_stmt 0 view .LVU379
 1178 005c 12E0     		b	.L62
 1179              	.LVL131:
 1180              	.L60:
 849:Middlewares/Third_Party/SEGGER/RTT/SEGGER_RTT.c ****   }
 1181              		.loc 1 849 5 is_stmt 1 view .LVU380
 849:Middlewares/Third_Party/SEGGER/RTT/SEGGER_RTT.c ****   }
 1182              		.loc 1 849 18 is_stmt 0 view .LVU381
 1183 005e 00EB4003 		add	r3, r0, r0, lsl #1
 1184 0062 2F4A     		ldr	r2, .L70
 1185 0064 02EBC302 		add	r2, r2, r3, lsl #3
 1186 0068 936A     		ldr	r3, [r2, #40]
 849:Middlewares/Third_Party/SEGGER/RTT/SEGGER_RTT.c ****   }
 1187              		.loc 1 849 26 view .LVU382
 1188 006a 5B1A     		subs	r3, r3, r1
 849:Middlewares/Third_Party/SEGGER/RTT/SEGGER_RTT.c ****   }
 1189              		.loc 1 849 53 view .LVU383
 1190 006c 126A     		ldr	r2, [r2, #32]
 849:Middlewares/Third_Party/SEGGER/RTT/SEGGER_RTT.c ****   }
 1191              		.loc 1 849 46 view .LVU384
 1192 006e 1344     		add	r3, r3, r2
 849:Middlewares/Third_Party/SEGGER/RTT/SEGGER_RTT.c ****   }
 1193              		.loc 1 849 11 view .LVU385
 1194 0070 013B     		subs	r3, r3, #1
 1195 0072 E8E7     		b	.L59
 1196              	.LVL132:
 1197              	.L63:
 854:Middlewares/Third_Party/SEGGER/RTT/SEGGER_RTT.c ****       pRing->RdOff -= pRing->SizeOfBuffer;
 1198              		.loc 1 854 7 is_stmt 1 view .LVU386
 1199              		.loc 1 854 12 is_stmt 0 view .LVU387
 1200 0074 06EB4602 		add	r2, r6, r6, lsl #1
 1201 0078 294B     		ldr	r3, .L70
 1202 007a 03EBC203 		add	r3, r3, r2, lsl #3
 1203 007e 9A6A     		ldr	r2, [r3, #40]
 1204              		.loc 1 854 20 view .LVU388
 1205 0080 121A     		subs	r2, r2, r0
 1206 0082 9A62     		str	r2, [r3, #40]
 1207              	.L62:
 853:Middlewares/Third_Party/SEGGER/RTT/SEGGER_RTT.c ****     while (pRing->RdOff >= pRing->SizeOfBuffer) {
ARM GAS  C:\Users\Administrator\AppData\Local\Temp\ccUGyMKj.s 			page 41


 1208              		.loc 1 853 25 is_stmt 1 view .LVU389
 853:Middlewares/Third_Party/SEGGER/RTT/SEGGER_RTT.c ****     while (pRing->RdOff >= pRing->SizeOfBuffer) {
 1209              		.loc 1 853 17 is_stmt 0 view .LVU390
 1210 0084 06EB4602 		add	r2, r6, r6, lsl #1
 1211 0088 254B     		ldr	r3, .L70
 1212 008a 03EBC203 		add	r3, r3, r2, lsl #3
 1213 008e 9A6A     		ldr	r2, [r3, #40]
 853:Middlewares/Third_Party/SEGGER/RTT/SEGGER_RTT.c ****     while (pRing->RdOff >= pRing->SizeOfBuffer) {
 1214              		.loc 1 853 33 view .LVU391
 1215 0090 186A     		ldr	r0, [r3, #32]
 853:Middlewares/Third_Party/SEGGER/RTT/SEGGER_RTT.c ****     while (pRing->RdOff >= pRing->SizeOfBuffer) {
 1216              		.loc 1 853 25 view .LVU392
 1217 0092 8242     		cmp	r2, r0
 1218 0094 EED2     		bcs	.L63
 1219              	.L61:
 855:Middlewares/Third_Party/SEGGER/RTT/SEGGER_RTT.c ****     }
 856:Middlewares/Third_Party/SEGGER/RTT/SEGGER_RTT.c ****   }
 857:Middlewares/Third_Party/SEGGER/RTT/SEGGER_RTT.c ****   //
 858:Middlewares/Third_Party/SEGGER/RTT/SEGGER_RTT.c ****   // Write all data, no need to check the RdOff, but possibly handle multiple wrap-arounds
 859:Middlewares/Third_Party/SEGGER/RTT/SEGGER_RTT.c ****   //
 860:Middlewares/Third_Party/SEGGER/RTT/SEGGER_RTT.c ****   Avail = pRing->SizeOfBuffer - pRing->WrOff;
 1220              		.loc 1 860 3 is_stmt 1 view .LVU393
 1221              		.loc 1 860 16 is_stmt 0 view .LVU394
 1222 0096 06EB4602 		add	r2, r6, r6, lsl #1
 1223 009a 214B     		ldr	r3, .L70
 1224 009c 03EBC203 		add	r3, r3, r2, lsl #3
 1225 00a0 1C6A     		ldr	r4, [r3, #32]
 1226              		.loc 1 860 9 view .LVU395
 1227 00a2 641A     		subs	r4, r4, r1
 1228              	.LVL133:
 1229              	.L66:
 861:Middlewares/Third_Party/SEGGER/RTT/SEGGER_RTT.c ****   do {
 1230              		.loc 1 861 3 is_stmt 1 view .LVU396
 862:Middlewares/Third_Party/SEGGER/RTT/SEGGER_RTT.c ****     if (Avail > NumBytes) {
 1231              		.loc 1 862 5 view .LVU397
 1232              		.loc 1 862 8 is_stmt 0 view .LVU398
 1233 00a4 A742     		cmp	r7, r4
 1234 00a6 1BD3     		bcc	.L69
 863:Middlewares/Third_Party/SEGGER/RTT/SEGGER_RTT.c ****       //
 864:Middlewares/Third_Party/SEGGER/RTT/SEGGER_RTT.c ****       // Last round
 865:Middlewares/Third_Party/SEGGER/RTT/SEGGER_RTT.c ****       //
 866:Middlewares/Third_Party/SEGGER/RTT/SEGGER_RTT.c ****       pDst = (pRing->pBuffer + pRing->WrOff) + SEGGER_RTT_UNCACHED_OFF;
 867:Middlewares/Third_Party/SEGGER/RTT/SEGGER_RTT.c **** #if SEGGER_RTT_MEMCPY_USE_BYTELOOP
 868:Middlewares/Third_Party/SEGGER/RTT/SEGGER_RTT.c ****       Avail = NumBytes;
 869:Middlewares/Third_Party/SEGGER/RTT/SEGGER_RTT.c ****       while (NumBytes--) {
 870:Middlewares/Third_Party/SEGGER/RTT/SEGGER_RTT.c ****         *pDst++ = *pData++;
 871:Middlewares/Third_Party/SEGGER/RTT/SEGGER_RTT.c ****       };
 872:Middlewares/Third_Party/SEGGER/RTT/SEGGER_RTT.c ****       RTT__DMB();                     // Force data write to be complete before writing the <WrOff>
 873:Middlewares/Third_Party/SEGGER/RTT/SEGGER_RTT.c ****       pRing->WrOff += Avail;
 874:Middlewares/Third_Party/SEGGER/RTT/SEGGER_RTT.c **** #else
 875:Middlewares/Third_Party/SEGGER/RTT/SEGGER_RTT.c ****       SEGGER_RTT_MEMCPY((void*)pDst, pData, NumBytes);
 876:Middlewares/Third_Party/SEGGER/RTT/SEGGER_RTT.c ****       RTT__DMB();                     // Force data write to be complete before writing the <WrOff>
 877:Middlewares/Third_Party/SEGGER/RTT/SEGGER_RTT.c ****       pRing->WrOff += NumBytes;
 878:Middlewares/Third_Party/SEGGER/RTT/SEGGER_RTT.c **** #endif
 879:Middlewares/Third_Party/SEGGER/RTT/SEGGER_RTT.c ****       break;
 880:Middlewares/Third_Party/SEGGER/RTT/SEGGER_RTT.c ****     } else {
 881:Middlewares/Third_Party/SEGGER/RTT/SEGGER_RTT.c ****       //
ARM GAS  C:\Users\Administrator\AppData\Local\Temp\ccUGyMKj.s 			page 42


 882:Middlewares/Third_Party/SEGGER/RTT/SEGGER_RTT.c ****       //  Wrap-around necessary, write until wrap-around and reset WrOff
 883:Middlewares/Third_Party/SEGGER/RTT/SEGGER_RTT.c ****       //
 884:Middlewares/Third_Party/SEGGER/RTT/SEGGER_RTT.c ****       pDst = (pRing->pBuffer + pRing->WrOff) + SEGGER_RTT_UNCACHED_OFF;
 1235              		.loc 1 884 7 is_stmt 1 view .LVU399
 1236              		.loc 1 884 20 is_stmt 0 view .LVU400
 1237 00a8 1D4D     		ldr	r5, .L70
 1238 00aa 731C     		adds	r3, r6, #1
 1239 00ac 03EB4303 		add	r3, r3, r3, lsl #1
 1240 00b0 05EBC303 		add	r3, r5, r3, lsl #3
 1241 00b4 5868     		ldr	r0, [r3, #4]
 1242              		.loc 1 884 37 view .LVU401
 1243 00b6 06EB4603 		add	r3, r6, r6, lsl #1
 1244 00ba 05EBC305 		add	r5, r5, r3, lsl #3
 1245 00be 6B6A     		ldr	r3, [r5, #36]
 1246              	.LVL134:
 885:Middlewares/Third_Party/SEGGER/RTT/SEGGER_RTT.c **** #if SEGGER_RTT_MEMCPY_USE_BYTELOOP
 886:Middlewares/Third_Party/SEGGER/RTT/SEGGER_RTT.c ****       NumBytes -= Avail;
 887:Middlewares/Third_Party/SEGGER/RTT/SEGGER_RTT.c ****       while (Avail--) {
 888:Middlewares/Third_Party/SEGGER/RTT/SEGGER_RTT.c ****         *pDst++ = *pData++;
 889:Middlewares/Third_Party/SEGGER/RTT/SEGGER_RTT.c ****       };
 890:Middlewares/Third_Party/SEGGER/RTT/SEGGER_RTT.c ****       RTT__DMB();                     // Force data write to be complete before writing the <WrOff>
 891:Middlewares/Third_Party/SEGGER/RTT/SEGGER_RTT.c ****       pRing->WrOff = 0;
 892:Middlewares/Third_Party/SEGGER/RTT/SEGGER_RTT.c **** #else
 893:Middlewares/Third_Party/SEGGER/RTT/SEGGER_RTT.c ****       SEGGER_RTT_MEMCPY((void*)pDst, pData, Avail);
 1247              		.loc 1 893 7 is_stmt 1 view .LVU402
 1248 00c0 2246     		mov	r2, r4
 1249 00c2 4146     		mov	r1, r8
 1250 00c4 1844     		add	r0, r0, r3
 1251              	.LVL135:
 1252              		.loc 1 893 7 is_stmt 0 view .LVU403
 1253 00c6 FFF7FEFF 		bl	memcpy
 1254              	.LVL136:
 894:Middlewares/Third_Party/SEGGER/RTT/SEGGER_RTT.c ****       pData += Avail;
 1255              		.loc 1 894 7 is_stmt 1 view .LVU404
 1256              		.loc 1 894 13 is_stmt 0 view .LVU405
 1257 00ca A044     		add	r8, r8, r4
 1258              	.LVL137:
 895:Middlewares/Third_Party/SEGGER/RTT/SEGGER_RTT.c ****       RTT__DMB();                     // Force data write to be complete before writing the <WrOff>
 1259              		.loc 1 895 7 is_stmt 1 view .LVU406
 1260              		.syntax unified
 1261              	@ 895 "Middlewares/Third_Party/SEGGER/RTT/SEGGER_RTT.c" 1
 1262 00cc BFF35F8F 		dmb
 1263              	
 1264              	@ 0 "" 2
 1265              		.loc 1 895 17 view .LVU407
 896:Middlewares/Third_Party/SEGGER/RTT/SEGGER_RTT.c ****       pRing->WrOff = 0;
 1266              		.loc 1 896 7 view .LVU408
 1267              		.loc 1 896 20 is_stmt 0 view .LVU409
 1268              		.thumb
 1269              		.syntax unified
 1270 00d0 0023     		movs	r3, #0
 1271 00d2 6B62     		str	r3, [r5, #36]
 897:Middlewares/Third_Party/SEGGER/RTT/SEGGER_RTT.c ****       NumBytes -= Avail;
 1272              		.loc 1 897 7 is_stmt 1 view .LVU410
 1273              		.loc 1 897 16 is_stmt 0 view .LVU411
 1274 00d4 3F1B     		subs	r7, r7, r4
 1275              	.LVL138:
ARM GAS  C:\Users\Administrator\AppData\Local\Temp\ccUGyMKj.s 			page 43


 898:Middlewares/Third_Party/SEGGER/RTT/SEGGER_RTT.c **** #endif
 899:Middlewares/Third_Party/SEGGER/RTT/SEGGER_RTT.c ****       Avail = (pRing->SizeOfBuffer - 1);
 1276              		.loc 1 899 7 is_stmt 1 view .LVU412
 1277              		.loc 1 899 21 is_stmt 0 view .LVU413
 1278 00d6 2C6A     		ldr	r4, [r5, #32]
 1279              	.LVL139:
 1280              		.loc 1 899 13 view .LVU414
 1281 00d8 013C     		subs	r4, r4, #1
 1282              	.LVL140:
 900:Middlewares/Third_Party/SEGGER/RTT/SEGGER_RTT.c ****     }
 901:Middlewares/Third_Party/SEGGER/RTT/SEGGER_RTT.c ****   } while (NumBytes);
 1283              		.loc 1 901 12 is_stmt 1 view .LVU415
 1284 00da 002F     		cmp	r7, #0
 1285 00dc E2D1     		bne	.L66
 1286 00de 1BE0     		b	.L57
 1287              	.LVL141:
 1288              	.L69:
 866:Middlewares/Third_Party/SEGGER/RTT/SEGGER_RTT.c **** #if SEGGER_RTT_MEMCPY_USE_BYTELOOP
 1289              		.loc 1 866 7 view .LVU416
 866:Middlewares/Third_Party/SEGGER/RTT/SEGGER_RTT.c **** #if SEGGER_RTT_MEMCPY_USE_BYTELOOP
 1290              		.loc 1 866 20 is_stmt 0 view .LVU417
 1291 00e0 0F4C     		ldr	r4, .L70
 1292              	.LVL142:
 866:Middlewares/Third_Party/SEGGER/RTT/SEGGER_RTT.c **** #if SEGGER_RTT_MEMCPY_USE_BYTELOOP
 1293              		.loc 1 866 20 view .LVU418
 1294 00e2 731C     		adds	r3, r6, #1
 1295 00e4 03EB4303 		add	r3, r3, r3, lsl #1
 1296 00e8 04EBC303 		add	r3, r4, r3, lsl #3
 1297 00ec 5868     		ldr	r0, [r3, #4]
 866:Middlewares/Third_Party/SEGGER/RTT/SEGGER_RTT.c **** #if SEGGER_RTT_MEMCPY_USE_BYTELOOP
 1298              		.loc 1 866 37 view .LVU419
 1299 00ee 7300     		lsls	r3, r6, #1
 1300 00f0 0193     		str	r3, [sp, #4]
 1301 00f2 06EB4605 		add	r5, r6, r6, lsl #1
 1302 00f6 04EBC505 		add	r5, r4, r5, lsl #3
 1303 00fa 6B6A     		ldr	r3, [r5, #36]
 1304              	.LVL143:
 875:Middlewares/Third_Party/SEGGER/RTT/SEGGER_RTT.c ****       RTT__DMB();                     // Force data write to be complete before writing the <WrOff>
 1305              		.loc 1 875 7 is_stmt 1 view .LVU420
 1306 00fc 3A46     		mov	r2, r7
 1307 00fe 4146     		mov	r1, r8
 1308 0100 1844     		add	r0, r0, r3
 1309              	.LVL144:
 875:Middlewares/Third_Party/SEGGER/RTT/SEGGER_RTT.c ****       RTT__DMB();                     // Force data write to be complete before writing the <WrOff>
 1310              		.loc 1 875 7 is_stmt 0 view .LVU421
 1311 0102 FFF7FEFF 		bl	memcpy
 1312              	.LVL145:
 876:Middlewares/Third_Party/SEGGER/RTT/SEGGER_RTT.c ****       pRing->WrOff += NumBytes;
 1313              		.loc 1 876 7 is_stmt 1 view .LVU422
 1314              		.syntax unified
 1315              	@ 876 "Middlewares/Third_Party/SEGGER/RTT/SEGGER_RTT.c" 1
 1316 0106 BFF35F8F 		dmb
 1317              	
 1318              	@ 0 "" 2
 876:Middlewares/Third_Party/SEGGER/RTT/SEGGER_RTT.c ****       pRing->WrOff += NumBytes;
 1319              		.loc 1 876 17 view .LVU423
 877:Middlewares/Third_Party/SEGGER/RTT/SEGGER_RTT.c **** #endif
ARM GAS  C:\Users\Administrator\AppData\Local\Temp\ccUGyMKj.s 			page 44


 1320              		.loc 1 877 7 view .LVU424
 877:Middlewares/Third_Party/SEGGER/RTT/SEGGER_RTT.c **** #endif
 1321              		.loc 1 877 12 is_stmt 0 view .LVU425
 1322              		.thumb
 1323              		.syntax unified
 1324 010a 6B6A     		ldr	r3, [r5, #36]
 877:Middlewares/Third_Party/SEGGER/RTT/SEGGER_RTT.c **** #endif
 1325              		.loc 1 877 20 view .LVU426
 1326 010c 019A     		ldr	r2, [sp, #4]
 1327 010e 3244     		add	r2, r2, r6
 1328 0110 04EBC204 		add	r4, r4, r2, lsl #3
 1329 0114 3B44     		add	r3, r3, r7
 1330 0116 6362     		str	r3, [r4, #36]
 879:Middlewares/Third_Party/SEGGER/RTT/SEGGER_RTT.c ****     } else {
 1331              		.loc 1 879 7 is_stmt 1 view .LVU427
 1332              	.LVL146:
 1333              	.L57:
 902:Middlewares/Third_Party/SEGGER/RTT/SEGGER_RTT.c **** }
 1334              		.loc 1 902 1 is_stmt 0 view .LVU428
 1335 0118 02B0     		add	sp, sp, #8
 1336              		.cfi_def_cfa_offset 24
 1337              		@ sp needed
 1338 011a BDE8F081 		pop	{r4, r5, r6, r7, r8, pc}
 1339              	.LVL147:
 1340              	.L71:
 1341              		.loc 1 902 1 view .LVU429
 1342 011e 00BF     		.align	2
 1343              	.L70:
 1344 0120 00000000 		.word	_SEGGER_RTT
 1345              		.cfi_endproc
 1346              	.LFE9:
 1348              		.section	.text.SEGGER_RTT_WriteDownBufferNoLock,"ax",%progbits
 1349              		.align	1
 1350              		.global	SEGGER_RTT_WriteDownBufferNoLock
 1351              		.syntax unified
 1352              		.thumb
 1353              		.thumb_func
 1355              	SEGGER_RTT_WriteDownBufferNoLock:
 1356              	.LVL148:
 1357              	.LFB10:
 903:Middlewares/Third_Party/SEGGER/RTT/SEGGER_RTT.c **** 
 904:Middlewares/Third_Party/SEGGER/RTT/SEGGER_RTT.c **** /*********************************************************************
 905:Middlewares/Third_Party/SEGGER/RTT/SEGGER_RTT.c **** *
 906:Middlewares/Third_Party/SEGGER/RTT/SEGGER_RTT.c **** *       SEGGER_RTT_WriteSkipNoLock
 907:Middlewares/Third_Party/SEGGER/RTT/SEGGER_RTT.c **** *
 908:Middlewares/Third_Party/SEGGER/RTT/SEGGER_RTT.c **** *  Function description
 909:Middlewares/Third_Party/SEGGER/RTT/SEGGER_RTT.c **** *    Stores a specified number of characters in SEGGER RTT
 910:Middlewares/Third_Party/SEGGER/RTT/SEGGER_RTT.c **** *    control block which is then read by the host.
 911:Middlewares/Third_Party/SEGGER/RTT/SEGGER_RTT.c **** *    SEGGER_RTT_WriteSkipNoLock does not lock the application and
 912:Middlewares/Third_Party/SEGGER/RTT/SEGGER_RTT.c **** *    skips all data, if the data does not fit into the buffer.
 913:Middlewares/Third_Party/SEGGER/RTT/SEGGER_RTT.c **** *
 914:Middlewares/Third_Party/SEGGER/RTT/SEGGER_RTT.c **** *  Parameters
 915:Middlewares/Third_Party/SEGGER/RTT/SEGGER_RTT.c **** *    BufferIndex  Index of "Up"-buffer to be used (e.g. 0 for "Terminal").
 916:Middlewares/Third_Party/SEGGER/RTT/SEGGER_RTT.c **** *    pBuffer      Pointer to character array. Does not need to point to a \0 terminated string.
 917:Middlewares/Third_Party/SEGGER/RTT/SEGGER_RTT.c **** *    NumBytes     Number of bytes to be stored in the SEGGER RTT control block.
 918:Middlewares/Third_Party/SEGGER/RTT/SEGGER_RTT.c **** *                 MUST be > 0!!!
 919:Middlewares/Third_Party/SEGGER/RTT/SEGGER_RTT.c **** *                 This is done for performance reasons, so no initial check has do be done.
ARM GAS  C:\Users\Administrator\AppData\Local\Temp\ccUGyMKj.s 			page 45


 920:Middlewares/Third_Party/SEGGER/RTT/SEGGER_RTT.c **** *
 921:Middlewares/Third_Party/SEGGER/RTT/SEGGER_RTT.c **** *  Return value
 922:Middlewares/Third_Party/SEGGER/RTT/SEGGER_RTT.c **** *    1: Data has been copied
 923:Middlewares/Third_Party/SEGGER/RTT/SEGGER_RTT.c **** *    0: No space, data has not been copied
 924:Middlewares/Third_Party/SEGGER/RTT/SEGGER_RTT.c **** *
 925:Middlewares/Third_Party/SEGGER/RTT/SEGGER_RTT.c **** *  Notes
 926:Middlewares/Third_Party/SEGGER/RTT/SEGGER_RTT.c **** *    (1) If there is not enough space in the "Up"-buffer, all data is dropped.
 927:Middlewares/Third_Party/SEGGER/RTT/SEGGER_RTT.c **** *    (2) For performance reasons this function does not call Init()
 928:Middlewares/Third_Party/SEGGER/RTT/SEGGER_RTT.c **** *        and may only be called after RTT has been initialized.
 929:Middlewares/Third_Party/SEGGER/RTT/SEGGER_RTT.c **** *        Either by calling SEGGER_RTT_Init() or calling another RTT API function first.
 930:Middlewares/Third_Party/SEGGER/RTT/SEGGER_RTT.c **** */
 931:Middlewares/Third_Party/SEGGER/RTT/SEGGER_RTT.c **** #if (RTT_USE_ASM == 0)
 932:Middlewares/Third_Party/SEGGER/RTT/SEGGER_RTT.c **** unsigned SEGGER_RTT_WriteSkipNoLock(unsigned BufferIndex, const void* pBuffer, unsigned NumBytes) {
 933:Middlewares/Third_Party/SEGGER/RTT/SEGGER_RTT.c ****   const char*           pData;
 934:Middlewares/Third_Party/SEGGER/RTT/SEGGER_RTT.c ****   SEGGER_RTT_BUFFER_UP* pRing;
 935:Middlewares/Third_Party/SEGGER/RTT/SEGGER_RTT.c ****   unsigned              Avail;
 936:Middlewares/Third_Party/SEGGER/RTT/SEGGER_RTT.c ****   unsigned              RdOff;
 937:Middlewares/Third_Party/SEGGER/RTT/SEGGER_RTT.c ****   unsigned              WrOff;
 938:Middlewares/Third_Party/SEGGER/RTT/SEGGER_RTT.c ****   unsigned              Rem;
 939:Middlewares/Third_Party/SEGGER/RTT/SEGGER_RTT.c ****   volatile char*        pDst;
 940:Middlewares/Third_Party/SEGGER/RTT/SEGGER_RTT.c ****   //
 941:Middlewares/Third_Party/SEGGER/RTT/SEGGER_RTT.c ****   // Cases:
 942:Middlewares/Third_Party/SEGGER/RTT/SEGGER_RTT.c ****   //   1) RdOff <= WrOff => Space until wrap-around is sufficient
 943:Middlewares/Third_Party/SEGGER/RTT/SEGGER_RTT.c ****   //   2) RdOff <= WrOff => Space after wrap-around needed (copy in 2 chunks)
 944:Middlewares/Third_Party/SEGGER/RTT/SEGGER_RTT.c ****   //   3) RdOff <  WrOff => No space in buf
 945:Middlewares/Third_Party/SEGGER/RTT/SEGGER_RTT.c ****   //   4) RdOff >  WrOff => Space is sufficient
 946:Middlewares/Third_Party/SEGGER/RTT/SEGGER_RTT.c ****   //   5) RdOff >  WrOff => No space in buf
 947:Middlewares/Third_Party/SEGGER/RTT/SEGGER_RTT.c ****   //
 948:Middlewares/Third_Party/SEGGER/RTT/SEGGER_RTT.c ****   // 1) is the most common case for large buffers and assuming that J-Link reads the data fast enou
 949:Middlewares/Third_Party/SEGGER/RTT/SEGGER_RTT.c ****   //
 950:Middlewares/Third_Party/SEGGER/RTT/SEGGER_RTT.c ****   pData = (const char *)pBuffer;
 951:Middlewares/Third_Party/SEGGER/RTT/SEGGER_RTT.c ****   pRing = (SEGGER_RTT_BUFFER_UP*)((char*)&_SEGGER_RTT.aUp[BufferIndex] + SEGGER_RTT_UNCACHED_OFF); 
 952:Middlewares/Third_Party/SEGGER/RTT/SEGGER_RTT.c ****   RdOff = pRing->RdOff;
 953:Middlewares/Third_Party/SEGGER/RTT/SEGGER_RTT.c ****   WrOff = pRing->WrOff;
 954:Middlewares/Third_Party/SEGGER/RTT/SEGGER_RTT.c ****   if (RdOff <= WrOff) {                                 // Case 1), 2) or 3)
 955:Middlewares/Third_Party/SEGGER/RTT/SEGGER_RTT.c ****     Avail = pRing->SizeOfBuffer - WrOff - 1u;           // Space until wrap-around (assume 1 byte n
 956:Middlewares/Third_Party/SEGGER/RTT/SEGGER_RTT.c ****     if (Avail >= NumBytes) {                            // Case 1)?
 957:Middlewares/Third_Party/SEGGER/RTT/SEGGER_RTT.c **** CopyStraight:
 958:Middlewares/Third_Party/SEGGER/RTT/SEGGER_RTT.c ****       pDst = (pRing->pBuffer + WrOff) + SEGGER_RTT_UNCACHED_OFF;
 959:Middlewares/Third_Party/SEGGER/RTT/SEGGER_RTT.c ****       memcpy((void*)pDst, pData, NumBytes);
 960:Middlewares/Third_Party/SEGGER/RTT/SEGGER_RTT.c ****       RTT__DMB();                     // Force data write to be complete before writing the <WrOff>
 961:Middlewares/Third_Party/SEGGER/RTT/SEGGER_RTT.c ****       pRing->WrOff = WrOff + NumBytes;
 962:Middlewares/Third_Party/SEGGER/RTT/SEGGER_RTT.c ****       return 1;
 963:Middlewares/Third_Party/SEGGER/RTT/SEGGER_RTT.c ****     }
 964:Middlewares/Third_Party/SEGGER/RTT/SEGGER_RTT.c ****     Avail += RdOff;                                     // Space incl. wrap-around
 965:Middlewares/Third_Party/SEGGER/RTT/SEGGER_RTT.c ****     if (Avail >= NumBytes) {                            // Case 2? => If not, we have case 3) (does
 966:Middlewares/Third_Party/SEGGER/RTT/SEGGER_RTT.c ****       Rem = pRing->SizeOfBuffer - WrOff;                // Space until end of buffer
 967:Middlewares/Third_Party/SEGGER/RTT/SEGGER_RTT.c ****       pDst = (pRing->pBuffer + WrOff) + SEGGER_RTT_UNCACHED_OFF;
 968:Middlewares/Third_Party/SEGGER/RTT/SEGGER_RTT.c ****       memcpy((void*)pDst, pData, Rem);                  // Copy 1st chunk
 969:Middlewares/Third_Party/SEGGER/RTT/SEGGER_RTT.c ****       NumBytes -= Rem;
 970:Middlewares/Third_Party/SEGGER/RTT/SEGGER_RTT.c ****       //
 971:Middlewares/Third_Party/SEGGER/RTT/SEGGER_RTT.c ****       // Special case: First check that assumed RdOff == 0 calculated that last element before wrap
 972:Middlewares/Third_Party/SEGGER/RTT/SEGGER_RTT.c ****       // But 2nd check (considering space until wrap-around and until RdOff) revealed that RdOff is
 973:Middlewares/Third_Party/SEGGER/RTT/SEGGER_RTT.c ****       // In this case, we may use a copy straight until buffer end anyway without needing to copy 2
 974:Middlewares/Third_Party/SEGGER/RTT/SEGGER_RTT.c ****       // Therefore, check if 2nd memcpy is necessary at all
 975:Middlewares/Third_Party/SEGGER/RTT/SEGGER_RTT.c ****       //
 976:Middlewares/Third_Party/SEGGER/RTT/SEGGER_RTT.c ****       if (NumBytes) {
ARM GAS  C:\Users\Administrator\AppData\Local\Temp\ccUGyMKj.s 			page 46


 977:Middlewares/Third_Party/SEGGER/RTT/SEGGER_RTT.c ****         pDst = pRing->pBuffer + SEGGER_RTT_UNCACHED_OFF;
 978:Middlewares/Third_Party/SEGGER/RTT/SEGGER_RTT.c ****         memcpy((void*)pDst, pData + Rem, NumBytes);
 979:Middlewares/Third_Party/SEGGER/RTT/SEGGER_RTT.c ****       }
 980:Middlewares/Third_Party/SEGGER/RTT/SEGGER_RTT.c ****       RTT__DMB();                     // Force data write to be complete before writing the <WrOff>
 981:Middlewares/Third_Party/SEGGER/RTT/SEGGER_RTT.c ****       pRing->WrOff = NumBytes;
 982:Middlewares/Third_Party/SEGGER/RTT/SEGGER_RTT.c ****       return 1;
 983:Middlewares/Third_Party/SEGGER/RTT/SEGGER_RTT.c ****     }
 984:Middlewares/Third_Party/SEGGER/RTT/SEGGER_RTT.c ****   } else {                                             // Potential case 4)
 985:Middlewares/Third_Party/SEGGER/RTT/SEGGER_RTT.c ****     Avail = RdOff - WrOff - 1u;
 986:Middlewares/Third_Party/SEGGER/RTT/SEGGER_RTT.c ****     if (Avail >= NumBytes) {                           // Case 4)? => If not, we have case 5) (does
 987:Middlewares/Third_Party/SEGGER/RTT/SEGGER_RTT.c ****       goto CopyStraight;
 988:Middlewares/Third_Party/SEGGER/RTT/SEGGER_RTT.c ****     }
 989:Middlewares/Third_Party/SEGGER/RTT/SEGGER_RTT.c ****   }
 990:Middlewares/Third_Party/SEGGER/RTT/SEGGER_RTT.c ****   return 0;     // No space in buffer
 991:Middlewares/Third_Party/SEGGER/RTT/SEGGER_RTT.c **** }
 992:Middlewares/Third_Party/SEGGER/RTT/SEGGER_RTT.c **** #endif
 993:Middlewares/Third_Party/SEGGER/RTT/SEGGER_RTT.c **** 
 994:Middlewares/Third_Party/SEGGER/RTT/SEGGER_RTT.c **** /*********************************************************************
 995:Middlewares/Third_Party/SEGGER/RTT/SEGGER_RTT.c **** *
 996:Middlewares/Third_Party/SEGGER/RTT/SEGGER_RTT.c **** *       SEGGER_RTT_WriteDownBufferNoLock
 997:Middlewares/Third_Party/SEGGER/RTT/SEGGER_RTT.c **** *
 998:Middlewares/Third_Party/SEGGER/RTT/SEGGER_RTT.c **** *  Function description
 999:Middlewares/Third_Party/SEGGER/RTT/SEGGER_RTT.c **** *    Stores a specified number of characters in SEGGER RTT
1000:Middlewares/Third_Party/SEGGER/RTT/SEGGER_RTT.c **** *    control block inside a <Down> buffer.
1001:Middlewares/Third_Party/SEGGER/RTT/SEGGER_RTT.c **** *    SEGGER_RTT_WriteDownBufferNoLock does not lock the application.
1002:Middlewares/Third_Party/SEGGER/RTT/SEGGER_RTT.c **** *    Used to do the same operation that J-Link does, to transfer 
1003:Middlewares/Third_Party/SEGGER/RTT/SEGGER_RTT.c **** *    RTT data from other channels, such as TCP/IP or UART.
1004:Middlewares/Third_Party/SEGGER/RTT/SEGGER_RTT.c **** *
1005:Middlewares/Third_Party/SEGGER/RTT/SEGGER_RTT.c **** *  Parameters
1006:Middlewares/Third_Party/SEGGER/RTT/SEGGER_RTT.c **** *    BufferIndex  Index of "Down"-buffer to be used.
1007:Middlewares/Third_Party/SEGGER/RTT/SEGGER_RTT.c **** *    pBuffer      Pointer to character array. Does not need to point to a \0 terminated string.
1008:Middlewares/Third_Party/SEGGER/RTT/SEGGER_RTT.c **** *    NumBytes     Number of bytes to be stored in the SEGGER RTT control block.
1009:Middlewares/Third_Party/SEGGER/RTT/SEGGER_RTT.c **** *
1010:Middlewares/Third_Party/SEGGER/RTT/SEGGER_RTT.c **** *  Return value
1011:Middlewares/Third_Party/SEGGER/RTT/SEGGER_RTT.c **** *    Number of bytes which have been stored in the "Down"-buffer.
1012:Middlewares/Third_Party/SEGGER/RTT/SEGGER_RTT.c **** *
1013:Middlewares/Third_Party/SEGGER/RTT/SEGGER_RTT.c **** *  Notes
1014:Middlewares/Third_Party/SEGGER/RTT/SEGGER_RTT.c **** *    (1) Data is stored according to buffer flags.
1015:Middlewares/Third_Party/SEGGER/RTT/SEGGER_RTT.c **** *    (2) For performance reasons this function does not call Init()
1016:Middlewares/Third_Party/SEGGER/RTT/SEGGER_RTT.c **** *        and may only be called after RTT has been initialized.
1017:Middlewares/Third_Party/SEGGER/RTT/SEGGER_RTT.c **** *        Either by calling SEGGER_RTT_Init() or calling another RTT API function first.
1018:Middlewares/Third_Party/SEGGER/RTT/SEGGER_RTT.c **** *
1019:Middlewares/Third_Party/SEGGER/RTT/SEGGER_RTT.c **** *  Additional information
1020:Middlewares/Third_Party/SEGGER/RTT/SEGGER_RTT.c **** *    This function must not be called when J-Link might also do RTT.
1021:Middlewares/Third_Party/SEGGER/RTT/SEGGER_RTT.c **** */
1022:Middlewares/Third_Party/SEGGER/RTT/SEGGER_RTT.c **** unsigned SEGGER_RTT_WriteDownBufferNoLock(unsigned BufferIndex, const void* pBuffer, unsigned NumBy
 1358              		.loc 1 1022 105 is_stmt 1 view -0
 1359              		.cfi_startproc
 1360              		@ args = 0, pretend = 0, frame = 0
 1361              		@ frame_needed = 0, uses_anonymous_args = 0
 1362              		.loc 1 1022 105 is_stmt 0 view .LVU431
 1363 0000 F8B5     		push	{r3, r4, r5, r6, r7, lr}
 1364              		.cfi_def_cfa_offset 24
 1365              		.cfi_offset 3, -24
 1366              		.cfi_offset 4, -20
 1367              		.cfi_offset 5, -16
 1368              		.cfi_offset 6, -12
ARM GAS  C:\Users\Administrator\AppData\Local\Temp\ccUGyMKj.s 			page 47


 1369              		.cfi_offset 7, -8
 1370              		.cfi_offset 14, -4
 1371 0002 0F46     		mov	r7, r1
 1372 0004 1646     		mov	r6, r2
1023:Middlewares/Third_Party/SEGGER/RTT/SEGGER_RTT.c ****   unsigned                Status;
 1373              		.loc 1 1023 3 is_stmt 1 view .LVU432
1024:Middlewares/Third_Party/SEGGER/RTT/SEGGER_RTT.c ****   unsigned                Avail;
 1374              		.loc 1 1024 3 view .LVU433
1025:Middlewares/Third_Party/SEGGER/RTT/SEGGER_RTT.c ****   const char*             pData;
 1375              		.loc 1 1025 3 view .LVU434
1026:Middlewares/Third_Party/SEGGER/RTT/SEGGER_RTT.c ****   SEGGER_RTT_BUFFER_UP*   pRing;
 1376              		.loc 1 1026 3 view .LVU435
1027:Middlewares/Third_Party/SEGGER/RTT/SEGGER_RTT.c ****   //
1028:Middlewares/Third_Party/SEGGER/RTT/SEGGER_RTT.c ****   // Get "to-target" ring buffer.
1029:Middlewares/Third_Party/SEGGER/RTT/SEGGER_RTT.c ****   // It is save to cast that to a "to-host" buffer. Up and Down buffer differ in volatility of offs
1030:Middlewares/Third_Party/SEGGER/RTT/SEGGER_RTT.c ****   //
1031:Middlewares/Third_Party/SEGGER/RTT/SEGGER_RTT.c ****   pData = (const char *)pBuffer;
 1377              		.loc 1 1031 3 view .LVU436
 1378              	.LVL149:
1032:Middlewares/Third_Party/SEGGER/RTT/SEGGER_RTT.c ****   pRing = (SEGGER_RTT_BUFFER_UP*)((char*)&_SEGGER_RTT.aDown[BufferIndex] + SEGGER_RTT_UNCACHED_OFF)
 1379              		.loc 1 1032 3 view .LVU437
 1380              		.loc 1 1032 9 is_stmt 0 view .LVU438
 1381 0006 00EB4000 		add	r0, r0, r0, lsl #1
 1382              	.LVL150:
 1383              		.loc 1 1032 9 view .LVU439
 1384 000a C400     		lsls	r4, r0, #3
 1385 000c 6034     		adds	r4, r4, #96
 1386 000e 144B     		ldr	r3, .L78
 1387 0010 1C44     		add	r4, r4, r3
 1388              	.LVL151:
1033:Middlewares/Third_Party/SEGGER/RTT/SEGGER_RTT.c ****   //
1034:Middlewares/Third_Party/SEGGER/RTT/SEGGER_RTT.c ****   // How we output depends upon the mode...
1035:Middlewares/Third_Party/SEGGER/RTT/SEGGER_RTT.c ****   //
1036:Middlewares/Third_Party/SEGGER/RTT/SEGGER_RTT.c ****   switch (pRing->Flags) {
 1389              		.loc 1 1036 3 is_stmt 1 view .LVU440
 1390              		.loc 1 1036 16 is_stmt 0 view .LVU441
 1391 0012 6569     		ldr	r5, [r4, #20]
 1392              		.loc 1 1036 3 view .LVU442
 1393 0014 012D     		cmp	r5, #1
 1394 0016 0ED0     		beq	.L73
 1395 0018 022D     		cmp	r5, #2
 1396 001a 1AD0     		beq	.L74
 1397 001c F5B9     		cbnz	r5, .L76
1037:Middlewares/Third_Party/SEGGER/RTT/SEGGER_RTT.c ****   case SEGGER_RTT_MODE_NO_BLOCK_SKIP:
1038:Middlewares/Third_Party/SEGGER/RTT/SEGGER_RTT.c ****     //
1039:Middlewares/Third_Party/SEGGER/RTT/SEGGER_RTT.c ****     // If we are in skip mode and there is no space for the whole
1040:Middlewares/Third_Party/SEGGER/RTT/SEGGER_RTT.c ****     // of this output, don't bother.
1041:Middlewares/Third_Party/SEGGER/RTT/SEGGER_RTT.c ****     //
1042:Middlewares/Third_Party/SEGGER/RTT/SEGGER_RTT.c ****     Avail = _GetAvailWriteSpace(pRing);
 1398              		.loc 1 1042 5 is_stmt 1 view .LVU443
 1399              		.loc 1 1042 13 is_stmt 0 view .LVU444
 1400 001e 2046     		mov	r0, r4
 1401 0020 FFF7FEFF 		bl	_GetAvailWriteSpace
 1402              	.LVL152:
1043:Middlewares/Third_Party/SEGGER/RTT/SEGGER_RTT.c ****     if (Avail < NumBytes) {
 1403              		.loc 1 1043 5 is_stmt 1 view .LVU445
 1404              		.loc 1 1043 8 is_stmt 0 view .LVU446
ARM GAS  C:\Users\Administrator\AppData\Local\Temp\ccUGyMKj.s 			page 48


 1405 0024 8642     		cmp	r6, r0
 1406 0026 12D8     		bhi	.L72
1044:Middlewares/Third_Party/SEGGER/RTT/SEGGER_RTT.c ****       Status = 0u;
1045:Middlewares/Third_Party/SEGGER/RTT/SEGGER_RTT.c ****     } else {
1046:Middlewares/Third_Party/SEGGER/RTT/SEGGER_RTT.c ****       Status = NumBytes;
 1407              		.loc 1 1046 7 is_stmt 1 view .LVU447
 1408              	.LVL153:
1047:Middlewares/Third_Party/SEGGER/RTT/SEGGER_RTT.c ****       _WriteNoCheck(pRing, pData, NumBytes);
 1409              		.loc 1 1047 7 view .LVU448
 1410 0028 3546     		mov	r5, r6
 1411 002a 3246     		mov	r2, r6
 1412 002c 3946     		mov	r1, r7
 1413 002e 2046     		mov	r0, r4
 1414              	.LVL154:
 1415              		.loc 1 1047 7 is_stmt 0 view .LVU449
 1416 0030 FFF7FEFF 		bl	_WriteNoCheck
 1417              	.LVL155:
 1418 0034 0BE0     		b	.L72
 1419              	.LVL156:
 1420              	.L73:
1048:Middlewares/Third_Party/SEGGER/RTT/SEGGER_RTT.c ****     }
1049:Middlewares/Third_Party/SEGGER/RTT/SEGGER_RTT.c ****     break;
1050:Middlewares/Third_Party/SEGGER/RTT/SEGGER_RTT.c ****   case SEGGER_RTT_MODE_NO_BLOCK_TRIM:
1051:Middlewares/Third_Party/SEGGER/RTT/SEGGER_RTT.c ****     //
1052:Middlewares/Third_Party/SEGGER/RTT/SEGGER_RTT.c ****     // If we are in trim mode, trim to what we can output without blocking.
1053:Middlewares/Third_Party/SEGGER/RTT/SEGGER_RTT.c ****     //
1054:Middlewares/Third_Party/SEGGER/RTT/SEGGER_RTT.c ****     Avail = _GetAvailWriteSpace(pRing);
 1421              		.loc 1 1054 5 is_stmt 1 view .LVU450
 1422              		.loc 1 1054 13 is_stmt 0 view .LVU451
 1423 0036 2046     		mov	r0, r4
 1424 0038 FFF7FEFF 		bl	_GetAvailWriteSpace
 1425              	.LVL157:
1055:Middlewares/Third_Party/SEGGER/RTT/SEGGER_RTT.c ****     Status = Avail < NumBytes ? Avail : NumBytes;
 1426              		.loc 1 1055 5 is_stmt 1 view .LVU452
 1427              		.loc 1 1055 12 is_stmt 0 view .LVU453
 1428 003c 3546     		mov	r5, r6
 1429 003e 8642     		cmp	r6, r0
 1430 0040 28BF     		it	cs
 1431 0042 0546     		movcs	r5, r0
 1432              	.LVL158:
1056:Middlewares/Third_Party/SEGGER/RTT/SEGGER_RTT.c ****     _WriteNoCheck(pRing, pData, Status);
 1433              		.loc 1 1056 5 is_stmt 1 view .LVU454
 1434 0044 2A46     		mov	r2, r5
 1435 0046 3946     		mov	r1, r7
 1436 0048 2046     		mov	r0, r4
 1437              	.LVL159:
 1438              		.loc 1 1056 5 is_stmt 0 view .LVU455
 1439 004a FFF7FEFF 		bl	_WriteNoCheck
 1440              	.LVL160:
1057:Middlewares/Third_Party/SEGGER/RTT/SEGGER_RTT.c ****     break;
 1441              		.loc 1 1057 5 is_stmt 1 view .LVU456
 1442              	.L72:
1058:Middlewares/Third_Party/SEGGER/RTT/SEGGER_RTT.c ****   case SEGGER_RTT_MODE_BLOCK_IF_FIFO_FULL:
1059:Middlewares/Third_Party/SEGGER/RTT/SEGGER_RTT.c ****     //
1060:Middlewares/Third_Party/SEGGER/RTT/SEGGER_RTT.c ****     // If we are in blocking mode, output everything.
1061:Middlewares/Third_Party/SEGGER/RTT/SEGGER_RTT.c ****     //
1062:Middlewares/Third_Party/SEGGER/RTT/SEGGER_RTT.c ****     Status = _WriteBlocking(pRing, pData, NumBytes);
ARM GAS  C:\Users\Administrator\AppData\Local\Temp\ccUGyMKj.s 			page 49


1063:Middlewares/Third_Party/SEGGER/RTT/SEGGER_RTT.c ****     break;
1064:Middlewares/Third_Party/SEGGER/RTT/SEGGER_RTT.c ****   default:
1065:Middlewares/Third_Party/SEGGER/RTT/SEGGER_RTT.c ****     Status = 0u;
1066:Middlewares/Third_Party/SEGGER/RTT/SEGGER_RTT.c ****     break;
1067:Middlewares/Third_Party/SEGGER/RTT/SEGGER_RTT.c ****   }
1068:Middlewares/Third_Party/SEGGER/RTT/SEGGER_RTT.c ****   //
1069:Middlewares/Third_Party/SEGGER/RTT/SEGGER_RTT.c ****   // Finish up.
1070:Middlewares/Third_Party/SEGGER/RTT/SEGGER_RTT.c ****   //
1071:Middlewares/Third_Party/SEGGER/RTT/SEGGER_RTT.c ****   return Status;
1072:Middlewares/Third_Party/SEGGER/RTT/SEGGER_RTT.c **** }
 1443              		.loc 1 1072 1 is_stmt 0 view .LVU457
 1444 004e 2846     		mov	r0, r5
 1445 0050 F8BD     		pop	{r3, r4, r5, r6, r7, pc}
 1446              	.LVL161:
 1447              	.L74:
1062:Middlewares/Third_Party/SEGGER/RTT/SEGGER_RTT.c ****     break;
 1448              		.loc 1 1062 5 is_stmt 1 view .LVU458
1062:Middlewares/Third_Party/SEGGER/RTT/SEGGER_RTT.c ****     break;
 1449              		.loc 1 1062 14 is_stmt 0 view .LVU459
 1450 0052 2046     		mov	r0, r4
 1451 0054 FFF7FEFF 		bl	_WriteBlocking
 1452              	.LVL162:
1062:Middlewares/Third_Party/SEGGER/RTT/SEGGER_RTT.c ****     break;
 1453              		.loc 1 1062 14 view .LVU460
 1454 0058 0546     		mov	r5, r0
 1455              	.LVL163:
1063:Middlewares/Third_Party/SEGGER/RTT/SEGGER_RTT.c ****   default:
 1456              		.loc 1 1063 5 is_stmt 1 view .LVU461
 1457 005a F8E7     		b	.L72
 1458              	.LVL164:
 1459              	.L76:
1036:Middlewares/Third_Party/SEGGER/RTT/SEGGER_RTT.c ****   case SEGGER_RTT_MODE_NO_BLOCK_SKIP:
 1460              		.loc 1 1036 3 is_stmt 0 view .LVU462
 1461 005c 0025     		movs	r5, #0
 1462              	.LVL165:
1071:Middlewares/Third_Party/SEGGER/RTT/SEGGER_RTT.c **** }
 1463              		.loc 1 1071 3 is_stmt 1 view .LVU463
1071:Middlewares/Third_Party/SEGGER/RTT/SEGGER_RTT.c **** }
 1464              		.loc 1 1071 10 is_stmt 0 view .LVU464
 1465 005e F6E7     		b	.L72
 1466              	.L79:
 1467              		.align	2
 1468              	.L78:
 1469 0060 00000000 		.word	_SEGGER_RTT
 1470              		.cfi_endproc
 1471              	.LFE10:
 1473              		.section	.text.SEGGER_RTT_WriteNoLock,"ax",%progbits
 1474              		.align	1
 1475              		.global	SEGGER_RTT_WriteNoLock
 1476              		.syntax unified
 1477              		.thumb
 1478              		.thumb_func
 1480              	SEGGER_RTT_WriteNoLock:
 1481              	.LVL166:
 1482              	.LFB11:
1073:Middlewares/Third_Party/SEGGER/RTT/SEGGER_RTT.c **** 
1074:Middlewares/Third_Party/SEGGER/RTT/SEGGER_RTT.c **** /*********************************************************************
ARM GAS  C:\Users\Administrator\AppData\Local\Temp\ccUGyMKj.s 			page 50


1075:Middlewares/Third_Party/SEGGER/RTT/SEGGER_RTT.c **** *
1076:Middlewares/Third_Party/SEGGER/RTT/SEGGER_RTT.c **** *       SEGGER_RTT_WriteNoLock
1077:Middlewares/Third_Party/SEGGER/RTT/SEGGER_RTT.c **** *
1078:Middlewares/Third_Party/SEGGER/RTT/SEGGER_RTT.c **** *  Function description
1079:Middlewares/Third_Party/SEGGER/RTT/SEGGER_RTT.c **** *    Stores a specified number of characters in SEGGER RTT
1080:Middlewares/Third_Party/SEGGER/RTT/SEGGER_RTT.c **** *    control block which is then read by the host.
1081:Middlewares/Third_Party/SEGGER/RTT/SEGGER_RTT.c **** *    SEGGER_RTT_WriteNoLock does not lock the application.
1082:Middlewares/Third_Party/SEGGER/RTT/SEGGER_RTT.c **** *
1083:Middlewares/Third_Party/SEGGER/RTT/SEGGER_RTT.c **** *  Parameters
1084:Middlewares/Third_Party/SEGGER/RTT/SEGGER_RTT.c **** *    BufferIndex  Index of "Up"-buffer to be used (e.g. 0 for "Terminal").
1085:Middlewares/Third_Party/SEGGER/RTT/SEGGER_RTT.c **** *    pBuffer      Pointer to character array. Does not need to point to a \0 terminated string.
1086:Middlewares/Third_Party/SEGGER/RTT/SEGGER_RTT.c **** *    NumBytes     Number of bytes to be stored in the SEGGER RTT control block.
1087:Middlewares/Third_Party/SEGGER/RTT/SEGGER_RTT.c **** *
1088:Middlewares/Third_Party/SEGGER/RTT/SEGGER_RTT.c **** *  Return value
1089:Middlewares/Third_Party/SEGGER/RTT/SEGGER_RTT.c **** *    Number of bytes which have been stored in the "Up"-buffer.
1090:Middlewares/Third_Party/SEGGER/RTT/SEGGER_RTT.c **** *
1091:Middlewares/Third_Party/SEGGER/RTT/SEGGER_RTT.c **** *  Notes
1092:Middlewares/Third_Party/SEGGER/RTT/SEGGER_RTT.c **** *    (1) Data is stored according to buffer flags.
1093:Middlewares/Third_Party/SEGGER/RTT/SEGGER_RTT.c **** *    (2) For performance reasons this function does not call Init()
1094:Middlewares/Third_Party/SEGGER/RTT/SEGGER_RTT.c **** *        and may only be called after RTT has been initialized.
1095:Middlewares/Third_Party/SEGGER/RTT/SEGGER_RTT.c **** *        Either by calling SEGGER_RTT_Init() or calling another RTT API function first.
1096:Middlewares/Third_Party/SEGGER/RTT/SEGGER_RTT.c **** */
1097:Middlewares/Third_Party/SEGGER/RTT/SEGGER_RTT.c **** unsigned SEGGER_RTT_WriteNoLock(unsigned BufferIndex, const void* pBuffer, unsigned NumBytes) {
 1483              		.loc 1 1097 95 is_stmt 1 view -0
 1484              		.cfi_startproc
 1485              		@ args = 0, pretend = 0, frame = 0
 1486              		@ frame_needed = 0, uses_anonymous_args = 0
 1487              		.loc 1 1097 95 is_stmt 0 view .LVU466
 1488 0000 2DE9F041 		push	{r4, r5, r6, r7, r8, lr}
 1489              		.cfi_def_cfa_offset 24
 1490              		.cfi_offset 4, -24
 1491              		.cfi_offset 5, -20
 1492              		.cfi_offset 6, -16
 1493              		.cfi_offset 7, -12
 1494              		.cfi_offset 8, -8
 1495              		.cfi_offset 14, -4
 1496 0004 0F46     		mov	r7, r1
 1497 0006 1546     		mov	r5, r2
 1498 0008 9046     		mov	r8, r2
1098:Middlewares/Third_Party/SEGGER/RTT/SEGGER_RTT.c ****   unsigned              Status;
 1499              		.loc 1 1098 3 is_stmt 1 view .LVU467
1099:Middlewares/Third_Party/SEGGER/RTT/SEGGER_RTT.c ****   unsigned              Avail;
 1500              		.loc 1 1099 3 view .LVU468
1100:Middlewares/Third_Party/SEGGER/RTT/SEGGER_RTT.c ****   const char*           pData;
 1501              		.loc 1 1100 3 view .LVU469
1101:Middlewares/Third_Party/SEGGER/RTT/SEGGER_RTT.c ****   SEGGER_RTT_BUFFER_UP* pRing;
 1502              		.loc 1 1101 3 view .LVU470
1102:Middlewares/Third_Party/SEGGER/RTT/SEGGER_RTT.c ****   //
1103:Middlewares/Third_Party/SEGGER/RTT/SEGGER_RTT.c ****   // Get "to-host" ring buffer.
1104:Middlewares/Third_Party/SEGGER/RTT/SEGGER_RTT.c ****   //
1105:Middlewares/Third_Party/SEGGER/RTT/SEGGER_RTT.c ****   pData = (const char *)pBuffer;
 1503              		.loc 1 1105 3 view .LVU471
 1504              	.LVL167:
1106:Middlewares/Third_Party/SEGGER/RTT/SEGGER_RTT.c ****   pRing = (SEGGER_RTT_BUFFER_UP*)((char*)&_SEGGER_RTT.aUp[BufferIndex] + SEGGER_RTT_UNCACHED_OFF); 
 1505              		.loc 1 1106 3 view .LVU472
 1506              		.loc 1 1106 9 is_stmt 0 view .LVU473
 1507 000a 431C     		adds	r3, r0, #1
ARM GAS  C:\Users\Administrator\AppData\Local\Temp\ccUGyMKj.s 			page 51


 1508 000c 03EB4302 		add	r2, r3, r3, lsl #1
 1509              	.LVL168:
 1510              		.loc 1 1106 9 view .LVU474
 1511 0010 184B     		ldr	r3, .L86
 1512 0012 03EBC201 		add	r1, r3, r2, lsl #3
 1513              	.LVL169:
 1514              		.loc 1 1106 9 view .LVU475
 1515 0016 0E46     		mov	r6, r1
 1516              	.LVL170:
1107:Middlewares/Third_Party/SEGGER/RTT/SEGGER_RTT.c ****   //
1108:Middlewares/Third_Party/SEGGER/RTT/SEGGER_RTT.c ****   // How we output depends upon the mode...
1109:Middlewares/Third_Party/SEGGER/RTT/SEGGER_RTT.c ****   //
1110:Middlewares/Third_Party/SEGGER/RTT/SEGGER_RTT.c ****   switch (pRing->Flags) {
 1517              		.loc 1 1110 3 is_stmt 1 view .LVU476
 1518              		.loc 1 1110 16 is_stmt 0 view .LVU477
 1519 0018 00EB4000 		add	r0, r0, r0, lsl #1
 1520              	.LVL171:
 1521              		.loc 1 1110 16 view .LVU478
 1522 001c 03EBC003 		add	r3, r3, r0, lsl #3
 1523 0020 DC6A     		ldr	r4, [r3, #44]
 1524              		.loc 1 1110 3 view .LVU479
 1525 0022 012C     		cmp	r4, #1
 1526 0024 0ED0     		beq	.L81
 1527 0026 022C     		cmp	r4, #2
 1528 0028 1BD0     		beq	.L82
 1529 002a 0CBB     		cbnz	r4, .L84
1111:Middlewares/Third_Party/SEGGER/RTT/SEGGER_RTT.c ****   case SEGGER_RTT_MODE_NO_BLOCK_SKIP:
1112:Middlewares/Third_Party/SEGGER/RTT/SEGGER_RTT.c ****     //
1113:Middlewares/Third_Party/SEGGER/RTT/SEGGER_RTT.c ****     // If we are in skip mode and there is no space for the whole
1114:Middlewares/Third_Party/SEGGER/RTT/SEGGER_RTT.c ****     // of this output, don't bother.
1115:Middlewares/Third_Party/SEGGER/RTT/SEGGER_RTT.c ****     //
1116:Middlewares/Third_Party/SEGGER/RTT/SEGGER_RTT.c ****     Avail = _GetAvailWriteSpace(pRing);
 1530              		.loc 1 1116 5 is_stmt 1 view .LVU480
 1531              		.loc 1 1116 13 is_stmt 0 view .LVU481
 1532 002c 0846     		mov	r0, r1
 1533 002e FFF7FEFF 		bl	_GetAvailWriteSpace
 1534              	.LVL172:
1117:Middlewares/Third_Party/SEGGER/RTT/SEGGER_RTT.c ****     if (Avail < NumBytes) {
 1535              		.loc 1 1117 5 is_stmt 1 view .LVU482
 1536              		.loc 1 1117 8 is_stmt 0 view .LVU483
 1537 0032 8542     		cmp	r5, r0
 1538 0034 12D8     		bhi	.L80
1118:Middlewares/Third_Party/SEGGER/RTT/SEGGER_RTT.c ****       Status = 0u;
1119:Middlewares/Third_Party/SEGGER/RTT/SEGGER_RTT.c ****     } else {
1120:Middlewares/Third_Party/SEGGER/RTT/SEGGER_RTT.c ****       Status = NumBytes;
 1539              		.loc 1 1120 7 is_stmt 1 view .LVU484
 1540              	.LVL173:
1121:Middlewares/Third_Party/SEGGER/RTT/SEGGER_RTT.c ****       _WriteNoCheck(pRing, pData, NumBytes);
 1541              		.loc 1 1121 7 view .LVU485
 1542 0036 2C46     		mov	r4, r5
 1543 0038 2A46     		mov	r2, r5
 1544 003a 3946     		mov	r1, r7
 1545 003c 3046     		mov	r0, r6
 1546              	.LVL174:
 1547              		.loc 1 1121 7 is_stmt 0 view .LVU486
 1548 003e FFF7FEFF 		bl	_WriteNoCheck
 1549              	.LVL175:
ARM GAS  C:\Users\Administrator\AppData\Local\Temp\ccUGyMKj.s 			page 52


 1550 0042 0BE0     		b	.L80
 1551              	.LVL176:
 1552              	.L81:
1122:Middlewares/Third_Party/SEGGER/RTT/SEGGER_RTT.c ****     }
1123:Middlewares/Third_Party/SEGGER/RTT/SEGGER_RTT.c ****     break;
1124:Middlewares/Third_Party/SEGGER/RTT/SEGGER_RTT.c ****   case SEGGER_RTT_MODE_NO_BLOCK_TRIM:
1125:Middlewares/Third_Party/SEGGER/RTT/SEGGER_RTT.c ****     //
1126:Middlewares/Third_Party/SEGGER/RTT/SEGGER_RTT.c ****     // If we are in trim mode, trim to what we can output without blocking.
1127:Middlewares/Third_Party/SEGGER/RTT/SEGGER_RTT.c ****     //
1128:Middlewares/Third_Party/SEGGER/RTT/SEGGER_RTT.c ****     Avail = _GetAvailWriteSpace(pRing);
 1553              		.loc 1 1128 5 is_stmt 1 view .LVU487
 1554              		.loc 1 1128 13 is_stmt 0 view .LVU488
 1555 0044 0846     		mov	r0, r1
 1556 0046 FFF7FEFF 		bl	_GetAvailWriteSpace
 1557              	.LVL177:
1129:Middlewares/Third_Party/SEGGER/RTT/SEGGER_RTT.c ****     Status = Avail < NumBytes ? Avail : NumBytes;
 1558              		.loc 1 1129 5 is_stmt 1 view .LVU489
 1559              		.loc 1 1129 12 is_stmt 0 view .LVU490
 1560 004a 4446     		mov	r4, r8
 1561 004c 8045     		cmp	r8, r0
 1562 004e 28BF     		it	cs
 1563 0050 0446     		movcs	r4, r0
 1564              	.LVL178:
1130:Middlewares/Third_Party/SEGGER/RTT/SEGGER_RTT.c ****     _WriteNoCheck(pRing, pData, Status);
 1565              		.loc 1 1130 5 is_stmt 1 view .LVU491
 1566 0052 2246     		mov	r2, r4
 1567 0054 3946     		mov	r1, r7
 1568 0056 3046     		mov	r0, r6
 1569              	.LVL179:
 1570              		.loc 1 1130 5 is_stmt 0 view .LVU492
 1571 0058 FFF7FEFF 		bl	_WriteNoCheck
 1572              	.LVL180:
1131:Middlewares/Third_Party/SEGGER/RTT/SEGGER_RTT.c ****     break;
 1573              		.loc 1 1131 5 is_stmt 1 view .LVU493
 1574              	.L80:
1132:Middlewares/Third_Party/SEGGER/RTT/SEGGER_RTT.c ****   case SEGGER_RTT_MODE_BLOCK_IF_FIFO_FULL:
1133:Middlewares/Third_Party/SEGGER/RTT/SEGGER_RTT.c ****     //
1134:Middlewares/Third_Party/SEGGER/RTT/SEGGER_RTT.c ****     // If we are in blocking mode, output everything.
1135:Middlewares/Third_Party/SEGGER/RTT/SEGGER_RTT.c ****     //
1136:Middlewares/Third_Party/SEGGER/RTT/SEGGER_RTT.c ****     Status = _WriteBlocking(pRing, pData, NumBytes);
1137:Middlewares/Third_Party/SEGGER/RTT/SEGGER_RTT.c ****     break;
1138:Middlewares/Third_Party/SEGGER/RTT/SEGGER_RTT.c ****   default:
1139:Middlewares/Third_Party/SEGGER/RTT/SEGGER_RTT.c ****     Status = 0u;
1140:Middlewares/Third_Party/SEGGER/RTT/SEGGER_RTT.c ****     break;
1141:Middlewares/Third_Party/SEGGER/RTT/SEGGER_RTT.c ****   }
1142:Middlewares/Third_Party/SEGGER/RTT/SEGGER_RTT.c ****   //
1143:Middlewares/Third_Party/SEGGER/RTT/SEGGER_RTT.c ****   // Finish up.
1144:Middlewares/Third_Party/SEGGER/RTT/SEGGER_RTT.c ****   //
1145:Middlewares/Third_Party/SEGGER/RTT/SEGGER_RTT.c ****   return Status;
1146:Middlewares/Third_Party/SEGGER/RTT/SEGGER_RTT.c **** }
 1575              		.loc 1 1146 1 is_stmt 0 view .LVU494
 1576 005c 2046     		mov	r0, r4
 1577 005e BDE8F081 		pop	{r4, r5, r6, r7, r8, pc}
 1578              	.LVL181:
 1579              	.L82:
1136:Middlewares/Third_Party/SEGGER/RTT/SEGGER_RTT.c ****     break;
 1580              		.loc 1 1136 5 is_stmt 1 view .LVU495
ARM GAS  C:\Users\Administrator\AppData\Local\Temp\ccUGyMKj.s 			page 53


1136:Middlewares/Third_Party/SEGGER/RTT/SEGGER_RTT.c ****     break;
 1581              		.loc 1 1136 14 is_stmt 0 view .LVU496
 1582 0062 2A46     		mov	r2, r5
 1583 0064 3946     		mov	r1, r7
 1584              	.LVL182:
1136:Middlewares/Third_Party/SEGGER/RTT/SEGGER_RTT.c ****     break;
 1585              		.loc 1 1136 14 view .LVU497
 1586 0066 3046     		mov	r0, r6
 1587 0068 FFF7FEFF 		bl	_WriteBlocking
 1588              	.LVL183:
 1589 006c 0446     		mov	r4, r0
 1590              	.LVL184:
1137:Middlewares/Third_Party/SEGGER/RTT/SEGGER_RTT.c ****   default:
 1591              		.loc 1 1137 5 is_stmt 1 view .LVU498
 1592 006e F5E7     		b	.L80
 1593              	.LVL185:
 1594              	.L84:
1110:Middlewares/Third_Party/SEGGER/RTT/SEGGER_RTT.c ****   case SEGGER_RTT_MODE_NO_BLOCK_SKIP:
 1595              		.loc 1 1110 3 is_stmt 0 view .LVU499
 1596 0070 0024     		movs	r4, #0
 1597              	.LVL186:
1145:Middlewares/Third_Party/SEGGER/RTT/SEGGER_RTT.c **** }
 1598              		.loc 1 1145 3 is_stmt 1 view .LVU500
1145:Middlewares/Third_Party/SEGGER/RTT/SEGGER_RTT.c **** }
 1599              		.loc 1 1145 10 is_stmt 0 view .LVU501
 1600 0072 F3E7     		b	.L80
 1601              	.L87:
 1602              		.align	2
 1603              	.L86:
 1604 0074 00000000 		.word	_SEGGER_RTT
 1605              		.cfi_endproc
 1606              	.LFE11:
 1608              		.section	.text.SEGGER_RTT_WriteDownBuffer,"ax",%progbits
 1609              		.align	1
 1610              		.global	SEGGER_RTT_WriteDownBuffer
 1611              		.syntax unified
 1612              		.thumb
 1613              		.thumb_func
 1615              	SEGGER_RTT_WriteDownBuffer:
 1616              	.LVL187:
 1617              	.LFB12:
1147:Middlewares/Third_Party/SEGGER/RTT/SEGGER_RTT.c **** 
1148:Middlewares/Third_Party/SEGGER/RTT/SEGGER_RTT.c **** /*********************************************************************
1149:Middlewares/Third_Party/SEGGER/RTT/SEGGER_RTT.c **** *
1150:Middlewares/Third_Party/SEGGER/RTT/SEGGER_RTT.c **** *       SEGGER_RTT_WriteDownBuffer
1151:Middlewares/Third_Party/SEGGER/RTT/SEGGER_RTT.c **** *
1152:Middlewares/Third_Party/SEGGER/RTT/SEGGER_RTT.c **** *  Function description
1153:Middlewares/Third_Party/SEGGER/RTT/SEGGER_RTT.c **** *    Stores a specified number of characters in SEGGER RTT control block in a <Down> buffer.
1154:Middlewares/Third_Party/SEGGER/RTT/SEGGER_RTT.c **** *
1155:Middlewares/Third_Party/SEGGER/RTT/SEGGER_RTT.c **** *  Parameters
1156:Middlewares/Third_Party/SEGGER/RTT/SEGGER_RTT.c **** *    BufferIndex  Index of "Up"-buffer to be used (e.g. 0 for "Terminal").
1157:Middlewares/Third_Party/SEGGER/RTT/SEGGER_RTT.c **** *    pBuffer      Pointer to character array. Does not need to point to a \0 terminated string.
1158:Middlewares/Third_Party/SEGGER/RTT/SEGGER_RTT.c **** *    NumBytes     Number of bytes to be stored in the SEGGER RTT control block.
1159:Middlewares/Third_Party/SEGGER/RTT/SEGGER_RTT.c **** *
1160:Middlewares/Third_Party/SEGGER/RTT/SEGGER_RTT.c **** *  Return value
1161:Middlewares/Third_Party/SEGGER/RTT/SEGGER_RTT.c **** *    Number of bytes which have been stored in the "Down"-buffer.
1162:Middlewares/Third_Party/SEGGER/RTT/SEGGER_RTT.c **** *
ARM GAS  C:\Users\Administrator\AppData\Local\Temp\ccUGyMKj.s 			page 54


1163:Middlewares/Third_Party/SEGGER/RTT/SEGGER_RTT.c **** *  Notes
1164:Middlewares/Third_Party/SEGGER/RTT/SEGGER_RTT.c **** *    (1) Data is stored according to buffer flags.
1165:Middlewares/Third_Party/SEGGER/RTT/SEGGER_RTT.c **** *
1166:Middlewares/Third_Party/SEGGER/RTT/SEGGER_RTT.c **** *  Additional information
1167:Middlewares/Third_Party/SEGGER/RTT/SEGGER_RTT.c **** *    This function must not be called when J-Link might also do RTT.
1168:Middlewares/Third_Party/SEGGER/RTT/SEGGER_RTT.c **** *    This function locks against all other RTT operations. I.e. during
1169:Middlewares/Third_Party/SEGGER/RTT/SEGGER_RTT.c **** *    the write operation, writing from the application is also locked.
1170:Middlewares/Third_Party/SEGGER/RTT/SEGGER_RTT.c **** *    If only one consumer writes to the down buffer, 
1171:Middlewares/Third_Party/SEGGER/RTT/SEGGER_RTT.c **** *    call SEGGER_RTT_WriteDownBufferNoLock() instead.
1172:Middlewares/Third_Party/SEGGER/RTT/SEGGER_RTT.c **** */
1173:Middlewares/Third_Party/SEGGER/RTT/SEGGER_RTT.c **** unsigned SEGGER_RTT_WriteDownBuffer(unsigned BufferIndex, const void* pBuffer, unsigned NumBytes) {
 1618              		.loc 1 1173 99 is_stmt 1 view -0
 1619              		.cfi_startproc
 1620              		@ args = 0, pretend = 0, frame = 0
 1621              		@ frame_needed = 0, uses_anonymous_args = 0
 1622              		.loc 1 1173 99 is_stmt 0 view .LVU503
 1623 0000 F8B5     		push	{r3, r4, r5, r6, r7, lr}
 1624              		.cfi_def_cfa_offset 24
 1625              		.cfi_offset 3, -24
 1626              		.cfi_offset 4, -20
 1627              		.cfi_offset 5, -16
 1628              		.cfi_offset 6, -12
 1629              		.cfi_offset 7, -8
 1630              		.cfi_offset 14, -4
 1631 0002 0546     		mov	r5, r0
 1632 0004 0E46     		mov	r6, r1
 1633 0006 1746     		mov	r7, r2
1174:Middlewares/Third_Party/SEGGER/RTT/SEGGER_RTT.c ****   unsigned Status;
 1634              		.loc 1 1174 3 is_stmt 1 view .LVU504
 1635              	.LBB8:
1175:Middlewares/Third_Party/SEGGER/RTT/SEGGER_RTT.c **** 
1176:Middlewares/Third_Party/SEGGER/RTT/SEGGER_RTT.c ****   INIT();
 1636              		.loc 1 1176 3 view .LVU505
 1637              		.loc 1 1176 3 view .LVU506
 1638              	.LVL188:
 1639              		.loc 1 1176 3 view .LVU507
 1640              		.loc 1 1176 3 view .LVU508
 1641 0008 094B     		ldr	r3, .L92
 1642 000a 1B78     		ldrb	r3, [r3]	@ zero_extendqisi2
 1643 000c 6BB1     		cbz	r3, .L91
 1644              	.LVL189:
 1645              	.L89:
 1646              		.loc 1 1176 3 view .LVU509
 1647              	.LBE8:
 1648              		.loc 1 1176 9 view .LVU510
 1649              	.LBB9:
1177:Middlewares/Third_Party/SEGGER/RTT/SEGGER_RTT.c ****   SEGGER_RTT_LOCK();
 1650              		.loc 1 1177 3 view .LVU511
 1651              		.loc 1 1177 3 view .LVU512
 1652              		.syntax unified
 1653              	@ 1177 "Middlewares/Third_Party/SEGGER/RTT/SEGGER_RTT.c" 1
 1654 000e EFF31184 		mrs   r4, basepri  
 1655 0012 4FF02001 		mov   r1, #32       
 1656 0016 81F31188 		msr   basepri, r1  
 1657              		
 1658              	@ 0 "" 2
 1659              	.LVL190:
ARM GAS  C:\Users\Administrator\AppData\Local\Temp\ccUGyMKj.s 			page 55


 1660              		.loc 1 1177 20 view .LVU513
1178:Middlewares/Third_Party/SEGGER/RTT/SEGGER_RTT.c ****   Status = SEGGER_RTT_WriteDownBufferNoLock(BufferIndex, pBuffer, NumBytes);  // Call the non-locki
 1661              		.loc 1 1178 3 view .LVU514
 1662              		.loc 1 1178 12 is_stmt 0 view .LVU515
 1663              		.thumb
 1664              		.syntax unified
 1665 001a 3A46     		mov	r2, r7
 1666 001c 3146     		mov	r1, r6
 1667 001e 2846     		mov	r0, r5
 1668 0020 FFF7FEFF 		bl	SEGGER_RTT_WriteDownBufferNoLock
 1669              	.LVL191:
1179:Middlewares/Third_Party/SEGGER/RTT/SEGGER_RTT.c ****   SEGGER_RTT_UNLOCK();
 1670              		.loc 1 1179 3 is_stmt 1 view .LVU516
 1671              		.syntax unified
 1672              	@ 1179 "Middlewares/Third_Party/SEGGER/RTT/SEGGER_RTT.c" 1
 1673 0024 84F31188 		msr   basepri, r4  
 1674              		
 1675              	@ 0 "" 2
 1676              		.thumb
 1677              		.syntax unified
 1678              	.LBE9:
 1679              		.loc 1 1179 22 view .LVU517
1180:Middlewares/Third_Party/SEGGER/RTT/SEGGER_RTT.c ****   return Status;
 1680              		.loc 1 1180 3 view .LVU518
1181:Middlewares/Third_Party/SEGGER/RTT/SEGGER_RTT.c **** }
 1681              		.loc 1 1181 1 is_stmt 0 view .LVU519
 1682 0028 F8BD     		pop	{r3, r4, r5, r6, r7, pc}
 1683              	.LVL192:
 1684              	.L91:
 1685              	.LBB10:
1176:Middlewares/Third_Party/SEGGER/RTT/SEGGER_RTT.c ****   SEGGER_RTT_LOCK();
 1686              		.loc 1 1176 3 is_stmt 1 discriminator 1 view .LVU520
 1687 002a FFF7FEFF 		bl	_DoInit
 1688              	.LVL193:
1176:Middlewares/Third_Party/SEGGER/RTT/SEGGER_RTT.c ****   SEGGER_RTT_LOCK();
 1689              		.loc 1 1176 3 is_stmt 0 discriminator 1 view .LVU521
 1690 002e EEE7     		b	.L89
 1691              	.L93:
 1692              		.align	2
 1693              	.L92:
 1694 0030 00000000 		.word	_SEGGER_RTT
 1695              	.LBE10:
 1696              		.cfi_endproc
 1697              	.LFE12:
 1699              		.section	.text.SEGGER_RTT_Write,"ax",%progbits
 1700              		.align	1
 1701              		.global	SEGGER_RTT_Write
 1702              		.syntax unified
 1703              		.thumb
 1704              		.thumb_func
 1706              	SEGGER_RTT_Write:
 1707              	.LVL194:
 1708              	.LFB13:
1182:Middlewares/Third_Party/SEGGER/RTT/SEGGER_RTT.c **** 
1183:Middlewares/Third_Party/SEGGER/RTT/SEGGER_RTT.c **** /*********************************************************************
1184:Middlewares/Third_Party/SEGGER/RTT/SEGGER_RTT.c **** *
1185:Middlewares/Third_Party/SEGGER/RTT/SEGGER_RTT.c **** *       SEGGER_RTT_Write
ARM GAS  C:\Users\Administrator\AppData\Local\Temp\ccUGyMKj.s 			page 56


1186:Middlewares/Third_Party/SEGGER/RTT/SEGGER_RTT.c **** *
1187:Middlewares/Third_Party/SEGGER/RTT/SEGGER_RTT.c **** *  Function description
1188:Middlewares/Third_Party/SEGGER/RTT/SEGGER_RTT.c **** *    Stores a specified number of characters in SEGGER RTT
1189:Middlewares/Third_Party/SEGGER/RTT/SEGGER_RTT.c **** *    control block which is then read by the host.
1190:Middlewares/Third_Party/SEGGER/RTT/SEGGER_RTT.c **** *
1191:Middlewares/Third_Party/SEGGER/RTT/SEGGER_RTT.c **** *  Parameters
1192:Middlewares/Third_Party/SEGGER/RTT/SEGGER_RTT.c **** *    BufferIndex  Index of "Up"-buffer to be used (e.g. 0 for "Terminal").
1193:Middlewares/Third_Party/SEGGER/RTT/SEGGER_RTT.c **** *    pBuffer      Pointer to character array. Does not need to point to a \0 terminated string.
1194:Middlewares/Third_Party/SEGGER/RTT/SEGGER_RTT.c **** *    NumBytes     Number of bytes to be stored in the SEGGER RTT control block.
1195:Middlewares/Third_Party/SEGGER/RTT/SEGGER_RTT.c **** *
1196:Middlewares/Third_Party/SEGGER/RTT/SEGGER_RTT.c **** *  Return value
1197:Middlewares/Third_Party/SEGGER/RTT/SEGGER_RTT.c **** *    Number of bytes which have been stored in the "Up"-buffer.
1198:Middlewares/Third_Party/SEGGER/RTT/SEGGER_RTT.c **** *
1199:Middlewares/Third_Party/SEGGER/RTT/SEGGER_RTT.c **** *  Notes
1200:Middlewares/Third_Party/SEGGER/RTT/SEGGER_RTT.c **** *    (1) Data is stored according to buffer flags.
1201:Middlewares/Third_Party/SEGGER/RTT/SEGGER_RTT.c **** */
1202:Middlewares/Third_Party/SEGGER/RTT/SEGGER_RTT.c **** unsigned SEGGER_RTT_Write(unsigned BufferIndex, const void* pBuffer, unsigned NumBytes) {
 1709              		.loc 1 1202 89 is_stmt 1 view -0
 1710              		.cfi_startproc
 1711              		@ args = 0, pretend = 0, frame = 0
 1712              		@ frame_needed = 0, uses_anonymous_args = 0
 1713              		.loc 1 1202 89 is_stmt 0 view .LVU523
 1714 0000 F8B5     		push	{r3, r4, r5, r6, r7, lr}
 1715              		.cfi_def_cfa_offset 24
 1716              		.cfi_offset 3, -24
 1717              		.cfi_offset 4, -20
 1718              		.cfi_offset 5, -16
 1719              		.cfi_offset 6, -12
 1720              		.cfi_offset 7, -8
 1721              		.cfi_offset 14, -4
 1722 0002 0546     		mov	r5, r0
 1723 0004 0E46     		mov	r6, r1
 1724 0006 1746     		mov	r7, r2
1203:Middlewares/Third_Party/SEGGER/RTT/SEGGER_RTT.c ****   unsigned Status;
 1725              		.loc 1 1203 3 is_stmt 1 view .LVU524
 1726              	.LBB11:
1204:Middlewares/Third_Party/SEGGER/RTT/SEGGER_RTT.c **** 
1205:Middlewares/Third_Party/SEGGER/RTT/SEGGER_RTT.c ****   INIT();
 1727              		.loc 1 1205 3 view .LVU525
 1728              		.loc 1 1205 3 view .LVU526
 1729              	.LVL195:
 1730              		.loc 1 1205 3 view .LVU527
 1731              		.loc 1 1205 3 view .LVU528
 1732 0008 094B     		ldr	r3, .L98
 1733 000a 1B78     		ldrb	r3, [r3]	@ zero_extendqisi2
 1734 000c 6BB1     		cbz	r3, .L97
 1735              	.LVL196:
 1736              	.L95:
 1737              		.loc 1 1205 3 view .LVU529
 1738              	.LBE11:
 1739              		.loc 1 1205 9 view .LVU530
 1740              	.LBB12:
1206:Middlewares/Third_Party/SEGGER/RTT/SEGGER_RTT.c ****   SEGGER_RTT_LOCK();
 1741              		.loc 1 1206 3 view .LVU531
 1742              		.loc 1 1206 3 view .LVU532
 1743              		.syntax unified
 1744              	@ 1206 "Middlewares/Third_Party/SEGGER/RTT/SEGGER_RTT.c" 1
ARM GAS  C:\Users\Administrator\AppData\Local\Temp\ccUGyMKj.s 			page 57


 1745 000e EFF31184 		mrs   r4, basepri  
 1746 0012 4FF02001 		mov   r1, #32       
 1747 0016 81F31188 		msr   basepri, r1  
 1748              		
 1749              	@ 0 "" 2
 1750              	.LVL197:
 1751              		.loc 1 1206 20 view .LVU533
1207:Middlewares/Third_Party/SEGGER/RTT/SEGGER_RTT.c ****   Status = SEGGER_RTT_WriteNoLock(BufferIndex, pBuffer, NumBytes);  // Call the non-locking write f
 1752              		.loc 1 1207 3 view .LVU534
 1753              		.loc 1 1207 12 is_stmt 0 view .LVU535
 1754              		.thumb
 1755              		.syntax unified
 1756 001a 3A46     		mov	r2, r7
 1757 001c 3146     		mov	r1, r6
 1758 001e 2846     		mov	r0, r5
 1759 0020 FFF7FEFF 		bl	SEGGER_RTT_WriteNoLock
 1760              	.LVL198:
1208:Middlewares/Third_Party/SEGGER/RTT/SEGGER_RTT.c ****   SEGGER_RTT_UNLOCK();
 1761              		.loc 1 1208 3 is_stmt 1 view .LVU536
 1762              		.syntax unified
 1763              	@ 1208 "Middlewares/Third_Party/SEGGER/RTT/SEGGER_RTT.c" 1
 1764 0024 84F31188 		msr   basepri, r4  
 1765              		
 1766              	@ 0 "" 2
 1767              		.thumb
 1768              		.syntax unified
 1769              	.LBE12:
 1770              		.loc 1 1208 22 view .LVU537
1209:Middlewares/Third_Party/SEGGER/RTT/SEGGER_RTT.c ****   return Status;
 1771              		.loc 1 1209 3 view .LVU538
1210:Middlewares/Third_Party/SEGGER/RTT/SEGGER_RTT.c **** }
 1772              		.loc 1 1210 1 is_stmt 0 view .LVU539
 1773 0028 F8BD     		pop	{r3, r4, r5, r6, r7, pc}
 1774              	.LVL199:
 1775              	.L97:
 1776              	.LBB13:
1205:Middlewares/Third_Party/SEGGER/RTT/SEGGER_RTT.c ****   SEGGER_RTT_LOCK();
 1777              		.loc 1 1205 3 is_stmt 1 discriminator 1 view .LVU540
 1778 002a FFF7FEFF 		bl	_DoInit
 1779              	.LVL200:
1205:Middlewares/Third_Party/SEGGER/RTT/SEGGER_RTT.c ****   SEGGER_RTT_LOCK();
 1780              		.loc 1 1205 3 is_stmt 0 discriminator 1 view .LVU541
 1781 002e EEE7     		b	.L95
 1782              	.L99:
 1783              		.align	2
 1784              	.L98:
 1785 0030 00000000 		.word	_SEGGER_RTT
 1786              	.LBE13:
 1787              		.cfi_endproc
 1788              	.LFE13:
 1790              		.section	.text.SEGGER_RTT_WriteString,"ax",%progbits
 1791              		.align	1
 1792              		.global	SEGGER_RTT_WriteString
 1793              		.syntax unified
 1794              		.thumb
 1795              		.thumb_func
 1797              	SEGGER_RTT_WriteString:
ARM GAS  C:\Users\Administrator\AppData\Local\Temp\ccUGyMKj.s 			page 58


 1798              	.LVL201:
 1799              	.LFB14:
1211:Middlewares/Third_Party/SEGGER/RTT/SEGGER_RTT.c **** 
1212:Middlewares/Third_Party/SEGGER/RTT/SEGGER_RTT.c **** /*********************************************************************
1213:Middlewares/Third_Party/SEGGER/RTT/SEGGER_RTT.c **** *
1214:Middlewares/Third_Party/SEGGER/RTT/SEGGER_RTT.c **** *       SEGGER_RTT_WriteString
1215:Middlewares/Third_Party/SEGGER/RTT/SEGGER_RTT.c **** *
1216:Middlewares/Third_Party/SEGGER/RTT/SEGGER_RTT.c **** *  Function description
1217:Middlewares/Third_Party/SEGGER/RTT/SEGGER_RTT.c **** *    Stores string in SEGGER RTT control block.
1218:Middlewares/Third_Party/SEGGER/RTT/SEGGER_RTT.c **** *    This data is read by the host.
1219:Middlewares/Third_Party/SEGGER/RTT/SEGGER_RTT.c **** *
1220:Middlewares/Third_Party/SEGGER/RTT/SEGGER_RTT.c **** *  Parameters
1221:Middlewares/Third_Party/SEGGER/RTT/SEGGER_RTT.c **** *    BufferIndex  Index of "Up"-buffer to be used (e.g. 0 for "Terminal").
1222:Middlewares/Third_Party/SEGGER/RTT/SEGGER_RTT.c **** *    s            Pointer to string.
1223:Middlewares/Third_Party/SEGGER/RTT/SEGGER_RTT.c **** *
1224:Middlewares/Third_Party/SEGGER/RTT/SEGGER_RTT.c **** *  Return value
1225:Middlewares/Third_Party/SEGGER/RTT/SEGGER_RTT.c **** *    Number of bytes which have been stored in the "Up"-buffer.
1226:Middlewares/Third_Party/SEGGER/RTT/SEGGER_RTT.c **** *
1227:Middlewares/Third_Party/SEGGER/RTT/SEGGER_RTT.c **** *  Notes
1228:Middlewares/Third_Party/SEGGER/RTT/SEGGER_RTT.c **** *    (1) Data is stored according to buffer flags.
1229:Middlewares/Third_Party/SEGGER/RTT/SEGGER_RTT.c **** *    (2) String passed to this function has to be \0 terminated
1230:Middlewares/Third_Party/SEGGER/RTT/SEGGER_RTT.c **** *    (3) \0 termination character is *not* stored in RTT buffer
1231:Middlewares/Third_Party/SEGGER/RTT/SEGGER_RTT.c **** */
1232:Middlewares/Third_Party/SEGGER/RTT/SEGGER_RTT.c **** unsigned SEGGER_RTT_WriteString(unsigned BufferIndex, const char* s) {
 1800              		.loc 1 1232 70 is_stmt 1 view -0
 1801              		.cfi_startproc
 1802              		@ args = 0, pretend = 0, frame = 0
 1803              		@ frame_needed = 0, uses_anonymous_args = 0
 1804              		.loc 1 1232 70 is_stmt 0 view .LVU543
 1805 0000 38B5     		push	{r3, r4, r5, lr}
 1806              		.cfi_def_cfa_offset 16
 1807              		.cfi_offset 3, -16
 1808              		.cfi_offset 4, -12
 1809              		.cfi_offset 5, -8
 1810              		.cfi_offset 14, -4
 1811 0002 0546     		mov	r5, r0
 1812 0004 0C46     		mov	r4, r1
1233:Middlewares/Third_Party/SEGGER/RTT/SEGGER_RTT.c ****   unsigned Len;
 1813              		.loc 1 1233 3 is_stmt 1 view .LVU544
1234:Middlewares/Third_Party/SEGGER/RTT/SEGGER_RTT.c **** 
1235:Middlewares/Third_Party/SEGGER/RTT/SEGGER_RTT.c ****   Len = STRLEN(s);
 1814              		.loc 1 1235 3 view .LVU545
 1815              		.loc 1 1235 9 is_stmt 0 view .LVU546
 1816 0006 0846     		mov	r0, r1
 1817              	.LVL202:
 1818              		.loc 1 1235 9 view .LVU547
 1819 0008 FFF7FEFF 		bl	strlen
 1820              	.LVL203:
 1821              		.loc 1 1235 9 view .LVU548
 1822 000c 0246     		mov	r2, r0
 1823              	.LVL204:
1236:Middlewares/Third_Party/SEGGER/RTT/SEGGER_RTT.c ****   return SEGGER_RTT_Write(BufferIndex, s, Len);
 1824              		.loc 1 1236 3 is_stmt 1 view .LVU549
 1825              		.loc 1 1236 10 is_stmt 0 view .LVU550
 1826 000e 2146     		mov	r1, r4
 1827 0010 2846     		mov	r0, r5
 1828              	.LVL205:
ARM GAS  C:\Users\Administrator\AppData\Local\Temp\ccUGyMKj.s 			page 59


 1829              		.loc 1 1236 10 view .LVU551
 1830 0012 FFF7FEFF 		bl	SEGGER_RTT_Write
 1831              	.LVL206:
1237:Middlewares/Third_Party/SEGGER/RTT/SEGGER_RTT.c **** }
 1832              		.loc 1 1237 1 view .LVU552
 1833 0016 38BD     		pop	{r3, r4, r5, pc}
 1834              		.loc 1 1237 1 view .LVU553
 1835              		.cfi_endproc
 1836              	.LFE14:
 1838              		.section	.text.SEGGER_RTT_PutCharSkipNoLock,"ax",%progbits
 1839              		.align	1
 1840              		.global	SEGGER_RTT_PutCharSkipNoLock
 1841              		.syntax unified
 1842              		.thumb
 1843              		.thumb_func
 1845              	SEGGER_RTT_PutCharSkipNoLock:
 1846              	.LVL207:
 1847              	.LFB15:
1238:Middlewares/Third_Party/SEGGER/RTT/SEGGER_RTT.c **** 
1239:Middlewares/Third_Party/SEGGER/RTT/SEGGER_RTT.c **** /*********************************************************************
1240:Middlewares/Third_Party/SEGGER/RTT/SEGGER_RTT.c **** *
1241:Middlewares/Third_Party/SEGGER/RTT/SEGGER_RTT.c **** *       SEGGER_RTT_PutCharSkipNoLock
1242:Middlewares/Third_Party/SEGGER/RTT/SEGGER_RTT.c **** *
1243:Middlewares/Third_Party/SEGGER/RTT/SEGGER_RTT.c **** *  Function description
1244:Middlewares/Third_Party/SEGGER/RTT/SEGGER_RTT.c **** *    Stores a single character/byte in SEGGER RTT buffer.
1245:Middlewares/Third_Party/SEGGER/RTT/SEGGER_RTT.c **** *    SEGGER_RTT_PutCharSkipNoLock does not lock the application and
1246:Middlewares/Third_Party/SEGGER/RTT/SEGGER_RTT.c **** *    skips the byte, if it does not fit into the buffer.
1247:Middlewares/Third_Party/SEGGER/RTT/SEGGER_RTT.c **** *
1248:Middlewares/Third_Party/SEGGER/RTT/SEGGER_RTT.c **** *  Parameters
1249:Middlewares/Third_Party/SEGGER/RTT/SEGGER_RTT.c **** *    BufferIndex  Index of "Up"-buffer to be used (e.g. 0 for "Terminal").
1250:Middlewares/Third_Party/SEGGER/RTT/SEGGER_RTT.c **** *    c            Byte to be stored.
1251:Middlewares/Third_Party/SEGGER/RTT/SEGGER_RTT.c **** *
1252:Middlewares/Third_Party/SEGGER/RTT/SEGGER_RTT.c **** *  Return value
1253:Middlewares/Third_Party/SEGGER/RTT/SEGGER_RTT.c **** *    Number of bytes which have been stored in the "Up"-buffer.
1254:Middlewares/Third_Party/SEGGER/RTT/SEGGER_RTT.c **** *
1255:Middlewares/Third_Party/SEGGER/RTT/SEGGER_RTT.c **** *  Notes
1256:Middlewares/Third_Party/SEGGER/RTT/SEGGER_RTT.c **** *    (1) If there is not enough space in the "Up"-buffer, the character is dropped.
1257:Middlewares/Third_Party/SEGGER/RTT/SEGGER_RTT.c **** *    (2) For performance reasons this function does not call Init()
1258:Middlewares/Third_Party/SEGGER/RTT/SEGGER_RTT.c **** *        and may only be called after RTT has been initialized.
1259:Middlewares/Third_Party/SEGGER/RTT/SEGGER_RTT.c **** *        Either by calling SEGGER_RTT_Init() or calling another RTT API function first.
1260:Middlewares/Third_Party/SEGGER/RTT/SEGGER_RTT.c **** */
1261:Middlewares/Third_Party/SEGGER/RTT/SEGGER_RTT.c **** 
1262:Middlewares/Third_Party/SEGGER/RTT/SEGGER_RTT.c **** unsigned SEGGER_RTT_PutCharSkipNoLock(unsigned BufferIndex, char c) {
 1848              		.loc 1 1262 69 is_stmt 1 view -0
 1849              		.cfi_startproc
 1850              		@ args = 0, pretend = 0, frame = 0
 1851              		@ frame_needed = 0, uses_anonymous_args = 0
 1852              		.loc 1 1262 69 is_stmt 0 view .LVU555
 1853 0000 00B5     		push	{lr}
 1854              		.cfi_def_cfa_offset 4
 1855              		.cfi_offset 14, -4
1263:Middlewares/Third_Party/SEGGER/RTT/SEGGER_RTT.c ****   SEGGER_RTT_BUFFER_UP* pRing;
 1856              		.loc 1 1263 3 is_stmt 1 view .LVU556
1264:Middlewares/Third_Party/SEGGER/RTT/SEGGER_RTT.c ****   unsigned              WrOff;
 1857              		.loc 1 1264 3 view .LVU557
1265:Middlewares/Third_Party/SEGGER/RTT/SEGGER_RTT.c ****   unsigned              Status;
 1858              		.loc 1 1265 3 view .LVU558
ARM GAS  C:\Users\Administrator\AppData\Local\Temp\ccUGyMKj.s 			page 60


1266:Middlewares/Third_Party/SEGGER/RTT/SEGGER_RTT.c ****   volatile char*        pDst;
 1859              		.loc 1 1266 3 view .LVU559
1267:Middlewares/Third_Party/SEGGER/RTT/SEGGER_RTT.c ****   //
1268:Middlewares/Third_Party/SEGGER/RTT/SEGGER_RTT.c ****   // Get "to-host" ring buffer.
1269:Middlewares/Third_Party/SEGGER/RTT/SEGGER_RTT.c ****   //
1270:Middlewares/Third_Party/SEGGER/RTT/SEGGER_RTT.c ****   pRing = (SEGGER_RTT_BUFFER_UP*)((char*)&_SEGGER_RTT.aUp[BufferIndex] + SEGGER_RTT_UNCACHED_OFF); 
 1860              		.loc 1 1270 3 view .LVU560
 1861              	.LVL208:
1271:Middlewares/Third_Party/SEGGER/RTT/SEGGER_RTT.c ****   //
1272:Middlewares/Third_Party/SEGGER/RTT/SEGGER_RTT.c ****   // Get write position and handle wrap-around if necessary
1273:Middlewares/Third_Party/SEGGER/RTT/SEGGER_RTT.c ****   //
1274:Middlewares/Third_Party/SEGGER/RTT/SEGGER_RTT.c ****   WrOff = pRing->WrOff + 1;
 1862              		.loc 1 1274 3 view .LVU561
 1863              		.loc 1 1274 16 is_stmt 0 view .LVU562
 1864 0002 00EB4002 		add	r2, r0, r0, lsl #1
 1865 0006 154B     		ldr	r3, .L109
 1866 0008 03EBC203 		add	r3, r3, r2, lsl #3
 1867 000c D3F824E0 		ldr	lr, [r3, #36]
 1868              		.loc 1 1274 9 view .LVU563
 1869 0010 0EF10102 		add	r2, lr, #1
 1870              	.LVL209:
1275:Middlewares/Third_Party/SEGGER/RTT/SEGGER_RTT.c ****   if (WrOff == pRing->SizeOfBuffer) {
 1871              		.loc 1 1275 3 is_stmt 1 view .LVU564
 1872              		.loc 1 1275 21 is_stmt 0 view .LVU565
 1873 0014 1B6A     		ldr	r3, [r3, #32]
 1874              		.loc 1 1275 6 view .LVU566
 1875 0016 9342     		cmp	r3, r2
 1876 0018 1BD0     		beq	.L108
 1877              	.LVL210:
 1878              	.L103:
1276:Middlewares/Third_Party/SEGGER/RTT/SEGGER_RTT.c ****     WrOff = 0;
1277:Middlewares/Third_Party/SEGGER/RTT/SEGGER_RTT.c ****   }
1278:Middlewares/Third_Party/SEGGER/RTT/SEGGER_RTT.c ****   //
1279:Middlewares/Third_Party/SEGGER/RTT/SEGGER_RTT.c ****   // Output byte if free space is available
1280:Middlewares/Third_Party/SEGGER/RTT/SEGGER_RTT.c ****   //
1281:Middlewares/Third_Party/SEGGER/RTT/SEGGER_RTT.c ****   if (WrOff != pRing->RdOff) {
 1879              		.loc 1 1281 3 is_stmt 1 view .LVU567
 1880              		.loc 1 1281 21 is_stmt 0 view .LVU568
 1881 001a 00EB400C 		add	ip, r0, r0, lsl #1
 1882 001e 0F4B     		ldr	r3, .L109
 1883 0020 03EBCC03 		add	r3, r3, ip, lsl #3
 1884 0024 9B6A     		ldr	r3, [r3, #40]
 1885              		.loc 1 1281 6 view .LVU569
 1886 0026 9342     		cmp	r3, r2
 1887 0028 15D0     		beq	.L106
1282:Middlewares/Third_Party/SEGGER/RTT/SEGGER_RTT.c ****     pDst = (pRing->pBuffer + pRing->WrOff) + SEGGER_RTT_UNCACHED_OFF;
 1888              		.loc 1 1282 5 is_stmt 1 view .LVU570
 1889              		.loc 1 1282 18 is_stmt 0 view .LVU571
 1890 002a DFF830C0 		ldr	ip, .L109
 1891 002e 431C     		adds	r3, r0, #1
 1892 0030 03EB4303 		add	r3, r3, r3, lsl #1
 1893 0034 0CEBC303 		add	r3, ip, r3, lsl #3
 1894 0038 5B68     		ldr	r3, [r3, #4]
 1895              	.LVL211:
1283:Middlewares/Third_Party/SEGGER/RTT/SEGGER_RTT.c ****     *pDst = c;
 1896              		.loc 1 1283 5 is_stmt 1 view .LVU572
 1897              		.loc 1 1283 11 is_stmt 0 view .LVU573
ARM GAS  C:\Users\Administrator\AppData\Local\Temp\ccUGyMKj.s 			page 61


 1898 003a 03F80E10 		strb	r1, [r3, lr]
1284:Middlewares/Third_Party/SEGGER/RTT/SEGGER_RTT.c ****     RTT__DMB();                     // Force data write to be complete before writing the <WrOff>, 
 1899              		.loc 1 1284 5 is_stmt 1 view .LVU574
 1900              		.syntax unified
 1901              	@ 1284 "Middlewares/Third_Party/SEGGER/RTT/SEGGER_RTT.c" 1
 1902 003e BFF35F8F 		dmb
 1903              	
 1904              	@ 0 "" 2
 1905              		.loc 1 1284 15 view .LVU575
1285:Middlewares/Third_Party/SEGGER/RTT/SEGGER_RTT.c ****     pRing->WrOff = WrOff;
 1906              		.loc 1 1285 5 view .LVU576
 1907              		.loc 1 1285 18 is_stmt 0 view .LVU577
 1908              		.thumb
 1909              		.syntax unified
 1910 0042 00EB4000 		add	r0, r0, r0, lsl #1
 1911              	.LVL212:
 1912              		.loc 1 1285 18 view .LVU578
 1913 0046 0CEBC00C 		add	ip, ip, r0, lsl #3
 1914 004a CCF82420 		str	r2, [ip, #36]
1286:Middlewares/Third_Party/SEGGER/RTT/SEGGER_RTT.c ****     Status = 1;
 1915              		.loc 1 1286 5 is_stmt 1 view .LVU579
 1916              	.LVL213:
 1917              		.loc 1 1286 12 is_stmt 0 view .LVU580
 1918 004e 0120     		movs	r0, #1
 1919              	.LVL214:
 1920              	.L102:
1287:Middlewares/Third_Party/SEGGER/RTT/SEGGER_RTT.c ****   } else {
1288:Middlewares/Third_Party/SEGGER/RTT/SEGGER_RTT.c ****     Status = 0;
1289:Middlewares/Third_Party/SEGGER/RTT/SEGGER_RTT.c ****   }
1290:Middlewares/Third_Party/SEGGER/RTT/SEGGER_RTT.c ****   //
1291:Middlewares/Third_Party/SEGGER/RTT/SEGGER_RTT.c ****   return Status;
1292:Middlewares/Third_Party/SEGGER/RTT/SEGGER_RTT.c **** }
 1921              		.loc 1 1292 1 view .LVU581
 1922 0050 00BD     		pop	{pc}
 1923              	.LVL215:
 1924              	.L108:
1276:Middlewares/Third_Party/SEGGER/RTT/SEGGER_RTT.c ****   }
 1925              		.loc 1 1276 11 view .LVU582
 1926 0052 0022     		movs	r2, #0
 1927              	.LVL216:
1276:Middlewares/Third_Party/SEGGER/RTT/SEGGER_RTT.c ****   }
 1928              		.loc 1 1276 11 view .LVU583
 1929 0054 E1E7     		b	.L103
 1930              	.LVL217:
 1931              	.L106:
1288:Middlewares/Third_Party/SEGGER/RTT/SEGGER_RTT.c ****   }
 1932              		.loc 1 1288 12 view .LVU584
 1933 0056 0020     		movs	r0, #0
 1934              	.LVL218:
1291:Middlewares/Third_Party/SEGGER/RTT/SEGGER_RTT.c **** }
 1935              		.loc 1 1291 3 is_stmt 1 view .LVU585
1291:Middlewares/Third_Party/SEGGER/RTT/SEGGER_RTT.c **** }
 1936              		.loc 1 1291 10 is_stmt 0 view .LVU586
 1937 0058 FAE7     		b	.L102
 1938              	.L110:
 1939 005a 00BF     		.align	2
 1940              	.L109:
ARM GAS  C:\Users\Administrator\AppData\Local\Temp\ccUGyMKj.s 			page 62


 1941 005c 00000000 		.word	_SEGGER_RTT
 1942              		.cfi_endproc
 1943              	.LFE15:
 1945              		.section	.text.SEGGER_RTT_PutCharSkip,"ax",%progbits
 1946              		.align	1
 1947              		.global	SEGGER_RTT_PutCharSkip
 1948              		.syntax unified
 1949              		.thumb
 1950              		.thumb_func
 1952              	SEGGER_RTT_PutCharSkip:
 1953              	.LVL219:
 1954              	.LFB16:
1293:Middlewares/Third_Party/SEGGER/RTT/SEGGER_RTT.c **** 
1294:Middlewares/Third_Party/SEGGER/RTT/SEGGER_RTT.c **** /*********************************************************************
1295:Middlewares/Third_Party/SEGGER/RTT/SEGGER_RTT.c **** *
1296:Middlewares/Third_Party/SEGGER/RTT/SEGGER_RTT.c **** *       SEGGER_RTT_PutCharSkip
1297:Middlewares/Third_Party/SEGGER/RTT/SEGGER_RTT.c **** *
1298:Middlewares/Third_Party/SEGGER/RTT/SEGGER_RTT.c **** *  Function description
1299:Middlewares/Third_Party/SEGGER/RTT/SEGGER_RTT.c **** *    Stores a single character/byte in SEGGER RTT buffer.
1300:Middlewares/Third_Party/SEGGER/RTT/SEGGER_RTT.c **** *
1301:Middlewares/Third_Party/SEGGER/RTT/SEGGER_RTT.c **** *  Parameters
1302:Middlewares/Third_Party/SEGGER/RTT/SEGGER_RTT.c **** *    BufferIndex  Index of "Up"-buffer to be used (e.g. 0 for "Terminal").
1303:Middlewares/Third_Party/SEGGER/RTT/SEGGER_RTT.c **** *    c            Byte to be stored.
1304:Middlewares/Third_Party/SEGGER/RTT/SEGGER_RTT.c **** *
1305:Middlewares/Third_Party/SEGGER/RTT/SEGGER_RTT.c **** *  Return value
1306:Middlewares/Third_Party/SEGGER/RTT/SEGGER_RTT.c **** *    Number of bytes which have been stored in the "Up"-buffer.
1307:Middlewares/Third_Party/SEGGER/RTT/SEGGER_RTT.c **** *
1308:Middlewares/Third_Party/SEGGER/RTT/SEGGER_RTT.c **** *  Notes
1309:Middlewares/Third_Party/SEGGER/RTT/SEGGER_RTT.c **** *    (1) If there is not enough space in the "Up"-buffer, the character is dropped.
1310:Middlewares/Third_Party/SEGGER/RTT/SEGGER_RTT.c **** */
1311:Middlewares/Third_Party/SEGGER/RTT/SEGGER_RTT.c **** 
1312:Middlewares/Third_Party/SEGGER/RTT/SEGGER_RTT.c **** unsigned SEGGER_RTT_PutCharSkip(unsigned BufferIndex, char c) {
 1955              		.loc 1 1312 63 is_stmt 1 view -0
 1956              		.cfi_startproc
 1957              		@ args = 0, pretend = 0, frame = 0
 1958              		@ frame_needed = 0, uses_anonymous_args = 0
 1959              		.loc 1 1312 63 is_stmt 0 view .LVU588
 1960 0000 38B5     		push	{r3, r4, r5, lr}
 1961              		.cfi_def_cfa_offset 16
 1962              		.cfi_offset 3, -16
 1963              		.cfi_offset 4, -12
 1964              		.cfi_offset 5, -8
 1965              		.cfi_offset 14, -4
 1966 0002 0446     		mov	r4, r0
 1967 0004 0D46     		mov	r5, r1
1313:Middlewares/Third_Party/SEGGER/RTT/SEGGER_RTT.c ****   SEGGER_RTT_BUFFER_UP* pRing;
 1968              		.loc 1 1313 3 is_stmt 1 view .LVU589
1314:Middlewares/Third_Party/SEGGER/RTT/SEGGER_RTT.c ****   unsigned              WrOff;
 1969              		.loc 1 1314 3 view .LVU590
1315:Middlewares/Third_Party/SEGGER/RTT/SEGGER_RTT.c ****   unsigned              Status;
 1970              		.loc 1 1315 3 view .LVU591
1316:Middlewares/Third_Party/SEGGER/RTT/SEGGER_RTT.c ****   volatile char*        pDst;
 1971              		.loc 1 1316 3 view .LVU592
 1972              	.LBB14:
1317:Middlewares/Third_Party/SEGGER/RTT/SEGGER_RTT.c ****   //
1318:Middlewares/Third_Party/SEGGER/RTT/SEGGER_RTT.c ****   // Prepare
1319:Middlewares/Third_Party/SEGGER/RTT/SEGGER_RTT.c ****   //
ARM GAS  C:\Users\Administrator\AppData\Local\Temp\ccUGyMKj.s 			page 63


1320:Middlewares/Third_Party/SEGGER/RTT/SEGGER_RTT.c ****   INIT();
 1973              		.loc 1 1320 3 view .LVU593
 1974              		.loc 1 1320 3 view .LVU594
 1975              	.LVL220:
 1976              		.loc 1 1320 3 view .LVU595
 1977              		.loc 1 1320 3 view .LVU596
 1978 0006 1C4B     		ldr	r3, .L120
 1979 0008 1B78     		ldrb	r3, [r3]	@ zero_extendqisi2
 1980 000a 6BB3     		cbz	r3, .L118
 1981              	.LVL221:
 1982              	.L112:
 1983              		.loc 1 1320 3 view .LVU597
 1984              	.LBE14:
 1985              		.loc 1 1320 9 view .LVU598
 1986              	.LBB15:
1321:Middlewares/Third_Party/SEGGER/RTT/SEGGER_RTT.c ****   SEGGER_RTT_LOCK();
 1987              		.loc 1 1321 3 view .LVU599
 1988              		.loc 1 1321 3 view .LVU600
 1989              		.syntax unified
 1990              	@ 1321 "Middlewares/Third_Party/SEGGER/RTT/SEGGER_RTT.c" 1
 1991 000c EFF31182 		mrs   r2, basepri  
 1992 0010 4FF02001 		mov   r1, #32       
 1993 0014 81F31188 		msr   basepri, r1  
 1994              		
 1995              	@ 0 "" 2
 1996              	.LVL222:
 1997              		.loc 1 1321 20 view .LVU601
1322:Middlewares/Third_Party/SEGGER/RTT/SEGGER_RTT.c ****   //
1323:Middlewares/Third_Party/SEGGER/RTT/SEGGER_RTT.c ****   // Get "to-host" ring buffer.
1324:Middlewares/Third_Party/SEGGER/RTT/SEGGER_RTT.c ****   //
1325:Middlewares/Third_Party/SEGGER/RTT/SEGGER_RTT.c ****   pRing = (SEGGER_RTT_BUFFER_UP*)((char*)&_SEGGER_RTT.aUp[BufferIndex] + SEGGER_RTT_UNCACHED_OFF); 
 1998              		.loc 1 1325 3 view .LVU602
1326:Middlewares/Third_Party/SEGGER/RTT/SEGGER_RTT.c ****   //
1327:Middlewares/Third_Party/SEGGER/RTT/SEGGER_RTT.c ****   // Get write position and handle wrap-around if necessary
1328:Middlewares/Third_Party/SEGGER/RTT/SEGGER_RTT.c ****   //
1329:Middlewares/Third_Party/SEGGER/RTT/SEGGER_RTT.c ****   WrOff = pRing->WrOff + 1;
 1999              		.loc 1 1329 3 view .LVU603
 2000              		.loc 1 1329 16 is_stmt 0 view .LVU604
 2001              		.thumb
 2002              		.syntax unified
 2003 0018 04EB4401 		add	r1, r4, r4, lsl #1
 2004 001c 164B     		ldr	r3, .L120
 2005 001e 03EBC103 		add	r3, r3, r1, lsl #3
 2006 0022 D3F824C0 		ldr	ip, [r3, #36]
 2007              		.loc 1 1329 9 view .LVU605
 2008 0026 0CF10101 		add	r1, ip, #1
 2009              	.LVL223:
1330:Middlewares/Third_Party/SEGGER/RTT/SEGGER_RTT.c ****   if (WrOff == pRing->SizeOfBuffer) {
 2010              		.loc 1 1330 3 is_stmt 1 view .LVU606
 2011              		.loc 1 1330 21 is_stmt 0 view .LVU607
 2012 002a 1B6A     		ldr	r3, [r3, #32]
 2013              		.loc 1 1330 6 view .LVU608
 2014 002c 8B42     		cmp	r3, r1
 2015 002e 1ED0     		beq	.L119
 2016              	.LVL224:
 2017              	.L113:
1331:Middlewares/Third_Party/SEGGER/RTT/SEGGER_RTT.c ****     WrOff = 0;
ARM GAS  C:\Users\Administrator\AppData\Local\Temp\ccUGyMKj.s 			page 64


1332:Middlewares/Third_Party/SEGGER/RTT/SEGGER_RTT.c ****   }
1333:Middlewares/Third_Party/SEGGER/RTT/SEGGER_RTT.c ****   //
1334:Middlewares/Third_Party/SEGGER/RTT/SEGGER_RTT.c ****   // Output byte if free space is available
1335:Middlewares/Third_Party/SEGGER/RTT/SEGGER_RTT.c ****   //
1336:Middlewares/Third_Party/SEGGER/RTT/SEGGER_RTT.c ****   if (WrOff != pRing->RdOff) {
 2018              		.loc 1 1336 3 is_stmt 1 view .LVU609
 2019              		.loc 1 1336 21 is_stmt 0 view .LVU610
 2020 0030 04EB4400 		add	r0, r4, r4, lsl #1
 2021 0034 104B     		ldr	r3, .L120
 2022 0036 03EBC003 		add	r3, r3, r0, lsl #3
 2023 003a 9B6A     		ldr	r3, [r3, #40]
 2024              		.loc 1 1336 6 view .LVU611
 2025 003c 8B42     		cmp	r3, r1
 2026 003e 18D0     		beq	.L116
1337:Middlewares/Third_Party/SEGGER/RTT/SEGGER_RTT.c ****     pDst  = (pRing->pBuffer + pRing->WrOff) + SEGGER_RTT_UNCACHED_OFF;
 2027              		.loc 1 1337 5 is_stmt 1 view .LVU612
 2028              		.loc 1 1337 19 is_stmt 0 view .LVU613
 2029 0040 0D48     		ldr	r0, .L120
 2030 0042 631C     		adds	r3, r4, #1
 2031 0044 03EB4303 		add	r3, r3, r3, lsl #1
 2032 0048 00EBC303 		add	r3, r0, r3, lsl #3
 2033 004c 5B68     		ldr	r3, [r3, #4]
 2034              	.LVL225:
1338:Middlewares/Third_Party/SEGGER/RTT/SEGGER_RTT.c ****     *pDst = c;
 2035              		.loc 1 1338 5 is_stmt 1 view .LVU614
 2036              		.loc 1 1338 11 is_stmt 0 view .LVU615
 2037 004e 03F80C50 		strb	r5, [r3, ip]
1339:Middlewares/Third_Party/SEGGER/RTT/SEGGER_RTT.c ****     RTT__DMB();                     // Force data write to be complete before writing the <WrOff>, 
 2038              		.loc 1 1339 5 is_stmt 1 view .LVU616
 2039              		.syntax unified
 2040              	@ 1339 "Middlewares/Third_Party/SEGGER/RTT/SEGGER_RTT.c" 1
 2041 0052 BFF35F8F 		dmb
 2042              	
 2043              	@ 0 "" 2
 2044              		.loc 1 1339 15 view .LVU617
1340:Middlewares/Third_Party/SEGGER/RTT/SEGGER_RTT.c ****     pRing->WrOff = WrOff;
 2045              		.loc 1 1340 5 view .LVU618
 2046              		.loc 1 1340 18 is_stmt 0 view .LVU619
 2047              		.thumb
 2048              		.syntax unified
 2049 0056 04EB4404 		add	r4, r4, r4, lsl #1
 2050              	.LVL226:
 2051              		.loc 1 1340 18 view .LVU620
 2052 005a 00EBC400 		add	r0, r0, r4, lsl #3
 2053 005e 4162     		str	r1, [r0, #36]
1341:Middlewares/Third_Party/SEGGER/RTT/SEGGER_RTT.c ****     Status = 1;
 2054              		.loc 1 1341 5 is_stmt 1 view .LVU621
 2055              	.LVL227:
 2056              		.loc 1 1341 12 is_stmt 0 view .LVU622
 2057 0060 0120     		movs	r0, #1
 2058              	.LVL228:
 2059              	.L114:
1342:Middlewares/Third_Party/SEGGER/RTT/SEGGER_RTT.c ****   } else {
1343:Middlewares/Third_Party/SEGGER/RTT/SEGGER_RTT.c ****     Status = 0;
1344:Middlewares/Third_Party/SEGGER/RTT/SEGGER_RTT.c ****   }
1345:Middlewares/Third_Party/SEGGER/RTT/SEGGER_RTT.c ****   //
1346:Middlewares/Third_Party/SEGGER/RTT/SEGGER_RTT.c ****   // Finish up.
ARM GAS  C:\Users\Administrator\AppData\Local\Temp\ccUGyMKj.s 			page 65


1347:Middlewares/Third_Party/SEGGER/RTT/SEGGER_RTT.c ****   //
1348:Middlewares/Third_Party/SEGGER/RTT/SEGGER_RTT.c ****   SEGGER_RTT_UNLOCK();
 2060              		.loc 1 1348 3 is_stmt 1 view .LVU623
 2061              		.syntax unified
 2062              	@ 1348 "Middlewares/Third_Party/SEGGER/RTT/SEGGER_RTT.c" 1
 2063 0062 82F31188 		msr   basepri, r2  
 2064              		
 2065              	@ 0 "" 2
 2066              		.thumb
 2067              		.syntax unified
 2068              	.LBE15:
 2069              		.loc 1 1348 22 view .LVU624
1349:Middlewares/Third_Party/SEGGER/RTT/SEGGER_RTT.c ****   //
1350:Middlewares/Third_Party/SEGGER/RTT/SEGGER_RTT.c ****   return Status;
 2070              		.loc 1 1350 3 view .LVU625
1351:Middlewares/Third_Party/SEGGER/RTT/SEGGER_RTT.c **** }
 2071              		.loc 1 1351 1 is_stmt 0 view .LVU626
 2072 0066 38BD     		pop	{r3, r4, r5, pc}
 2073              	.LVL229:
 2074              	.L118:
 2075              	.LBB16:
1320:Middlewares/Third_Party/SEGGER/RTT/SEGGER_RTT.c ****   SEGGER_RTT_LOCK();
 2076              		.loc 1 1320 3 is_stmt 1 discriminator 1 view .LVU627
 2077 0068 FFF7FEFF 		bl	_DoInit
 2078              	.LVL230:
1320:Middlewares/Third_Party/SEGGER/RTT/SEGGER_RTT.c ****   SEGGER_RTT_LOCK();
 2079              		.loc 1 1320 3 is_stmt 0 discriminator 1 view .LVU628
 2080 006c CEE7     		b	.L112
 2081              	.LVL231:
 2082              	.L119:
1320:Middlewares/Third_Party/SEGGER/RTT/SEGGER_RTT.c ****   SEGGER_RTT_LOCK();
 2083              		.loc 1 1320 3 discriminator 1 view .LVU629
 2084              	.LBE16:
 2085              	.LBB17:
1331:Middlewares/Third_Party/SEGGER/RTT/SEGGER_RTT.c ****   }
 2086              		.loc 1 1331 11 view .LVU630
 2087 006e 0021     		movs	r1, #0
 2088              	.LVL232:
1331:Middlewares/Third_Party/SEGGER/RTT/SEGGER_RTT.c ****   }
 2089              		.loc 1 1331 11 view .LVU631
 2090 0070 DEE7     		b	.L113
 2091              	.LVL233:
 2092              	.L116:
1343:Middlewares/Third_Party/SEGGER/RTT/SEGGER_RTT.c ****   }
 2093              		.loc 1 1343 12 view .LVU632
 2094 0072 0020     		movs	r0, #0
 2095 0074 F5E7     		b	.L114
 2096              	.L121:
 2097 0076 00BF     		.align	2
 2098              	.L120:
 2099 0078 00000000 		.word	_SEGGER_RTT
 2100              	.LBE17:
 2101              		.cfi_endproc
 2102              	.LFE16:
 2104              		.section	.text.SEGGER_RTT_PutChar,"ax",%progbits
 2105              		.align	1
 2106              		.global	SEGGER_RTT_PutChar
ARM GAS  C:\Users\Administrator\AppData\Local\Temp\ccUGyMKj.s 			page 66


 2107              		.syntax unified
 2108              		.thumb
 2109              		.thumb_func
 2111              	SEGGER_RTT_PutChar:
 2112              	.LVL234:
 2113              	.LFB17:
1352:Middlewares/Third_Party/SEGGER/RTT/SEGGER_RTT.c **** 
1353:Middlewares/Third_Party/SEGGER/RTT/SEGGER_RTT.c ****  /*********************************************************************
1354:Middlewares/Third_Party/SEGGER/RTT/SEGGER_RTT.c **** *
1355:Middlewares/Third_Party/SEGGER/RTT/SEGGER_RTT.c **** *       SEGGER_RTT_PutChar
1356:Middlewares/Third_Party/SEGGER/RTT/SEGGER_RTT.c **** *
1357:Middlewares/Third_Party/SEGGER/RTT/SEGGER_RTT.c **** *  Function description
1358:Middlewares/Third_Party/SEGGER/RTT/SEGGER_RTT.c **** *    Stores a single character/byte in SEGGER RTT buffer.
1359:Middlewares/Third_Party/SEGGER/RTT/SEGGER_RTT.c **** *
1360:Middlewares/Third_Party/SEGGER/RTT/SEGGER_RTT.c **** *  Parameters
1361:Middlewares/Third_Party/SEGGER/RTT/SEGGER_RTT.c **** *    BufferIndex  Index of "Up"-buffer to be used (e.g. 0 for "Terminal").
1362:Middlewares/Third_Party/SEGGER/RTT/SEGGER_RTT.c **** *    c            Byte to be stored.
1363:Middlewares/Third_Party/SEGGER/RTT/SEGGER_RTT.c **** *
1364:Middlewares/Third_Party/SEGGER/RTT/SEGGER_RTT.c **** *  Return value
1365:Middlewares/Third_Party/SEGGER/RTT/SEGGER_RTT.c **** *    Number of bytes which have been stored in the "Up"-buffer.
1366:Middlewares/Third_Party/SEGGER/RTT/SEGGER_RTT.c **** *
1367:Middlewares/Third_Party/SEGGER/RTT/SEGGER_RTT.c **** *  Notes
1368:Middlewares/Third_Party/SEGGER/RTT/SEGGER_RTT.c **** *    (1) Data is stored according to buffer flags.
1369:Middlewares/Third_Party/SEGGER/RTT/SEGGER_RTT.c **** */
1370:Middlewares/Third_Party/SEGGER/RTT/SEGGER_RTT.c **** 
1371:Middlewares/Third_Party/SEGGER/RTT/SEGGER_RTT.c **** unsigned SEGGER_RTT_PutChar(unsigned BufferIndex, char c) {
 2114              		.loc 1 1371 59 is_stmt 1 view -0
 2115              		.cfi_startproc
 2116              		@ args = 0, pretend = 0, frame = 0
 2117              		@ frame_needed = 0, uses_anonymous_args = 0
 2118              		.loc 1 1371 59 is_stmt 0 view .LVU634
 2119 0000 38B5     		push	{r3, r4, r5, lr}
 2120              		.cfi_def_cfa_offset 16
 2121              		.cfi_offset 3, -16
 2122              		.cfi_offset 4, -12
 2123              		.cfi_offset 5, -8
 2124              		.cfi_offset 14, -4
 2125 0002 0446     		mov	r4, r0
 2126 0004 0D46     		mov	r5, r1
1372:Middlewares/Third_Party/SEGGER/RTT/SEGGER_RTT.c ****   SEGGER_RTT_BUFFER_UP* pRing;
 2127              		.loc 1 1372 3 is_stmt 1 view .LVU635
1373:Middlewares/Third_Party/SEGGER/RTT/SEGGER_RTT.c ****   unsigned              WrOff;
 2128              		.loc 1 1373 3 view .LVU636
1374:Middlewares/Third_Party/SEGGER/RTT/SEGGER_RTT.c ****   unsigned              Status;
 2129              		.loc 1 1374 3 view .LVU637
1375:Middlewares/Third_Party/SEGGER/RTT/SEGGER_RTT.c ****   volatile char*        pDst;
 2130              		.loc 1 1375 3 view .LVU638
 2131              	.LBB18:
1376:Middlewares/Third_Party/SEGGER/RTT/SEGGER_RTT.c ****   //
1377:Middlewares/Third_Party/SEGGER/RTT/SEGGER_RTT.c ****   // Prepare
1378:Middlewares/Third_Party/SEGGER/RTT/SEGGER_RTT.c ****   //
1379:Middlewares/Third_Party/SEGGER/RTT/SEGGER_RTT.c ****   INIT();
 2132              		.loc 1 1379 3 view .LVU639
 2133              		.loc 1 1379 3 view .LVU640
 2134              	.LVL235:
 2135              		.loc 1 1379 3 view .LVU641
 2136              		.loc 1 1379 3 view .LVU642
ARM GAS  C:\Users\Administrator\AppData\Local\Temp\ccUGyMKj.s 			page 67


 2137 0006 254B     		ldr	r3, .L133
 2138 0008 1B78     		ldrb	r3, [r3]	@ zero_extendqisi2
 2139 000a 002B     		cmp	r3, #0
 2140 000c 36D0     		beq	.L131
 2141              	.LVL236:
 2142              	.L123:
 2143              		.loc 1 1379 3 view .LVU643
 2144              	.LBE18:
 2145              		.loc 1 1379 9 view .LVU644
 2146              	.LBB19:
1380:Middlewares/Third_Party/SEGGER/RTT/SEGGER_RTT.c ****   SEGGER_RTT_LOCK();
 2147              		.loc 1 1380 3 view .LVU645
 2148              		.loc 1 1380 3 view .LVU646
 2149              		.syntax unified
 2150              	@ 1380 "Middlewares/Third_Party/SEGGER/RTT/SEGGER_RTT.c" 1
 2151 000e EFF31183 		mrs   r3, basepri  
 2152 0012 4FF02001 		mov   r1, #32       
 2153 0016 81F31188 		msr   basepri, r1  
 2154              		
 2155              	@ 0 "" 2
 2156              		.thumb
 2157              		.syntax unified
 2158 001a 1946     		mov	r1, r3
 2159              	.LVL237:
 2160              		.loc 1 1380 20 view .LVU647
1381:Middlewares/Third_Party/SEGGER/RTT/SEGGER_RTT.c ****   //
1382:Middlewares/Third_Party/SEGGER/RTT/SEGGER_RTT.c ****   // Get "to-host" ring buffer.
1383:Middlewares/Third_Party/SEGGER/RTT/SEGGER_RTT.c ****   //
1384:Middlewares/Third_Party/SEGGER/RTT/SEGGER_RTT.c ****   pRing = (SEGGER_RTT_BUFFER_UP*)((char*)&_SEGGER_RTT.aUp[BufferIndex] + SEGGER_RTT_UNCACHED_OFF); 
 2161              		.loc 1 1384 3 view .LVU648
1385:Middlewares/Third_Party/SEGGER/RTT/SEGGER_RTT.c ****   //
1386:Middlewares/Third_Party/SEGGER/RTT/SEGGER_RTT.c ****   // Get write position and handle wrap-around if necessary
1387:Middlewares/Third_Party/SEGGER/RTT/SEGGER_RTT.c ****   //
1388:Middlewares/Third_Party/SEGGER/RTT/SEGGER_RTT.c ****   WrOff = pRing->WrOff + 1;
 2162              		.loc 1 1388 3 view .LVU649
 2163              		.loc 1 1388 16 is_stmt 0 view .LVU650
 2164 001c 04EB4402 		add	r2, r4, r4, lsl #1
 2165 0020 1E4B     		ldr	r3, .L133
 2166 0022 03EBC203 		add	r3, r3, r2, lsl #3
 2167 0026 D3F824C0 		ldr	ip, [r3, #36]
 2168              		.loc 1 1388 9 view .LVU651
 2169 002a 0CF10100 		add	r0, ip, #1
 2170              	.LVL238:
1389:Middlewares/Third_Party/SEGGER/RTT/SEGGER_RTT.c ****   if (WrOff == pRing->SizeOfBuffer) {
 2171              		.loc 1 1389 3 is_stmt 1 view .LVU652
 2172              		.loc 1 1389 21 is_stmt 0 view .LVU653
 2173 002e 1B6A     		ldr	r3, [r3, #32]
 2174              		.loc 1 1389 6 view .LVU654
 2175 0030 8342     		cmp	r3, r0
 2176 0032 26D0     		beq	.L132
 2177              	.LVL239:
 2178              	.L124:
1390:Middlewares/Third_Party/SEGGER/RTT/SEGGER_RTT.c ****     WrOff = 0;
1391:Middlewares/Third_Party/SEGGER/RTT/SEGGER_RTT.c ****   }
1392:Middlewares/Third_Party/SEGGER/RTT/SEGGER_RTT.c ****   //
1393:Middlewares/Third_Party/SEGGER/RTT/SEGGER_RTT.c ****   // Wait for free space if mode is set to blocking
1394:Middlewares/Third_Party/SEGGER/RTT/SEGGER_RTT.c ****   //
ARM GAS  C:\Users\Administrator\AppData\Local\Temp\ccUGyMKj.s 			page 68


1395:Middlewares/Third_Party/SEGGER/RTT/SEGGER_RTT.c ****   if (pRing->Flags == SEGGER_RTT_MODE_BLOCK_IF_FIFO_FULL) {
 2179              		.loc 1 1395 3 is_stmt 1 view .LVU655
 2180              		.loc 1 1395 12 is_stmt 0 view .LVU656
 2181 0034 04EB4402 		add	r2, r4, r4, lsl #1
 2182 0038 184B     		ldr	r3, .L133
 2183 003a 03EBC203 		add	r3, r3, r2, lsl #3
 2184 003e DB6A     		ldr	r3, [r3, #44]
 2185              		.loc 1 1395 6 view .LVU657
 2186 0040 022B     		cmp	r3, #2
 2187 0042 20D0     		beq	.L126
 2188              	.L125:
1396:Middlewares/Third_Party/SEGGER/RTT/SEGGER_RTT.c ****     while (WrOff == pRing->RdOff) {
1397:Middlewares/Third_Party/SEGGER/RTT/SEGGER_RTT.c ****       ;
1398:Middlewares/Third_Party/SEGGER/RTT/SEGGER_RTT.c ****     }
1399:Middlewares/Third_Party/SEGGER/RTT/SEGGER_RTT.c ****   }
1400:Middlewares/Third_Party/SEGGER/RTT/SEGGER_RTT.c ****   //
1401:Middlewares/Third_Party/SEGGER/RTT/SEGGER_RTT.c ****   // Output byte if free space is available
1402:Middlewares/Third_Party/SEGGER/RTT/SEGGER_RTT.c ****   //
1403:Middlewares/Third_Party/SEGGER/RTT/SEGGER_RTT.c ****   if (WrOff != pRing->RdOff) {
 2189              		.loc 1 1403 3 is_stmt 1 view .LVU658
 2190              		.loc 1 1403 21 is_stmt 0 view .LVU659
 2191 0044 04EB4402 		add	r2, r4, r4, lsl #1
 2192 0048 144B     		ldr	r3, .L133
 2193 004a 03EBC203 		add	r3, r3, r2, lsl #3
 2194 004e 9B6A     		ldr	r3, [r3, #40]
 2195              		.loc 1 1403 6 view .LVU660
 2196 0050 8342     		cmp	r3, r0
 2197 0052 21D0     		beq	.L129
1404:Middlewares/Third_Party/SEGGER/RTT/SEGGER_RTT.c ****     pDst  = (pRing->pBuffer + pRing->WrOff) + SEGGER_RTT_UNCACHED_OFF;
 2198              		.loc 1 1404 5 is_stmt 1 view .LVU661
 2199              		.loc 1 1404 19 is_stmt 0 view .LVU662
 2200 0054 114A     		ldr	r2, .L133
 2201 0056 631C     		adds	r3, r4, #1
 2202 0058 03EB4303 		add	r3, r3, r3, lsl #1
 2203 005c 02EBC303 		add	r3, r2, r3, lsl #3
 2204 0060 5B68     		ldr	r3, [r3, #4]
 2205              	.LVL240:
1405:Middlewares/Third_Party/SEGGER/RTT/SEGGER_RTT.c ****     *pDst = c;
 2206              		.loc 1 1405 5 is_stmt 1 view .LVU663
 2207              		.loc 1 1405 11 is_stmt 0 view .LVU664
 2208 0062 03F80C50 		strb	r5, [r3, ip]
1406:Middlewares/Third_Party/SEGGER/RTT/SEGGER_RTT.c ****     RTT__DMB();                     // Force data write to be complete before writing the <WrOff>, 
 2209              		.loc 1 1406 5 is_stmt 1 view .LVU665
 2210              		.syntax unified
 2211              	@ 1406 "Middlewares/Third_Party/SEGGER/RTT/SEGGER_RTT.c" 1
 2212 0066 BFF35F8F 		dmb
 2213              	
 2214              	@ 0 "" 2
 2215              		.loc 1 1406 15 view .LVU666
1407:Middlewares/Third_Party/SEGGER/RTT/SEGGER_RTT.c ****     pRing->WrOff = WrOff;
 2216              		.loc 1 1407 5 view .LVU667
 2217              		.loc 1 1407 18 is_stmt 0 view .LVU668
 2218              		.thumb
 2219              		.syntax unified
 2220 006a 04EB4404 		add	r4, r4, r4, lsl #1
 2221              	.LVL241:
 2222              		.loc 1 1407 18 view .LVU669
ARM GAS  C:\Users\Administrator\AppData\Local\Temp\ccUGyMKj.s 			page 69


 2223 006e 02EBC402 		add	r2, r2, r4, lsl #3
 2224 0072 5062     		str	r0, [r2, #36]
1408:Middlewares/Third_Party/SEGGER/RTT/SEGGER_RTT.c ****     Status = 1;
 2225              		.loc 1 1408 5 is_stmt 1 view .LVU670
 2226              	.LVL242:
 2227              		.loc 1 1408 12 is_stmt 0 view .LVU671
 2228 0074 0120     		movs	r0, #1
 2229              	.LVL243:
 2230              	.L127:
1409:Middlewares/Third_Party/SEGGER/RTT/SEGGER_RTT.c ****   } else {
1410:Middlewares/Third_Party/SEGGER/RTT/SEGGER_RTT.c ****     Status = 0;
1411:Middlewares/Third_Party/SEGGER/RTT/SEGGER_RTT.c ****   }
1412:Middlewares/Third_Party/SEGGER/RTT/SEGGER_RTT.c ****   //
1413:Middlewares/Third_Party/SEGGER/RTT/SEGGER_RTT.c ****   // Finish up.
1414:Middlewares/Third_Party/SEGGER/RTT/SEGGER_RTT.c ****   //
1415:Middlewares/Third_Party/SEGGER/RTT/SEGGER_RTT.c ****   SEGGER_RTT_UNLOCK();
 2231              		.loc 1 1415 3 is_stmt 1 view .LVU672
 2232              		.syntax unified
 2233              	@ 1415 "Middlewares/Third_Party/SEGGER/RTT/SEGGER_RTT.c" 1
 2234 0076 81F31188 		msr   basepri, r1  
 2235              		
 2236              	@ 0 "" 2
 2237              		.thumb
 2238              		.syntax unified
 2239              	.LBE19:
 2240              		.loc 1 1415 22 view .LVU673
1416:Middlewares/Third_Party/SEGGER/RTT/SEGGER_RTT.c ****   return Status;
 2241              		.loc 1 1416 3 view .LVU674
1417:Middlewares/Third_Party/SEGGER/RTT/SEGGER_RTT.c **** }
 2242              		.loc 1 1417 1 is_stmt 0 view .LVU675
 2243 007a 38BD     		pop	{r3, r4, r5, pc}
 2244              	.LVL244:
 2245              	.L131:
 2246              	.LBB20:
1379:Middlewares/Third_Party/SEGGER/RTT/SEGGER_RTT.c ****   SEGGER_RTT_LOCK();
 2247              		.loc 1 1379 3 is_stmt 1 discriminator 1 view .LVU676
 2248 007c FFF7FEFF 		bl	_DoInit
 2249              	.LVL245:
1379:Middlewares/Third_Party/SEGGER/RTT/SEGGER_RTT.c ****   SEGGER_RTT_LOCK();
 2250              		.loc 1 1379 3 is_stmt 0 discriminator 1 view .LVU677
 2251 0080 C5E7     		b	.L123
 2252              	.LVL246:
 2253              	.L132:
1379:Middlewares/Third_Party/SEGGER/RTT/SEGGER_RTT.c ****   SEGGER_RTT_LOCK();
 2254              		.loc 1 1379 3 discriminator 1 view .LVU678
 2255              	.LBE20:
 2256              	.LBB21:
1390:Middlewares/Third_Party/SEGGER/RTT/SEGGER_RTT.c ****   }
 2257              		.loc 1 1390 11 view .LVU679
 2258 0082 0020     		movs	r0, #0
 2259              	.LVL247:
1390:Middlewares/Third_Party/SEGGER/RTT/SEGGER_RTT.c ****   }
 2260              		.loc 1 1390 11 view .LVU680
 2261 0084 D6E7     		b	.L124
 2262              	.LVL248:
 2263              	.L126:
1397:Middlewares/Third_Party/SEGGER/RTT/SEGGER_RTT.c ****     }
ARM GAS  C:\Users\Administrator\AppData\Local\Temp\ccUGyMKj.s 			page 70


 2264              		.loc 1 1397 7 is_stmt 1 view .LVU681
1396:Middlewares/Third_Party/SEGGER/RTT/SEGGER_RTT.c ****       ;
 2265              		.loc 1 1396 18 discriminator 1 view .LVU682
1396:Middlewares/Third_Party/SEGGER/RTT/SEGGER_RTT.c ****       ;
 2266              		.loc 1 1396 26 is_stmt 0 discriminator 1 view .LVU683
 2267 0086 04EB4402 		add	r2, r4, r4, lsl #1
 2268 008a 044B     		ldr	r3, .L133
 2269 008c 03EBC203 		add	r3, r3, r2, lsl #3
 2270 0090 9B6A     		ldr	r3, [r3, #40]
1396:Middlewares/Third_Party/SEGGER/RTT/SEGGER_RTT.c ****       ;
 2271              		.loc 1 1396 18 discriminator 1 view .LVU684
 2272 0092 8342     		cmp	r3, r0
 2273 0094 F7D0     		beq	.L126
 2274 0096 D5E7     		b	.L125
 2275              	.L129:
1410:Middlewares/Third_Party/SEGGER/RTT/SEGGER_RTT.c ****   }
 2276              		.loc 1 1410 12 view .LVU685
 2277 0098 0020     		movs	r0, #0
 2278              	.LVL249:
1410:Middlewares/Third_Party/SEGGER/RTT/SEGGER_RTT.c ****   }
 2279              		.loc 1 1410 12 view .LVU686
 2280 009a ECE7     		b	.L127
 2281              	.L134:
 2282              		.align	2
 2283              	.L133:
 2284 009c 00000000 		.word	_SEGGER_RTT
 2285              	.LBE21:
 2286              		.cfi_endproc
 2287              	.LFE17:
 2289              		.section	.text.SEGGER_RTT_GetKey,"ax",%progbits
 2290              		.align	1
 2291              		.global	SEGGER_RTT_GetKey
 2292              		.syntax unified
 2293              		.thumb
 2294              		.thumb_func
 2296              	SEGGER_RTT_GetKey:
 2297              	.LFB18:
1418:Middlewares/Third_Party/SEGGER/RTT/SEGGER_RTT.c **** 
1419:Middlewares/Third_Party/SEGGER/RTT/SEGGER_RTT.c **** /*********************************************************************
1420:Middlewares/Third_Party/SEGGER/RTT/SEGGER_RTT.c **** *
1421:Middlewares/Third_Party/SEGGER/RTT/SEGGER_RTT.c **** *       SEGGER_RTT_GetKey
1422:Middlewares/Third_Party/SEGGER/RTT/SEGGER_RTT.c **** *
1423:Middlewares/Third_Party/SEGGER/RTT/SEGGER_RTT.c **** *  Function description
1424:Middlewares/Third_Party/SEGGER/RTT/SEGGER_RTT.c **** *    Reads one character from the SEGGER RTT buffer.
1425:Middlewares/Third_Party/SEGGER/RTT/SEGGER_RTT.c **** *    Host has previously stored data there.
1426:Middlewares/Third_Party/SEGGER/RTT/SEGGER_RTT.c **** *
1427:Middlewares/Third_Party/SEGGER/RTT/SEGGER_RTT.c **** *  Return value
1428:Middlewares/Third_Party/SEGGER/RTT/SEGGER_RTT.c **** *    <  0 -   No character available (buffer empty).
1429:Middlewares/Third_Party/SEGGER/RTT/SEGGER_RTT.c **** *    >= 0 -   Character which has been read. (Possible values: 0 - 255)
1430:Middlewares/Third_Party/SEGGER/RTT/SEGGER_RTT.c **** *
1431:Middlewares/Third_Party/SEGGER/RTT/SEGGER_RTT.c **** *  Notes
1432:Middlewares/Third_Party/SEGGER/RTT/SEGGER_RTT.c **** *    (1) This function is only specified for accesses to RTT buffer 0.
1433:Middlewares/Third_Party/SEGGER/RTT/SEGGER_RTT.c **** */
1434:Middlewares/Third_Party/SEGGER/RTT/SEGGER_RTT.c **** int SEGGER_RTT_GetKey(void) {
 2298              		.loc 1 1434 29 is_stmt 1 view -0
 2299              		.cfi_startproc
 2300              		@ args = 0, pretend = 0, frame = 8
ARM GAS  C:\Users\Administrator\AppData\Local\Temp\ccUGyMKj.s 			page 71


 2301              		@ frame_needed = 0, uses_anonymous_args = 0
 2302 0000 00B5     		push	{lr}
 2303              		.cfi_def_cfa_offset 4
 2304              		.cfi_offset 14, -4
 2305 0002 83B0     		sub	sp, sp, #12
 2306              		.cfi_def_cfa_offset 16
1435:Middlewares/Third_Party/SEGGER/RTT/SEGGER_RTT.c ****   char c;
 2307              		.loc 1 1435 3 view .LVU688
1436:Middlewares/Third_Party/SEGGER/RTT/SEGGER_RTT.c ****   int r;
 2308              		.loc 1 1436 3 view .LVU689
1437:Middlewares/Third_Party/SEGGER/RTT/SEGGER_RTT.c **** 
1438:Middlewares/Third_Party/SEGGER/RTT/SEGGER_RTT.c ****   r = (int)SEGGER_RTT_Read(0u, &c, 1u);
 2309              		.loc 1 1438 3 view .LVU690
 2310              		.loc 1 1438 12 is_stmt 0 view .LVU691
 2311 0004 0122     		movs	r2, #1
 2312 0006 0DF10701 		add	r1, sp, #7
 2313 000a 0020     		movs	r0, #0
 2314 000c FFF7FEFF 		bl	SEGGER_RTT_Read
 2315              	.LVL250:
1439:Middlewares/Third_Party/SEGGER/RTT/SEGGER_RTT.c ****   if (r == 1) {
 2316              		.loc 1 1439 3 is_stmt 1 view .LVU692
 2317              		.loc 1 1439 6 is_stmt 0 view .LVU693
 2318 0010 0128     		cmp	r0, #1
 2319 0012 03D1     		bne	.L137
1440:Middlewares/Third_Party/SEGGER/RTT/SEGGER_RTT.c ****     r = (int)(unsigned char)c;
 2320              		.loc 1 1440 5 is_stmt 1 view .LVU694
 2321              		.loc 1 1440 9 is_stmt 0 view .LVU695
 2322 0014 9DF80700 		ldrb	r0, [sp, #7]	@ zero_extendqisi2
 2323              	.LVL251:
 2324              	.L135:
1441:Middlewares/Third_Party/SEGGER/RTT/SEGGER_RTT.c ****   } else {
1442:Middlewares/Third_Party/SEGGER/RTT/SEGGER_RTT.c ****     r = -1;
1443:Middlewares/Third_Party/SEGGER/RTT/SEGGER_RTT.c ****   }
1444:Middlewares/Third_Party/SEGGER/RTT/SEGGER_RTT.c ****   return r;
1445:Middlewares/Third_Party/SEGGER/RTT/SEGGER_RTT.c **** }
 2325              		.loc 1 1445 1 view .LVU696
 2326 0018 03B0     		add	sp, sp, #12
 2327              		.cfi_remember_state
 2328              		.cfi_def_cfa_offset 4
 2329              		@ sp needed
 2330 001a 00BD     		pop	{pc}
 2331              	.LVL252:
 2332              	.L137:
 2333              		.cfi_restore_state
1442:Middlewares/Third_Party/SEGGER/RTT/SEGGER_RTT.c ****   }
 2334              		.loc 1 1442 7 view .LVU697
 2335 001c 4FF0FF30 		mov	r0, #-1
 2336              	.LVL253:
1444:Middlewares/Third_Party/SEGGER/RTT/SEGGER_RTT.c **** }
 2337              		.loc 1 1444 3 is_stmt 1 view .LVU698
1444:Middlewares/Third_Party/SEGGER/RTT/SEGGER_RTT.c **** }
 2338              		.loc 1 1444 10 is_stmt 0 view .LVU699
 2339 0020 FAE7     		b	.L135
 2340              		.cfi_endproc
 2341              	.LFE18:
 2343              		.section	.text.SEGGER_RTT_WaitKey,"ax",%progbits
 2344              		.align	1
ARM GAS  C:\Users\Administrator\AppData\Local\Temp\ccUGyMKj.s 			page 72


 2345              		.global	SEGGER_RTT_WaitKey
 2346              		.syntax unified
 2347              		.thumb
 2348              		.thumb_func
 2350              	SEGGER_RTT_WaitKey:
 2351              	.LFB19:
1446:Middlewares/Third_Party/SEGGER/RTT/SEGGER_RTT.c **** 
1447:Middlewares/Third_Party/SEGGER/RTT/SEGGER_RTT.c **** /*********************************************************************
1448:Middlewares/Third_Party/SEGGER/RTT/SEGGER_RTT.c **** *
1449:Middlewares/Third_Party/SEGGER/RTT/SEGGER_RTT.c **** *       SEGGER_RTT_WaitKey
1450:Middlewares/Third_Party/SEGGER/RTT/SEGGER_RTT.c **** *
1451:Middlewares/Third_Party/SEGGER/RTT/SEGGER_RTT.c **** *  Function description
1452:Middlewares/Third_Party/SEGGER/RTT/SEGGER_RTT.c **** *    Waits until at least one character is avaible in the SEGGER RTT buffer.
1453:Middlewares/Third_Party/SEGGER/RTT/SEGGER_RTT.c **** *    Once a character is available, it is read and this function returns.
1454:Middlewares/Third_Party/SEGGER/RTT/SEGGER_RTT.c **** *
1455:Middlewares/Third_Party/SEGGER/RTT/SEGGER_RTT.c **** *  Return value
1456:Middlewares/Third_Party/SEGGER/RTT/SEGGER_RTT.c **** *    >=0 -   Character which has been read.
1457:Middlewares/Third_Party/SEGGER/RTT/SEGGER_RTT.c **** *
1458:Middlewares/Third_Party/SEGGER/RTT/SEGGER_RTT.c **** *  Notes
1459:Middlewares/Third_Party/SEGGER/RTT/SEGGER_RTT.c **** *    (1) This function is only specified for accesses to RTT buffer 0
1460:Middlewares/Third_Party/SEGGER/RTT/SEGGER_RTT.c **** *    (2) This function is blocking if no character is present in RTT buffer
1461:Middlewares/Third_Party/SEGGER/RTT/SEGGER_RTT.c **** */
1462:Middlewares/Third_Party/SEGGER/RTT/SEGGER_RTT.c **** int SEGGER_RTT_WaitKey(void) {
 2352              		.loc 1 1462 30 is_stmt 1 view -0
 2353              		.cfi_startproc
 2354              		@ args = 0, pretend = 0, frame = 0
 2355              		@ frame_needed = 0, uses_anonymous_args = 0
 2356 0000 08B5     		push	{r3, lr}
 2357              		.cfi_def_cfa_offset 8
 2358              		.cfi_offset 3, -8
 2359              		.cfi_offset 14, -4
 2360              	.L140:
1463:Middlewares/Third_Party/SEGGER/RTT/SEGGER_RTT.c ****   int r;
 2361              		.loc 1 1463 3 view .LVU701
1464:Middlewares/Third_Party/SEGGER/RTT/SEGGER_RTT.c **** 
1465:Middlewares/Third_Party/SEGGER/RTT/SEGGER_RTT.c ****   do {
 2362              		.loc 1 1465 3 view .LVU702
1466:Middlewares/Third_Party/SEGGER/RTT/SEGGER_RTT.c ****     r = SEGGER_RTT_GetKey();
 2363              		.loc 1 1466 5 view .LVU703
 2364              		.loc 1 1466 9 is_stmt 0 view .LVU704
 2365 0002 FFF7FEFF 		bl	SEGGER_RTT_GetKey
 2366              	.LVL254:
1467:Middlewares/Third_Party/SEGGER/RTT/SEGGER_RTT.c ****   } while (r < 0);
 2367              		.loc 1 1467 14 is_stmt 1 discriminator 1 view .LVU705
 2368 0006 0028     		cmp	r0, #0
 2369              		.loc 1 1467 14 is_stmt 0 discriminator 1 view .LVU706
 2370 0008 FBDB     		blt	.L140
1468:Middlewares/Third_Party/SEGGER/RTT/SEGGER_RTT.c ****   return r;
 2371              		.loc 1 1468 3 is_stmt 1 view .LVU707
1469:Middlewares/Third_Party/SEGGER/RTT/SEGGER_RTT.c **** }
 2372              		.loc 1 1469 1 is_stmt 0 view .LVU708
 2373 000a 08BD     		pop	{r3, pc}
 2374              		.cfi_endproc
 2375              	.LFE19:
 2377              		.section	.text.SEGGER_RTT_HasKey,"ax",%progbits
 2378              		.align	1
 2379              		.global	SEGGER_RTT_HasKey
ARM GAS  C:\Users\Administrator\AppData\Local\Temp\ccUGyMKj.s 			page 73


 2380              		.syntax unified
 2381              		.thumb
 2382              		.thumb_func
 2384              	SEGGER_RTT_HasKey:
 2385              	.LFB20:
1470:Middlewares/Third_Party/SEGGER/RTT/SEGGER_RTT.c **** 
1471:Middlewares/Third_Party/SEGGER/RTT/SEGGER_RTT.c **** /*********************************************************************
1472:Middlewares/Third_Party/SEGGER/RTT/SEGGER_RTT.c **** *
1473:Middlewares/Third_Party/SEGGER/RTT/SEGGER_RTT.c **** *       SEGGER_RTT_HasKey
1474:Middlewares/Third_Party/SEGGER/RTT/SEGGER_RTT.c **** *
1475:Middlewares/Third_Party/SEGGER/RTT/SEGGER_RTT.c **** *  Function description
1476:Middlewares/Third_Party/SEGGER/RTT/SEGGER_RTT.c **** *    Checks if at least one character for reading is available in the SEGGER RTT buffer.
1477:Middlewares/Third_Party/SEGGER/RTT/SEGGER_RTT.c **** *
1478:Middlewares/Third_Party/SEGGER/RTT/SEGGER_RTT.c **** *  Return value
1479:Middlewares/Third_Party/SEGGER/RTT/SEGGER_RTT.c **** *    == 0 -     No characters are available to read.
1480:Middlewares/Third_Party/SEGGER/RTT/SEGGER_RTT.c **** *    == 1 -     At least one character is available.
1481:Middlewares/Third_Party/SEGGER/RTT/SEGGER_RTT.c **** *
1482:Middlewares/Third_Party/SEGGER/RTT/SEGGER_RTT.c **** *  Notes
1483:Middlewares/Third_Party/SEGGER/RTT/SEGGER_RTT.c **** *    (1) This function is only specified for accesses to RTT buffer 0
1484:Middlewares/Third_Party/SEGGER/RTT/SEGGER_RTT.c **** */
1485:Middlewares/Third_Party/SEGGER/RTT/SEGGER_RTT.c **** int SEGGER_RTT_HasKey(void) {
 2386              		.loc 1 1485 29 is_stmt 1 view -0
 2387              		.cfi_startproc
 2388              		@ args = 0, pretend = 0, frame = 0
 2389              		@ frame_needed = 0, uses_anonymous_args = 0
 2390 0000 08B5     		push	{r3, lr}
 2391              		.cfi_def_cfa_offset 8
 2392              		.cfi_offset 3, -8
 2393              		.cfi_offset 14, -4
1486:Middlewares/Third_Party/SEGGER/RTT/SEGGER_RTT.c ****   SEGGER_RTT_BUFFER_DOWN* pRing;
 2394              		.loc 1 1486 3 view .LVU710
1487:Middlewares/Third_Party/SEGGER/RTT/SEGGER_RTT.c ****   unsigned RdOff;
 2395              		.loc 1 1487 3 view .LVU711
1488:Middlewares/Third_Party/SEGGER/RTT/SEGGER_RTT.c ****   int r;
 2396              		.loc 1 1488 3 view .LVU712
 2397              	.LBB22:
1489:Middlewares/Third_Party/SEGGER/RTT/SEGGER_RTT.c **** 
1490:Middlewares/Third_Party/SEGGER/RTT/SEGGER_RTT.c ****   INIT();
 2398              		.loc 1 1490 3 view .LVU713
 2399              		.loc 1 1490 3 view .LVU714
 2400              	.LVL255:
 2401              		.loc 1 1490 3 view .LVU715
 2402              		.loc 1 1490 3 view .LVU716
 2403 0002 074B     		ldr	r3, .L148
 2404 0004 1B78     		ldrb	r3, [r3]	@ zero_extendqisi2
 2405 0006 33B1     		cbz	r3, .L147
 2406              	.L143:
 2407              		.loc 1 1490 3 view .LVU717
 2408              	.LBE22:
 2409              		.loc 1 1490 9 view .LVU718
1491:Middlewares/Third_Party/SEGGER/RTT/SEGGER_RTT.c ****   pRing = (SEGGER_RTT_BUFFER_DOWN*)((char*)&_SEGGER_RTT.aDown[0] + SEGGER_RTT_UNCACHED_OFF);  // Ac
 2410              		.loc 1 1491 3 view .LVU719
 2411              	.LVL256:
1492:Middlewares/Third_Party/SEGGER/RTT/SEGGER_RTT.c ****   RdOff = pRing->RdOff;
 2412              		.loc 1 1492 3 view .LVU720
 2413              		.loc 1 1492 9 is_stmt 0 view .LVU721
 2414 0008 054B     		ldr	r3, .L148
ARM GAS  C:\Users\Administrator\AppData\Local\Temp\ccUGyMKj.s 			page 74


 2415 000a 1A6F     		ldr	r2, [r3, #112]
 2416              	.LVL257:
1493:Middlewares/Third_Party/SEGGER/RTT/SEGGER_RTT.c ****   if (RdOff != pRing->WrOff) {
 2417              		.loc 1 1493 3 is_stmt 1 view .LVU722
 2418              		.loc 1 1493 21 is_stmt 0 view .LVU723
 2419 000c DB6E     		ldr	r3, [r3, #108]
 2420              		.loc 1 1493 6 view .LVU724
 2421 000e 9342     		cmp	r3, r2
 2422 0010 04D0     		beq	.L145
1494:Middlewares/Third_Party/SEGGER/RTT/SEGGER_RTT.c ****     r = 1;
 2423              		.loc 1 1494 7 view .LVU725
 2424 0012 0120     		movs	r0, #1
 2425              	.L142:
1495:Middlewares/Third_Party/SEGGER/RTT/SEGGER_RTT.c ****   } else {
1496:Middlewares/Third_Party/SEGGER/RTT/SEGGER_RTT.c ****     r = 0;
1497:Middlewares/Third_Party/SEGGER/RTT/SEGGER_RTT.c ****   }
1498:Middlewares/Third_Party/SEGGER/RTT/SEGGER_RTT.c ****   return r;
1499:Middlewares/Third_Party/SEGGER/RTT/SEGGER_RTT.c **** }
 2426              		.loc 1 1499 1 view .LVU726
 2427 0014 08BD     		pop	{r3, pc}
 2428              	.LVL258:
 2429              	.L147:
 2430              	.LBB23:
1490:Middlewares/Third_Party/SEGGER/RTT/SEGGER_RTT.c ****   pRing = (SEGGER_RTT_BUFFER_DOWN*)((char*)&_SEGGER_RTT.aDown[0] + SEGGER_RTT_UNCACHED_OFF);  // Ac
 2431              		.loc 1 1490 3 is_stmt 1 discriminator 1 view .LVU727
 2432 0016 FFF7FEFF 		bl	_DoInit
 2433              	.LVL259:
 2434 001a F5E7     		b	.L143
 2435              	.LVL260:
 2436              	.L145:
1490:Middlewares/Third_Party/SEGGER/RTT/SEGGER_RTT.c ****   pRing = (SEGGER_RTT_BUFFER_DOWN*)((char*)&_SEGGER_RTT.aDown[0] + SEGGER_RTT_UNCACHED_OFF);  // Ac
 2437              		.loc 1 1490 3 is_stmt 0 discriminator 1 view .LVU728
 2438              	.LBE23:
1496:Middlewares/Third_Party/SEGGER/RTT/SEGGER_RTT.c ****   }
 2439              		.loc 1 1496 7 view .LVU729
 2440 001c 0020     		movs	r0, #0
 2441              	.LVL261:
1498:Middlewares/Third_Party/SEGGER/RTT/SEGGER_RTT.c **** }
 2442              		.loc 1 1498 3 is_stmt 1 view .LVU730
1498:Middlewares/Third_Party/SEGGER/RTT/SEGGER_RTT.c **** }
 2443              		.loc 1 1498 10 is_stmt 0 view .LVU731
 2444 001e F9E7     		b	.L142
 2445              	.L149:
 2446              		.align	2
 2447              	.L148:
 2448 0020 00000000 		.word	_SEGGER_RTT
 2449              		.cfi_endproc
 2450              	.LFE20:
 2452              		.section	.text.SEGGER_RTT_HasData,"ax",%progbits
 2453              		.align	1
 2454              		.global	SEGGER_RTT_HasData
 2455              		.syntax unified
 2456              		.thumb
 2457              		.thumb_func
 2459              	SEGGER_RTT_HasData:
 2460              	.LVL262:
 2461              	.LFB21:
ARM GAS  C:\Users\Administrator\AppData\Local\Temp\ccUGyMKj.s 			page 75


1500:Middlewares/Third_Party/SEGGER/RTT/SEGGER_RTT.c **** 
1501:Middlewares/Third_Party/SEGGER/RTT/SEGGER_RTT.c **** /*********************************************************************
1502:Middlewares/Third_Party/SEGGER/RTT/SEGGER_RTT.c **** *
1503:Middlewares/Third_Party/SEGGER/RTT/SEGGER_RTT.c **** *       SEGGER_RTT_HasData
1504:Middlewares/Third_Party/SEGGER/RTT/SEGGER_RTT.c **** *
1505:Middlewares/Third_Party/SEGGER/RTT/SEGGER_RTT.c **** *  Function description
1506:Middlewares/Third_Party/SEGGER/RTT/SEGGER_RTT.c **** *    Check if there is data from the host in the given buffer.
1507:Middlewares/Third_Party/SEGGER/RTT/SEGGER_RTT.c **** *
1508:Middlewares/Third_Party/SEGGER/RTT/SEGGER_RTT.c **** *  Return value:
1509:Middlewares/Third_Party/SEGGER/RTT/SEGGER_RTT.c **** *  ==0:  No data
1510:Middlewares/Third_Party/SEGGER/RTT/SEGGER_RTT.c **** *  !=0:  Data in buffer
1511:Middlewares/Third_Party/SEGGER/RTT/SEGGER_RTT.c **** *
1512:Middlewares/Third_Party/SEGGER/RTT/SEGGER_RTT.c **** */
1513:Middlewares/Third_Party/SEGGER/RTT/SEGGER_RTT.c **** unsigned SEGGER_RTT_HasData(unsigned BufferIndex) {
 2462              		.loc 1 1513 51 is_stmt 1 view -0
 2463              		.cfi_startproc
 2464              		@ args = 0, pretend = 0, frame = 0
 2465              		@ frame_needed = 0, uses_anonymous_args = 0
 2466              		@ link register save eliminated.
1514:Middlewares/Third_Party/SEGGER/RTT/SEGGER_RTT.c ****   SEGGER_RTT_BUFFER_DOWN* pRing;
 2467              		.loc 1 1514 3 view .LVU733
1515:Middlewares/Third_Party/SEGGER/RTT/SEGGER_RTT.c ****   unsigned                v;
 2468              		.loc 1 1515 3 view .LVU734
1516:Middlewares/Third_Party/SEGGER/RTT/SEGGER_RTT.c **** 
1517:Middlewares/Third_Party/SEGGER/RTT/SEGGER_RTT.c ****   pRing = (SEGGER_RTT_BUFFER_DOWN*)((char*)&_SEGGER_RTT.aDown[BufferIndex] + SEGGER_RTT_UNCACHED_OF
 2469              		.loc 1 1517 3 view .LVU735
1518:Middlewares/Third_Party/SEGGER/RTT/SEGGER_RTT.c ****   v = pRing->WrOff;
 2470              		.loc 1 1518 3 view .LVU736
 2471              		.loc 1 1518 5 is_stmt 0 view .LVU737
 2472 0000 064B     		ldr	r3, .L151
 2473 0002 00EB4002 		add	r2, r0, r0, lsl #1
 2474 0006 03EBC202 		add	r2, r3, r2, lsl #3
 2475 000a D26E     		ldr	r2, [r2, #108]
 2476              	.LVL263:
1519:Middlewares/Third_Party/SEGGER/RTT/SEGGER_RTT.c ****   return v - pRing->RdOff;
 2477              		.loc 1 1519 3 is_stmt 1 view .LVU738
 2478              		.loc 1 1519 19 is_stmt 0 view .LVU739
 2479 000c 00EB4000 		add	r0, r0, r0, lsl #1
 2480              	.LVL264:
 2481              		.loc 1 1519 19 view .LVU740
 2482 0010 03EBC003 		add	r3, r3, r0, lsl #3
 2483 0014 186F     		ldr	r0, [r3, #112]
1520:Middlewares/Third_Party/SEGGER/RTT/SEGGER_RTT.c **** }
 2484              		.loc 1 1520 1 view .LVU741
 2485 0016 101A     		subs	r0, r2, r0
 2486 0018 7047     		bx	lr
 2487              	.L152:
 2488 001a 00BF     		.align	2
 2489              	.L151:
 2490 001c 00000000 		.word	_SEGGER_RTT
 2491              		.cfi_endproc
 2492              	.LFE21:
 2494              		.section	.text.SEGGER_RTT_HasDataUp,"ax",%progbits
 2495              		.align	1
 2496              		.global	SEGGER_RTT_HasDataUp
 2497              		.syntax unified
 2498              		.thumb
ARM GAS  C:\Users\Administrator\AppData\Local\Temp\ccUGyMKj.s 			page 76


 2499              		.thumb_func
 2501              	SEGGER_RTT_HasDataUp:
 2502              	.LVL265:
 2503              	.LFB22:
1521:Middlewares/Third_Party/SEGGER/RTT/SEGGER_RTT.c **** 
1522:Middlewares/Third_Party/SEGGER/RTT/SEGGER_RTT.c **** /*********************************************************************
1523:Middlewares/Third_Party/SEGGER/RTT/SEGGER_RTT.c **** *
1524:Middlewares/Third_Party/SEGGER/RTT/SEGGER_RTT.c **** *       SEGGER_RTT_HasDataUp
1525:Middlewares/Third_Party/SEGGER/RTT/SEGGER_RTT.c **** *
1526:Middlewares/Third_Party/SEGGER/RTT/SEGGER_RTT.c **** *  Function description
1527:Middlewares/Third_Party/SEGGER/RTT/SEGGER_RTT.c **** *    Check if there is data remaining to be sent in the given buffer.
1528:Middlewares/Third_Party/SEGGER/RTT/SEGGER_RTT.c **** *
1529:Middlewares/Third_Party/SEGGER/RTT/SEGGER_RTT.c **** *  Return value:
1530:Middlewares/Third_Party/SEGGER/RTT/SEGGER_RTT.c **** *  ==0:  No data
1531:Middlewares/Third_Party/SEGGER/RTT/SEGGER_RTT.c **** *  !=0:  Data in buffer
1532:Middlewares/Third_Party/SEGGER/RTT/SEGGER_RTT.c **** *
1533:Middlewares/Third_Party/SEGGER/RTT/SEGGER_RTT.c **** */
1534:Middlewares/Third_Party/SEGGER/RTT/SEGGER_RTT.c **** unsigned SEGGER_RTT_HasDataUp(unsigned BufferIndex) {
 2504              		.loc 1 1534 53 is_stmt 1 view -0
 2505              		.cfi_startproc
 2506              		@ args = 0, pretend = 0, frame = 0
 2507              		@ frame_needed = 0, uses_anonymous_args = 0
 2508              		@ link register save eliminated.
1535:Middlewares/Third_Party/SEGGER/RTT/SEGGER_RTT.c ****   SEGGER_RTT_BUFFER_UP* pRing;
 2509              		.loc 1 1535 3 view .LVU743
1536:Middlewares/Third_Party/SEGGER/RTT/SEGGER_RTT.c ****   unsigned                v;
 2510              		.loc 1 1536 3 view .LVU744
1537:Middlewares/Third_Party/SEGGER/RTT/SEGGER_RTT.c **** 
1538:Middlewares/Third_Party/SEGGER/RTT/SEGGER_RTT.c ****   pRing = (SEGGER_RTT_BUFFER_UP*)((char*)&_SEGGER_RTT.aUp[BufferIndex] + SEGGER_RTT_UNCACHED_OFF); 
 2511              		.loc 1 1538 3 view .LVU745
1539:Middlewares/Third_Party/SEGGER/RTT/SEGGER_RTT.c ****   v = pRing->RdOff;
 2512              		.loc 1 1539 3 view .LVU746
 2513              		.loc 1 1539 5 is_stmt 0 view .LVU747
 2514 0000 064B     		ldr	r3, .L154
 2515 0002 00EB4002 		add	r2, r0, r0, lsl #1
 2516 0006 03EBC202 		add	r2, r3, r2, lsl #3
 2517 000a 926A     		ldr	r2, [r2, #40]
 2518              	.LVL266:
1540:Middlewares/Third_Party/SEGGER/RTT/SEGGER_RTT.c ****   return pRing->WrOff - v;
 2519              		.loc 1 1540 3 is_stmt 1 view .LVU748
 2520              		.loc 1 1540 15 is_stmt 0 view .LVU749
 2521 000c 00EB4000 		add	r0, r0, r0, lsl #1
 2522              	.LVL267:
 2523              		.loc 1 1540 15 view .LVU750
 2524 0010 03EBC003 		add	r3, r3, r0, lsl #3
 2525 0014 586A     		ldr	r0, [r3, #36]
1541:Middlewares/Third_Party/SEGGER/RTT/SEGGER_RTT.c **** }
 2526              		.loc 1 1541 1 view .LVU751
 2527 0016 801A     		subs	r0, r0, r2
 2528 0018 7047     		bx	lr
 2529              	.L155:
 2530 001a 00BF     		.align	2
 2531              	.L154:
 2532 001c 00000000 		.word	_SEGGER_RTT
 2533              		.cfi_endproc
 2534              	.LFE22:
 2536              		.section	.text.SEGGER_RTT_AllocDownBuffer,"ax",%progbits
ARM GAS  C:\Users\Administrator\AppData\Local\Temp\ccUGyMKj.s 			page 77


 2537              		.align	1
 2538              		.global	SEGGER_RTT_AllocDownBuffer
 2539              		.syntax unified
 2540              		.thumb
 2541              		.thumb_func
 2543              	SEGGER_RTT_AllocDownBuffer:
 2544              	.LVL268:
 2545              	.LFB23:
1542:Middlewares/Third_Party/SEGGER/RTT/SEGGER_RTT.c **** 
1543:Middlewares/Third_Party/SEGGER/RTT/SEGGER_RTT.c **** /*********************************************************************
1544:Middlewares/Third_Party/SEGGER/RTT/SEGGER_RTT.c **** *
1545:Middlewares/Third_Party/SEGGER/RTT/SEGGER_RTT.c **** *       SEGGER_RTT_AllocDownBuffer
1546:Middlewares/Third_Party/SEGGER/RTT/SEGGER_RTT.c **** *
1547:Middlewares/Third_Party/SEGGER/RTT/SEGGER_RTT.c **** *  Function description
1548:Middlewares/Third_Party/SEGGER/RTT/SEGGER_RTT.c **** *    Run-time configuration of the next down-buffer (H->T).
1549:Middlewares/Third_Party/SEGGER/RTT/SEGGER_RTT.c **** *    The next buffer, which is not used yet is configured.
1550:Middlewares/Third_Party/SEGGER/RTT/SEGGER_RTT.c **** *    This includes: Buffer address, size, name, flags, ...
1551:Middlewares/Third_Party/SEGGER/RTT/SEGGER_RTT.c **** *
1552:Middlewares/Third_Party/SEGGER/RTT/SEGGER_RTT.c **** *  Parameters
1553:Middlewares/Third_Party/SEGGER/RTT/SEGGER_RTT.c **** *    sName        Pointer to a constant name string.
1554:Middlewares/Third_Party/SEGGER/RTT/SEGGER_RTT.c **** *    pBuffer      Pointer to a buffer to be used.
1555:Middlewares/Third_Party/SEGGER/RTT/SEGGER_RTT.c **** *    BufferSize   Size of the buffer.
1556:Middlewares/Third_Party/SEGGER/RTT/SEGGER_RTT.c **** *    Flags        Operating modes. Define behavior if buffer is full (not enough space for entire m
1557:Middlewares/Third_Party/SEGGER/RTT/SEGGER_RTT.c **** *
1558:Middlewares/Third_Party/SEGGER/RTT/SEGGER_RTT.c **** *  Return value
1559:Middlewares/Third_Party/SEGGER/RTT/SEGGER_RTT.c **** *    >= 0 - O.K. Buffer Index
1560:Middlewares/Third_Party/SEGGER/RTT/SEGGER_RTT.c **** *     < 0 - Error
1561:Middlewares/Third_Party/SEGGER/RTT/SEGGER_RTT.c **** */
1562:Middlewares/Third_Party/SEGGER/RTT/SEGGER_RTT.c **** int SEGGER_RTT_AllocDownBuffer(const char* sName, void* pBuffer, unsigned BufferSize, unsigned Flag
 2546              		.loc 1 1562 103 is_stmt 1 view -0
 2547              		.cfi_startproc
 2548              		@ args = 0, pretend = 0, frame = 0
 2549              		@ frame_needed = 0, uses_anonymous_args = 0
 2550              		.loc 1 1562 103 is_stmt 0 view .LVU753
 2551 0000 F8B5     		push	{r3, r4, r5, r6, r7, lr}
 2552              		.cfi_def_cfa_offset 24
 2553              		.cfi_offset 3, -24
 2554              		.cfi_offset 4, -20
 2555              		.cfi_offset 5, -16
 2556              		.cfi_offset 6, -12
 2557              		.cfi_offset 7, -8
 2558              		.cfi_offset 14, -4
 2559 0002 0446     		mov	r4, r0
 2560 0004 0D46     		mov	r5, r1
 2561 0006 1646     		mov	r6, r2
 2562 0008 1F46     		mov	r7, r3
1563:Middlewares/Third_Party/SEGGER/RTT/SEGGER_RTT.c ****   int BufferIndex;
 2563              		.loc 1 1563 3 is_stmt 1 view .LVU754
1564:Middlewares/Third_Party/SEGGER/RTT/SEGGER_RTT.c ****   volatile SEGGER_RTT_CB* pRTTCB;
 2564              		.loc 1 1564 3 view .LVU755
 2565              	.LBB24:
1565:Middlewares/Third_Party/SEGGER/RTT/SEGGER_RTT.c **** 
1566:Middlewares/Third_Party/SEGGER/RTT/SEGGER_RTT.c ****   INIT();
 2566              		.loc 1 1566 3 view .LVU756
 2567              		.loc 1 1566 3 view .LVU757
 2568              	.LVL269:
 2569              		.loc 1 1566 3 view .LVU758
ARM GAS  C:\Users\Administrator\AppData\Local\Temp\ccUGyMKj.s 			page 78


 2570              		.loc 1 1566 3 view .LVU759
 2571 000a 194B     		ldr	r3, .L164
 2572              	.LVL270:
 2573              		.loc 1 1566 3 is_stmt 0 view .LVU760
 2574 000c 1B78     		ldrb	r3, [r3]	@ zero_extendqisi2
 2575 000e 43B3     		cbz	r3, .L163
 2576              	.LVL271:
 2577              	.L157:
 2578              		.loc 1 1566 3 is_stmt 1 view .LVU761
 2579              	.LBE24:
 2580              		.loc 1 1566 9 view .LVU762
 2581              	.LBB25:
1567:Middlewares/Third_Party/SEGGER/RTT/SEGGER_RTT.c ****   SEGGER_RTT_LOCK();
 2582              		.loc 1 1567 3 view .LVU763
 2583              		.loc 1 1567 3 view .LVU764
 2584              		.syntax unified
 2585              	@ 1567 "Middlewares/Third_Party/SEGGER/RTT/SEGGER_RTT.c" 1
 2586 0010 EFF31182 		mrs   r2, basepri  
 2587 0014 4FF02001 		mov   r1, #32       
 2588 0018 81F31188 		msr   basepri, r1  
 2589              		
 2590              	@ 0 "" 2
 2591              	.LVL272:
 2592              		.loc 1 1567 20 view .LVU765
1568:Middlewares/Third_Party/SEGGER/RTT/SEGGER_RTT.c ****   pRTTCB = (volatile SEGGER_RTT_CB*)((unsigned char*)&_SEGGER_RTT + SEGGER_RTT_UNCACHED_OFF);  // A
 2593              		.loc 1 1568 3 view .LVU766
1569:Middlewares/Third_Party/SEGGER/RTT/SEGGER_RTT.c ****   BufferIndex = 0;
 2594              		.loc 1 1569 3 view .LVU767
 2595              		.loc 1 1569 15 is_stmt 0 view .LVU768
 2596              		.thumb
 2597              		.syntax unified
 2598 001c 0020     		movs	r0, #0
 2599              	.LVL273:
 2600              	.L159:
1570:Middlewares/Third_Party/SEGGER/RTT/SEGGER_RTT.c ****   do {
 2601              		.loc 1 1570 3 is_stmt 1 view .LVU769
1571:Middlewares/Third_Party/SEGGER/RTT/SEGGER_RTT.c ****     if (pRTTCB->aDown[BufferIndex].pBuffer == NULL) {
 2602              		.loc 1 1571 5 view .LVU770
 2603              		.loc 1 1571 35 is_stmt 0 view .LVU771
 2604 001e 00EB400C 		add	ip, r0, r0, lsl #1
 2605 0022 134B     		ldr	r3, .L164
 2606 0024 03EBCC0C 		add	ip, r3, ip, lsl #3
 2607 0028 DCF86430 		ldr	r3, [ip, #100]
 2608              		.loc 1 1571 8 view .LVU772
 2609 002c 23B1     		cbz	r3, .L158
1572:Middlewares/Third_Party/SEGGER/RTT/SEGGER_RTT.c ****       break;
1573:Middlewares/Third_Party/SEGGER/RTT/SEGGER_RTT.c ****     }
1574:Middlewares/Third_Party/SEGGER/RTT/SEGGER_RTT.c ****     BufferIndex++;
 2610              		.loc 1 1574 5 is_stmt 1 view .LVU773
 2611              		.loc 1 1574 16 is_stmt 0 view .LVU774
 2612 002e 0130     		adds	r0, r0, #1
 2613              	.LVL274:
1575:Middlewares/Third_Party/SEGGER/RTT/SEGGER_RTT.c ****   } while (BufferIndex < pRTTCB->MaxNumDownBuffers);
 2614              		.loc 1 1575 24 is_stmt 1 view .LVU775
 2615              		.loc 1 1575 32 is_stmt 0 view .LVU776
 2616 0030 0F4B     		ldr	r3, .L164
 2617 0032 5B69     		ldr	r3, [r3, #20]
ARM GAS  C:\Users\Administrator\AppData\Local\Temp\ccUGyMKj.s 			page 79


 2618              		.loc 1 1575 24 view .LVU777
 2619 0034 8342     		cmp	r3, r0
 2620 0036 F2DC     		bgt	.L159
 2621              	.L158:
1576:Middlewares/Third_Party/SEGGER/RTT/SEGGER_RTT.c ****   if (BufferIndex < pRTTCB->MaxNumDownBuffers) {
 2622              		.loc 1 1576 3 is_stmt 1 view .LVU778
 2623              		.loc 1 1576 27 is_stmt 0 view .LVU779
 2624 0038 0D4B     		ldr	r3, .L164
 2625 003a 5B69     		ldr	r3, [r3, #20]
 2626              		.loc 1 1576 6 view .LVU780
 2627 003c 8342     		cmp	r3, r0
 2628 003e 13DD     		ble	.L161
1577:Middlewares/Third_Party/SEGGER/RTT/SEGGER_RTT.c ****     pRTTCB->aDown[BufferIndex].sName        = sName;
 2629              		.loc 1 1577 5 is_stmt 1 view .LVU781
 2630              		.loc 1 1577 45 is_stmt 0 view .LVU782
 2631 0040 00EB4001 		add	r1, r0, r0, lsl #1
 2632 0044 0A4B     		ldr	r3, .L164
 2633 0046 03EBC103 		add	r3, r3, r1, lsl #3
 2634 004a 1C66     		str	r4, [r3, #96]
1578:Middlewares/Third_Party/SEGGER/RTT/SEGGER_RTT.c ****     pRTTCB->aDown[BufferIndex].pBuffer      = (char*)pBuffer;
 2635              		.loc 1 1578 5 is_stmt 1 view .LVU783
 2636              		.loc 1 1578 45 is_stmt 0 view .LVU784
 2637 004c 5D66     		str	r5, [r3, #100]
1579:Middlewares/Third_Party/SEGGER/RTT/SEGGER_RTT.c ****     pRTTCB->aDown[BufferIndex].SizeOfBuffer = BufferSize;
 2638              		.loc 1 1579 5 is_stmt 1 view .LVU785
 2639              		.loc 1 1579 45 is_stmt 0 view .LVU786
 2640 004e 9E66     		str	r6, [r3, #104]
1580:Middlewares/Third_Party/SEGGER/RTT/SEGGER_RTT.c ****     pRTTCB->aDown[BufferIndex].RdOff        = 0u;
 2641              		.loc 1 1580 5 is_stmt 1 view .LVU787
 2642              		.loc 1 1580 45 is_stmt 0 view .LVU788
 2643 0050 0021     		movs	r1, #0
 2644 0052 1967     		str	r1, [r3, #112]
1581:Middlewares/Third_Party/SEGGER/RTT/SEGGER_RTT.c ****     pRTTCB->aDown[BufferIndex].WrOff        = 0u;
 2645              		.loc 1 1581 5 is_stmt 1 view .LVU789
 2646              		.loc 1 1581 45 is_stmt 0 view .LVU790
 2647 0054 D966     		str	r1, [r3, #108]
1582:Middlewares/Third_Party/SEGGER/RTT/SEGGER_RTT.c ****     pRTTCB->aDown[BufferIndex].Flags        = Flags;
 2648              		.loc 1 1582 5 is_stmt 1 view .LVU791
 2649              		.loc 1 1582 45 is_stmt 0 view .LVU792
 2650 0056 5F67     		str	r7, [r3, #116]
1583:Middlewares/Third_Party/SEGGER/RTT/SEGGER_RTT.c ****     RTT__DMB();                     // Force data write to be complete before writing the <WrOff>, 
 2651              		.loc 1 1583 5 is_stmt 1 view .LVU793
 2652              		.syntax unified
 2653              	@ 1583 "Middlewares/Third_Party/SEGGER/RTT/SEGGER_RTT.c" 1
 2654 0058 BFF35F8F 		dmb
 2655              	
 2656              	@ 0 "" 2
 2657              		.loc 1 1583 15 view .LVU794
 2658              	.LVL275:
 2659              		.thumb
 2660              		.syntax unified
 2661              	.L160:
1584:Middlewares/Third_Party/SEGGER/RTT/SEGGER_RTT.c ****   } else {
1585:Middlewares/Third_Party/SEGGER/RTT/SEGGER_RTT.c ****     BufferIndex = -1;
1586:Middlewares/Third_Party/SEGGER/RTT/SEGGER_RTT.c ****   }
1587:Middlewares/Third_Party/SEGGER/RTT/SEGGER_RTT.c ****   SEGGER_RTT_UNLOCK();
 2662              		.loc 1 1587 3 view .LVU795
ARM GAS  C:\Users\Administrator\AppData\Local\Temp\ccUGyMKj.s 			page 80


 2663              		.syntax unified
 2664              	@ 1587 "Middlewares/Third_Party/SEGGER/RTT/SEGGER_RTT.c" 1
 2665 005c 82F31188 		msr   basepri, r2  
 2666              		
 2667              	@ 0 "" 2
 2668              		.thumb
 2669              		.syntax unified
 2670              	.LBE25:
 2671              		.loc 1 1587 22 view .LVU796
1588:Middlewares/Third_Party/SEGGER/RTT/SEGGER_RTT.c ****   return BufferIndex;
 2672              		.loc 1 1588 3 view .LVU797
1589:Middlewares/Third_Party/SEGGER/RTT/SEGGER_RTT.c **** }
 2673              		.loc 1 1589 1 is_stmt 0 view .LVU798
 2674 0060 F8BD     		pop	{r3, r4, r5, r6, r7, pc}
 2675              	.LVL276:
 2676              	.L163:
 2677              	.LBB26:
1566:Middlewares/Third_Party/SEGGER/RTT/SEGGER_RTT.c ****   SEGGER_RTT_LOCK();
 2678              		.loc 1 1566 3 is_stmt 1 discriminator 1 view .LVU799
 2679 0062 FFF7FEFF 		bl	_DoInit
 2680              	.LVL277:
1566:Middlewares/Third_Party/SEGGER/RTT/SEGGER_RTT.c ****   SEGGER_RTT_LOCK();
 2681              		.loc 1 1566 3 is_stmt 0 discriminator 1 view .LVU800
 2682 0066 D3E7     		b	.L157
 2683              	.LVL278:
 2684              	.L161:
1566:Middlewares/Third_Party/SEGGER/RTT/SEGGER_RTT.c ****   SEGGER_RTT_LOCK();
 2685              		.loc 1 1566 3 discriminator 1 view .LVU801
 2686              	.LBE26:
 2687              	.LBB27:
1585:Middlewares/Third_Party/SEGGER/RTT/SEGGER_RTT.c ****   }
 2688              		.loc 1 1585 17 view .LVU802
 2689 0068 4FF0FF30 		mov	r0, #-1
 2690              	.LVL279:
1585:Middlewares/Third_Party/SEGGER/RTT/SEGGER_RTT.c ****   }
 2691              		.loc 1 1585 17 view .LVU803
 2692 006c F6E7     		b	.L160
 2693              	.L165:
 2694 006e 00BF     		.align	2
 2695              	.L164:
 2696 0070 00000000 		.word	_SEGGER_RTT
 2697              	.LBE27:
 2698              		.cfi_endproc
 2699              	.LFE23:
 2701              		.section	.text.SEGGER_RTT_AllocUpBuffer,"ax",%progbits
 2702              		.align	1
 2703              		.global	SEGGER_RTT_AllocUpBuffer
 2704              		.syntax unified
 2705              		.thumb
 2706              		.thumb_func
 2708              	SEGGER_RTT_AllocUpBuffer:
 2709              	.LVL280:
 2710              	.LFB24:
1590:Middlewares/Third_Party/SEGGER/RTT/SEGGER_RTT.c **** 
1591:Middlewares/Third_Party/SEGGER/RTT/SEGGER_RTT.c **** /*********************************************************************
1592:Middlewares/Third_Party/SEGGER/RTT/SEGGER_RTT.c **** *
1593:Middlewares/Third_Party/SEGGER/RTT/SEGGER_RTT.c **** *       SEGGER_RTT_AllocUpBuffer
ARM GAS  C:\Users\Administrator\AppData\Local\Temp\ccUGyMKj.s 			page 81


1594:Middlewares/Third_Party/SEGGER/RTT/SEGGER_RTT.c **** *
1595:Middlewares/Third_Party/SEGGER/RTT/SEGGER_RTT.c **** *  Function description
1596:Middlewares/Third_Party/SEGGER/RTT/SEGGER_RTT.c **** *    Run-time configuration of the next up-buffer (T->H).
1597:Middlewares/Third_Party/SEGGER/RTT/SEGGER_RTT.c **** *    The next buffer, which is not used yet is configured.
1598:Middlewares/Third_Party/SEGGER/RTT/SEGGER_RTT.c **** *    This includes: Buffer address, size, name, flags, ...
1599:Middlewares/Third_Party/SEGGER/RTT/SEGGER_RTT.c **** *
1600:Middlewares/Third_Party/SEGGER/RTT/SEGGER_RTT.c **** *  Parameters
1601:Middlewares/Third_Party/SEGGER/RTT/SEGGER_RTT.c **** *    sName        Pointer to a constant name string.
1602:Middlewares/Third_Party/SEGGER/RTT/SEGGER_RTT.c **** *    pBuffer      Pointer to a buffer to be used.
1603:Middlewares/Third_Party/SEGGER/RTT/SEGGER_RTT.c **** *    BufferSize   Size of the buffer.
1604:Middlewares/Third_Party/SEGGER/RTT/SEGGER_RTT.c **** *    Flags        Operating modes. Define behavior if buffer is full (not enough space for entire m
1605:Middlewares/Third_Party/SEGGER/RTT/SEGGER_RTT.c **** *
1606:Middlewares/Third_Party/SEGGER/RTT/SEGGER_RTT.c **** *  Return value
1607:Middlewares/Third_Party/SEGGER/RTT/SEGGER_RTT.c **** *    >= 0 - O.K. Buffer Index
1608:Middlewares/Third_Party/SEGGER/RTT/SEGGER_RTT.c **** *     < 0 - Error
1609:Middlewares/Third_Party/SEGGER/RTT/SEGGER_RTT.c **** */
1610:Middlewares/Third_Party/SEGGER/RTT/SEGGER_RTT.c **** int SEGGER_RTT_AllocUpBuffer(const char* sName, void* pBuffer, unsigned BufferSize, unsigned Flags)
 2711              		.loc 1 1610 101 is_stmt 1 view -0
 2712              		.cfi_startproc
 2713              		@ args = 0, pretend = 0, frame = 0
 2714              		@ frame_needed = 0, uses_anonymous_args = 0
 2715              		.loc 1 1610 101 is_stmt 0 view .LVU805
 2716 0000 F8B5     		push	{r3, r4, r5, r6, r7, lr}
 2717              		.cfi_def_cfa_offset 24
 2718              		.cfi_offset 3, -24
 2719              		.cfi_offset 4, -20
 2720              		.cfi_offset 5, -16
 2721              		.cfi_offset 6, -12
 2722              		.cfi_offset 7, -8
 2723              		.cfi_offset 14, -4
 2724 0002 0446     		mov	r4, r0
 2725 0004 0D46     		mov	r5, r1
 2726 0006 1646     		mov	r6, r2
 2727 0008 1F46     		mov	r7, r3
1611:Middlewares/Third_Party/SEGGER/RTT/SEGGER_RTT.c ****   int BufferIndex;
 2728              		.loc 1 1611 3 is_stmt 1 view .LVU806
1612:Middlewares/Third_Party/SEGGER/RTT/SEGGER_RTT.c ****   volatile SEGGER_RTT_CB* pRTTCB;
 2729              		.loc 1 1612 3 view .LVU807
 2730              	.LBB28:
1613:Middlewares/Third_Party/SEGGER/RTT/SEGGER_RTT.c **** 
1614:Middlewares/Third_Party/SEGGER/RTT/SEGGER_RTT.c ****   INIT();
 2731              		.loc 1 1614 3 view .LVU808
 2732              		.loc 1 1614 3 view .LVU809
 2733              	.LVL281:
 2734              		.loc 1 1614 3 view .LVU810
 2735              		.loc 1 1614 3 view .LVU811
 2736 000a 1F4B     		ldr	r3, .L174
 2737              	.LVL282:
 2738              		.loc 1 1614 3 is_stmt 0 view .LVU812
 2739 000c 1B78     		ldrb	r3, [r3]	@ zero_extendqisi2
 2740 000e 002B     		cmp	r3, #0
 2741 0010 34D0     		beq	.L173
 2742              	.LVL283:
 2743              	.L167:
 2744              		.loc 1 1614 3 is_stmt 1 view .LVU813
 2745              	.LBE28:
 2746              		.loc 1 1614 9 view .LVU814
ARM GAS  C:\Users\Administrator\AppData\Local\Temp\ccUGyMKj.s 			page 82


 2747              	.LBB29:
1615:Middlewares/Third_Party/SEGGER/RTT/SEGGER_RTT.c ****   SEGGER_RTT_LOCK();
 2748              		.loc 1 1615 3 view .LVU815
 2749              		.loc 1 1615 3 view .LVU816
 2750              		.syntax unified
 2751              	@ 1615 "Middlewares/Third_Party/SEGGER/RTT/SEGGER_RTT.c" 1
 2752 0012 EFF31182 		mrs   r2, basepri  
 2753 0016 4FF02001 		mov   r1, #32       
 2754 001a 81F31188 		msr   basepri, r1  
 2755              		
 2756              	@ 0 "" 2
 2757              	.LVL284:
 2758              		.loc 1 1615 20 view .LVU817
1616:Middlewares/Third_Party/SEGGER/RTT/SEGGER_RTT.c ****   pRTTCB = (volatile SEGGER_RTT_CB*)((unsigned char*)&_SEGGER_RTT + SEGGER_RTT_UNCACHED_OFF);  // A
 2759              		.loc 1 1616 3 view .LVU818
1617:Middlewares/Third_Party/SEGGER/RTT/SEGGER_RTT.c ****   BufferIndex = 0;
 2760              		.loc 1 1617 3 view .LVU819
 2761              		.loc 1 1617 15 is_stmt 0 view .LVU820
 2762              		.thumb
 2763              		.syntax unified
 2764 001e 0020     		movs	r0, #0
 2765              	.LVL285:
 2766              	.L169:
1618:Middlewares/Third_Party/SEGGER/RTT/SEGGER_RTT.c ****   do {
 2767              		.loc 1 1618 3 is_stmt 1 view .LVU821
1619:Middlewares/Third_Party/SEGGER/RTT/SEGGER_RTT.c ****     if (pRTTCB->aUp[BufferIndex].pBuffer == NULL) {
 2768              		.loc 1 1619 5 view .LVU822
 2769              		.loc 1 1619 33 is_stmt 0 view .LVU823
 2770 0020 00F1010C 		add	ip, r0, #1
 2771 0024 0CEB4C0C 		add	ip, ip, ip, lsl #1
 2772 0028 174B     		ldr	r3, .L174
 2773 002a 03EBCC0C 		add	ip, r3, ip, lsl #3
 2774 002e DCF80430 		ldr	r3, [ip, #4]
 2775              		.loc 1 1619 8 view .LVU824
 2776 0032 23B1     		cbz	r3, .L168
1620:Middlewares/Third_Party/SEGGER/RTT/SEGGER_RTT.c ****       break;
1621:Middlewares/Third_Party/SEGGER/RTT/SEGGER_RTT.c ****     }
1622:Middlewares/Third_Party/SEGGER/RTT/SEGGER_RTT.c ****     BufferIndex++;
 2777              		.loc 1 1622 5 is_stmt 1 view .LVU825
 2778              		.loc 1 1622 16 is_stmt 0 view .LVU826
 2779 0034 0130     		adds	r0, r0, #1
 2780              	.LVL286:
1623:Middlewares/Third_Party/SEGGER/RTT/SEGGER_RTT.c ****   } while (BufferIndex < pRTTCB->MaxNumUpBuffers);
 2781              		.loc 1 1623 24 is_stmt 1 view .LVU827
 2782              		.loc 1 1623 32 is_stmt 0 view .LVU828
 2783 0036 144B     		ldr	r3, .L174
 2784 0038 1B69     		ldr	r3, [r3, #16]
 2785              		.loc 1 1623 24 view .LVU829
 2786 003a 8342     		cmp	r3, r0
 2787 003c F0DC     		bgt	.L169
 2788              	.L168:
1624:Middlewares/Third_Party/SEGGER/RTT/SEGGER_RTT.c ****   if (BufferIndex < pRTTCB->MaxNumUpBuffers) {
 2789              		.loc 1 1624 3 is_stmt 1 view .LVU830
 2790              		.loc 1 1624 27 is_stmt 0 view .LVU831
 2791 003e 124B     		ldr	r3, .L174
 2792 0040 1B69     		ldr	r3, [r3, #16]
 2793              		.loc 1 1624 6 view .LVU832
ARM GAS  C:\Users\Administrator\AppData\Local\Temp\ccUGyMKj.s 			page 83


 2794 0042 8342     		cmp	r3, r0
 2795 0044 1DDD     		ble	.L171
1625:Middlewares/Third_Party/SEGGER/RTT/SEGGER_RTT.c ****     pRTTCB->aUp[BufferIndex].sName        = sName;
 2796              		.loc 1 1625 5 is_stmt 1 view .LVU833
 2797              		.loc 1 1625 43 is_stmt 0 view .LVU834
 2798 0046 104B     		ldr	r3, .L174
 2799 0048 411C     		adds	r1, r0, #1
 2800 004a 01EB410C 		add	ip, r1, r1, lsl #1
 2801 004e 4FEACC0C 		lsl	ip, ip, #3
 2802 0052 43F80C40 		str	r4, [r3, ip]
1626:Middlewares/Third_Party/SEGGER/RTT/SEGGER_RTT.c ****     pRTTCB->aUp[BufferIndex].pBuffer      = (char*)pBuffer;
 2803              		.loc 1 1626 5 is_stmt 1 view .LVU835
 2804              		.loc 1 1626 43 is_stmt 0 view .LVU836
 2805 0056 01EB4101 		add	r1, r1, r1, lsl #1
 2806 005a 03EBC101 		add	r1, r3, r1, lsl #3
 2807 005e 4D60     		str	r5, [r1, #4]
1627:Middlewares/Third_Party/SEGGER/RTT/SEGGER_RTT.c ****     pRTTCB->aUp[BufferIndex].SizeOfBuffer = BufferSize;
 2808              		.loc 1 1627 5 is_stmt 1 view .LVU837
 2809              		.loc 1 1627 43 is_stmt 0 view .LVU838
 2810 0060 00EB4001 		add	r1, r0, r0, lsl #1
 2811 0064 03EBC103 		add	r3, r3, r1, lsl #3
 2812 0068 1E62     		str	r6, [r3, #32]
1628:Middlewares/Third_Party/SEGGER/RTT/SEGGER_RTT.c ****     pRTTCB->aUp[BufferIndex].RdOff        = 0u;
 2813              		.loc 1 1628 5 is_stmt 1 view .LVU839
 2814              		.loc 1 1628 43 is_stmt 0 view .LVU840
 2815 006a 0021     		movs	r1, #0
 2816 006c 9962     		str	r1, [r3, #40]
1629:Middlewares/Third_Party/SEGGER/RTT/SEGGER_RTT.c ****     pRTTCB->aUp[BufferIndex].WrOff        = 0u;
 2817              		.loc 1 1629 5 is_stmt 1 view .LVU841
 2818              		.loc 1 1629 43 is_stmt 0 view .LVU842
 2819 006e 5962     		str	r1, [r3, #36]
1630:Middlewares/Third_Party/SEGGER/RTT/SEGGER_RTT.c ****     pRTTCB->aUp[BufferIndex].Flags        = Flags;
 2820              		.loc 1 1630 5 is_stmt 1 view .LVU843
 2821              		.loc 1 1630 43 is_stmt 0 view .LVU844
 2822 0070 DF62     		str	r7, [r3, #44]
1631:Middlewares/Third_Party/SEGGER/RTT/SEGGER_RTT.c ****     RTT__DMB();                     // Force data write to be complete before writing the <WrOff>, 
 2823              		.loc 1 1631 5 is_stmt 1 view .LVU845
 2824              		.syntax unified
 2825              	@ 1631 "Middlewares/Third_Party/SEGGER/RTT/SEGGER_RTT.c" 1
 2826 0072 BFF35F8F 		dmb
 2827              	
 2828              	@ 0 "" 2
 2829              		.loc 1 1631 15 view .LVU846
 2830              	.LVL287:
 2831              		.thumb
 2832              		.syntax unified
 2833              	.L170:
1632:Middlewares/Third_Party/SEGGER/RTT/SEGGER_RTT.c ****   } else {
1633:Middlewares/Third_Party/SEGGER/RTT/SEGGER_RTT.c ****     BufferIndex = -1;
1634:Middlewares/Third_Party/SEGGER/RTT/SEGGER_RTT.c ****   }
1635:Middlewares/Third_Party/SEGGER/RTT/SEGGER_RTT.c ****   SEGGER_RTT_UNLOCK();
 2834              		.loc 1 1635 3 view .LVU847
 2835              		.syntax unified
 2836              	@ 1635 "Middlewares/Third_Party/SEGGER/RTT/SEGGER_RTT.c" 1
 2837 0076 82F31188 		msr   basepri, r2  
 2838              		
 2839              	@ 0 "" 2
ARM GAS  C:\Users\Administrator\AppData\Local\Temp\ccUGyMKj.s 			page 84


 2840              		.thumb
 2841              		.syntax unified
 2842              	.LBE29:
 2843              		.loc 1 1635 22 view .LVU848
1636:Middlewares/Third_Party/SEGGER/RTT/SEGGER_RTT.c ****   return BufferIndex;
 2844              		.loc 1 1636 3 view .LVU849
1637:Middlewares/Third_Party/SEGGER/RTT/SEGGER_RTT.c **** }
 2845              		.loc 1 1637 1 is_stmt 0 view .LVU850
 2846 007a F8BD     		pop	{r3, r4, r5, r6, r7, pc}
 2847              	.LVL288:
 2848              	.L173:
 2849              	.LBB30:
1614:Middlewares/Third_Party/SEGGER/RTT/SEGGER_RTT.c ****   SEGGER_RTT_LOCK();
 2850              		.loc 1 1614 3 is_stmt 1 discriminator 1 view .LVU851
 2851 007c FFF7FEFF 		bl	_DoInit
 2852              	.LVL289:
1614:Middlewares/Third_Party/SEGGER/RTT/SEGGER_RTT.c ****   SEGGER_RTT_LOCK();
 2853              		.loc 1 1614 3 is_stmt 0 discriminator 1 view .LVU852
 2854 0080 C7E7     		b	.L167
 2855              	.LVL290:
 2856              	.L171:
1614:Middlewares/Third_Party/SEGGER/RTT/SEGGER_RTT.c ****   SEGGER_RTT_LOCK();
 2857              		.loc 1 1614 3 discriminator 1 view .LVU853
 2858              	.LBE30:
 2859              	.LBB31:
1633:Middlewares/Third_Party/SEGGER/RTT/SEGGER_RTT.c ****   }
 2860              		.loc 1 1633 17 view .LVU854
 2861 0082 4FF0FF30 		mov	r0, #-1
 2862              	.LVL291:
1633:Middlewares/Third_Party/SEGGER/RTT/SEGGER_RTT.c ****   }
 2863              		.loc 1 1633 17 view .LVU855
 2864 0086 F6E7     		b	.L170
 2865              	.L175:
 2866              		.align	2
 2867              	.L174:
 2868 0088 00000000 		.word	_SEGGER_RTT
 2869              	.LBE31:
 2870              		.cfi_endproc
 2871              	.LFE24:
 2873              		.section	.text.SEGGER_RTT_ConfigUpBuffer,"ax",%progbits
 2874              		.align	1
 2875              		.global	SEGGER_RTT_ConfigUpBuffer
 2876              		.syntax unified
 2877              		.thumb
 2878              		.thumb_func
 2880              	SEGGER_RTT_ConfigUpBuffer:
 2881              	.LVL292:
 2882              	.LFB25:
1638:Middlewares/Third_Party/SEGGER/RTT/SEGGER_RTT.c **** 
1639:Middlewares/Third_Party/SEGGER/RTT/SEGGER_RTT.c **** /*********************************************************************
1640:Middlewares/Third_Party/SEGGER/RTT/SEGGER_RTT.c **** *
1641:Middlewares/Third_Party/SEGGER/RTT/SEGGER_RTT.c **** *       SEGGER_RTT_ConfigUpBuffer
1642:Middlewares/Third_Party/SEGGER/RTT/SEGGER_RTT.c **** *
1643:Middlewares/Third_Party/SEGGER/RTT/SEGGER_RTT.c **** *  Function description
1644:Middlewares/Third_Party/SEGGER/RTT/SEGGER_RTT.c **** *    Run-time configuration of a specific up-buffer (T->H).
1645:Middlewares/Third_Party/SEGGER/RTT/SEGGER_RTT.c **** *    Buffer to be configured is specified by index.
1646:Middlewares/Third_Party/SEGGER/RTT/SEGGER_RTT.c **** *    This includes: Buffer address, size, name, flags, ...
ARM GAS  C:\Users\Administrator\AppData\Local\Temp\ccUGyMKj.s 			page 85


1647:Middlewares/Third_Party/SEGGER/RTT/SEGGER_RTT.c **** *
1648:Middlewares/Third_Party/SEGGER/RTT/SEGGER_RTT.c **** *  Parameters
1649:Middlewares/Third_Party/SEGGER/RTT/SEGGER_RTT.c **** *    BufferIndex  Index of the buffer to configure.
1650:Middlewares/Third_Party/SEGGER/RTT/SEGGER_RTT.c **** *    sName        Pointer to a constant name string.
1651:Middlewares/Third_Party/SEGGER/RTT/SEGGER_RTT.c **** *    pBuffer      Pointer to a buffer to be used.
1652:Middlewares/Third_Party/SEGGER/RTT/SEGGER_RTT.c **** *    BufferSize   Size of the buffer.
1653:Middlewares/Third_Party/SEGGER/RTT/SEGGER_RTT.c **** *    Flags        Operating modes. Define behavior if buffer is full (not enough space for entire m
1654:Middlewares/Third_Party/SEGGER/RTT/SEGGER_RTT.c **** *
1655:Middlewares/Third_Party/SEGGER/RTT/SEGGER_RTT.c **** *  Return value
1656:Middlewares/Third_Party/SEGGER/RTT/SEGGER_RTT.c **** *    >= 0 - O.K.
1657:Middlewares/Third_Party/SEGGER/RTT/SEGGER_RTT.c **** *     < 0 - Error
1658:Middlewares/Third_Party/SEGGER/RTT/SEGGER_RTT.c **** *
1659:Middlewares/Third_Party/SEGGER/RTT/SEGGER_RTT.c **** *  Additional information
1660:Middlewares/Third_Party/SEGGER/RTT/SEGGER_RTT.c **** *    Buffer 0 is configured on compile-time.
1661:Middlewares/Third_Party/SEGGER/RTT/SEGGER_RTT.c **** *    May only be called once per buffer.
1662:Middlewares/Third_Party/SEGGER/RTT/SEGGER_RTT.c **** *    Buffer name and flags can be reconfigured using the appropriate functions.
1663:Middlewares/Third_Party/SEGGER/RTT/SEGGER_RTT.c **** */
1664:Middlewares/Third_Party/SEGGER/RTT/SEGGER_RTT.c **** int SEGGER_RTT_ConfigUpBuffer(unsigned BufferIndex, const char* sName, void* pBuffer, unsigned Buff
 2883              		.loc 1 1664 124 is_stmt 1 view -0
 2884              		.cfi_startproc
 2885              		@ args = 4, pretend = 0, frame = 0
 2886              		@ frame_needed = 0, uses_anonymous_args = 0
 2887              		.loc 1 1664 124 is_stmt 0 view .LVU857
 2888 0000 F8B5     		push	{r3, r4, r5, r6, r7, lr}
 2889              		.cfi_def_cfa_offset 24
 2890              		.cfi_offset 3, -24
 2891              		.cfi_offset 4, -20
 2892              		.cfi_offset 5, -16
 2893              		.cfi_offset 6, -12
 2894              		.cfi_offset 7, -8
 2895              		.cfi_offset 14, -4
 2896 0002 0446     		mov	r4, r0
 2897 0004 0D46     		mov	r5, r1
 2898 0006 1646     		mov	r6, r2
 2899 0008 1F46     		mov	r7, r3
1665:Middlewares/Third_Party/SEGGER/RTT/SEGGER_RTT.c ****   int r;
 2900              		.loc 1 1665 3 is_stmt 1 view .LVU858
1666:Middlewares/Third_Party/SEGGER/RTT/SEGGER_RTT.c ****   volatile SEGGER_RTT_CB* pRTTCB;
 2901              		.loc 1 1666 3 view .LVU859
1667:Middlewares/Third_Party/SEGGER/RTT/SEGGER_RTT.c ****   volatile SEGGER_RTT_BUFFER_UP* pUp;
 2902              		.loc 1 1667 3 view .LVU860
 2903              	.LBB32:
1668:Middlewares/Third_Party/SEGGER/RTT/SEGGER_RTT.c **** 
1669:Middlewares/Third_Party/SEGGER/RTT/SEGGER_RTT.c ****   INIT();
 2904              		.loc 1 1669 3 view .LVU861
 2905              		.loc 1 1669 3 view .LVU862
 2906              	.LVL293:
 2907              		.loc 1 1669 3 view .LVU863
 2908              		.loc 1 1669 3 view .LVU864
 2909 000a 184B     		ldr	r3, .L183
 2910              	.LVL294:
 2911              		.loc 1 1669 3 is_stmt 0 view .LVU865
 2912 000c 1B78     		ldrb	r3, [r3]	@ zero_extendqisi2
 2913 000e 33B3     		cbz	r3, .L182
 2914              	.LVL295:
 2915              	.L177:
 2916              		.loc 1 1669 3 is_stmt 1 view .LVU866
ARM GAS  C:\Users\Administrator\AppData\Local\Temp\ccUGyMKj.s 			page 86


 2917              	.LBE32:
 2918              		.loc 1 1669 9 view .LVU867
1670:Middlewares/Third_Party/SEGGER/RTT/SEGGER_RTT.c ****   pRTTCB = (volatile SEGGER_RTT_CB*)((unsigned char*)&_SEGGER_RTT + SEGGER_RTT_UNCACHED_OFF);  // A
 2919              		.loc 1 1670 3 view .LVU868
1671:Middlewares/Third_Party/SEGGER/RTT/SEGGER_RTT.c ****   if (BufferIndex < SEGGER_RTT_MAX_NUM_UP_BUFFERS) {
 2920              		.loc 1 1671 3 view .LVU869
 2921              		.loc 1 1671 6 is_stmt 0 view .LVU870
 2922 0010 022C     		cmp	r4, #2
 2923 0012 27D8     		bhi	.L180
 2924              	.LBB33:
1672:Middlewares/Third_Party/SEGGER/RTT/SEGGER_RTT.c ****     SEGGER_RTT_LOCK();
 2925              		.loc 1 1672 5 is_stmt 1 view .LVU871
 2926              		.loc 1 1672 5 view .LVU872
 2927              		.syntax unified
 2928              	@ 1672 "Middlewares/Third_Party/SEGGER/RTT/SEGGER_RTT.c" 1
 2929 0014 EFF3118C 		mrs   ip, basepri  
 2930 0018 4FF02001 		mov   r1, #32       
 2931 001c 81F31188 		msr   basepri, r1  
 2932              		
 2933              	@ 0 "" 2
 2934              	.LVL296:
 2935              		.loc 1 1672 22 view .LVU873
1673:Middlewares/Third_Party/SEGGER/RTT/SEGGER_RTT.c ****     pUp = &pRTTCB->aUp[BufferIndex];
 2936              		.loc 1 1673 5 view .LVU874
1674:Middlewares/Third_Party/SEGGER/RTT/SEGGER_RTT.c ****     if (BufferIndex) {
 2937              		.loc 1 1674 5 view .LVU875
 2938              		.loc 1 1674 8 is_stmt 0 view .LVU876
 2939              		.thumb
 2940              		.syntax unified
 2941 0020 94B1     		cbz	r4, .L179
1675:Middlewares/Third_Party/SEGGER/RTT/SEGGER_RTT.c ****       pUp->sName        = sName;
 2942              		.loc 1 1675 7 is_stmt 1 view .LVU877
 2943              		.loc 1 1675 25 is_stmt 0 view .LVU878
 2944 0022 124A     		ldr	r2, .L183
 2945 0024 601C     		adds	r0, r4, #1
 2946 0026 00EB4003 		add	r3, r0, r0, lsl #1
 2947 002a DB00     		lsls	r3, r3, #3
 2948 002c D550     		str	r5, [r2, r3]
1676:Middlewares/Third_Party/SEGGER/RTT/SEGGER_RTT.c ****       pUp->pBuffer      = (char*)pBuffer;
 2949              		.loc 1 1676 7 is_stmt 1 view .LVU879
 2950              		.loc 1 1676 25 is_stmt 0 view .LVU880
 2951 002e 00EB4000 		add	r0, r0, r0, lsl #1
 2952 0032 02EBC000 		add	r0, r2, r0, lsl #3
 2953 0036 4660     		str	r6, [r0, #4]
1677:Middlewares/Third_Party/SEGGER/RTT/SEGGER_RTT.c ****       pUp->SizeOfBuffer = BufferSize;
 2954              		.loc 1 1677 7 is_stmt 1 view .LVU881
 2955              		.loc 1 1677 25 is_stmt 0 view .LVU882
 2956 0038 04EB4403 		add	r3, r4, r4, lsl #1
 2957 003c 02EBC302 		add	r2, r2, r3, lsl #3
 2958 0040 1762     		str	r7, [r2, #32]
1678:Middlewares/Third_Party/SEGGER/RTT/SEGGER_RTT.c ****       pUp->RdOff        = 0u;
 2959              		.loc 1 1678 7 is_stmt 1 view .LVU883
 2960              		.loc 1 1678 25 is_stmt 0 view .LVU884
 2961 0042 0023     		movs	r3, #0
 2962 0044 9362     		str	r3, [r2, #40]
1679:Middlewares/Third_Party/SEGGER/RTT/SEGGER_RTT.c ****       pUp->WrOff        = 0u;
 2963              		.loc 1 1679 7 is_stmt 1 view .LVU885
ARM GAS  C:\Users\Administrator\AppData\Local\Temp\ccUGyMKj.s 			page 87


 2964              		.loc 1 1679 25 is_stmt 0 view .LVU886
 2965 0046 5362     		str	r3, [r2, #36]
 2966              	.L179:
1680:Middlewares/Third_Party/SEGGER/RTT/SEGGER_RTT.c ****     }
1681:Middlewares/Third_Party/SEGGER/RTT/SEGGER_RTT.c ****     pUp->Flags          = Flags;
 2967              		.loc 1 1681 5 is_stmt 1 view .LVU887
 2968              		.loc 1 1681 25 is_stmt 0 view .LVU888
 2969 0048 04EB4404 		add	r4, r4, r4, lsl #1
 2970              	.LVL297:
 2971              		.loc 1 1681 25 view .LVU889
 2972 004c 074B     		ldr	r3, .L183
 2973 004e 03EBC403 		add	r3, r3, r4, lsl #3
 2974 0052 069A     		ldr	r2, [sp, #24]
 2975 0054 DA62     		str	r2, [r3, #44]
1682:Middlewares/Third_Party/SEGGER/RTT/SEGGER_RTT.c ****     SEGGER_RTT_UNLOCK();
 2976              		.loc 1 1682 5 is_stmt 1 view .LVU890
 2977              		.syntax unified
 2978              	@ 1682 "Middlewares/Third_Party/SEGGER/RTT/SEGGER_RTT.c" 1
 2979 0056 8CF31188 		msr   basepri, ip  
 2980              		
 2981              	@ 0 "" 2
 2982              		.thumb
 2983              		.syntax unified
 2984              	.LBE33:
 2985              		.loc 1 1682 24 view .LVU891
1683:Middlewares/Third_Party/SEGGER/RTT/SEGGER_RTT.c ****     r =  0;
 2986              		.loc 1 1683 5 view .LVU892
 2987              	.LVL298:
 2988              		.loc 1 1683 7 is_stmt 0 view .LVU893
 2989 005a 0020     		movs	r0, #0
 2990              	.LVL299:
 2991              	.L176:
1684:Middlewares/Third_Party/SEGGER/RTT/SEGGER_RTT.c ****   } else {
1685:Middlewares/Third_Party/SEGGER/RTT/SEGGER_RTT.c ****     r = -1;
1686:Middlewares/Third_Party/SEGGER/RTT/SEGGER_RTT.c ****   }
1687:Middlewares/Third_Party/SEGGER/RTT/SEGGER_RTT.c ****   return r;
1688:Middlewares/Third_Party/SEGGER/RTT/SEGGER_RTT.c **** }
 2992              		.loc 1 1688 1 view .LVU894
 2993 005c F8BD     		pop	{r3, r4, r5, r6, r7, pc}
 2994              	.LVL300:
 2995              	.L182:
 2996              	.LBB34:
1669:Middlewares/Third_Party/SEGGER/RTT/SEGGER_RTT.c ****   pRTTCB = (volatile SEGGER_RTT_CB*)((unsigned char*)&_SEGGER_RTT + SEGGER_RTT_UNCACHED_OFF);  // A
 2997              		.loc 1 1669 3 is_stmt 1 discriminator 1 view .LVU895
 2998 005e FFF7FEFF 		bl	_DoInit
 2999              	.LVL301:
1669:Middlewares/Third_Party/SEGGER/RTT/SEGGER_RTT.c ****   pRTTCB = (volatile SEGGER_RTT_CB*)((unsigned char*)&_SEGGER_RTT + SEGGER_RTT_UNCACHED_OFF);  // A
 3000              		.loc 1 1669 3 is_stmt 0 discriminator 1 view .LVU896
 3001 0062 D5E7     		b	.L177
 3002              	.LVL302:
 3003              	.L180:
1669:Middlewares/Third_Party/SEGGER/RTT/SEGGER_RTT.c ****   pRTTCB = (volatile SEGGER_RTT_CB*)((unsigned char*)&_SEGGER_RTT + SEGGER_RTT_UNCACHED_OFF);  // A
 3004              		.loc 1 1669 3 discriminator 1 view .LVU897
 3005              	.LBE34:
1685:Middlewares/Third_Party/SEGGER/RTT/SEGGER_RTT.c ****   }
 3006              		.loc 1 1685 7 view .LVU898
 3007 0064 4FF0FF30 		mov	r0, #-1
ARM GAS  C:\Users\Administrator\AppData\Local\Temp\ccUGyMKj.s 			page 88


 3008              	.LVL303:
1687:Middlewares/Third_Party/SEGGER/RTT/SEGGER_RTT.c **** }
 3009              		.loc 1 1687 3 is_stmt 1 view .LVU899
1687:Middlewares/Third_Party/SEGGER/RTT/SEGGER_RTT.c **** }
 3010              		.loc 1 1687 10 is_stmt 0 view .LVU900
 3011 0068 F8E7     		b	.L176
 3012              	.L184:
 3013 006a 00BF     		.align	2
 3014              	.L183:
 3015 006c 00000000 		.word	_SEGGER_RTT
 3016              		.cfi_endproc
 3017              	.LFE25:
 3019              		.section	.text.SEGGER_RTT_ConfigDownBuffer,"ax",%progbits
 3020              		.align	1
 3021              		.global	SEGGER_RTT_ConfigDownBuffer
 3022              		.syntax unified
 3023              		.thumb
 3024              		.thumb_func
 3026              	SEGGER_RTT_ConfigDownBuffer:
 3027              	.LVL304:
 3028              	.LFB26:
1689:Middlewares/Third_Party/SEGGER/RTT/SEGGER_RTT.c **** 
1690:Middlewares/Third_Party/SEGGER/RTT/SEGGER_RTT.c **** /*********************************************************************
1691:Middlewares/Third_Party/SEGGER/RTT/SEGGER_RTT.c **** *
1692:Middlewares/Third_Party/SEGGER/RTT/SEGGER_RTT.c **** *       SEGGER_RTT_ConfigDownBuffer
1693:Middlewares/Third_Party/SEGGER/RTT/SEGGER_RTT.c **** *
1694:Middlewares/Third_Party/SEGGER/RTT/SEGGER_RTT.c **** *  Function description
1695:Middlewares/Third_Party/SEGGER/RTT/SEGGER_RTT.c **** *    Run-time configuration of a specific down-buffer (H->T).
1696:Middlewares/Third_Party/SEGGER/RTT/SEGGER_RTT.c **** *    Buffer to be configured is specified by index.
1697:Middlewares/Third_Party/SEGGER/RTT/SEGGER_RTT.c **** *    This includes: Buffer address, size, name, flags, ...
1698:Middlewares/Third_Party/SEGGER/RTT/SEGGER_RTT.c **** *
1699:Middlewares/Third_Party/SEGGER/RTT/SEGGER_RTT.c **** *  Parameters
1700:Middlewares/Third_Party/SEGGER/RTT/SEGGER_RTT.c **** *    BufferIndex  Index of the buffer to configure.
1701:Middlewares/Third_Party/SEGGER/RTT/SEGGER_RTT.c **** *    sName        Pointer to a constant name string.
1702:Middlewares/Third_Party/SEGGER/RTT/SEGGER_RTT.c **** *    pBuffer      Pointer to a buffer to be used.
1703:Middlewares/Third_Party/SEGGER/RTT/SEGGER_RTT.c **** *    BufferSize   Size of the buffer.
1704:Middlewares/Third_Party/SEGGER/RTT/SEGGER_RTT.c **** *    Flags        Operating modes. Define behavior if buffer is full (not enough space for entire m
1705:Middlewares/Third_Party/SEGGER/RTT/SEGGER_RTT.c **** *
1706:Middlewares/Third_Party/SEGGER/RTT/SEGGER_RTT.c **** *  Return value
1707:Middlewares/Third_Party/SEGGER/RTT/SEGGER_RTT.c **** *    >= 0  O.K.
1708:Middlewares/Third_Party/SEGGER/RTT/SEGGER_RTT.c **** *     < 0  Error
1709:Middlewares/Third_Party/SEGGER/RTT/SEGGER_RTT.c **** *
1710:Middlewares/Third_Party/SEGGER/RTT/SEGGER_RTT.c **** *  Additional information
1711:Middlewares/Third_Party/SEGGER/RTT/SEGGER_RTT.c **** *    Buffer 0 is configured on compile-time.
1712:Middlewares/Third_Party/SEGGER/RTT/SEGGER_RTT.c **** *    May only be called once per buffer.
1713:Middlewares/Third_Party/SEGGER/RTT/SEGGER_RTT.c **** *    Buffer name and flags can be reconfigured using the appropriate functions.
1714:Middlewares/Third_Party/SEGGER/RTT/SEGGER_RTT.c **** */
1715:Middlewares/Third_Party/SEGGER/RTT/SEGGER_RTT.c **** int SEGGER_RTT_ConfigDownBuffer(unsigned BufferIndex, const char* sName, void* pBuffer, unsigned Bu
 3029              		.loc 1 1715 126 is_stmt 1 view -0
 3030              		.cfi_startproc
 3031              		@ args = 4, pretend = 0, frame = 0
 3032              		@ frame_needed = 0, uses_anonymous_args = 0
 3033              		.loc 1 1715 126 is_stmt 0 view .LVU902
 3034 0000 F8B5     		push	{r3, r4, r5, r6, r7, lr}
 3035              		.cfi_def_cfa_offset 24
 3036              		.cfi_offset 3, -24
 3037              		.cfi_offset 4, -20
ARM GAS  C:\Users\Administrator\AppData\Local\Temp\ccUGyMKj.s 			page 89


 3038              		.cfi_offset 5, -16
 3039              		.cfi_offset 6, -12
 3040              		.cfi_offset 7, -8
 3041              		.cfi_offset 14, -4
 3042 0002 0446     		mov	r4, r0
 3043 0004 0D46     		mov	r5, r1
 3044 0006 1646     		mov	r6, r2
 3045 0008 1F46     		mov	r7, r3
1716:Middlewares/Third_Party/SEGGER/RTT/SEGGER_RTT.c ****   int r;
 3046              		.loc 1 1716 3 is_stmt 1 view .LVU903
1717:Middlewares/Third_Party/SEGGER/RTT/SEGGER_RTT.c ****   volatile SEGGER_RTT_CB* pRTTCB;
 3047              		.loc 1 1717 3 view .LVU904
1718:Middlewares/Third_Party/SEGGER/RTT/SEGGER_RTT.c ****   volatile SEGGER_RTT_BUFFER_DOWN* pDown;
 3048              		.loc 1 1718 3 view .LVU905
 3049              	.LBB35:
1719:Middlewares/Third_Party/SEGGER/RTT/SEGGER_RTT.c **** 
1720:Middlewares/Third_Party/SEGGER/RTT/SEGGER_RTT.c ****   INIT();
 3050              		.loc 1 1720 3 view .LVU906
 3051              		.loc 1 1720 3 view .LVU907
 3052              	.LVL305:
 3053              		.loc 1 1720 3 view .LVU908
 3054              		.loc 1 1720 3 view .LVU909
 3055 000a 174B     		ldr	r3, .L192
 3056              	.LVL306:
 3057              		.loc 1 1720 3 is_stmt 0 view .LVU910
 3058 000c 1B78     		ldrb	r3, [r3]	@ zero_extendqisi2
 3059 000e 2BB3     		cbz	r3, .L191
 3060              	.LVL307:
 3061              	.L186:
 3062              		.loc 1 1720 3 is_stmt 1 view .LVU911
 3063              	.LBE35:
 3064              		.loc 1 1720 9 view .LVU912
1721:Middlewares/Third_Party/SEGGER/RTT/SEGGER_RTT.c ****   pRTTCB = (volatile SEGGER_RTT_CB*)((unsigned char*)&_SEGGER_RTT + SEGGER_RTT_UNCACHED_OFF);  // A
 3065              		.loc 1 1721 3 view .LVU913
1722:Middlewares/Third_Party/SEGGER/RTT/SEGGER_RTT.c ****   if (BufferIndex < SEGGER_RTT_MAX_NUM_DOWN_BUFFERS) {
 3066              		.loc 1 1722 3 view .LVU914
 3067              		.loc 1 1722 6 is_stmt 0 view .LVU915
 3068 0010 022C     		cmp	r4, #2
 3069 0012 26D8     		bhi	.L189
 3070              	.LBB36:
1723:Middlewares/Third_Party/SEGGER/RTT/SEGGER_RTT.c ****     SEGGER_RTT_LOCK();
 3071              		.loc 1 1723 5 is_stmt 1 view .LVU916
 3072              		.loc 1 1723 5 view .LVU917
 3073              		.syntax unified
 3074              	@ 1723 "Middlewares/Third_Party/SEGGER/RTT/SEGGER_RTT.c" 1
 3075 0014 EFF31180 		mrs   r0, basepri  
 3076 0018 4FF02001 		mov   r1, #32       
 3077 001c 81F31188 		msr   basepri, r1  
 3078              		
 3079              	@ 0 "" 2
 3080              	.LVL308:
 3081              		.loc 1 1723 22 view .LVU918
1724:Middlewares/Third_Party/SEGGER/RTT/SEGGER_RTT.c ****     pDown = &pRTTCB->aDown[BufferIndex];
 3082              		.loc 1 1724 5 view .LVU919
1725:Middlewares/Third_Party/SEGGER/RTT/SEGGER_RTT.c ****     if (BufferIndex) {
 3083              		.loc 1 1725 5 view .LVU920
 3084              		.loc 1 1725 8 is_stmt 0 view .LVU921
ARM GAS  C:\Users\Administrator\AppData\Local\Temp\ccUGyMKj.s 			page 90


 3085              		.thumb
 3086              		.syntax unified
 3087 0020 7CB1     		cbz	r4, .L188
1726:Middlewares/Third_Party/SEGGER/RTT/SEGGER_RTT.c ****       pDown->sName        = sName;
 3088              		.loc 1 1726 7 is_stmt 1 view .LVU922
 3089              		.loc 1 1726 27 is_stmt 0 view .LVU923
 3090 0022 04EB4402 		add	r2, r4, r4, lsl #1
 3091 0026 104B     		ldr	r3, .L192
 3092 0028 03EBC20C 		add	ip, r3, r2, lsl #3
 3093 002c CCF86050 		str	r5, [ip, #96]
1727:Middlewares/Third_Party/SEGGER/RTT/SEGGER_RTT.c ****       pDown->pBuffer      = (char*)pBuffer;
 3094              		.loc 1 1727 7 is_stmt 1 view .LVU924
 3095              		.loc 1 1727 27 is_stmt 0 view .LVU925
 3096 0030 CCF86460 		str	r6, [ip, #100]
1728:Middlewares/Third_Party/SEGGER/RTT/SEGGER_RTT.c ****       pDown->SizeOfBuffer = BufferSize;
 3097              		.loc 1 1728 7 is_stmt 1 view .LVU926
 3098              		.loc 1 1728 27 is_stmt 0 view .LVU927
 3099 0034 CCF86870 		str	r7, [ip, #104]
1729:Middlewares/Third_Party/SEGGER/RTT/SEGGER_RTT.c ****       pDown->RdOff        = 0u;
 3100              		.loc 1 1729 7 is_stmt 1 view .LVU928
 3101              		.loc 1 1729 27 is_stmt 0 view .LVU929
 3102 0038 0023     		movs	r3, #0
 3103 003a CCF87030 		str	r3, [ip, #112]
1730:Middlewares/Third_Party/SEGGER/RTT/SEGGER_RTT.c ****       pDown->WrOff        = 0u;
 3104              		.loc 1 1730 7 is_stmt 1 view .LVU930
 3105              		.loc 1 1730 27 is_stmt 0 view .LVU931
 3106 003e CCF86C30 		str	r3, [ip, #108]
 3107              	.L188:
1731:Middlewares/Third_Party/SEGGER/RTT/SEGGER_RTT.c ****     }
1732:Middlewares/Third_Party/SEGGER/RTT/SEGGER_RTT.c ****     pDown->Flags          = Flags;
 3108              		.loc 1 1732 5 is_stmt 1 view .LVU932
 3109              		.loc 1 1732 27 is_stmt 0 view .LVU933
 3110 0042 04EB4404 		add	r4, r4, r4, lsl #1
 3111              	.LVL309:
 3112              		.loc 1 1732 27 view .LVU934
 3113 0046 084B     		ldr	r3, .L192
 3114 0048 03EBC403 		add	r3, r3, r4, lsl #3
 3115 004c 069A     		ldr	r2, [sp, #24]
 3116 004e 5A67     		str	r2, [r3, #116]
1733:Middlewares/Third_Party/SEGGER/RTT/SEGGER_RTT.c ****     RTT__DMB();                     // Force data write to be complete before writing the <WrOff>, 
 3117              		.loc 1 1733 5 is_stmt 1 view .LVU935
 3118              		.syntax unified
 3119              	@ 1733 "Middlewares/Third_Party/SEGGER/RTT/SEGGER_RTT.c" 1
 3120 0050 BFF35F8F 		dmb
 3121              	
 3122              	@ 0 "" 2
 3123              		.loc 1 1733 15 view .LVU936
1734:Middlewares/Third_Party/SEGGER/RTT/SEGGER_RTT.c ****     SEGGER_RTT_UNLOCK();
 3124              		.loc 1 1734 5 view .LVU937
 3125              	@ 1734 "Middlewares/Third_Party/SEGGER/RTT/SEGGER_RTT.c" 1
 3126 0054 80F31188 		msr   basepri, r0  
 3127              		
 3128              	@ 0 "" 2
 3129              		.thumb
 3130              		.syntax unified
 3131              	.LBE36:
 3132              		.loc 1 1734 24 view .LVU938
ARM GAS  C:\Users\Administrator\AppData\Local\Temp\ccUGyMKj.s 			page 91


1735:Middlewares/Third_Party/SEGGER/RTT/SEGGER_RTT.c ****     r =  0;
 3133              		.loc 1 1735 5 view .LVU939
 3134              	.LVL310:
 3135              		.loc 1 1735 7 is_stmt 0 view .LVU940
 3136 0058 0020     		movs	r0, #0
 3137              	.LVL311:
 3138              	.L185:
1736:Middlewares/Third_Party/SEGGER/RTT/SEGGER_RTT.c ****   } else {
1737:Middlewares/Third_Party/SEGGER/RTT/SEGGER_RTT.c ****     r = -1;
1738:Middlewares/Third_Party/SEGGER/RTT/SEGGER_RTT.c ****   }
1739:Middlewares/Third_Party/SEGGER/RTT/SEGGER_RTT.c ****   return r;
1740:Middlewares/Third_Party/SEGGER/RTT/SEGGER_RTT.c **** }
 3139              		.loc 1 1740 1 view .LVU941
 3140 005a F8BD     		pop	{r3, r4, r5, r6, r7, pc}
 3141              	.LVL312:
 3142              	.L191:
 3143              	.LBB37:
1720:Middlewares/Third_Party/SEGGER/RTT/SEGGER_RTT.c ****   pRTTCB = (volatile SEGGER_RTT_CB*)((unsigned char*)&_SEGGER_RTT + SEGGER_RTT_UNCACHED_OFF);  // A
 3144              		.loc 1 1720 3 is_stmt 1 discriminator 1 view .LVU942
 3145 005c FFF7FEFF 		bl	_DoInit
 3146              	.LVL313:
1720:Middlewares/Third_Party/SEGGER/RTT/SEGGER_RTT.c ****   pRTTCB = (volatile SEGGER_RTT_CB*)((unsigned char*)&_SEGGER_RTT + SEGGER_RTT_UNCACHED_OFF);  // A
 3147              		.loc 1 1720 3 is_stmt 0 discriminator 1 view .LVU943
 3148 0060 D6E7     		b	.L186
 3149              	.LVL314:
 3150              	.L189:
1720:Middlewares/Third_Party/SEGGER/RTT/SEGGER_RTT.c ****   pRTTCB = (volatile SEGGER_RTT_CB*)((unsigned char*)&_SEGGER_RTT + SEGGER_RTT_UNCACHED_OFF);  // A
 3151              		.loc 1 1720 3 discriminator 1 view .LVU944
 3152              	.LBE37:
1737:Middlewares/Third_Party/SEGGER/RTT/SEGGER_RTT.c ****   }
 3153              		.loc 1 1737 7 view .LVU945
 3154 0062 4FF0FF30 		mov	r0, #-1
 3155              	.LVL315:
1739:Middlewares/Third_Party/SEGGER/RTT/SEGGER_RTT.c **** }
 3156              		.loc 1 1739 3 is_stmt 1 view .LVU946
1739:Middlewares/Third_Party/SEGGER/RTT/SEGGER_RTT.c **** }
 3157              		.loc 1 1739 10 is_stmt 0 view .LVU947
 3158 0066 F8E7     		b	.L185
 3159              	.L193:
 3160              		.align	2
 3161              	.L192:
 3162 0068 00000000 		.word	_SEGGER_RTT
 3163              		.cfi_endproc
 3164              	.LFE26:
 3166              		.section	.text.SEGGER_RTT_SetNameUpBuffer,"ax",%progbits
 3167              		.align	1
 3168              		.global	SEGGER_RTT_SetNameUpBuffer
 3169              		.syntax unified
 3170              		.thumb
 3171              		.thumb_func
 3173              	SEGGER_RTT_SetNameUpBuffer:
 3174              	.LVL316:
 3175              	.LFB27:
1741:Middlewares/Third_Party/SEGGER/RTT/SEGGER_RTT.c **** 
1742:Middlewares/Third_Party/SEGGER/RTT/SEGGER_RTT.c **** /*********************************************************************
1743:Middlewares/Third_Party/SEGGER/RTT/SEGGER_RTT.c **** *
1744:Middlewares/Third_Party/SEGGER/RTT/SEGGER_RTT.c **** *       SEGGER_RTT_SetNameUpBuffer
ARM GAS  C:\Users\Administrator\AppData\Local\Temp\ccUGyMKj.s 			page 92


1745:Middlewares/Third_Party/SEGGER/RTT/SEGGER_RTT.c **** *
1746:Middlewares/Third_Party/SEGGER/RTT/SEGGER_RTT.c **** *  Function description
1747:Middlewares/Third_Party/SEGGER/RTT/SEGGER_RTT.c **** *    Run-time configuration of a specific up-buffer name (T->H).
1748:Middlewares/Third_Party/SEGGER/RTT/SEGGER_RTT.c **** *    Buffer to be configured is specified by index.
1749:Middlewares/Third_Party/SEGGER/RTT/SEGGER_RTT.c **** *
1750:Middlewares/Third_Party/SEGGER/RTT/SEGGER_RTT.c **** *  Parameters
1751:Middlewares/Third_Party/SEGGER/RTT/SEGGER_RTT.c **** *    BufferIndex  Index of the buffer to renamed.
1752:Middlewares/Third_Party/SEGGER/RTT/SEGGER_RTT.c **** *    sName        Pointer to a constant name string.
1753:Middlewares/Third_Party/SEGGER/RTT/SEGGER_RTT.c **** *
1754:Middlewares/Third_Party/SEGGER/RTT/SEGGER_RTT.c **** *  Return value
1755:Middlewares/Third_Party/SEGGER/RTT/SEGGER_RTT.c **** *    >= 0  O.K.
1756:Middlewares/Third_Party/SEGGER/RTT/SEGGER_RTT.c **** *     < 0  Error
1757:Middlewares/Third_Party/SEGGER/RTT/SEGGER_RTT.c **** */
1758:Middlewares/Third_Party/SEGGER/RTT/SEGGER_RTT.c **** int SEGGER_RTT_SetNameUpBuffer(unsigned BufferIndex, const char* sName) {
 3176              		.loc 1 1758 73 is_stmt 1 view -0
 3177              		.cfi_startproc
 3178              		@ args = 0, pretend = 0, frame = 0
 3179              		@ frame_needed = 0, uses_anonymous_args = 0
 3180              		.loc 1 1758 73 is_stmt 0 view .LVU949
 3181 0000 38B5     		push	{r3, r4, r5, lr}
 3182              		.cfi_def_cfa_offset 16
 3183              		.cfi_offset 3, -16
 3184              		.cfi_offset 4, -12
 3185              		.cfi_offset 5, -8
 3186              		.cfi_offset 14, -4
 3187 0002 0446     		mov	r4, r0
 3188 0004 0D46     		mov	r5, r1
1759:Middlewares/Third_Party/SEGGER/RTT/SEGGER_RTT.c ****   int r;
 3189              		.loc 1 1759 3 is_stmt 1 view .LVU950
1760:Middlewares/Third_Party/SEGGER/RTT/SEGGER_RTT.c ****   volatile SEGGER_RTT_CB* pRTTCB;
 3190              		.loc 1 1760 3 view .LVU951
1761:Middlewares/Third_Party/SEGGER/RTT/SEGGER_RTT.c ****   volatile SEGGER_RTT_BUFFER_UP* pUp;
 3191              		.loc 1 1761 3 view .LVU952
 3192              	.LBB38:
1762:Middlewares/Third_Party/SEGGER/RTT/SEGGER_RTT.c **** 
1763:Middlewares/Third_Party/SEGGER/RTT/SEGGER_RTT.c ****   INIT();
 3193              		.loc 1 1763 3 view .LVU953
 3194              		.loc 1 1763 3 view .LVU954
 3195              	.LVL317:
 3196              		.loc 1 1763 3 view .LVU955
 3197              		.loc 1 1763 3 view .LVU956
 3198 0006 0D4B     		ldr	r3, .L200
 3199 0008 1B78     		ldrb	r3, [r3]	@ zero_extendqisi2
 3200 000a 8BB1     		cbz	r3, .L199
 3201              	.LVL318:
 3202              	.L195:
 3203              		.loc 1 1763 3 view .LVU957
 3204              	.LBE38:
 3205              		.loc 1 1763 9 view .LVU958
1764:Middlewares/Third_Party/SEGGER/RTT/SEGGER_RTT.c ****   pRTTCB = (volatile SEGGER_RTT_CB*)((unsigned char*)&_SEGGER_RTT + SEGGER_RTT_UNCACHED_OFF);  // A
 3206              		.loc 1 1764 3 view .LVU959
1765:Middlewares/Third_Party/SEGGER/RTT/SEGGER_RTT.c ****   if (BufferIndex < SEGGER_RTT_MAX_NUM_UP_BUFFERS) {
 3207              		.loc 1 1765 3 view .LVU960
 3208              		.loc 1 1765 6 is_stmt 0 view .LVU961
 3209 000c 022C     		cmp	r4, #2
 3210 000e 12D8     		bhi	.L197
 3211              	.LBB39:
ARM GAS  C:\Users\Administrator\AppData\Local\Temp\ccUGyMKj.s 			page 93


1766:Middlewares/Third_Party/SEGGER/RTT/SEGGER_RTT.c ****     SEGGER_RTT_LOCK();
 3212              		.loc 1 1766 5 is_stmt 1 view .LVU962
 3213              		.loc 1 1766 5 view .LVU963
 3214              		.syntax unified
 3215              	@ 1766 "Middlewares/Third_Party/SEGGER/RTT/SEGGER_RTT.c" 1
 3216 0010 EFF31183 		mrs   r3, basepri  
 3217 0014 4FF02001 		mov   r1, #32       
 3218 0018 81F31188 		msr   basepri, r1  
 3219              		
 3220              	@ 0 "" 2
 3221              	.LVL319:
 3222              		.loc 1 1766 22 view .LVU964
1767:Middlewares/Third_Party/SEGGER/RTT/SEGGER_RTT.c ****     pUp = &pRTTCB->aUp[BufferIndex];
 3223              		.loc 1 1767 5 view .LVU965
1768:Middlewares/Third_Party/SEGGER/RTT/SEGGER_RTT.c ****     pUp->sName = sName;
 3224              		.loc 1 1768 5 view .LVU966
 3225              		.loc 1 1768 16 is_stmt 0 view .LVU967
 3226              		.thumb
 3227              		.syntax unified
 3228 001c 0134     		adds	r4, r4, #1
 3229              	.LVL320:
 3230              		.loc 1 1768 16 view .LVU968
 3231 001e 04EB4404 		add	r4, r4, r4, lsl #1
 3232              	.LVL321:
 3233              		.loc 1 1768 16 view .LVU969
 3234 0022 E400     		lsls	r4, r4, #3
 3235 0024 054A     		ldr	r2, .L200
 3236 0026 1551     		str	r5, [r2, r4]
1769:Middlewares/Third_Party/SEGGER/RTT/SEGGER_RTT.c ****     SEGGER_RTT_UNLOCK();
 3237              		.loc 1 1769 5 is_stmt 1 view .LVU970
 3238              		.syntax unified
 3239              	@ 1769 "Middlewares/Third_Party/SEGGER/RTT/SEGGER_RTT.c" 1
 3240 0028 83F31188 		msr   basepri, r3  
 3241              		
 3242              	@ 0 "" 2
 3243              		.thumb
 3244              		.syntax unified
 3245              	.LBE39:
 3246              		.loc 1 1769 24 view .LVU971
1770:Middlewares/Third_Party/SEGGER/RTT/SEGGER_RTT.c ****     r =  0;
 3247              		.loc 1 1770 5 view .LVU972
 3248              	.LVL322:
 3249              		.loc 1 1770 7 is_stmt 0 view .LVU973
 3250 002c 0020     		movs	r0, #0
 3251              	.LVL323:
 3252              	.L194:
1771:Middlewares/Third_Party/SEGGER/RTT/SEGGER_RTT.c ****   } else {
1772:Middlewares/Third_Party/SEGGER/RTT/SEGGER_RTT.c ****     r = -1;
1773:Middlewares/Third_Party/SEGGER/RTT/SEGGER_RTT.c ****   }
1774:Middlewares/Third_Party/SEGGER/RTT/SEGGER_RTT.c ****   return r;
1775:Middlewares/Third_Party/SEGGER/RTT/SEGGER_RTT.c **** }
 3253              		.loc 1 1775 1 view .LVU974
 3254 002e 38BD     		pop	{r3, r4, r5, pc}
 3255              	.LVL324:
 3256              	.L199:
 3257              	.LBB40:
1763:Middlewares/Third_Party/SEGGER/RTT/SEGGER_RTT.c ****   pRTTCB = (volatile SEGGER_RTT_CB*)((unsigned char*)&_SEGGER_RTT + SEGGER_RTT_UNCACHED_OFF);  // A
ARM GAS  C:\Users\Administrator\AppData\Local\Temp\ccUGyMKj.s 			page 94


 3258              		.loc 1 1763 3 is_stmt 1 discriminator 1 view .LVU975
 3259 0030 FFF7FEFF 		bl	_DoInit
 3260              	.LVL325:
1763:Middlewares/Third_Party/SEGGER/RTT/SEGGER_RTT.c ****   pRTTCB = (volatile SEGGER_RTT_CB*)((unsigned char*)&_SEGGER_RTT + SEGGER_RTT_UNCACHED_OFF);  // A
 3261              		.loc 1 1763 3 is_stmt 0 discriminator 1 view .LVU976
 3262 0034 EAE7     		b	.L195
 3263              	.LVL326:
 3264              	.L197:
1763:Middlewares/Third_Party/SEGGER/RTT/SEGGER_RTT.c ****   pRTTCB = (volatile SEGGER_RTT_CB*)((unsigned char*)&_SEGGER_RTT + SEGGER_RTT_UNCACHED_OFF);  // A
 3265              		.loc 1 1763 3 discriminator 1 view .LVU977
 3266              	.LBE40:
1772:Middlewares/Third_Party/SEGGER/RTT/SEGGER_RTT.c ****   }
 3267              		.loc 1 1772 7 view .LVU978
 3268 0036 4FF0FF30 		mov	r0, #-1
 3269              	.LVL327:
1774:Middlewares/Third_Party/SEGGER/RTT/SEGGER_RTT.c **** }
 3270              		.loc 1 1774 3 is_stmt 1 view .LVU979
1774:Middlewares/Third_Party/SEGGER/RTT/SEGGER_RTT.c **** }
 3271              		.loc 1 1774 10 is_stmt 0 view .LVU980
 3272 003a F8E7     		b	.L194
 3273              	.L201:
 3274              		.align	2
 3275              	.L200:
 3276 003c 00000000 		.word	_SEGGER_RTT
 3277              		.cfi_endproc
 3278              	.LFE27:
 3280              		.section	.text.SEGGER_RTT_SetNameDownBuffer,"ax",%progbits
 3281              		.align	1
 3282              		.global	SEGGER_RTT_SetNameDownBuffer
 3283              		.syntax unified
 3284              		.thumb
 3285              		.thumb_func
 3287              	SEGGER_RTT_SetNameDownBuffer:
 3288              	.LVL328:
 3289              	.LFB28:
1776:Middlewares/Third_Party/SEGGER/RTT/SEGGER_RTT.c **** 
1777:Middlewares/Third_Party/SEGGER/RTT/SEGGER_RTT.c **** /*********************************************************************
1778:Middlewares/Third_Party/SEGGER/RTT/SEGGER_RTT.c **** *
1779:Middlewares/Third_Party/SEGGER/RTT/SEGGER_RTT.c **** *       SEGGER_RTT_SetNameDownBuffer
1780:Middlewares/Third_Party/SEGGER/RTT/SEGGER_RTT.c **** *
1781:Middlewares/Third_Party/SEGGER/RTT/SEGGER_RTT.c **** *  Function description
1782:Middlewares/Third_Party/SEGGER/RTT/SEGGER_RTT.c **** *    Run-time configuration of a specific Down-buffer name (T->H).
1783:Middlewares/Third_Party/SEGGER/RTT/SEGGER_RTT.c **** *    Buffer to be configured is specified by index.
1784:Middlewares/Third_Party/SEGGER/RTT/SEGGER_RTT.c **** *
1785:Middlewares/Third_Party/SEGGER/RTT/SEGGER_RTT.c **** *  Parameters
1786:Middlewares/Third_Party/SEGGER/RTT/SEGGER_RTT.c **** *    BufferIndex  Index of the buffer to renamed.
1787:Middlewares/Third_Party/SEGGER/RTT/SEGGER_RTT.c **** *    sName        Pointer to a constant name string.
1788:Middlewares/Third_Party/SEGGER/RTT/SEGGER_RTT.c **** *
1789:Middlewares/Third_Party/SEGGER/RTT/SEGGER_RTT.c **** *  Return value
1790:Middlewares/Third_Party/SEGGER/RTT/SEGGER_RTT.c **** *    >= 0  O.K.
1791:Middlewares/Third_Party/SEGGER/RTT/SEGGER_RTT.c **** *     < 0  Error
1792:Middlewares/Third_Party/SEGGER/RTT/SEGGER_RTT.c **** */
1793:Middlewares/Third_Party/SEGGER/RTT/SEGGER_RTT.c **** int SEGGER_RTT_SetNameDownBuffer(unsigned BufferIndex, const char* sName) {
 3290              		.loc 1 1793 75 is_stmt 1 view -0
 3291              		.cfi_startproc
 3292              		@ args = 0, pretend = 0, frame = 0
 3293              		@ frame_needed = 0, uses_anonymous_args = 0
ARM GAS  C:\Users\Administrator\AppData\Local\Temp\ccUGyMKj.s 			page 95


 3294              		.loc 1 1793 75 is_stmt 0 view .LVU982
 3295 0000 38B5     		push	{r3, r4, r5, lr}
 3296              		.cfi_def_cfa_offset 16
 3297              		.cfi_offset 3, -16
 3298              		.cfi_offset 4, -12
 3299              		.cfi_offset 5, -8
 3300              		.cfi_offset 14, -4
 3301 0002 0446     		mov	r4, r0
 3302 0004 0D46     		mov	r5, r1
1794:Middlewares/Third_Party/SEGGER/RTT/SEGGER_RTT.c ****   int r;
 3303              		.loc 1 1794 3 is_stmt 1 view .LVU983
1795:Middlewares/Third_Party/SEGGER/RTT/SEGGER_RTT.c ****   volatile SEGGER_RTT_CB* pRTTCB;
 3304              		.loc 1 1795 3 view .LVU984
1796:Middlewares/Third_Party/SEGGER/RTT/SEGGER_RTT.c ****   volatile SEGGER_RTT_BUFFER_DOWN* pDown;
 3305              		.loc 1 1796 3 view .LVU985
 3306              	.LBB41:
1797:Middlewares/Third_Party/SEGGER/RTT/SEGGER_RTT.c **** 
1798:Middlewares/Third_Party/SEGGER/RTT/SEGGER_RTT.c ****   INIT();
 3307              		.loc 1 1798 3 view .LVU986
 3308              		.loc 1 1798 3 view .LVU987
 3309              	.LVL329:
 3310              		.loc 1 1798 3 view .LVU988
 3311              		.loc 1 1798 3 view .LVU989
 3312 0006 0D4B     		ldr	r3, .L208
 3313 0008 1B78     		ldrb	r3, [r3]	@ zero_extendqisi2
 3314 000a 8BB1     		cbz	r3, .L207
 3315              	.LVL330:
 3316              	.L203:
 3317              		.loc 1 1798 3 view .LVU990
 3318              	.LBE41:
 3319              		.loc 1 1798 9 view .LVU991
1799:Middlewares/Third_Party/SEGGER/RTT/SEGGER_RTT.c ****   pRTTCB = (volatile SEGGER_RTT_CB*)((unsigned char*)&_SEGGER_RTT + SEGGER_RTT_UNCACHED_OFF);  // A
 3320              		.loc 1 1799 3 view .LVU992
1800:Middlewares/Third_Party/SEGGER/RTT/SEGGER_RTT.c ****   if (BufferIndex < SEGGER_RTT_MAX_NUM_DOWN_BUFFERS) {
 3321              		.loc 1 1800 3 view .LVU993
 3322              		.loc 1 1800 6 is_stmt 0 view .LVU994
 3323 000c 022C     		cmp	r4, #2
 3324 000e 12D8     		bhi	.L205
 3325              	.LBB42:
1801:Middlewares/Third_Party/SEGGER/RTT/SEGGER_RTT.c ****     SEGGER_RTT_LOCK();
 3326              		.loc 1 1801 5 is_stmt 1 view .LVU995
 3327              		.loc 1 1801 5 view .LVU996
 3328              		.syntax unified
 3329              	@ 1801 "Middlewares/Third_Party/SEGGER/RTT/SEGGER_RTT.c" 1
 3330 0010 EFF31182 		mrs   r2, basepri  
 3331 0014 4FF02001 		mov   r1, #32       
 3332 0018 81F31188 		msr   basepri, r1  
 3333              		
 3334              	@ 0 "" 2
 3335              	.LVL331:
 3336              		.loc 1 1801 22 view .LVU997
1802:Middlewares/Third_Party/SEGGER/RTT/SEGGER_RTT.c ****     pDown = &pRTTCB->aDown[BufferIndex];
 3337              		.loc 1 1802 5 view .LVU998
1803:Middlewares/Third_Party/SEGGER/RTT/SEGGER_RTT.c ****     pDown->sName = sName;
 3338              		.loc 1 1803 5 view .LVU999
 3339              		.loc 1 1803 18 is_stmt 0 view .LVU1000
 3340              		.thumb
ARM GAS  C:\Users\Administrator\AppData\Local\Temp\ccUGyMKj.s 			page 96


 3341              		.syntax unified
 3342 001c 04EB4404 		add	r4, r4, r4, lsl #1
 3343              	.LVL332:
 3344              		.loc 1 1803 18 view .LVU1001
 3345 0020 064B     		ldr	r3, .L208
 3346 0022 03EBC403 		add	r3, r3, r4, lsl #3
 3347 0026 1D66     		str	r5, [r3, #96]
1804:Middlewares/Third_Party/SEGGER/RTT/SEGGER_RTT.c ****     SEGGER_RTT_UNLOCK();
 3348              		.loc 1 1804 5 is_stmt 1 view .LVU1002
 3349              		.syntax unified
 3350              	@ 1804 "Middlewares/Third_Party/SEGGER/RTT/SEGGER_RTT.c" 1
 3351 0028 82F31188 		msr   basepri, r2  
 3352              		
 3353              	@ 0 "" 2
 3354              		.thumb
 3355              		.syntax unified
 3356              	.LBE42:
 3357              		.loc 1 1804 24 view .LVU1003
1805:Middlewares/Third_Party/SEGGER/RTT/SEGGER_RTT.c ****     r =  0;
 3358              		.loc 1 1805 5 view .LVU1004
 3359              	.LVL333:
 3360              		.loc 1 1805 7 is_stmt 0 view .LVU1005
 3361 002c 0020     		movs	r0, #0
 3362              	.LVL334:
 3363              	.L202:
1806:Middlewares/Third_Party/SEGGER/RTT/SEGGER_RTT.c ****   } else {
1807:Middlewares/Third_Party/SEGGER/RTT/SEGGER_RTT.c ****     r = -1;
1808:Middlewares/Third_Party/SEGGER/RTT/SEGGER_RTT.c ****   }
1809:Middlewares/Third_Party/SEGGER/RTT/SEGGER_RTT.c ****   return r;
1810:Middlewares/Third_Party/SEGGER/RTT/SEGGER_RTT.c **** }
 3364              		.loc 1 1810 1 view .LVU1006
 3365 002e 38BD     		pop	{r3, r4, r5, pc}
 3366              	.LVL335:
 3367              	.L207:
 3368              	.LBB43:
1798:Middlewares/Third_Party/SEGGER/RTT/SEGGER_RTT.c ****   pRTTCB = (volatile SEGGER_RTT_CB*)((unsigned char*)&_SEGGER_RTT + SEGGER_RTT_UNCACHED_OFF);  // A
 3369              		.loc 1 1798 3 is_stmt 1 discriminator 1 view .LVU1007
 3370 0030 FFF7FEFF 		bl	_DoInit
 3371              	.LVL336:
1798:Middlewares/Third_Party/SEGGER/RTT/SEGGER_RTT.c ****   pRTTCB = (volatile SEGGER_RTT_CB*)((unsigned char*)&_SEGGER_RTT + SEGGER_RTT_UNCACHED_OFF);  // A
 3372              		.loc 1 1798 3 is_stmt 0 discriminator 1 view .LVU1008
 3373 0034 EAE7     		b	.L203
 3374              	.LVL337:
 3375              	.L205:
1798:Middlewares/Third_Party/SEGGER/RTT/SEGGER_RTT.c ****   pRTTCB = (volatile SEGGER_RTT_CB*)((unsigned char*)&_SEGGER_RTT + SEGGER_RTT_UNCACHED_OFF);  // A
 3376              		.loc 1 1798 3 discriminator 1 view .LVU1009
 3377              	.LBE43:
1807:Middlewares/Third_Party/SEGGER/RTT/SEGGER_RTT.c ****   }
 3378              		.loc 1 1807 7 view .LVU1010
 3379 0036 4FF0FF30 		mov	r0, #-1
 3380              	.LVL338:
1809:Middlewares/Third_Party/SEGGER/RTT/SEGGER_RTT.c **** }
 3381              		.loc 1 1809 3 is_stmt 1 view .LVU1011
1809:Middlewares/Third_Party/SEGGER/RTT/SEGGER_RTT.c **** }
 3382              		.loc 1 1809 10 is_stmt 0 view .LVU1012
 3383 003a F8E7     		b	.L202
 3384              	.L209:
ARM GAS  C:\Users\Administrator\AppData\Local\Temp\ccUGyMKj.s 			page 97


 3385              		.align	2
 3386              	.L208:
 3387 003c 00000000 		.word	_SEGGER_RTT
 3388              		.cfi_endproc
 3389              	.LFE28:
 3391              		.section	.text.SEGGER_RTT_SetFlagsUpBuffer,"ax",%progbits
 3392              		.align	1
 3393              		.global	SEGGER_RTT_SetFlagsUpBuffer
 3394              		.syntax unified
 3395              		.thumb
 3396              		.thumb_func
 3398              	SEGGER_RTT_SetFlagsUpBuffer:
 3399              	.LVL339:
 3400              	.LFB29:
1811:Middlewares/Third_Party/SEGGER/RTT/SEGGER_RTT.c **** 
1812:Middlewares/Third_Party/SEGGER/RTT/SEGGER_RTT.c **** /*********************************************************************
1813:Middlewares/Third_Party/SEGGER/RTT/SEGGER_RTT.c **** *
1814:Middlewares/Third_Party/SEGGER/RTT/SEGGER_RTT.c **** *       SEGGER_RTT_SetFlagsUpBuffer
1815:Middlewares/Third_Party/SEGGER/RTT/SEGGER_RTT.c **** *
1816:Middlewares/Third_Party/SEGGER/RTT/SEGGER_RTT.c **** *  Function description
1817:Middlewares/Third_Party/SEGGER/RTT/SEGGER_RTT.c **** *    Run-time configuration of specific up-buffer flags (T->H).
1818:Middlewares/Third_Party/SEGGER/RTT/SEGGER_RTT.c **** *    Buffer to be configured is specified by index.
1819:Middlewares/Third_Party/SEGGER/RTT/SEGGER_RTT.c **** *
1820:Middlewares/Third_Party/SEGGER/RTT/SEGGER_RTT.c **** *  Parameters
1821:Middlewares/Third_Party/SEGGER/RTT/SEGGER_RTT.c **** *    BufferIndex  Index of the buffer.
1822:Middlewares/Third_Party/SEGGER/RTT/SEGGER_RTT.c **** *    Flags        Flags to set for the buffer.
1823:Middlewares/Third_Party/SEGGER/RTT/SEGGER_RTT.c **** *
1824:Middlewares/Third_Party/SEGGER/RTT/SEGGER_RTT.c **** *  Return value
1825:Middlewares/Third_Party/SEGGER/RTT/SEGGER_RTT.c **** *    >= 0  O.K.
1826:Middlewares/Third_Party/SEGGER/RTT/SEGGER_RTT.c **** *     < 0  Error
1827:Middlewares/Third_Party/SEGGER/RTT/SEGGER_RTT.c **** */
1828:Middlewares/Third_Party/SEGGER/RTT/SEGGER_RTT.c **** int SEGGER_RTT_SetFlagsUpBuffer(unsigned BufferIndex, unsigned Flags) {
 3401              		.loc 1 1828 71 is_stmt 1 view -0
 3402              		.cfi_startproc
 3403              		@ args = 0, pretend = 0, frame = 0
 3404              		@ frame_needed = 0, uses_anonymous_args = 0
 3405              		.loc 1 1828 71 is_stmt 0 view .LVU1014
 3406 0000 38B5     		push	{r3, r4, r5, lr}
 3407              		.cfi_def_cfa_offset 16
 3408              		.cfi_offset 3, -16
 3409              		.cfi_offset 4, -12
 3410              		.cfi_offset 5, -8
 3411              		.cfi_offset 14, -4
 3412 0002 0446     		mov	r4, r0
 3413 0004 0D46     		mov	r5, r1
1829:Middlewares/Third_Party/SEGGER/RTT/SEGGER_RTT.c ****   int r;
 3414              		.loc 1 1829 3 is_stmt 1 view .LVU1015
1830:Middlewares/Third_Party/SEGGER/RTT/SEGGER_RTT.c ****   volatile SEGGER_RTT_CB* pRTTCB;
 3415              		.loc 1 1830 3 view .LVU1016
1831:Middlewares/Third_Party/SEGGER/RTT/SEGGER_RTT.c ****   volatile SEGGER_RTT_BUFFER_UP* pUp;
 3416              		.loc 1 1831 3 view .LVU1017
 3417              	.LBB44:
1832:Middlewares/Third_Party/SEGGER/RTT/SEGGER_RTT.c **** 
1833:Middlewares/Third_Party/SEGGER/RTT/SEGGER_RTT.c ****   INIT();
 3418              		.loc 1 1833 3 view .LVU1018
 3419              		.loc 1 1833 3 view .LVU1019
 3420              	.LVL340:
ARM GAS  C:\Users\Administrator\AppData\Local\Temp\ccUGyMKj.s 			page 98


 3421              		.loc 1 1833 3 view .LVU1020
 3422              		.loc 1 1833 3 view .LVU1021
 3423 0006 0D4B     		ldr	r3, .L216
 3424 0008 1B78     		ldrb	r3, [r3]	@ zero_extendqisi2
 3425 000a 8BB1     		cbz	r3, .L215
 3426              	.LVL341:
 3427              	.L211:
 3428              		.loc 1 1833 3 view .LVU1022
 3429              	.LBE44:
 3430              		.loc 1 1833 9 view .LVU1023
1834:Middlewares/Third_Party/SEGGER/RTT/SEGGER_RTT.c ****   pRTTCB = (volatile SEGGER_RTT_CB*)((unsigned char*)&_SEGGER_RTT + SEGGER_RTT_UNCACHED_OFF);  // A
 3431              		.loc 1 1834 3 view .LVU1024
1835:Middlewares/Third_Party/SEGGER/RTT/SEGGER_RTT.c ****   if (BufferIndex < SEGGER_RTT_MAX_NUM_UP_BUFFERS) {
 3432              		.loc 1 1835 3 view .LVU1025
 3433              		.loc 1 1835 6 is_stmt 0 view .LVU1026
 3434 000c 022C     		cmp	r4, #2
 3435 000e 12D8     		bhi	.L213
 3436              	.LBB45:
1836:Middlewares/Third_Party/SEGGER/RTT/SEGGER_RTT.c ****     SEGGER_RTT_LOCK();
 3437              		.loc 1 1836 5 is_stmt 1 view .LVU1027
 3438              		.loc 1 1836 5 view .LVU1028
 3439              		.syntax unified
 3440              	@ 1836 "Middlewares/Third_Party/SEGGER/RTT/SEGGER_RTT.c" 1
 3441 0010 EFF31182 		mrs   r2, basepri  
 3442 0014 4FF02001 		mov   r1, #32       
 3443 0018 81F31188 		msr   basepri, r1  
 3444              		
 3445              	@ 0 "" 2
 3446              	.LVL342:
 3447              		.loc 1 1836 22 view .LVU1029
1837:Middlewares/Third_Party/SEGGER/RTT/SEGGER_RTT.c ****     pUp = &pRTTCB->aUp[BufferIndex];
 3448              		.loc 1 1837 5 view .LVU1030
1838:Middlewares/Third_Party/SEGGER/RTT/SEGGER_RTT.c ****     pUp->Flags = Flags;
 3449              		.loc 1 1838 5 view .LVU1031
 3450              		.loc 1 1838 16 is_stmt 0 view .LVU1032
 3451              		.thumb
 3452              		.syntax unified
 3453 001c 04EB4404 		add	r4, r4, r4, lsl #1
 3454              	.LVL343:
 3455              		.loc 1 1838 16 view .LVU1033
 3456 0020 064B     		ldr	r3, .L216
 3457 0022 03EBC403 		add	r3, r3, r4, lsl #3
 3458 0026 DD62     		str	r5, [r3, #44]
1839:Middlewares/Third_Party/SEGGER/RTT/SEGGER_RTT.c ****     SEGGER_RTT_UNLOCK();
 3459              		.loc 1 1839 5 is_stmt 1 view .LVU1034
 3460              		.syntax unified
 3461              	@ 1839 "Middlewares/Third_Party/SEGGER/RTT/SEGGER_RTT.c" 1
 3462 0028 82F31188 		msr   basepri, r2  
 3463              		
 3464              	@ 0 "" 2
 3465              		.thumb
 3466              		.syntax unified
 3467              	.LBE45:
 3468              		.loc 1 1839 24 view .LVU1035
1840:Middlewares/Third_Party/SEGGER/RTT/SEGGER_RTT.c ****     r =  0;
 3469              		.loc 1 1840 5 view .LVU1036
 3470              	.LVL344:
ARM GAS  C:\Users\Administrator\AppData\Local\Temp\ccUGyMKj.s 			page 99


 3471              		.loc 1 1840 7 is_stmt 0 view .LVU1037
 3472 002c 0020     		movs	r0, #0
 3473              	.LVL345:
 3474              	.L210:
1841:Middlewares/Third_Party/SEGGER/RTT/SEGGER_RTT.c ****   } else {
1842:Middlewares/Third_Party/SEGGER/RTT/SEGGER_RTT.c ****     r = -1;
1843:Middlewares/Third_Party/SEGGER/RTT/SEGGER_RTT.c ****   }
1844:Middlewares/Third_Party/SEGGER/RTT/SEGGER_RTT.c ****   return r;
1845:Middlewares/Third_Party/SEGGER/RTT/SEGGER_RTT.c **** }
 3475              		.loc 1 1845 1 view .LVU1038
 3476 002e 38BD     		pop	{r3, r4, r5, pc}
 3477              	.LVL346:
 3478              	.L215:
 3479              	.LBB46:
1833:Middlewares/Third_Party/SEGGER/RTT/SEGGER_RTT.c ****   pRTTCB = (volatile SEGGER_RTT_CB*)((unsigned char*)&_SEGGER_RTT + SEGGER_RTT_UNCACHED_OFF);  // A
 3480              		.loc 1 1833 3 is_stmt 1 discriminator 1 view .LVU1039
 3481 0030 FFF7FEFF 		bl	_DoInit
 3482              	.LVL347:
1833:Middlewares/Third_Party/SEGGER/RTT/SEGGER_RTT.c ****   pRTTCB = (volatile SEGGER_RTT_CB*)((unsigned char*)&_SEGGER_RTT + SEGGER_RTT_UNCACHED_OFF);  // A
 3483              		.loc 1 1833 3 is_stmt 0 discriminator 1 view .LVU1040
 3484 0034 EAE7     		b	.L211
 3485              	.LVL348:
 3486              	.L213:
1833:Middlewares/Third_Party/SEGGER/RTT/SEGGER_RTT.c ****   pRTTCB = (volatile SEGGER_RTT_CB*)((unsigned char*)&_SEGGER_RTT + SEGGER_RTT_UNCACHED_OFF);  // A
 3487              		.loc 1 1833 3 discriminator 1 view .LVU1041
 3488              	.LBE46:
1842:Middlewares/Third_Party/SEGGER/RTT/SEGGER_RTT.c ****   }
 3489              		.loc 1 1842 7 view .LVU1042
 3490 0036 4FF0FF30 		mov	r0, #-1
 3491              	.LVL349:
1844:Middlewares/Third_Party/SEGGER/RTT/SEGGER_RTT.c **** }
 3492              		.loc 1 1844 3 is_stmt 1 view .LVU1043
1844:Middlewares/Third_Party/SEGGER/RTT/SEGGER_RTT.c **** }
 3493              		.loc 1 1844 10 is_stmt 0 view .LVU1044
 3494 003a F8E7     		b	.L210
 3495              	.L217:
 3496              		.align	2
 3497              	.L216:
 3498 003c 00000000 		.word	_SEGGER_RTT
 3499              		.cfi_endproc
 3500              	.LFE29:
 3502              		.section	.text.SEGGER_RTT_SetFlagsDownBuffer,"ax",%progbits
 3503              		.align	1
 3504              		.global	SEGGER_RTT_SetFlagsDownBuffer
 3505              		.syntax unified
 3506              		.thumb
 3507              		.thumb_func
 3509              	SEGGER_RTT_SetFlagsDownBuffer:
 3510              	.LVL350:
 3511              	.LFB30:
1846:Middlewares/Third_Party/SEGGER/RTT/SEGGER_RTT.c **** 
1847:Middlewares/Third_Party/SEGGER/RTT/SEGGER_RTT.c **** /*********************************************************************
1848:Middlewares/Third_Party/SEGGER/RTT/SEGGER_RTT.c **** *
1849:Middlewares/Third_Party/SEGGER/RTT/SEGGER_RTT.c **** *       SEGGER_RTT_SetFlagsDownBuffer
1850:Middlewares/Third_Party/SEGGER/RTT/SEGGER_RTT.c **** *
1851:Middlewares/Third_Party/SEGGER/RTT/SEGGER_RTT.c **** *  Function description
1852:Middlewares/Third_Party/SEGGER/RTT/SEGGER_RTT.c **** *    Run-time configuration of specific Down-buffer flags (T->H).
ARM GAS  C:\Users\Administrator\AppData\Local\Temp\ccUGyMKj.s 			page 100


1853:Middlewares/Third_Party/SEGGER/RTT/SEGGER_RTT.c **** *    Buffer to be configured is specified by index.
1854:Middlewares/Third_Party/SEGGER/RTT/SEGGER_RTT.c **** *
1855:Middlewares/Third_Party/SEGGER/RTT/SEGGER_RTT.c **** *  Parameters
1856:Middlewares/Third_Party/SEGGER/RTT/SEGGER_RTT.c **** *    BufferIndex  Index of the buffer to renamed.
1857:Middlewares/Third_Party/SEGGER/RTT/SEGGER_RTT.c **** *    Flags        Flags to set for the buffer.
1858:Middlewares/Third_Party/SEGGER/RTT/SEGGER_RTT.c **** *
1859:Middlewares/Third_Party/SEGGER/RTT/SEGGER_RTT.c **** *  Return value
1860:Middlewares/Third_Party/SEGGER/RTT/SEGGER_RTT.c **** *    >= 0  O.K.
1861:Middlewares/Third_Party/SEGGER/RTT/SEGGER_RTT.c **** *     < 0  Error
1862:Middlewares/Third_Party/SEGGER/RTT/SEGGER_RTT.c **** */
1863:Middlewares/Third_Party/SEGGER/RTT/SEGGER_RTT.c **** int SEGGER_RTT_SetFlagsDownBuffer(unsigned BufferIndex, unsigned Flags) {
 3512              		.loc 1 1863 73 is_stmt 1 view -0
 3513              		.cfi_startproc
 3514              		@ args = 0, pretend = 0, frame = 0
 3515              		@ frame_needed = 0, uses_anonymous_args = 0
 3516              		.loc 1 1863 73 is_stmt 0 view .LVU1046
 3517 0000 38B5     		push	{r3, r4, r5, lr}
 3518              		.cfi_def_cfa_offset 16
 3519              		.cfi_offset 3, -16
 3520              		.cfi_offset 4, -12
 3521              		.cfi_offset 5, -8
 3522              		.cfi_offset 14, -4
 3523 0002 0446     		mov	r4, r0
 3524 0004 0D46     		mov	r5, r1
1864:Middlewares/Third_Party/SEGGER/RTT/SEGGER_RTT.c ****   int r;
 3525              		.loc 1 1864 3 is_stmt 1 view .LVU1047
1865:Middlewares/Third_Party/SEGGER/RTT/SEGGER_RTT.c ****   volatile SEGGER_RTT_CB* pRTTCB;
 3526              		.loc 1 1865 3 view .LVU1048
1866:Middlewares/Third_Party/SEGGER/RTT/SEGGER_RTT.c ****   volatile SEGGER_RTT_BUFFER_DOWN* pDown;
 3527              		.loc 1 1866 3 view .LVU1049
 3528              	.LBB47:
1867:Middlewares/Third_Party/SEGGER/RTT/SEGGER_RTT.c **** 
1868:Middlewares/Third_Party/SEGGER/RTT/SEGGER_RTT.c ****   INIT();
 3529              		.loc 1 1868 3 view .LVU1050
 3530              		.loc 1 1868 3 view .LVU1051
 3531              	.LVL351:
 3532              		.loc 1 1868 3 view .LVU1052
 3533              		.loc 1 1868 3 view .LVU1053
 3534 0006 0D4B     		ldr	r3, .L224
 3535 0008 1B78     		ldrb	r3, [r3]	@ zero_extendqisi2
 3536 000a 8BB1     		cbz	r3, .L223
 3537              	.LVL352:
 3538              	.L219:
 3539              		.loc 1 1868 3 view .LVU1054
 3540              	.LBE47:
 3541              		.loc 1 1868 9 view .LVU1055
1869:Middlewares/Third_Party/SEGGER/RTT/SEGGER_RTT.c ****   pRTTCB = (volatile SEGGER_RTT_CB*)((unsigned char*)&_SEGGER_RTT + SEGGER_RTT_UNCACHED_OFF);  // A
 3542              		.loc 1 1869 3 view .LVU1056
1870:Middlewares/Third_Party/SEGGER/RTT/SEGGER_RTT.c ****   if (BufferIndex < SEGGER_RTT_MAX_NUM_DOWN_BUFFERS) {
 3543              		.loc 1 1870 3 view .LVU1057
 3544              		.loc 1 1870 6 is_stmt 0 view .LVU1058
 3545 000c 022C     		cmp	r4, #2
 3546 000e 12D8     		bhi	.L221
 3547              	.LBB48:
1871:Middlewares/Third_Party/SEGGER/RTT/SEGGER_RTT.c ****     SEGGER_RTT_LOCK();
 3548              		.loc 1 1871 5 is_stmt 1 view .LVU1059
 3549              		.loc 1 1871 5 view .LVU1060
ARM GAS  C:\Users\Administrator\AppData\Local\Temp\ccUGyMKj.s 			page 101


 3550              		.syntax unified
 3551              	@ 1871 "Middlewares/Third_Party/SEGGER/RTT/SEGGER_RTT.c" 1
 3552 0010 EFF31182 		mrs   r2, basepri  
 3553 0014 4FF02001 		mov   r1, #32       
 3554 0018 81F31188 		msr   basepri, r1  
 3555              		
 3556              	@ 0 "" 2
 3557              	.LVL353:
 3558              		.loc 1 1871 22 view .LVU1061
1872:Middlewares/Third_Party/SEGGER/RTT/SEGGER_RTT.c ****     pDown = &pRTTCB->aDown[BufferIndex];
 3559              		.loc 1 1872 5 view .LVU1062
1873:Middlewares/Third_Party/SEGGER/RTT/SEGGER_RTT.c ****     pDown->Flags = Flags;
 3560              		.loc 1 1873 5 view .LVU1063
 3561              		.loc 1 1873 18 is_stmt 0 view .LVU1064
 3562              		.thumb
 3563              		.syntax unified
 3564 001c 04EB4404 		add	r4, r4, r4, lsl #1
 3565              	.LVL354:
 3566              		.loc 1 1873 18 view .LVU1065
 3567 0020 064B     		ldr	r3, .L224
 3568 0022 03EBC403 		add	r3, r3, r4, lsl #3
 3569 0026 5D67     		str	r5, [r3, #116]
1874:Middlewares/Third_Party/SEGGER/RTT/SEGGER_RTT.c ****     SEGGER_RTT_UNLOCK();
 3570              		.loc 1 1874 5 is_stmt 1 view .LVU1066
 3571              		.syntax unified
 3572              	@ 1874 "Middlewares/Third_Party/SEGGER/RTT/SEGGER_RTT.c" 1
 3573 0028 82F31188 		msr   basepri, r2  
 3574              		
 3575              	@ 0 "" 2
 3576              		.thumb
 3577              		.syntax unified
 3578              	.LBE48:
 3579              		.loc 1 1874 24 view .LVU1067
1875:Middlewares/Third_Party/SEGGER/RTT/SEGGER_RTT.c ****     r =  0;
 3580              		.loc 1 1875 5 view .LVU1068
 3581              	.LVL355:
 3582              		.loc 1 1875 7 is_stmt 0 view .LVU1069
 3583 002c 0020     		movs	r0, #0
 3584              	.LVL356:
 3585              	.L218:
1876:Middlewares/Third_Party/SEGGER/RTT/SEGGER_RTT.c ****   } else {
1877:Middlewares/Third_Party/SEGGER/RTT/SEGGER_RTT.c ****     r = -1;
1878:Middlewares/Third_Party/SEGGER/RTT/SEGGER_RTT.c ****   }
1879:Middlewares/Third_Party/SEGGER/RTT/SEGGER_RTT.c ****   return r;
1880:Middlewares/Third_Party/SEGGER/RTT/SEGGER_RTT.c **** }
 3586              		.loc 1 1880 1 view .LVU1070
 3587 002e 38BD     		pop	{r3, r4, r5, pc}
 3588              	.LVL357:
 3589              	.L223:
 3590              	.LBB49:
1868:Middlewares/Third_Party/SEGGER/RTT/SEGGER_RTT.c ****   pRTTCB = (volatile SEGGER_RTT_CB*)((unsigned char*)&_SEGGER_RTT + SEGGER_RTT_UNCACHED_OFF);  // A
 3591              		.loc 1 1868 3 is_stmt 1 discriminator 1 view .LVU1071
 3592 0030 FFF7FEFF 		bl	_DoInit
 3593              	.LVL358:
1868:Middlewares/Third_Party/SEGGER/RTT/SEGGER_RTT.c ****   pRTTCB = (volatile SEGGER_RTT_CB*)((unsigned char*)&_SEGGER_RTT + SEGGER_RTT_UNCACHED_OFF);  // A
 3594              		.loc 1 1868 3 is_stmt 0 discriminator 1 view .LVU1072
 3595 0034 EAE7     		b	.L219
ARM GAS  C:\Users\Administrator\AppData\Local\Temp\ccUGyMKj.s 			page 102


 3596              	.LVL359:
 3597              	.L221:
1868:Middlewares/Third_Party/SEGGER/RTT/SEGGER_RTT.c ****   pRTTCB = (volatile SEGGER_RTT_CB*)((unsigned char*)&_SEGGER_RTT + SEGGER_RTT_UNCACHED_OFF);  // A
 3598              		.loc 1 1868 3 discriminator 1 view .LVU1073
 3599              	.LBE49:
1877:Middlewares/Third_Party/SEGGER/RTT/SEGGER_RTT.c ****   }
 3600              		.loc 1 1877 7 view .LVU1074
 3601 0036 4FF0FF30 		mov	r0, #-1
 3602              	.LVL360:
1879:Middlewares/Third_Party/SEGGER/RTT/SEGGER_RTT.c **** }
 3603              		.loc 1 1879 3 is_stmt 1 view .LVU1075
1879:Middlewares/Third_Party/SEGGER/RTT/SEGGER_RTT.c **** }
 3604              		.loc 1 1879 10 is_stmt 0 view .LVU1076
 3605 003a F8E7     		b	.L218
 3606              	.L225:
 3607              		.align	2
 3608              	.L224:
 3609 003c 00000000 		.word	_SEGGER_RTT
 3610              		.cfi_endproc
 3611              	.LFE30:
 3613              		.section	.text.SEGGER_RTT_Init,"ax",%progbits
 3614              		.align	1
 3615              		.global	SEGGER_RTT_Init
 3616              		.syntax unified
 3617              		.thumb
 3618              		.thumb_func
 3620              	SEGGER_RTT_Init:
 3621              	.LFB31:
1881:Middlewares/Third_Party/SEGGER/RTT/SEGGER_RTT.c **** 
1882:Middlewares/Third_Party/SEGGER/RTT/SEGGER_RTT.c **** /*********************************************************************
1883:Middlewares/Third_Party/SEGGER/RTT/SEGGER_RTT.c **** *
1884:Middlewares/Third_Party/SEGGER/RTT/SEGGER_RTT.c **** *       SEGGER_RTT_Init
1885:Middlewares/Third_Party/SEGGER/RTT/SEGGER_RTT.c **** *
1886:Middlewares/Third_Party/SEGGER/RTT/SEGGER_RTT.c **** *  Function description
1887:Middlewares/Third_Party/SEGGER/RTT/SEGGER_RTT.c **** *    Initializes the RTT Control Block.
1888:Middlewares/Third_Party/SEGGER/RTT/SEGGER_RTT.c **** *    Should be used in RAM targets, at start of the application.
1889:Middlewares/Third_Party/SEGGER/RTT/SEGGER_RTT.c **** *
1890:Middlewares/Third_Party/SEGGER/RTT/SEGGER_RTT.c **** */
1891:Middlewares/Third_Party/SEGGER/RTT/SEGGER_RTT.c **** void SEGGER_RTT_Init (void) {
 3622              		.loc 1 1891 29 is_stmt 1 view -0
 3623              		.cfi_startproc
 3624              		@ args = 0, pretend = 0, frame = 0
 3625              		@ frame_needed = 0, uses_anonymous_args = 0
 3626 0000 08B5     		push	{r3, lr}
 3627              		.cfi_def_cfa_offset 8
 3628              		.cfi_offset 3, -8
 3629              		.cfi_offset 14, -4
1892:Middlewares/Third_Party/SEGGER/RTT/SEGGER_RTT.c ****   _DoInit();
 3630              		.loc 1 1892 3 view .LVU1078
 3631 0002 FFF7FEFF 		bl	_DoInit
 3632              	.LVL361:
1893:Middlewares/Third_Party/SEGGER/RTT/SEGGER_RTT.c **** }
 3633              		.loc 1 1893 1 is_stmt 0 view .LVU1079
 3634 0006 08BD     		pop	{r3, pc}
 3635              		.cfi_endproc
 3636              	.LFE31:
 3638              		.section	.text.SEGGER_RTT_SetTerminal,"ax",%progbits
ARM GAS  C:\Users\Administrator\AppData\Local\Temp\ccUGyMKj.s 			page 103


 3639              		.align	1
 3640              		.global	SEGGER_RTT_SetTerminal
 3641              		.syntax unified
 3642              		.thumb
 3643              		.thumb_func
 3645              	SEGGER_RTT_SetTerminal:
 3646              	.LVL362:
 3647              	.LFB32:
1894:Middlewares/Third_Party/SEGGER/RTT/SEGGER_RTT.c **** 
1895:Middlewares/Third_Party/SEGGER/RTT/SEGGER_RTT.c **** /*********************************************************************
1896:Middlewares/Third_Party/SEGGER/RTT/SEGGER_RTT.c **** *
1897:Middlewares/Third_Party/SEGGER/RTT/SEGGER_RTT.c **** *       SEGGER_RTT_SetTerminal
1898:Middlewares/Third_Party/SEGGER/RTT/SEGGER_RTT.c **** *
1899:Middlewares/Third_Party/SEGGER/RTT/SEGGER_RTT.c **** *  Function description
1900:Middlewares/Third_Party/SEGGER/RTT/SEGGER_RTT.c **** *    Sets the terminal to be used for output on channel 0.
1901:Middlewares/Third_Party/SEGGER/RTT/SEGGER_RTT.c **** *
1902:Middlewares/Third_Party/SEGGER/RTT/SEGGER_RTT.c **** *  Parameters
1903:Middlewares/Third_Party/SEGGER/RTT/SEGGER_RTT.c **** *    TerminalId  Index of the terminal.
1904:Middlewares/Third_Party/SEGGER/RTT/SEGGER_RTT.c **** *
1905:Middlewares/Third_Party/SEGGER/RTT/SEGGER_RTT.c **** *  Return value
1906:Middlewares/Third_Party/SEGGER/RTT/SEGGER_RTT.c **** *    >= 0  O.K.
1907:Middlewares/Third_Party/SEGGER/RTT/SEGGER_RTT.c **** *     < 0  Error (e.g. if RTT is configured for non-blocking mode and there was no space in the buf
1908:Middlewares/Third_Party/SEGGER/RTT/SEGGER_RTT.c **** *
1909:Middlewares/Third_Party/SEGGER/RTT/SEGGER_RTT.c **** *  Notes
1910:Middlewares/Third_Party/SEGGER/RTT/SEGGER_RTT.c **** *    (1) Buffer 0 is always reserved for terminal I/O, so we can use index 0 here, fixed
1911:Middlewares/Third_Party/SEGGER/RTT/SEGGER_RTT.c **** */
1912:Middlewares/Third_Party/SEGGER/RTT/SEGGER_RTT.c **** int SEGGER_RTT_SetTerminal (unsigned char TerminalId) {
 3648              		.loc 1 1912 55 is_stmt 1 view -0
 3649              		.cfi_startproc
 3650              		@ args = 0, pretend = 0, frame = 8
 3651              		@ frame_needed = 0, uses_anonymous_args = 0
 3652              		.loc 1 1912 55 is_stmt 0 view .LVU1081
 3653 0000 30B5     		push	{r4, r5, lr}
 3654              		.cfi_def_cfa_offset 12
 3655              		.cfi_offset 4, -12
 3656              		.cfi_offset 5, -8
 3657              		.cfi_offset 14, -4
 3658 0002 83B0     		sub	sp, sp, #12
 3659              		.cfi_def_cfa_offset 24
 3660 0004 0446     		mov	r4, r0
1913:Middlewares/Third_Party/SEGGER/RTT/SEGGER_RTT.c ****   unsigned char         ac[2];
 3661              		.loc 1 1913 3 is_stmt 1 view .LVU1082
1914:Middlewares/Third_Party/SEGGER/RTT/SEGGER_RTT.c ****   SEGGER_RTT_BUFFER_UP* pRing;
 3662              		.loc 1 1914 3 view .LVU1083
1915:Middlewares/Third_Party/SEGGER/RTT/SEGGER_RTT.c ****   unsigned Avail;
 3663              		.loc 1 1915 3 view .LVU1084
1916:Middlewares/Third_Party/SEGGER/RTT/SEGGER_RTT.c ****   int r;
 3664              		.loc 1 1916 3 view .LVU1085
 3665              	.LBB50:
1917:Middlewares/Third_Party/SEGGER/RTT/SEGGER_RTT.c **** 
1918:Middlewares/Third_Party/SEGGER/RTT/SEGGER_RTT.c ****   INIT();
 3666              		.loc 1 1918 3 view .LVU1086
 3667              		.loc 1 1918 3 view .LVU1087
 3668              	.LVL363:
 3669              		.loc 1 1918 3 view .LVU1088
 3670              		.loc 1 1918 3 view .LVU1089
 3671 0006 1E4B     		ldr	r3, .L239
ARM GAS  C:\Users\Administrator\AppData\Local\Temp\ccUGyMKj.s 			page 104


 3672 0008 1B78     		ldrb	r3, [r3]	@ zero_extendqisi2
 3673 000a 03B3     		cbz	r3, .L236
 3674              	.LVL364:
 3675              	.L229:
 3676              		.loc 1 1918 3 view .LVU1090
 3677              	.LBE50:
 3678              		.loc 1 1918 9 view .LVU1091
1919:Middlewares/Third_Party/SEGGER/RTT/SEGGER_RTT.c ****   r = 0;
 3679              		.loc 1 1919 3 view .LVU1092
1920:Middlewares/Third_Party/SEGGER/RTT/SEGGER_RTT.c ****   ac[0] = 0xFFu;
 3680              		.loc 1 1920 3 view .LVU1093
 3681              		.loc 1 1920 9 is_stmt 0 view .LVU1094
 3682 000c FF23     		movs	r3, #255
 3683 000e 8DF80430 		strb	r3, [sp, #4]
1921:Middlewares/Third_Party/SEGGER/RTT/SEGGER_RTT.c ****   if (TerminalId < sizeof(_aTerminalId)) { // We only support a certain number of channels
 3684              		.loc 1 1921 3 is_stmt 1 view .LVU1095
 3685              		.loc 1 1921 6 is_stmt 0 view .LVU1096
 3686 0012 0F2C     		cmp	r4, #15
 3687 0014 30D8     		bhi	.L233
1922:Middlewares/Third_Party/SEGGER/RTT/SEGGER_RTT.c ****     ac[1] = _aTerminalId[TerminalId];
 3688              		.loc 1 1922 5 is_stmt 1 view .LVU1097
 3689              		.loc 1 1922 25 is_stmt 0 view .LVU1098
 3690 0016 1B4B     		ldr	r3, .L239+4
 3691 0018 1B5D     		ldrb	r3, [r3, r4]	@ zero_extendqisi2
 3692              		.loc 1 1922 11 view .LVU1099
 3693 001a 8DF80530 		strb	r3, [sp, #5]
1923:Middlewares/Third_Party/SEGGER/RTT/SEGGER_RTT.c ****     pRing = (SEGGER_RTT_BUFFER_UP*)((char*)&_SEGGER_RTT.aUp[0] + SEGGER_RTT_UNCACHED_OFF);  // Acce
 3694              		.loc 1 1923 5 is_stmt 1 view .LVU1100
 3695              	.LVL365:
 3696              	.LBB51:
1924:Middlewares/Third_Party/SEGGER/RTT/SEGGER_RTT.c ****     SEGGER_RTT_LOCK();                     // Lock to make sure that no other task is writing into 
 3697              		.loc 1 1924 5 view .LVU1101
 3698              		.loc 1 1924 5 view .LVU1102
 3699              		.syntax unified
 3700              	@ 1924 "Middlewares/Third_Party/SEGGER/RTT/SEGGER_RTT.c" 1
 3701 001e EFF31183 		mrs   r3, basepri  
 3702 0022 4FF02001 		mov   r1, #32       
 3703 0026 81F31188 		msr   basepri, r1  
 3704              		
 3705              	@ 0 "" 2
 3706              		.thumb
 3707              		.syntax unified
 3708 002a 1D46     		mov	r5, r3
 3709              	.LVL366:
 3710              		.loc 1 1924 22 view .LVU1103
1925:Middlewares/Third_Party/SEGGER/RTT/SEGGER_RTT.c ****     if ((pRing->Flags & SEGGER_RTT_MODE_MASK) == SEGGER_RTT_MODE_BLOCK_IF_FIFO_FULL) {
 3711              		.loc 1 1925 5 view .LVU1104
 3712              		.loc 1 1925 15 is_stmt 0 view .LVU1105
 3713 002c 144B     		ldr	r3, .L239
 3714              	.LVL367:
 3715              		.loc 1 1925 15 view .LVU1106
 3716 002e DB6A     		ldr	r3, [r3, #44]
 3717              		.loc 1 1925 23 view .LVU1107
 3718 0030 03F00303 		and	r3, r3, #3
 3719              		.loc 1 1925 8 view .LVU1108
 3720 0034 022B     		cmp	r3, #2
 3721 0036 0DD0     		beq	.L237
ARM GAS  C:\Users\Administrator\AppData\Local\Temp\ccUGyMKj.s 			page 105


1926:Middlewares/Third_Party/SEGGER/RTT/SEGGER_RTT.c ****       _ActiveTerminal = TerminalId;
1927:Middlewares/Third_Party/SEGGER/RTT/SEGGER_RTT.c ****       _WriteBlocking(pRing, (const char*)ac, 2u);
1928:Middlewares/Third_Party/SEGGER/RTT/SEGGER_RTT.c ****     } else {                                                                            // Skipping
1929:Middlewares/Third_Party/SEGGER/RTT/SEGGER_RTT.c ****       Avail = _GetAvailWriteSpace(pRing);
 3722              		.loc 1 1929 7 is_stmt 1 view .LVU1109
 3723              		.loc 1 1929 15 is_stmt 0 view .LVU1110
 3724 0038 1348     		ldr	r0, .L239+8
 3725              	.LVL368:
 3726              		.loc 1 1929 15 view .LVU1111
 3727 003a FFF7FEFF 		bl	_GetAvailWriteSpace
 3728              	.LVL369:
1930:Middlewares/Third_Party/SEGGER/RTT/SEGGER_RTT.c ****       if (Avail >= 2) {
 3729              		.loc 1 1930 7 is_stmt 1 view .LVU1112
 3730              		.loc 1 1930 10 is_stmt 0 view .LVU1113
 3731 003e 0128     		cmp	r0, #1
 3732 0040 11D8     		bhi	.L238
1931:Middlewares/Third_Party/SEGGER/RTT/SEGGER_RTT.c ****         _ActiveTerminal = TerminalId;    // Only change active terminal in case of success
1932:Middlewares/Third_Party/SEGGER/RTT/SEGGER_RTT.c ****         _WriteNoCheck(pRing, (const char*)ac, 2u);
1933:Middlewares/Third_Party/SEGGER/RTT/SEGGER_RTT.c ****       } else {
1934:Middlewares/Third_Party/SEGGER/RTT/SEGGER_RTT.c ****         r = -1;
 3733              		.loc 1 1934 11 view .LVU1114
 3734 0042 4FF0FF30 		mov	r0, #-1
 3735              	.LVL370:
 3736              	.L232:
1935:Middlewares/Third_Party/SEGGER/RTT/SEGGER_RTT.c ****       }
1936:Middlewares/Third_Party/SEGGER/RTT/SEGGER_RTT.c ****     }
1937:Middlewares/Third_Party/SEGGER/RTT/SEGGER_RTT.c ****     SEGGER_RTT_UNLOCK();
 3737              		.loc 1 1937 5 is_stmt 1 view .LVU1115
 3738              		.syntax unified
 3739              	@ 1937 "Middlewares/Third_Party/SEGGER/RTT/SEGGER_RTT.c" 1
 3740 0046 85F31188 		msr   basepri, r5  
 3741              		
 3742              	@ 0 "" 2
 3743              		.thumb
 3744              		.syntax unified
 3745              	.LBE51:
 3746              		.loc 1 1937 24 view .LVU1116
 3747              	.LVL371:
 3748              	.L228:
1938:Middlewares/Third_Party/SEGGER/RTT/SEGGER_RTT.c ****   } else {
1939:Middlewares/Third_Party/SEGGER/RTT/SEGGER_RTT.c ****     r = -1;
1940:Middlewares/Third_Party/SEGGER/RTT/SEGGER_RTT.c ****   }
1941:Middlewares/Third_Party/SEGGER/RTT/SEGGER_RTT.c ****   return r;
1942:Middlewares/Third_Party/SEGGER/RTT/SEGGER_RTT.c **** }
 3749              		.loc 1 1942 1 is_stmt 0 view .LVU1117
 3750 004a 03B0     		add	sp, sp, #12
 3751              		.cfi_remember_state
 3752              		.cfi_def_cfa_offset 12
 3753              		@ sp needed
 3754 004c 30BD     		pop	{r4, r5, pc}
 3755              	.LVL372:
 3756              	.L236:
 3757              		.cfi_restore_state
 3758              	.LBB52:
1918:Middlewares/Third_Party/SEGGER/RTT/SEGGER_RTT.c ****   r = 0;
 3759              		.loc 1 1918 3 is_stmt 1 discriminator 1 view .LVU1118
 3760 004e FFF7FEFF 		bl	_DoInit
ARM GAS  C:\Users\Administrator\AppData\Local\Temp\ccUGyMKj.s 			page 106


 3761              	.LVL373:
1918:Middlewares/Third_Party/SEGGER/RTT/SEGGER_RTT.c ****   r = 0;
 3762              		.loc 1 1918 3 is_stmt 0 discriminator 1 view .LVU1119
 3763 0052 DBE7     		b	.L229
 3764              	.LVL374:
 3765              	.L237:
1918:Middlewares/Third_Party/SEGGER/RTT/SEGGER_RTT.c ****   r = 0;
 3766              		.loc 1 1918 3 discriminator 1 view .LVU1120
 3767              	.LBE52:
 3768              	.LBB53:
1926:Middlewares/Third_Party/SEGGER/RTT/SEGGER_RTT.c ****       _WriteBlocking(pRing, (const char*)ac, 2u);
 3769              		.loc 1 1926 7 is_stmt 1 view .LVU1121
1926:Middlewares/Third_Party/SEGGER/RTT/SEGGER_RTT.c ****       _WriteBlocking(pRing, (const char*)ac, 2u);
 3770              		.loc 1 1926 23 is_stmt 0 view .LVU1122
 3771 0054 0D4B     		ldr	r3, .L239+12
 3772 0056 1C70     		strb	r4, [r3]
1927:Middlewares/Third_Party/SEGGER/RTT/SEGGER_RTT.c ****     } else {                                                                            // Skipping
 3773              		.loc 1 1927 7 is_stmt 1 view .LVU1123
 3774 0058 0222     		movs	r2, #2
 3775 005a 01A9     		add	r1, sp, #4
 3776 005c 0A48     		ldr	r0, .L239+8
 3777              	.LVL375:
1927:Middlewares/Third_Party/SEGGER/RTT/SEGGER_RTT.c ****     } else {                                                                            // Skipping
 3778              		.loc 1 1927 7 is_stmt 0 view .LVU1124
 3779 005e FFF7FEFF 		bl	_WriteBlocking
 3780              	.LVL376:
1927:Middlewares/Third_Party/SEGGER/RTT/SEGGER_RTT.c ****     } else {                                                                            // Skipping
 3781              		.loc 1 1927 7 view .LVU1125
 3782              	.LBE53:
1919:Middlewares/Third_Party/SEGGER/RTT/SEGGER_RTT.c ****   ac[0] = 0xFFu;
 3783              		.loc 1 1919 5 view .LVU1126
 3784 0062 0020     		movs	r0, #0
 3785              	.LBB54:
 3786 0064 EFE7     		b	.L232
 3787              	.LVL377:
 3788              	.L238:
1931:Middlewares/Third_Party/SEGGER/RTT/SEGGER_RTT.c ****         _WriteNoCheck(pRing, (const char*)ac, 2u);
 3789              		.loc 1 1931 9 is_stmt 1 view .LVU1127
1931:Middlewares/Third_Party/SEGGER/RTT/SEGGER_RTT.c ****         _WriteNoCheck(pRing, (const char*)ac, 2u);
 3790              		.loc 1 1931 25 is_stmt 0 view .LVU1128
 3791 0066 094B     		ldr	r3, .L239+12
 3792 0068 1C70     		strb	r4, [r3]
1932:Middlewares/Third_Party/SEGGER/RTT/SEGGER_RTT.c ****       } else {
 3793              		.loc 1 1932 9 is_stmt 1 view .LVU1129
 3794 006a 0222     		movs	r2, #2
 3795 006c 01A9     		add	r1, sp, #4
 3796 006e 0648     		ldr	r0, .L239+8
 3797              	.LVL378:
1932:Middlewares/Third_Party/SEGGER/RTT/SEGGER_RTT.c ****       } else {
 3798              		.loc 1 1932 9 is_stmt 0 view .LVU1130
 3799 0070 FFF7FEFF 		bl	_WriteNoCheck
 3800              	.LVL379:
1932:Middlewares/Third_Party/SEGGER/RTT/SEGGER_RTT.c ****       } else {
 3801              		.loc 1 1932 9 view .LVU1131
 3802              	.LBE54:
1919:Middlewares/Third_Party/SEGGER/RTT/SEGGER_RTT.c ****   ac[0] = 0xFFu;
 3803              		.loc 1 1919 5 view .LVU1132
ARM GAS  C:\Users\Administrator\AppData\Local\Temp\ccUGyMKj.s 			page 107


 3804 0074 0020     		movs	r0, #0
 3805              	.LBB55:
 3806 0076 E6E7     		b	.L232
 3807              	.LVL380:
 3808              	.L233:
1919:Middlewares/Third_Party/SEGGER/RTT/SEGGER_RTT.c ****   ac[0] = 0xFFu;
 3809              		.loc 1 1919 5 view .LVU1133
 3810              	.LBE55:
1939:Middlewares/Third_Party/SEGGER/RTT/SEGGER_RTT.c ****   }
 3811              		.loc 1 1939 7 view .LVU1134
 3812 0078 4FF0FF30 		mov	r0, #-1
 3813              	.LVL381:
1941:Middlewares/Third_Party/SEGGER/RTT/SEGGER_RTT.c **** }
 3814              		.loc 1 1941 3 is_stmt 1 view .LVU1135
1941:Middlewares/Third_Party/SEGGER/RTT/SEGGER_RTT.c **** }
 3815              		.loc 1 1941 10 is_stmt 0 view .LVU1136
 3816 007c E5E7     		b	.L228
 3817              	.L240:
 3818 007e 00BF     		.align	2
 3819              	.L239:
 3820 0080 00000000 		.word	_SEGGER_RTT
 3821 0084 00000000 		.word	_aTerminalId
 3822 0088 18000000 		.word	_SEGGER_RTT+24
 3823 008c 00000000 		.word	_ActiveTerminal
 3824              		.cfi_endproc
 3825              	.LFE32:
 3827              		.section	.text.SEGGER_RTT_TerminalOut,"ax",%progbits
 3828              		.align	1
 3829              		.global	SEGGER_RTT_TerminalOut
 3830              		.syntax unified
 3831              		.thumb
 3832              		.thumb_func
 3834              	SEGGER_RTT_TerminalOut:
 3835              	.LVL382:
 3836              	.LFB33:
1943:Middlewares/Third_Party/SEGGER/RTT/SEGGER_RTT.c **** 
1944:Middlewares/Third_Party/SEGGER/RTT/SEGGER_RTT.c **** /*********************************************************************
1945:Middlewares/Third_Party/SEGGER/RTT/SEGGER_RTT.c **** *
1946:Middlewares/Third_Party/SEGGER/RTT/SEGGER_RTT.c **** *       SEGGER_RTT_TerminalOut
1947:Middlewares/Third_Party/SEGGER/RTT/SEGGER_RTT.c **** *
1948:Middlewares/Third_Party/SEGGER/RTT/SEGGER_RTT.c **** *  Function description
1949:Middlewares/Third_Party/SEGGER/RTT/SEGGER_RTT.c **** *    Writes a string to the given terminal
1950:Middlewares/Third_Party/SEGGER/RTT/SEGGER_RTT.c **** *     without changing the terminal for channel 0.
1951:Middlewares/Third_Party/SEGGER/RTT/SEGGER_RTT.c **** *
1952:Middlewares/Third_Party/SEGGER/RTT/SEGGER_RTT.c **** *  Parameters
1953:Middlewares/Third_Party/SEGGER/RTT/SEGGER_RTT.c **** *    TerminalId   Index of the terminal.
1954:Middlewares/Third_Party/SEGGER/RTT/SEGGER_RTT.c **** *    s            String to be printed on the terminal.
1955:Middlewares/Third_Party/SEGGER/RTT/SEGGER_RTT.c **** *
1956:Middlewares/Third_Party/SEGGER/RTT/SEGGER_RTT.c **** *  Return value
1957:Middlewares/Third_Party/SEGGER/RTT/SEGGER_RTT.c **** *    >= 0 - Number of bytes written.
1958:Middlewares/Third_Party/SEGGER/RTT/SEGGER_RTT.c **** *     < 0 - Error.
1959:Middlewares/Third_Party/SEGGER/RTT/SEGGER_RTT.c **** *
1960:Middlewares/Third_Party/SEGGER/RTT/SEGGER_RTT.c **** */
1961:Middlewares/Third_Party/SEGGER/RTT/SEGGER_RTT.c **** int SEGGER_RTT_TerminalOut (unsigned char TerminalId, const char* s) {
 3837              		.loc 1 1961 70 is_stmt 1 view -0
 3838              		.cfi_startproc
 3839              		@ args = 0, pretend = 0, frame = 0
ARM GAS  C:\Users\Administrator\AppData\Local\Temp\ccUGyMKj.s 			page 108


 3840              		@ frame_needed = 0, uses_anonymous_args = 0
 3841              		.loc 1 1961 70 is_stmt 0 view .LVU1138
 3842 0000 2DE9F843 		push	{r3, r4, r5, r6, r7, r8, r9, lr}
 3843              		.cfi_def_cfa_offset 32
 3844              		.cfi_offset 3, -32
 3845              		.cfi_offset 4, -28
 3846              		.cfi_offset 5, -24
 3847              		.cfi_offset 6, -20
 3848              		.cfi_offset 7, -16
 3849              		.cfi_offset 8, -12
 3850              		.cfi_offset 9, -8
 3851              		.cfi_offset 14, -4
 3852 0004 0646     		mov	r6, r0
 3853 0006 0F46     		mov	r7, r1
1962:Middlewares/Third_Party/SEGGER/RTT/SEGGER_RTT.c ****   int                   Status;
 3854              		.loc 1 1962 3 is_stmt 1 view .LVU1139
1963:Middlewares/Third_Party/SEGGER/RTT/SEGGER_RTT.c ****   unsigned              FragLen;
 3855              		.loc 1 1963 3 view .LVU1140
1964:Middlewares/Third_Party/SEGGER/RTT/SEGGER_RTT.c ****   unsigned              Avail;
 3856              		.loc 1 1964 3 view .LVU1141
1965:Middlewares/Third_Party/SEGGER/RTT/SEGGER_RTT.c ****   SEGGER_RTT_BUFFER_UP* pRing;
 3857              		.loc 1 1965 3 view .LVU1142
 3858              	.LBB56:
1966:Middlewares/Third_Party/SEGGER/RTT/SEGGER_RTT.c ****   //
1967:Middlewares/Third_Party/SEGGER/RTT/SEGGER_RTT.c ****   INIT();
 3859              		.loc 1 1967 3 view .LVU1143
 3860              		.loc 1 1967 3 view .LVU1144
 3861              	.LVL383:
 3862              		.loc 1 1967 3 view .LVU1145
 3863              		.loc 1 1967 3 view .LVU1146
 3864 0008 344B     		ldr	r3, .L255
 3865 000a 1B78     		ldrb	r3, [r3]	@ zero_extendqisi2
 3866 000c 03B3     		cbz	r3, .L252
 3867              	.LVL384:
 3868              	.L242:
 3869              		.loc 1 1967 3 view .LVU1147
 3870              	.LBE56:
 3871              		.loc 1 1967 9 view .LVU1148
1968:Middlewares/Third_Party/SEGGER/RTT/SEGGER_RTT.c ****   //
1969:Middlewares/Third_Party/SEGGER/RTT/SEGGER_RTT.c ****   // Validate terminal ID.
1970:Middlewares/Third_Party/SEGGER/RTT/SEGGER_RTT.c ****   //
1971:Middlewares/Third_Party/SEGGER/RTT/SEGGER_RTT.c ****   if (TerminalId < (char)sizeof(_aTerminalId)) { // We only support a certain number of channels
 3872              		.loc 1 1971 3 view .LVU1149
 3873              		.loc 1 1971 6 is_stmt 0 view .LVU1150
 3874 000e 0F2E     		cmp	r6, #15
 3875 0010 61D8     		bhi	.L247
1972:Middlewares/Third_Party/SEGGER/RTT/SEGGER_RTT.c ****     //
1973:Middlewares/Third_Party/SEGGER/RTT/SEGGER_RTT.c ****     // Get "to-host" ring buffer.
1974:Middlewares/Third_Party/SEGGER/RTT/SEGGER_RTT.c ****     //
1975:Middlewares/Third_Party/SEGGER/RTT/SEGGER_RTT.c ****     pRing = (SEGGER_RTT_BUFFER_UP*)((char*)&_SEGGER_RTT.aUp[0] + SEGGER_RTT_UNCACHED_OFF);  // Acce
 3876              		.loc 1 1975 5 is_stmt 1 view .LVU1151
 3877              	.LVL385:
1976:Middlewares/Third_Party/SEGGER/RTT/SEGGER_RTT.c ****     //
1977:Middlewares/Third_Party/SEGGER/RTT/SEGGER_RTT.c ****     // Need to be able to change terminal, write data, change back.
1978:Middlewares/Third_Party/SEGGER/RTT/SEGGER_RTT.c ****     // Compute the fixed and variable sizes.
1979:Middlewares/Third_Party/SEGGER/RTT/SEGGER_RTT.c ****     //
1980:Middlewares/Third_Party/SEGGER/RTT/SEGGER_RTT.c ****     FragLen = STRLEN(s);
ARM GAS  C:\Users\Administrator\AppData\Local\Temp\ccUGyMKj.s 			page 109


 3878              		.loc 1 1980 5 view .LVU1152
 3879              		.loc 1 1980 15 is_stmt 0 view .LVU1153
 3880 0012 3846     		mov	r0, r7
 3881 0014 FFF7FEFF 		bl	strlen
 3882              	.LVL386:
 3883 0018 0546     		mov	r5, r0
 3884              	.LVL387:
 3885              	.LBB57:
1981:Middlewares/Third_Party/SEGGER/RTT/SEGGER_RTT.c ****     //
1982:Middlewares/Third_Party/SEGGER/RTT/SEGGER_RTT.c ****     // How we output depends upon the mode...
1983:Middlewares/Third_Party/SEGGER/RTT/SEGGER_RTT.c ****     //
1984:Middlewares/Third_Party/SEGGER/RTT/SEGGER_RTT.c ****     SEGGER_RTT_LOCK();
 3886              		.loc 1 1984 5 is_stmt 1 view .LVU1154
 3887              		.loc 1 1984 5 view .LVU1155
 3888              		.syntax unified
 3889              	@ 1984 "Middlewares/Third_Party/SEGGER/RTT/SEGGER_RTT.c" 1
 3890 001a EFF31183 		mrs   r3, basepri  
 3891 001e 4FF02001 		mov   r1, #32       
 3892 0022 81F31188 		msr   basepri, r1  
 3893              		
 3894              	@ 0 "" 2
 3895              		.thumb
 3896              		.syntax unified
 3897 0026 9846     		mov	r8, r3
 3898              	.LVL388:
 3899              		.loc 1 1984 22 view .LVU1156
1985:Middlewares/Third_Party/SEGGER/RTT/SEGGER_RTT.c ****     Avail = _GetAvailWriteSpace(pRing);
 3900              		.loc 1 1985 5 view .LVU1157
 3901              		.loc 1 1985 13 is_stmt 0 view .LVU1158
 3902 0028 2D4C     		ldr	r4, .L255+4
 3903              	.LVL389:
 3904              		.loc 1 1985 13 view .LVU1159
 3905 002a 2046     		mov	r0, r4
 3906              	.LVL390:
 3907              		.loc 1 1985 13 view .LVU1160
 3908 002c FFF7FEFF 		bl	_GetAvailWriteSpace
 3909              	.LVL391:
 3910              		.loc 1 1985 13 view .LVU1161
 3911 0030 8146     		mov	r9, r0
 3912              	.LVL392:
1986:Middlewares/Third_Party/SEGGER/RTT/SEGGER_RTT.c ****     switch (pRing->Flags & SEGGER_RTT_MODE_MASK) {
 3913              		.loc 1 1986 5 is_stmt 1 view .LVU1162
 3914              		.loc 1 1986 18 is_stmt 0 view .LVU1163
 3915 0032 6369     		ldr	r3, [r4, #20]
 3916              		.loc 1 1986 26 view .LVU1164
 3917 0034 03F00303 		and	r3, r3, #3
 3918              		.loc 1 1986 5 view .LVU1165
 3919 0038 012B     		cmp	r3, #1
 3920 003a 1CD0     		beq	.L244
 3921 003c 022B     		cmp	r3, #2
 3922 003e 33D0     		beq	.L245
 3923 0040 002B     		cmp	r3, #0
 3924 0042 45D1     		bne	.L248
1987:Middlewares/Third_Party/SEGGER/RTT/SEGGER_RTT.c ****     case SEGGER_RTT_MODE_NO_BLOCK_SKIP:
1988:Middlewares/Third_Party/SEGGER/RTT/SEGGER_RTT.c ****       //
1989:Middlewares/Third_Party/SEGGER/RTT/SEGGER_RTT.c ****       // If we are in skip mode and there is no space for the whole
1990:Middlewares/Third_Party/SEGGER/RTT/SEGGER_RTT.c ****       // of this output, don't bother switching terminals at all.
ARM GAS  C:\Users\Administrator\AppData\Local\Temp\ccUGyMKj.s 			page 110


1991:Middlewares/Third_Party/SEGGER/RTT/SEGGER_RTT.c ****       //
1992:Middlewares/Third_Party/SEGGER/RTT/SEGGER_RTT.c ****       if (Avail < (FragLen + 4u)) {
 3925              		.loc 1 1992 7 is_stmt 1 view .LVU1166
 3926              		.loc 1 1992 28 is_stmt 0 view .LVU1167
 3927 0044 2B46     		mov	r3, r5
 3928 0046 0433     		adds	r3, r3, #4
 3929              		.loc 1 1992 10 view .LVU1168
 3930 0048 8342     		cmp	r3, r0
 3931 004a 04D9     		bls	.L253
1993:Middlewares/Third_Party/SEGGER/RTT/SEGGER_RTT.c ****         Status = 0;
 3932              		.loc 1 1993 16 view .LVU1169
 3933 004c 0024     		movs	r4, #0
 3934              	.LVL393:
 3935              		.loc 1 1993 16 view .LVU1170
 3936 004e 3AE0     		b	.L246
 3937              	.LVL394:
 3938              	.L252:
 3939              		.loc 1 1993 16 view .LVU1171
 3940              	.LBE57:
 3941              	.LBB58:
1967:Middlewares/Third_Party/SEGGER/RTT/SEGGER_RTT.c ****   //
 3942              		.loc 1 1967 3 is_stmt 1 discriminator 1 view .LVU1172
 3943 0050 FFF7FEFF 		bl	_DoInit
 3944              	.LVL395:
1967:Middlewares/Third_Party/SEGGER/RTT/SEGGER_RTT.c ****   //
 3945              		.loc 1 1967 3 is_stmt 0 discriminator 1 view .LVU1173
 3946 0054 DBE7     		b	.L242
 3947              	.LVL396:
 3948              	.L253:
1967:Middlewares/Third_Party/SEGGER/RTT/SEGGER_RTT.c ****   //
 3949              		.loc 1 1967 3 discriminator 1 view .LVU1174
 3950              	.LBE58:
 3951              	.LBB59:
1994:Middlewares/Third_Party/SEGGER/RTT/SEGGER_RTT.c ****       } else {
1995:Middlewares/Third_Party/SEGGER/RTT/SEGGER_RTT.c ****         _PostTerminalSwitch(pRing, TerminalId);
 3952              		.loc 1 1995 9 is_stmt 1 view .LVU1175
 3953 0056 3146     		mov	r1, r6
 3954 0058 2046     		mov	r0, r4
 3955              	.LVL397:
 3956              		.loc 1 1995 9 is_stmt 0 view .LVU1176
 3957 005a FFF7FEFF 		bl	_PostTerminalSwitch
 3958              	.LVL398:
1996:Middlewares/Third_Party/SEGGER/RTT/SEGGER_RTT.c ****         Status = (int)_WriteBlocking(pRing, s, FragLen);
 3959              		.loc 1 1996 9 is_stmt 1 view .LVU1177
 3960              		.loc 1 1996 23 is_stmt 0 view .LVU1178
 3961 005e 2A46     		mov	r2, r5
 3962 0060 3946     		mov	r1, r7
 3963 0062 2046     		mov	r0, r4
 3964 0064 FFF7FEFF 		bl	_WriteBlocking
 3965              	.LVL399:
 3966 0068 0446     		mov	r4, r0
 3967              	.LVL400:
1997:Middlewares/Third_Party/SEGGER/RTT/SEGGER_RTT.c ****         _PostTerminalSwitch(pRing, _ActiveTerminal);
 3968              		.loc 1 1997 9 is_stmt 1 view .LVU1179
 3969 006a 1E4B     		ldr	r3, .L255+8
 3970 006c 1978     		ldrb	r1, [r3]	@ zero_extendqisi2
 3971 006e 1C48     		ldr	r0, .L255+4
ARM GAS  C:\Users\Administrator\AppData\Local\Temp\ccUGyMKj.s 			page 111


 3972              	.LVL401:
 3973              		.loc 1 1997 9 is_stmt 0 view .LVU1180
 3974 0070 FFF7FEFF 		bl	_PostTerminalSwitch
 3975              	.LVL402:
 3976 0074 27E0     		b	.L246
 3977              	.LVL403:
 3978              	.L244:
1998:Middlewares/Third_Party/SEGGER/RTT/SEGGER_RTT.c ****       }
1999:Middlewares/Third_Party/SEGGER/RTT/SEGGER_RTT.c ****       break;
2000:Middlewares/Third_Party/SEGGER/RTT/SEGGER_RTT.c ****     case SEGGER_RTT_MODE_NO_BLOCK_TRIM:
2001:Middlewares/Third_Party/SEGGER/RTT/SEGGER_RTT.c ****       //
2002:Middlewares/Third_Party/SEGGER/RTT/SEGGER_RTT.c ****       // If we are in trim mode and there is not enough space for everything,
2003:Middlewares/Third_Party/SEGGER/RTT/SEGGER_RTT.c ****       // trim the output but always include the terminal switch.  If no room
2004:Middlewares/Third_Party/SEGGER/RTT/SEGGER_RTT.c ****       // for terminal switch, skip that totally.
2005:Middlewares/Third_Party/SEGGER/RTT/SEGGER_RTT.c ****       //
2006:Middlewares/Third_Party/SEGGER/RTT/SEGGER_RTT.c ****       if (Avail < 4u) {
 3979              		.loc 1 2006 7 is_stmt 1 view .LVU1181
 3980              		.loc 1 2006 10 is_stmt 0 view .LVU1182
 3981 0076 0328     		cmp	r0, #3
 3982 0078 02D8     		bhi	.L254
2007:Middlewares/Third_Party/SEGGER/RTT/SEGGER_RTT.c ****         Status = -1;
 3983              		.loc 1 2007 16 view .LVU1183
 3984 007a 4FF0FF34 		mov	r4, #-1
 3985              	.LVL404:
 3986              		.loc 1 2007 16 view .LVU1184
 3987 007e 22E0     		b	.L246
 3988              	.LVL405:
 3989              	.L254:
2008:Middlewares/Third_Party/SEGGER/RTT/SEGGER_RTT.c ****       } else {
2009:Middlewares/Third_Party/SEGGER/RTT/SEGGER_RTT.c ****         _PostTerminalSwitch(pRing, TerminalId);
 3990              		.loc 1 2009 9 is_stmt 1 view .LVU1185
 3991 0080 3146     		mov	r1, r6
 3992 0082 1748     		ldr	r0, .L255+4
 3993              	.LVL406:
 3994              		.loc 1 2009 9 is_stmt 0 view .LVU1186
 3995 0084 FFF7FEFF 		bl	_PostTerminalSwitch
 3996              	.LVL407:
2010:Middlewares/Third_Party/SEGGER/RTT/SEGGER_RTT.c ****         Status = (int)_WriteBlocking(pRing, s, (FragLen < (Avail - 4u)) ? FragLen : (Avail - 4u));
 3997              		.loc 1 2010 9 is_stmt 1 view .LVU1187
 3998              		.loc 1 2010 66 is_stmt 0 view .LVU1188
 3999 0088 A9F10402 		sub	r2, r9, #4
 4000              		.loc 1 2010 23 view .LVU1189
 4001 008c AA42     		cmp	r2, r5
 4002 008e 28BF     		it	cs
 4003 0090 2A46     		movcs	r2, r5
 4004 0092 3946     		mov	r1, r7
 4005 0094 1248     		ldr	r0, .L255+4
 4006 0096 FFF7FEFF 		bl	_WriteBlocking
 4007              	.LVL408:
 4008 009a 0446     		mov	r4, r0
 4009              	.LVL409:
2011:Middlewares/Third_Party/SEGGER/RTT/SEGGER_RTT.c ****         _PostTerminalSwitch(pRing, _ActiveTerminal);
 4010              		.loc 1 2011 9 is_stmt 1 view .LVU1190
 4011 009c 114B     		ldr	r3, .L255+8
 4012 009e 1978     		ldrb	r1, [r3]	@ zero_extendqisi2
 4013 00a0 0F48     		ldr	r0, .L255+4
 4014              	.LVL410:
ARM GAS  C:\Users\Administrator\AppData\Local\Temp\ccUGyMKj.s 			page 112


 4015              		.loc 1 2011 9 is_stmt 0 view .LVU1191
 4016 00a2 FFF7FEFF 		bl	_PostTerminalSwitch
 4017              	.LVL411:
 4018              		.loc 1 2011 9 view .LVU1192
 4019 00a6 0EE0     		b	.L246
 4020              	.LVL412:
 4021              	.L245:
2012:Middlewares/Third_Party/SEGGER/RTT/SEGGER_RTT.c ****       }
2013:Middlewares/Third_Party/SEGGER/RTT/SEGGER_RTT.c ****       break;
2014:Middlewares/Third_Party/SEGGER/RTT/SEGGER_RTT.c ****     case SEGGER_RTT_MODE_BLOCK_IF_FIFO_FULL:
2015:Middlewares/Third_Party/SEGGER/RTT/SEGGER_RTT.c ****       //
2016:Middlewares/Third_Party/SEGGER/RTT/SEGGER_RTT.c ****       // If we are in blocking mode, output everything.
2017:Middlewares/Third_Party/SEGGER/RTT/SEGGER_RTT.c ****       //
2018:Middlewares/Third_Party/SEGGER/RTT/SEGGER_RTT.c ****       _PostTerminalSwitch(pRing, TerminalId);
 4022              		.loc 1 2018 7 is_stmt 1 view .LVU1193
 4023 00a8 3146     		mov	r1, r6
 4024 00aa 0D48     		ldr	r0, .L255+4
 4025              	.LVL413:
 4026              		.loc 1 2018 7 is_stmt 0 view .LVU1194
 4027 00ac FFF7FEFF 		bl	_PostTerminalSwitch
 4028              	.LVL414:
2019:Middlewares/Third_Party/SEGGER/RTT/SEGGER_RTT.c ****       Status = (int)_WriteBlocking(pRing, s, FragLen);
 4029              		.loc 1 2019 7 is_stmt 1 view .LVU1195
 4030              		.loc 1 2019 21 is_stmt 0 view .LVU1196
 4031 00b0 2A46     		mov	r2, r5
 4032 00b2 3946     		mov	r1, r7
 4033 00b4 0A48     		ldr	r0, .L255+4
 4034 00b6 FFF7FEFF 		bl	_WriteBlocking
 4035              	.LVL415:
 4036 00ba 0446     		mov	r4, r0
 4037              	.LVL416:
2020:Middlewares/Third_Party/SEGGER/RTT/SEGGER_RTT.c ****       _PostTerminalSwitch(pRing, _ActiveTerminal);
 4038              		.loc 1 2020 7 is_stmt 1 view .LVU1197
 4039 00bc 094B     		ldr	r3, .L255+8
 4040 00be 1978     		ldrb	r1, [r3]	@ zero_extendqisi2
 4041 00c0 0748     		ldr	r0, .L255+4
 4042              	.LVL417:
 4043              		.loc 1 2020 7 is_stmt 0 view .LVU1198
 4044 00c2 FFF7FEFF 		bl	_PostTerminalSwitch
 4045              	.LVL418:
2021:Middlewares/Third_Party/SEGGER/RTT/SEGGER_RTT.c ****       break;
 4046              		.loc 1 2021 7 is_stmt 1 view .LVU1199
 4047              	.L246:
2022:Middlewares/Third_Party/SEGGER/RTT/SEGGER_RTT.c ****     default:
2023:Middlewares/Third_Party/SEGGER/RTT/SEGGER_RTT.c ****       Status = -1;
2024:Middlewares/Third_Party/SEGGER/RTT/SEGGER_RTT.c ****       break;
2025:Middlewares/Third_Party/SEGGER/RTT/SEGGER_RTT.c ****     }
2026:Middlewares/Third_Party/SEGGER/RTT/SEGGER_RTT.c ****     //
2027:Middlewares/Third_Party/SEGGER/RTT/SEGGER_RTT.c ****     // Finish up.
2028:Middlewares/Third_Party/SEGGER/RTT/SEGGER_RTT.c ****     //
2029:Middlewares/Third_Party/SEGGER/RTT/SEGGER_RTT.c ****     SEGGER_RTT_UNLOCK();
 4048              		.loc 1 2029 5 view .LVU1200
 4049              		.syntax unified
 4050              	@ 2029 "Middlewares/Third_Party/SEGGER/RTT/SEGGER_RTT.c" 1
 4051 00c6 88F31188 		msr   basepri, r8  
 4052              		
 4053              	@ 0 "" 2
ARM GAS  C:\Users\Administrator\AppData\Local\Temp\ccUGyMKj.s 			page 113


 4054              		.thumb
 4055              		.syntax unified
 4056              	.LBE59:
 4057              		.loc 1 2029 24 view .LVU1201
 4058              	.LVL419:
 4059              	.L241:
2030:Middlewares/Third_Party/SEGGER/RTT/SEGGER_RTT.c ****   } else {
2031:Middlewares/Third_Party/SEGGER/RTT/SEGGER_RTT.c ****     Status = -1;
2032:Middlewares/Third_Party/SEGGER/RTT/SEGGER_RTT.c ****   }
2033:Middlewares/Third_Party/SEGGER/RTT/SEGGER_RTT.c ****   return Status;
2034:Middlewares/Third_Party/SEGGER/RTT/SEGGER_RTT.c **** }
 4060              		.loc 1 2034 1 is_stmt 0 view .LVU1202
 4061 00ca 2046     		mov	r0, r4
 4062 00cc BDE8F883 		pop	{r3, r4, r5, r6, r7, r8, r9, pc}
 4063              	.LVL420:
 4064              	.L248:
 4065              	.LBB60:
1986:Middlewares/Third_Party/SEGGER/RTT/SEGGER_RTT.c ****     case SEGGER_RTT_MODE_NO_BLOCK_SKIP:
 4066              		.loc 1 1986 5 view .LVU1203
 4067 00d0 4FF0FF34 		mov	r4, #-1
 4068              	.LVL421:
1986:Middlewares/Third_Party/SEGGER/RTT/SEGGER_RTT.c ****     case SEGGER_RTT_MODE_NO_BLOCK_SKIP:
 4069              		.loc 1 1986 5 view .LVU1204
 4070 00d4 F7E7     		b	.L246
 4071              	.LVL422:
 4072              	.L247:
1986:Middlewares/Third_Party/SEGGER/RTT/SEGGER_RTT.c ****     case SEGGER_RTT_MODE_NO_BLOCK_SKIP:
 4073              		.loc 1 1986 5 view .LVU1205
 4074              	.LBE60:
2031:Middlewares/Third_Party/SEGGER/RTT/SEGGER_RTT.c ****   }
 4075              		.loc 1 2031 12 view .LVU1206
 4076 00d6 4FF0FF34 		mov	r4, #-1
 4077              	.LVL423:
2033:Middlewares/Third_Party/SEGGER/RTT/SEGGER_RTT.c **** }
 4078              		.loc 1 2033 3 is_stmt 1 view .LVU1207
2033:Middlewares/Third_Party/SEGGER/RTT/SEGGER_RTT.c **** }
 4079              		.loc 1 2033 10 is_stmt 0 view .LVU1208
 4080 00da F6E7     		b	.L241
 4081              	.L256:
 4082              		.align	2
 4083              	.L255:
 4084 00dc 00000000 		.word	_SEGGER_RTT
 4085 00e0 18000000 		.word	_SEGGER_RTT+24
 4086 00e4 00000000 		.word	_ActiveTerminal
 4087              		.cfi_endproc
 4088              	.LFE33:
 4090              		.section	.text.SEGGER_RTT_GetAvailWriteSpace,"ax",%progbits
 4091              		.align	1
 4092              		.global	SEGGER_RTT_GetAvailWriteSpace
 4093              		.syntax unified
 4094              		.thumb
 4095              		.thumb_func
 4097              	SEGGER_RTT_GetAvailWriteSpace:
 4098              	.LVL424:
 4099              	.LFB34:
2035:Middlewares/Third_Party/SEGGER/RTT/SEGGER_RTT.c **** 
2036:Middlewares/Third_Party/SEGGER/RTT/SEGGER_RTT.c **** /*********************************************************************
ARM GAS  C:\Users\Administrator\AppData\Local\Temp\ccUGyMKj.s 			page 114


2037:Middlewares/Third_Party/SEGGER/RTT/SEGGER_RTT.c **** *
2038:Middlewares/Third_Party/SEGGER/RTT/SEGGER_RTT.c **** *       SEGGER_RTT_GetAvailWriteSpace
2039:Middlewares/Third_Party/SEGGER/RTT/SEGGER_RTT.c **** *
2040:Middlewares/Third_Party/SEGGER/RTT/SEGGER_RTT.c **** *  Function description
2041:Middlewares/Third_Party/SEGGER/RTT/SEGGER_RTT.c **** *    Returns the number of bytes available in the ring buffer.
2042:Middlewares/Third_Party/SEGGER/RTT/SEGGER_RTT.c **** *
2043:Middlewares/Third_Party/SEGGER/RTT/SEGGER_RTT.c **** *  Parameters
2044:Middlewares/Third_Party/SEGGER/RTT/SEGGER_RTT.c **** *    BufferIndex  Index of the up buffer.
2045:Middlewares/Third_Party/SEGGER/RTT/SEGGER_RTT.c **** *
2046:Middlewares/Third_Party/SEGGER/RTT/SEGGER_RTT.c **** *  Return value
2047:Middlewares/Third_Party/SEGGER/RTT/SEGGER_RTT.c **** *    Number of bytes that are free in the selected up buffer.
2048:Middlewares/Third_Party/SEGGER/RTT/SEGGER_RTT.c **** */
2049:Middlewares/Third_Party/SEGGER/RTT/SEGGER_RTT.c **** unsigned SEGGER_RTT_GetAvailWriteSpace (unsigned BufferIndex) {
 4100              		.loc 1 2049 63 is_stmt 1 view -0
 4101              		.cfi_startproc
 4102              		@ args = 0, pretend = 0, frame = 0
 4103              		@ frame_needed = 0, uses_anonymous_args = 0
 4104              		.loc 1 2049 63 is_stmt 0 view .LVU1210
 4105 0000 08B5     		push	{r3, lr}
 4106              		.cfi_def_cfa_offset 8
 4107              		.cfi_offset 3, -8
 4108              		.cfi_offset 14, -4
2050:Middlewares/Third_Party/SEGGER/RTT/SEGGER_RTT.c ****   SEGGER_RTT_BUFFER_UP* pRing;
 4109              		.loc 1 2050 3 is_stmt 1 view .LVU1211
2051:Middlewares/Third_Party/SEGGER/RTT/SEGGER_RTT.c **** 
2052:Middlewares/Third_Party/SEGGER/RTT/SEGGER_RTT.c ****   pRing = (SEGGER_RTT_BUFFER_UP*)((char*)&_SEGGER_RTT.aUp[BufferIndex] + SEGGER_RTT_UNCACHED_OFF); 
 4110              		.loc 1 2052 3 view .LVU1212
 4111              		.loc 1 2052 9 is_stmt 0 view .LVU1213
 4112 0002 0130     		adds	r0, r0, #1
 4113              	.LVL425:
 4114              		.loc 1 2052 9 view .LVU1214
 4115 0004 00EB4000 		add	r0, r0, r0, lsl #1
 4116              	.LVL426:
2053:Middlewares/Third_Party/SEGGER/RTT/SEGGER_RTT.c ****   return _GetAvailWriteSpace(pRing);
 4117              		.loc 1 2053 3 is_stmt 1 view .LVU1215
 4118              		.loc 1 2053 10 is_stmt 0 view .LVU1216
 4119 0008 024B     		ldr	r3, .L259
 4120 000a 03EBC000 		add	r0, r3, r0, lsl #3
 4121              	.LVL427:
 4122              		.loc 1 2053 10 view .LVU1217
 4123 000e FFF7FEFF 		bl	_GetAvailWriteSpace
 4124              	.LVL428:
2054:Middlewares/Third_Party/SEGGER/RTT/SEGGER_RTT.c **** }
 4125              		.loc 1 2054 1 view .LVU1218
 4126 0012 08BD     		pop	{r3, pc}
 4127              	.L260:
 4128              		.align	2
 4129              	.L259:
 4130 0014 00000000 		.word	_SEGGER_RTT
 4131              		.cfi_endproc
 4132              	.LFE34:
 4134              		.section	.text.SEGGER_RTT_GetBytesInBuffer,"ax",%progbits
 4135              		.align	1
 4136              		.global	SEGGER_RTT_GetBytesInBuffer
 4137              		.syntax unified
 4138              		.thumb
 4139              		.thumb_func
ARM GAS  C:\Users\Administrator\AppData\Local\Temp\ccUGyMKj.s 			page 115


 4141              	SEGGER_RTT_GetBytesInBuffer:
 4142              	.LVL429:
 4143              	.LFB35:
2055:Middlewares/Third_Party/SEGGER/RTT/SEGGER_RTT.c **** 
2056:Middlewares/Third_Party/SEGGER/RTT/SEGGER_RTT.c **** 
2057:Middlewares/Third_Party/SEGGER/RTT/SEGGER_RTT.c **** /*********************************************************************
2058:Middlewares/Third_Party/SEGGER/RTT/SEGGER_RTT.c **** *
2059:Middlewares/Third_Party/SEGGER/RTT/SEGGER_RTT.c **** *       SEGGER_RTT_GetBytesInBuffer()
2060:Middlewares/Third_Party/SEGGER/RTT/SEGGER_RTT.c **** *
2061:Middlewares/Third_Party/SEGGER/RTT/SEGGER_RTT.c **** *  Function description
2062:Middlewares/Third_Party/SEGGER/RTT/SEGGER_RTT.c **** *    Returns the number of bytes currently used in the up buffer.
2063:Middlewares/Third_Party/SEGGER/RTT/SEGGER_RTT.c **** *
2064:Middlewares/Third_Party/SEGGER/RTT/SEGGER_RTT.c **** *  Parameters
2065:Middlewares/Third_Party/SEGGER/RTT/SEGGER_RTT.c **** *    BufferIndex  Index of the up buffer.
2066:Middlewares/Third_Party/SEGGER/RTT/SEGGER_RTT.c **** *
2067:Middlewares/Third_Party/SEGGER/RTT/SEGGER_RTT.c **** *  Return value
2068:Middlewares/Third_Party/SEGGER/RTT/SEGGER_RTT.c **** *    Number of bytes that are used in the buffer.
2069:Middlewares/Third_Party/SEGGER/RTT/SEGGER_RTT.c **** */
2070:Middlewares/Third_Party/SEGGER/RTT/SEGGER_RTT.c **** unsigned SEGGER_RTT_GetBytesInBuffer(unsigned BufferIndex) {
 4144              		.loc 1 2070 60 is_stmt 1 view -0
 4145              		.cfi_startproc
 4146              		@ args = 0, pretend = 0, frame = 0
 4147              		@ frame_needed = 0, uses_anonymous_args = 0
 4148              		@ link register save eliminated.
2071:Middlewares/Third_Party/SEGGER/RTT/SEGGER_RTT.c ****   unsigned RdOff;
 4149              		.loc 1 2071 3 view .LVU1220
2072:Middlewares/Third_Party/SEGGER/RTT/SEGGER_RTT.c ****   unsigned WrOff;
 4150              		.loc 1 2072 3 view .LVU1221
2073:Middlewares/Third_Party/SEGGER/RTT/SEGGER_RTT.c ****   unsigned r;
 4151              		.loc 1 2073 3 view .LVU1222
2074:Middlewares/Third_Party/SEGGER/RTT/SEGGER_RTT.c ****   volatile SEGGER_RTT_CB* pRTTCB;
 4152              		.loc 1 2074 3 view .LVU1223
2075:Middlewares/Third_Party/SEGGER/RTT/SEGGER_RTT.c ****   //
2076:Middlewares/Third_Party/SEGGER/RTT/SEGGER_RTT.c ****   // Avoid warnings regarding volatile access order.  It's not a problem
2077:Middlewares/Third_Party/SEGGER/RTT/SEGGER_RTT.c ****   // in this case, but dampen compiler enthusiasm.
2078:Middlewares/Third_Party/SEGGER/RTT/SEGGER_RTT.c ****   //
2079:Middlewares/Third_Party/SEGGER/RTT/SEGGER_RTT.c ****   pRTTCB = (volatile SEGGER_RTT_CB*)((unsigned char*)&_SEGGER_RTT + SEGGER_RTT_UNCACHED_OFF);  // A
 4153              		.loc 1 2079 3 view .LVU1224
2080:Middlewares/Third_Party/SEGGER/RTT/SEGGER_RTT.c ****   RdOff = pRTTCB->aUp[BufferIndex].RdOff;
 4154              		.loc 1 2080 3 view .LVU1225
 4155              		.loc 1 2080 9 is_stmt 0 view .LVU1226
 4156 0000 00EB4002 		add	r2, r0, r0, lsl #1
 4157 0004 084B     		ldr	r3, .L264
 4158 0006 03EBC203 		add	r3, r3, r2, lsl #3
 4159 000a 9A6A     		ldr	r2, [r3, #40]
 4160              	.LVL430:
2081:Middlewares/Third_Party/SEGGER/RTT/SEGGER_RTT.c ****   WrOff = pRTTCB->aUp[BufferIndex].WrOff;
 4161              		.loc 1 2081 3 is_stmt 1 view .LVU1227
 4162              		.loc 1 2081 9 is_stmt 0 view .LVU1228
 4163 000c 5B6A     		ldr	r3, [r3, #36]
 4164              	.LVL431:
2082:Middlewares/Third_Party/SEGGER/RTT/SEGGER_RTT.c ****   if (RdOff <= WrOff) {
 4165              		.loc 1 2082 3 is_stmt 1 view .LVU1229
 4166              		.loc 1 2082 6 is_stmt 0 view .LVU1230
 4167 000e 9A42     		cmp	r2, r3
 4168 0010 01D8     		bhi	.L262
2083:Middlewares/Third_Party/SEGGER/RTT/SEGGER_RTT.c ****     r = WrOff - RdOff;
ARM GAS  C:\Users\Administrator\AppData\Local\Temp\ccUGyMKj.s 			page 116


 4169              		.loc 1 2083 5 is_stmt 1 view .LVU1231
 4170              		.loc 1 2083 7 is_stmt 0 view .LVU1232
 4171 0012 981A     		subs	r0, r3, r2
 4172              	.LVL432:
 4173              		.loc 1 2083 7 view .LVU1233
 4174 0014 7047     		bx	lr
 4175              	.LVL433:
 4176              	.L262:
2084:Middlewares/Third_Party/SEGGER/RTT/SEGGER_RTT.c ****   } else {
2085:Middlewares/Third_Party/SEGGER/RTT/SEGGER_RTT.c ****     r = pRTTCB->aUp[BufferIndex].SizeOfBuffer - (WrOff - RdOff);
 4177              		.loc 1 2085 5 is_stmt 1 view .LVU1234
 4178              		.loc 1 2085 33 is_stmt 0 view .LVU1235
 4179 0016 00EB4000 		add	r0, r0, r0, lsl #1
 4180              	.LVL434:
 4181              		.loc 1 2085 33 view .LVU1236
 4182 001a 0349     		ldr	r1, .L264
 4183 001c 01EBC001 		add	r1, r1, r0, lsl #3
 4184 0020 086A     		ldr	r0, [r1, #32]
 4185              		.loc 1 2085 47 view .LVU1237
 4186 0022 D21A     		subs	r2, r2, r3
 4187              	.LVL435:
 4188              		.loc 1 2085 7 view .LVU1238
 4189 0024 1044     		add	r0, r0, r2
 4190              	.LVL436:
2086:Middlewares/Third_Party/SEGGER/RTT/SEGGER_RTT.c ****   }
2087:Middlewares/Third_Party/SEGGER/RTT/SEGGER_RTT.c ****   return r;
 4191              		.loc 1 2087 3 is_stmt 1 view .LVU1239
2088:Middlewares/Third_Party/SEGGER/RTT/SEGGER_RTT.c **** }
 4192              		.loc 1 2088 1 is_stmt 0 view .LVU1240
 4193 0026 7047     		bx	lr
 4194              	.L265:
 4195              		.align	2
 4196              	.L264:
 4197 0028 00000000 		.word	_SEGGER_RTT
 4198              		.cfi_endproc
 4199              	.LFE35:
 4201              		.section	.rodata._aInitStr.0,"a"
 4202              		.align	2
 4205              	_aInitStr.0:
 4206 0000 00000000 		.ascii	"\000\000\000\000\000\000TTR REGGES\000"
 4206      00005454 
 4206      52205245 
 4206      47474553 
 4206      00
 4207              		.section	.bss._ActiveTerminal,"aw",%nobits
 4210              	_ActiveTerminal:
 4211 0000 00       		.space	1
 4212              		.section	.bss._acDownBuffer,"aw",%nobits
 4213              		.align	2
 4216              	_acDownBuffer:
 4217 0000 00000000 		.space	16
 4217      00000000 
 4217      00000000 
 4217      00000000 
 4218              		.section	.bss._acUpBuffer,"aw",%nobits
 4219              		.align	2
 4222              	_acUpBuffer:
ARM GAS  C:\Users\Administrator\AppData\Local\Temp\ccUGyMKj.s 			page 117


 4223 0000 00000000 		.space	1024
 4223      00000000 
 4223      00000000 
 4223      00000000 
 4223      00000000 
 4224              		.global	_SEGGER_RTT
 4225              		.section	.bss._SEGGER_RTT,"aw",%nobits
 4226              		.align	2
 4229              	_SEGGER_RTT:
 4230 0000 00000000 		.space	168
 4230      00000000 
 4230      00000000 
 4230      00000000 
 4230      00000000 
 4231              		.section	.rodata._aTerminalId,"a"
 4232              		.align	2
 4235              	_aTerminalId:
 4236 0000 30313233 		.ascii	"0123456789ABCDEF"
 4236      34353637 
 4236      38394142 
 4236      43444546 
 4237              		.text
 4238              	.Letext0:
 4239              		.file 2 "Middlewares/Third_Party/SEGGER/RTT/SEGGER_RTT.h"
 4240              		.file 3 "C:/Users/Administrator/AppData/Roaming/Code/User/globalStorage/bmd.stm32-for-vscode/@xpac
 4241              		.file 4 "C:/Users/Administrator/AppData/Roaming/Code/User/globalStorage/bmd.stm32-for-vscode/@xpac
 4242              		.file 5 "<built-in>"
ARM GAS  C:\Users\Administrator\AppData\Local\Temp\ccUGyMKj.s 			page 118


DEFINED SYMBOLS
                            *ABS*:00000000 SEGGER_RTT.c
C:\Users\Administrator\AppData\Local\Temp\ccUGyMKj.s:21     .text._GetAvailWriteSpace:00000000 $t
C:\Users\Administrator\AppData\Local\Temp\ccUGyMKj.s:26     .text._GetAvailWriteSpace:00000000 _GetAvailWriteSpace
C:\Users\Administrator\AppData\Local\Temp\ccUGyMKj.s:79     .text._WriteNoCheck:00000000 $t
C:\Users\Administrator\AppData\Local\Temp\ccUGyMKj.s:84     .text._WriteNoCheck:00000000 _WriteNoCheck
C:\Users\Administrator\AppData\Local\Temp\ccUGyMKj.s:201    .text._WriteBlocking:00000000 $t
C:\Users\Administrator\AppData\Local\Temp\ccUGyMKj.s:206    .text._WriteBlocking:00000000 _WriteBlocking
C:\Users\Administrator\AppData\Local\Temp\ccUGyMKj.s:358    .text._PostTerminalSwitch:00000000 $t
C:\Users\Administrator\AppData\Local\Temp\ccUGyMKj.s:363    .text._PostTerminalSwitch:00000000 _PostTerminalSwitch
C:\Users\Administrator\AppData\Local\Temp\ccUGyMKj.s:402    .text._PostTerminalSwitch:00000020 $d
C:\Users\Administrator\AppData\Local\Temp\ccUGyMKj.s:4235   .rodata._aTerminalId:00000000 _aTerminalId
C:\Users\Administrator\AppData\Local\Temp\ccUGyMKj.s:407    .rodata._DoInit.str1.4:00000000 $d
C:\Users\Administrator\AppData\Local\Temp\ccUGyMKj.s:411    .text._DoInit:00000000 $t
C:\Users\Administrator\AppData\Local\Temp\ccUGyMKj.s:416    .text._DoInit:00000000 _DoInit
C:\Users\Administrator\AppData\Local\Temp\ccUGyMKj.s:532    .text._DoInit:00000058 $d
C:\Users\Administrator\AppData\Local\Temp\ccUGyMKj.s:4229   .bss._SEGGER_RTT:00000000 _SEGGER_RTT
C:\Users\Administrator\AppData\Local\Temp\ccUGyMKj.s:4222   .bss._acUpBuffer:00000000 _acUpBuffer
C:\Users\Administrator\AppData\Local\Temp\ccUGyMKj.s:4216   .bss._acDownBuffer:00000000 _acDownBuffer
C:\Users\Administrator\AppData\Local\Temp\ccUGyMKj.s:4205   .rodata._aInitStr.0:00000000 _aInitStr.0
C:\Users\Administrator\AppData\Local\Temp\ccUGyMKj.s:541    .text.SEGGER_RTT_ReadUpBufferNoLock:00000000 $t
C:\Users\Administrator\AppData\Local\Temp\ccUGyMKj.s:547    .text.SEGGER_RTT_ReadUpBufferNoLock:00000000 SEGGER_RTT_ReadUpBufferNoLock
C:\Users\Administrator\AppData\Local\Temp\ccUGyMKj.s:753    .text.SEGGER_RTT_ReadUpBufferNoLock:000000ac $d
C:\Users\Administrator\AppData\Local\Temp\ccUGyMKj.s:758    .text.SEGGER_RTT_ReadNoLock:00000000 $t
C:\Users\Administrator\AppData\Local\Temp\ccUGyMKj.s:764    .text.SEGGER_RTT_ReadNoLock:00000000 SEGGER_RTT_ReadNoLock
C:\Users\Administrator\AppData\Local\Temp\ccUGyMKj.s:959    .text.SEGGER_RTT_ReadNoLock:000000a0 $d
C:\Users\Administrator\AppData\Local\Temp\ccUGyMKj.s:964    .text.SEGGER_RTT_ReadUpBuffer:00000000 $t
C:\Users\Administrator\AppData\Local\Temp\ccUGyMKj.s:970    .text.SEGGER_RTT_ReadUpBuffer:00000000 SEGGER_RTT_ReadUpBuffer
C:\Users\Administrator\AppData\Local\Temp\ccUGyMKj.s:1021   .text.SEGGER_RTT_Read:00000000 $t
C:\Users\Administrator\AppData\Local\Temp\ccUGyMKj.s:1027   .text.SEGGER_RTT_Read:00000000 SEGGER_RTT_Read
C:\Users\Administrator\AppData\Local\Temp\ccUGyMKj.s:1078   .text.SEGGER_RTT_WriteWithOverwriteNoLock:00000000 $t
C:\Users\Administrator\AppData\Local\Temp\ccUGyMKj.s:1084   .text.SEGGER_RTT_WriteWithOverwriteNoLock:00000000 SEGGER_RTT_WriteWithOverwriteNoLock
C:\Users\Administrator\AppData\Local\Temp\ccUGyMKj.s:1344   .text.SEGGER_RTT_WriteWithOverwriteNoLock:00000120 $d
C:\Users\Administrator\AppData\Local\Temp\ccUGyMKj.s:1349   .text.SEGGER_RTT_WriteDownBufferNoLock:00000000 $t
C:\Users\Administrator\AppData\Local\Temp\ccUGyMKj.s:1355   .text.SEGGER_RTT_WriteDownBufferNoLock:00000000 SEGGER_RTT_WriteDownBufferNoLock
C:\Users\Administrator\AppData\Local\Temp\ccUGyMKj.s:1469   .text.SEGGER_RTT_WriteDownBufferNoLock:00000060 $d
C:\Users\Administrator\AppData\Local\Temp\ccUGyMKj.s:1474   .text.SEGGER_RTT_WriteNoLock:00000000 $t
C:\Users\Administrator\AppData\Local\Temp\ccUGyMKj.s:1480   .text.SEGGER_RTT_WriteNoLock:00000000 SEGGER_RTT_WriteNoLock
C:\Users\Administrator\AppData\Local\Temp\ccUGyMKj.s:1604   .text.SEGGER_RTT_WriteNoLock:00000074 $d
C:\Users\Administrator\AppData\Local\Temp\ccUGyMKj.s:1609   .text.SEGGER_RTT_WriteDownBuffer:00000000 $t
C:\Users\Administrator\AppData\Local\Temp\ccUGyMKj.s:1615   .text.SEGGER_RTT_WriteDownBuffer:00000000 SEGGER_RTT_WriteDownBuffer
C:\Users\Administrator\AppData\Local\Temp\ccUGyMKj.s:1694   .text.SEGGER_RTT_WriteDownBuffer:00000030 $d
C:\Users\Administrator\AppData\Local\Temp\ccUGyMKj.s:1700   .text.SEGGER_RTT_Write:00000000 $t
C:\Users\Administrator\AppData\Local\Temp\ccUGyMKj.s:1706   .text.SEGGER_RTT_Write:00000000 SEGGER_RTT_Write
C:\Users\Administrator\AppData\Local\Temp\ccUGyMKj.s:1785   .text.SEGGER_RTT_Write:00000030 $d
C:\Users\Administrator\AppData\Local\Temp\ccUGyMKj.s:1791   .text.SEGGER_RTT_WriteString:00000000 $t
C:\Users\Administrator\AppData\Local\Temp\ccUGyMKj.s:1797   .text.SEGGER_RTT_WriteString:00000000 SEGGER_RTT_WriteString
C:\Users\Administrator\AppData\Local\Temp\ccUGyMKj.s:1839   .text.SEGGER_RTT_PutCharSkipNoLock:00000000 $t
C:\Users\Administrator\AppData\Local\Temp\ccUGyMKj.s:1845   .text.SEGGER_RTT_PutCharSkipNoLock:00000000 SEGGER_RTT_PutCharSkipNoLock
C:\Users\Administrator\AppData\Local\Temp\ccUGyMKj.s:1941   .text.SEGGER_RTT_PutCharSkipNoLock:0000005c $d
C:\Users\Administrator\AppData\Local\Temp\ccUGyMKj.s:1946   .text.SEGGER_RTT_PutCharSkip:00000000 $t
C:\Users\Administrator\AppData\Local\Temp\ccUGyMKj.s:1952   .text.SEGGER_RTT_PutCharSkip:00000000 SEGGER_RTT_PutCharSkip
C:\Users\Administrator\AppData\Local\Temp\ccUGyMKj.s:2099   .text.SEGGER_RTT_PutCharSkip:00000078 $d
C:\Users\Administrator\AppData\Local\Temp\ccUGyMKj.s:2105   .text.SEGGER_RTT_PutChar:00000000 $t
C:\Users\Administrator\AppData\Local\Temp\ccUGyMKj.s:2111   .text.SEGGER_RTT_PutChar:00000000 SEGGER_RTT_PutChar
C:\Users\Administrator\AppData\Local\Temp\ccUGyMKj.s:2284   .text.SEGGER_RTT_PutChar:0000009c $d
C:\Users\Administrator\AppData\Local\Temp\ccUGyMKj.s:2290   .text.SEGGER_RTT_GetKey:00000000 $t
ARM GAS  C:\Users\Administrator\AppData\Local\Temp\ccUGyMKj.s 			page 119


C:\Users\Administrator\AppData\Local\Temp\ccUGyMKj.s:2296   .text.SEGGER_RTT_GetKey:00000000 SEGGER_RTT_GetKey
C:\Users\Administrator\AppData\Local\Temp\ccUGyMKj.s:2344   .text.SEGGER_RTT_WaitKey:00000000 $t
C:\Users\Administrator\AppData\Local\Temp\ccUGyMKj.s:2350   .text.SEGGER_RTT_WaitKey:00000000 SEGGER_RTT_WaitKey
C:\Users\Administrator\AppData\Local\Temp\ccUGyMKj.s:2378   .text.SEGGER_RTT_HasKey:00000000 $t
C:\Users\Administrator\AppData\Local\Temp\ccUGyMKj.s:2384   .text.SEGGER_RTT_HasKey:00000000 SEGGER_RTT_HasKey
C:\Users\Administrator\AppData\Local\Temp\ccUGyMKj.s:2448   .text.SEGGER_RTT_HasKey:00000020 $d
C:\Users\Administrator\AppData\Local\Temp\ccUGyMKj.s:2453   .text.SEGGER_RTT_HasData:00000000 $t
C:\Users\Administrator\AppData\Local\Temp\ccUGyMKj.s:2459   .text.SEGGER_RTT_HasData:00000000 SEGGER_RTT_HasData
C:\Users\Administrator\AppData\Local\Temp\ccUGyMKj.s:2490   .text.SEGGER_RTT_HasData:0000001c $d
C:\Users\Administrator\AppData\Local\Temp\ccUGyMKj.s:2495   .text.SEGGER_RTT_HasDataUp:00000000 $t
C:\Users\Administrator\AppData\Local\Temp\ccUGyMKj.s:2501   .text.SEGGER_RTT_HasDataUp:00000000 SEGGER_RTT_HasDataUp
C:\Users\Administrator\AppData\Local\Temp\ccUGyMKj.s:2532   .text.SEGGER_RTT_HasDataUp:0000001c $d
C:\Users\Administrator\AppData\Local\Temp\ccUGyMKj.s:2537   .text.SEGGER_RTT_AllocDownBuffer:00000000 $t
C:\Users\Administrator\AppData\Local\Temp\ccUGyMKj.s:2543   .text.SEGGER_RTT_AllocDownBuffer:00000000 SEGGER_RTT_AllocDownBuffer
C:\Users\Administrator\AppData\Local\Temp\ccUGyMKj.s:2696   .text.SEGGER_RTT_AllocDownBuffer:00000070 $d
C:\Users\Administrator\AppData\Local\Temp\ccUGyMKj.s:2702   .text.SEGGER_RTT_AllocUpBuffer:00000000 $t
C:\Users\Administrator\AppData\Local\Temp\ccUGyMKj.s:2708   .text.SEGGER_RTT_AllocUpBuffer:00000000 SEGGER_RTT_AllocUpBuffer
C:\Users\Administrator\AppData\Local\Temp\ccUGyMKj.s:2868   .text.SEGGER_RTT_AllocUpBuffer:00000088 $d
C:\Users\Administrator\AppData\Local\Temp\ccUGyMKj.s:2874   .text.SEGGER_RTT_ConfigUpBuffer:00000000 $t
C:\Users\Administrator\AppData\Local\Temp\ccUGyMKj.s:2880   .text.SEGGER_RTT_ConfigUpBuffer:00000000 SEGGER_RTT_ConfigUpBuffer
C:\Users\Administrator\AppData\Local\Temp\ccUGyMKj.s:3015   .text.SEGGER_RTT_ConfigUpBuffer:0000006c $d
C:\Users\Administrator\AppData\Local\Temp\ccUGyMKj.s:3020   .text.SEGGER_RTT_ConfigDownBuffer:00000000 $t
C:\Users\Administrator\AppData\Local\Temp\ccUGyMKj.s:3026   .text.SEGGER_RTT_ConfigDownBuffer:00000000 SEGGER_RTT_ConfigDownBuffer
C:\Users\Administrator\AppData\Local\Temp\ccUGyMKj.s:3162   .text.SEGGER_RTT_ConfigDownBuffer:00000068 $d
C:\Users\Administrator\AppData\Local\Temp\ccUGyMKj.s:3167   .text.SEGGER_RTT_SetNameUpBuffer:00000000 $t
C:\Users\Administrator\AppData\Local\Temp\ccUGyMKj.s:3173   .text.SEGGER_RTT_SetNameUpBuffer:00000000 SEGGER_RTT_SetNameUpBuffer
C:\Users\Administrator\AppData\Local\Temp\ccUGyMKj.s:3276   .text.SEGGER_RTT_SetNameUpBuffer:0000003c $d
C:\Users\Administrator\AppData\Local\Temp\ccUGyMKj.s:3281   .text.SEGGER_RTT_SetNameDownBuffer:00000000 $t
C:\Users\Administrator\AppData\Local\Temp\ccUGyMKj.s:3287   .text.SEGGER_RTT_SetNameDownBuffer:00000000 SEGGER_RTT_SetNameDownBuffer
C:\Users\Administrator\AppData\Local\Temp\ccUGyMKj.s:3387   .text.SEGGER_RTT_SetNameDownBuffer:0000003c $d
C:\Users\Administrator\AppData\Local\Temp\ccUGyMKj.s:3392   .text.SEGGER_RTT_SetFlagsUpBuffer:00000000 $t
C:\Users\Administrator\AppData\Local\Temp\ccUGyMKj.s:3398   .text.SEGGER_RTT_SetFlagsUpBuffer:00000000 SEGGER_RTT_SetFlagsUpBuffer
C:\Users\Administrator\AppData\Local\Temp\ccUGyMKj.s:3498   .text.SEGGER_RTT_SetFlagsUpBuffer:0000003c $d
C:\Users\Administrator\AppData\Local\Temp\ccUGyMKj.s:3503   .text.SEGGER_RTT_SetFlagsDownBuffer:00000000 $t
C:\Users\Administrator\AppData\Local\Temp\ccUGyMKj.s:3509   .text.SEGGER_RTT_SetFlagsDownBuffer:00000000 SEGGER_RTT_SetFlagsDownBuffer
C:\Users\Administrator\AppData\Local\Temp\ccUGyMKj.s:3609   .text.SEGGER_RTT_SetFlagsDownBuffer:0000003c $d
C:\Users\Administrator\AppData\Local\Temp\ccUGyMKj.s:3614   .text.SEGGER_RTT_Init:00000000 $t
C:\Users\Administrator\AppData\Local\Temp\ccUGyMKj.s:3620   .text.SEGGER_RTT_Init:00000000 SEGGER_RTT_Init
C:\Users\Administrator\AppData\Local\Temp\ccUGyMKj.s:3639   .text.SEGGER_RTT_SetTerminal:00000000 $t
C:\Users\Administrator\AppData\Local\Temp\ccUGyMKj.s:3645   .text.SEGGER_RTT_SetTerminal:00000000 SEGGER_RTT_SetTerminal
C:\Users\Administrator\AppData\Local\Temp\ccUGyMKj.s:3820   .text.SEGGER_RTT_SetTerminal:00000080 $d
C:\Users\Administrator\AppData\Local\Temp\ccUGyMKj.s:4210   .bss._ActiveTerminal:00000000 _ActiveTerminal
C:\Users\Administrator\AppData\Local\Temp\ccUGyMKj.s:3828   .text.SEGGER_RTT_TerminalOut:00000000 $t
C:\Users\Administrator\AppData\Local\Temp\ccUGyMKj.s:3834   .text.SEGGER_RTT_TerminalOut:00000000 SEGGER_RTT_TerminalOut
C:\Users\Administrator\AppData\Local\Temp\ccUGyMKj.s:4084   .text.SEGGER_RTT_TerminalOut:000000dc $d
C:\Users\Administrator\AppData\Local\Temp\ccUGyMKj.s:4091   .text.SEGGER_RTT_GetAvailWriteSpace:00000000 $t
C:\Users\Administrator\AppData\Local\Temp\ccUGyMKj.s:4097   .text.SEGGER_RTT_GetAvailWriteSpace:00000000 SEGGER_RTT_GetAvailWriteSpace
C:\Users\Administrator\AppData\Local\Temp\ccUGyMKj.s:4130   .text.SEGGER_RTT_GetAvailWriteSpace:00000014 $d
C:\Users\Administrator\AppData\Local\Temp\ccUGyMKj.s:4135   .text.SEGGER_RTT_GetBytesInBuffer:00000000 $t
C:\Users\Administrator\AppData\Local\Temp\ccUGyMKj.s:4141   .text.SEGGER_RTT_GetBytesInBuffer:00000000 SEGGER_RTT_GetBytesInBuffer
C:\Users\Administrator\AppData\Local\Temp\ccUGyMKj.s:4197   .text.SEGGER_RTT_GetBytesInBuffer:00000028 $d
C:\Users\Administrator\AppData\Local\Temp\ccUGyMKj.s:4202   .rodata._aInitStr.0:00000000 $d
C:\Users\Administrator\AppData\Local\Temp\ccUGyMKj.s:4211   .bss._ActiveTerminal:00000000 $d
C:\Users\Administrator\AppData\Local\Temp\ccUGyMKj.s:4213   .bss._acDownBuffer:00000000 $d
C:\Users\Administrator\AppData\Local\Temp\ccUGyMKj.s:4219   .bss._acUpBuffer:00000000 $d
C:\Users\Administrator\AppData\Local\Temp\ccUGyMKj.s:4226   .bss._SEGGER_RTT:00000000 $d
C:\Users\Administrator\AppData\Local\Temp\ccUGyMKj.s:4232   .rodata._aTerminalId:00000000 $d
ARM GAS  C:\Users\Administrator\AppData\Local\Temp\ccUGyMKj.s 			page 120



UNDEFINED SYMBOLS
memcpy
memset
strlen
