ARM GAS  C:\Users\Administrator\AppData\Local\Temp\ccUGyMKj.s 			page 1


   1              		.cpu cortex-m4
   2              		.arch armv7e-m
   3              		.fpu fpv4-sp-d16
   4              		.eabi_attribute 27, 1
   5              		.eabi_attribute 28, 1
   6              		.eabi_attribute 20, 1
   7              		.eabi_attribute 21, 1
   8              		.eabi_attribute 23, 3
   9              		.eabi_attribute 24, 1
  10              		.eabi_attribute 25, 1
  11              		.eabi_attribute 26, 1
  12              		.eabi_attribute 30, 1
  13              		.eabi_attribute 34, 1
  14              		.eabi_attribute 18, 4
  15              		.file	"SEGGER_RTT.c"
  16              		.text
  17              	.Ltext0:
  18              		.cfi_sections	.debug_frame
  19              		.file 1 "Middlewares/Third_Party/SEGGER/RTT/SEGGER_RTT.c"
  20              		.section	.text._GetAvailWriteSpace,"ax",%progbits
  21              		.align	1
  22              		.syntax unified
  23              		.thumb
  24              		.thumb_func
  26              	_GetAvailWriteSpace:
  27              	.LVL0:
  28              	.LFB4:
   1:Middlewares/Third_Party/SEGGER/RTT/SEGGER_RTT.c **** /*********************************************************************
   2:Middlewares/Third_Party/SEGGER/RTT/SEGGER_RTT.c **** *                    SEGGER Microcontroller GmbH                     *
   3:Middlewares/Third_Party/SEGGER/RTT/SEGGER_RTT.c **** *                        The Embedded Experts                        *
   4:Middlewares/Third_Party/SEGGER/RTT/SEGGER_RTT.c **** **********************************************************************
   5:Middlewares/Third_Party/SEGGER/RTT/SEGGER_RTT.c **** *                                                                    *
   6:Middlewares/Third_Party/SEGGER/RTT/SEGGER_RTT.c **** *            (c) 1995 - 2021 SEGGER Microcontroller GmbH             *
   7:Middlewares/Third_Party/SEGGER/RTT/SEGGER_RTT.c **** *                                                                    *
   8:Middlewares/Third_Party/SEGGER/RTT/SEGGER_RTT.c **** *       www.segger.com     Support: support@segger.com               *
   9:Middlewares/Third_Party/SEGGER/RTT/SEGGER_RTT.c **** *                                                                    *
  10:Middlewares/Third_Party/SEGGER/RTT/SEGGER_RTT.c **** **********************************************************************
  11:Middlewares/Third_Party/SEGGER/RTT/SEGGER_RTT.c **** *                                                                    *
  12:Middlewares/Third_Party/SEGGER/RTT/SEGGER_RTT.c **** *       SEGGER RTT * Real Time Transfer for embedded targets         *
  13:Middlewares/Third_Party/SEGGER/RTT/SEGGER_RTT.c **** *                                                                    *
  14:Middlewares/Third_Party/SEGGER/RTT/SEGGER_RTT.c **** **********************************************************************
  15:Middlewares/Third_Party/SEGGER/RTT/SEGGER_RTT.c **** *                                                                    *
  16:Middlewares/Third_Party/SEGGER/RTT/SEGGER_RTT.c **** * All rights reserved.                                               *
  17:Middlewares/Third_Party/SEGGER/RTT/SEGGER_RTT.c **** *                                                                    *
  18:Middlewares/Third_Party/SEGGER/RTT/SEGGER_RTT.c **** * SEGGER strongly recommends to not make any changes                 *
  19:Middlewares/Third_Party/SEGGER/RTT/SEGGER_RTT.c **** * to or modify the source code of this software in order to stay     *
  20:Middlewares/Third_Party/SEGGER/RTT/SEGGER_RTT.c **** * compatible with the RTT protocol and J-Link.                       *
  21:Middlewares/Third_Party/SEGGER/RTT/SEGGER_RTT.c **** *                                                                    *
  22:Middlewares/Third_Party/SEGGER/RTT/SEGGER_RTT.c **** * Redistribution and use in source and binary forms, with or         *
  23:Middlewares/Third_Party/SEGGER/RTT/SEGGER_RTT.c **** * without modification, are permitted provided that the following    *
  24:Middlewares/Third_Party/SEGGER/RTT/SEGGER_RTT.c **** * condition is met:                                                  *
  25:Middlewares/Third_Party/SEGGER/RTT/SEGGER_RTT.c **** *                                                                    *
  26:Middlewares/Third_Party/SEGGER/RTT/SEGGER_RTT.c **** * o Redistributions of source code must retain the above copyright   *
  27:Middlewares/Third_Party/SEGGER/RTT/SEGGER_RTT.c **** *   notice, this condition and the following disclaimer.             *
  28:Middlewares/Third_Party/SEGGER/RTT/SEGGER_RTT.c **** *                                                                    *
  29:Middlewares/Third_Party/SEGGER/RTT/SEGGER_RTT.c **** * THIS SOFTWARE IS PROVIDED BY THE COPYRIGHT HOLDERS AND             *
  30:Middlewares/Third_Party/SEGGER/RTT/SEGGER_RTT.c **** * CONTRIBUTORS "AS IS" AND ANY EXPRESS OR IMPLIED WARRANTIES,        *
ARM GAS  C:\Users\Administrator\AppData\Local\Temp\ccUGyMKj.s 			page 2


  31:Middlewares/Third_Party/SEGGER/RTT/SEGGER_RTT.c **** * INCLUDING, BUT NOT LIMITED TO, THE IMPLIED WARRANTIES OF           *
  32:Middlewares/Third_Party/SEGGER/RTT/SEGGER_RTT.c **** * MERCHANTABILITY AND FITNESS FOR A PARTICULAR PURPOSE ARE           *
  33:Middlewares/Third_Party/SEGGER/RTT/SEGGER_RTT.c **** * DISCLAIMED. IN NO EVENT SHALL SEGGER Microcontroller BE LIABLE FOR *
  34:Middlewares/Third_Party/SEGGER/RTT/SEGGER_RTT.c **** * ANY DIRECT, INDIRECT, INCIDENTAL, SPECIAL, EXEMPLARY, OR           *
  35:Middlewares/Third_Party/SEGGER/RTT/SEGGER_RTT.c **** * CONSEQUENTIAL DAMAGES (INCLUDING, BUT NOT LIMITED TO, PROCUREMENT  *
  36:Middlewares/Third_Party/SEGGER/RTT/SEGGER_RTT.c **** * OF SUBSTITUTE GOODS OR SERVICES; LOSS OF USE, DATA, OR PROFITS;    *
  37:Middlewares/Third_Party/SEGGER/RTT/SEGGER_RTT.c **** * OR BUSINESS INTERRUPTION) HOWEVER CAUSED AND ON ANY THEORY OF      *
  38:Middlewares/Third_Party/SEGGER/RTT/SEGGER_RTT.c **** * LIABILITY, WHETHER IN CONTRACT, STRICT LIABILITY, OR TORT          *
  39:Middlewares/Third_Party/SEGGER/RTT/SEGGER_RTT.c **** * (INCLUDING NEGLIGENCE OR OTHERWISE) ARISING IN ANY WAY OUT OF THE  *
  40:Middlewares/Third_Party/SEGGER/RTT/SEGGER_RTT.c **** * USE OF THIS SOFTWARE, EVEN IF ADVISED OF THE POSSIBILITY OF SUCH   *
  41:Middlewares/Third_Party/SEGGER/RTT/SEGGER_RTT.c **** * DAMAGE.                                                            *
  42:Middlewares/Third_Party/SEGGER/RTT/SEGGER_RTT.c **** *                                                                    *
  43:Middlewares/Third_Party/SEGGER/RTT/SEGGER_RTT.c **** **********************************************************************
  44:Middlewares/Third_Party/SEGGER/RTT/SEGGER_RTT.c **** *                                                                    *
  45:Middlewares/Third_Party/SEGGER/RTT/SEGGER_RTT.c **** *       RTT version: 7.58c                                           *
  46:Middlewares/Third_Party/SEGGER/RTT/SEGGER_RTT.c **** *                                                                    *
  47:Middlewares/Third_Party/SEGGER/RTT/SEGGER_RTT.c **** **********************************************************************
  48:Middlewares/Third_Party/SEGGER/RTT/SEGGER_RTT.c **** 
  49:Middlewares/Third_Party/SEGGER/RTT/SEGGER_RTT.c **** ---------------------------END-OF-HEADER------------------------------
  50:Middlewares/Third_Party/SEGGER/RTT/SEGGER_RTT.c **** File    : SEGGER_RTT.c
  51:Middlewares/Third_Party/SEGGER/RTT/SEGGER_RTT.c **** Purpose : Implementation of SEGGER real-time transfer (RTT) which
  52:Middlewares/Third_Party/SEGGER/RTT/SEGGER_RTT.c ****           allows real-time communication on targets which support
  53:Middlewares/Third_Party/SEGGER/RTT/SEGGER_RTT.c ****           debugger memory accesses while the CPU is running.
  54:Middlewares/Third_Party/SEGGER/RTT/SEGGER_RTT.c **** Revision: $Rev: 24715 $
  55:Middlewares/Third_Party/SEGGER/RTT/SEGGER_RTT.c **** 
  56:Middlewares/Third_Party/SEGGER/RTT/SEGGER_RTT.c **** Additional information:
  57:Middlewares/Third_Party/SEGGER/RTT/SEGGER_RTT.c ****           Type "int" is assumed to be 32-bits in size
  58:Middlewares/Third_Party/SEGGER/RTT/SEGGER_RTT.c ****           H->T    Host to target communication
  59:Middlewares/Third_Party/SEGGER/RTT/SEGGER_RTT.c ****           T->H    Target to host communication
  60:Middlewares/Third_Party/SEGGER/RTT/SEGGER_RTT.c **** 
  61:Middlewares/Third_Party/SEGGER/RTT/SEGGER_RTT.c ****           RTT channel 0 is always present and reserved for Terminal usage.
  62:Middlewares/Third_Party/SEGGER/RTT/SEGGER_RTT.c ****           Name is fixed to "Terminal"
  63:Middlewares/Third_Party/SEGGER/RTT/SEGGER_RTT.c **** 
  64:Middlewares/Third_Party/SEGGER/RTT/SEGGER_RTT.c ****           Effective buffer size: SizeOfBuffer - 1
  65:Middlewares/Third_Party/SEGGER/RTT/SEGGER_RTT.c **** 
  66:Middlewares/Third_Party/SEGGER/RTT/SEGGER_RTT.c ****           WrOff == RdOff:       Buffer is empty
  67:Middlewares/Third_Party/SEGGER/RTT/SEGGER_RTT.c ****           WrOff == (RdOff - 1): Buffer is full
  68:Middlewares/Third_Party/SEGGER/RTT/SEGGER_RTT.c ****           WrOff >  RdOff:       Free space includes wrap-around
  69:Middlewares/Third_Party/SEGGER/RTT/SEGGER_RTT.c ****           WrOff <  RdOff:       Used space includes wrap-around
  70:Middlewares/Third_Party/SEGGER/RTT/SEGGER_RTT.c ****           (WrOff == (SizeOfBuffer - 1)) && (RdOff == 0):  
  71:Middlewares/Third_Party/SEGGER/RTT/SEGGER_RTT.c ****                                 Buffer full and wrap-around after next byte
  72:Middlewares/Third_Party/SEGGER/RTT/SEGGER_RTT.c **** 
  73:Middlewares/Third_Party/SEGGER/RTT/SEGGER_RTT.c **** 
  74:Middlewares/Third_Party/SEGGER/RTT/SEGGER_RTT.c **** ----------------------------------------------------------------------
  75:Middlewares/Third_Party/SEGGER/RTT/SEGGER_RTT.c **** */
  76:Middlewares/Third_Party/SEGGER/RTT/SEGGER_RTT.c **** 
  77:Middlewares/Third_Party/SEGGER/RTT/SEGGER_RTT.c **** #include "SEGGER_RTT.h"
  78:Middlewares/Third_Party/SEGGER/RTT/SEGGER_RTT.c **** 
  79:Middlewares/Third_Party/SEGGER/RTT/SEGGER_RTT.c **** #include <string.h>                 // for memcpy
  80:Middlewares/Third_Party/SEGGER/RTT/SEGGER_RTT.c **** 
  81:Middlewares/Third_Party/SEGGER/RTT/SEGGER_RTT.c **** /*********************************************************************
  82:Middlewares/Third_Party/SEGGER/RTT/SEGGER_RTT.c **** *
  83:Middlewares/Third_Party/SEGGER/RTT/SEGGER_RTT.c **** *       Configuration, default values
  84:Middlewares/Third_Party/SEGGER/RTT/SEGGER_RTT.c **** *
  85:Middlewares/Third_Party/SEGGER/RTT/SEGGER_RTT.c **** **********************************************************************
  86:Middlewares/Third_Party/SEGGER/RTT/SEGGER_RTT.c **** */
  87:Middlewares/Third_Party/SEGGER/RTT/SEGGER_RTT.c **** 
ARM GAS  C:\Users\Administrator\AppData\Local\Temp\ccUGyMKj.s 			page 3


  88:Middlewares/Third_Party/SEGGER/RTT/SEGGER_RTT.c **** #if SEGGER_RTT_CPU_CACHE_LINE_SIZE
  89:Middlewares/Third_Party/SEGGER/RTT/SEGGER_RTT.c ****   #ifdef SEGGER_RTT_CB_ALIGN
  90:Middlewares/Third_Party/SEGGER/RTT/SEGGER_RTT.c ****     #error "Custom SEGGER_RTT_CB_ALIGN() is not supported for SEGGER_RTT_CPU_CACHE_LINE_SIZE != 0"
  91:Middlewares/Third_Party/SEGGER/RTT/SEGGER_RTT.c ****   #endif
  92:Middlewares/Third_Party/SEGGER/RTT/SEGGER_RTT.c ****   #ifdef SEGGER_RTT_BUFFER_ALIGN
  93:Middlewares/Third_Party/SEGGER/RTT/SEGGER_RTT.c ****     #error "Custom SEGGER_RTT_BUFFER_ALIGN() is not supported for SEGGER_RTT_CPU_CACHE_LINE_SIZE !=
  94:Middlewares/Third_Party/SEGGER/RTT/SEGGER_RTT.c ****   #endif
  95:Middlewares/Third_Party/SEGGER/RTT/SEGGER_RTT.c ****   #ifdef SEGGER_RTT_PUT_CB_SECTION
  96:Middlewares/Third_Party/SEGGER/RTT/SEGGER_RTT.c ****     #error "Custom SEGGER_RTT_PUT_CB_SECTION() is not supported for SEGGER_RTT_CPU_CACHE_LINE_SIZE 
  97:Middlewares/Third_Party/SEGGER/RTT/SEGGER_RTT.c ****   #endif
  98:Middlewares/Third_Party/SEGGER/RTT/SEGGER_RTT.c ****   #ifdef SEGGER_RTT_PUT_BUFFER_SECTION
  99:Middlewares/Third_Party/SEGGER/RTT/SEGGER_RTT.c ****     #error "Custom SEGGER_RTT_PUT_BUFFER_SECTION() is not supported for SEGGER_RTT_CPU_CACHE_LINE_S
 100:Middlewares/Third_Party/SEGGER/RTT/SEGGER_RTT.c ****   #endif
 101:Middlewares/Third_Party/SEGGER/RTT/SEGGER_RTT.c ****   #ifdef SEGGER_RTT_BUFFER_ALIGNMENT
 102:Middlewares/Third_Party/SEGGER/RTT/SEGGER_RTT.c ****     #error "Custom SEGGER_RTT_BUFFER_ALIGNMENT is not supported for SEGGER_RTT_CPU_CACHE_LINE_SIZE 
 103:Middlewares/Third_Party/SEGGER/RTT/SEGGER_RTT.c ****   #endif
 104:Middlewares/Third_Party/SEGGER/RTT/SEGGER_RTT.c ****   #ifdef SEGGER_RTT_ALIGNMENT
 105:Middlewares/Third_Party/SEGGER/RTT/SEGGER_RTT.c ****     #error "Custom SEGGER_RTT_ALIGNMENT is not supported for SEGGER_RTT_CPU_CACHE_LINE_SIZE != 0"
 106:Middlewares/Third_Party/SEGGER/RTT/SEGGER_RTT.c ****   #endif
 107:Middlewares/Third_Party/SEGGER/RTT/SEGGER_RTT.c **** #endif
 108:Middlewares/Third_Party/SEGGER/RTT/SEGGER_RTT.c **** 
 109:Middlewares/Third_Party/SEGGER/RTT/SEGGER_RTT.c **** #ifndef   BUFFER_SIZE_UP
 110:Middlewares/Third_Party/SEGGER/RTT/SEGGER_RTT.c ****   #define BUFFER_SIZE_UP                                  1024  // Size of the buffer for terminal 
 111:Middlewares/Third_Party/SEGGER/RTT/SEGGER_RTT.c **** #endif
 112:Middlewares/Third_Party/SEGGER/RTT/SEGGER_RTT.c **** 
 113:Middlewares/Third_Party/SEGGER/RTT/SEGGER_RTT.c **** #ifndef   BUFFER_SIZE_DOWN
 114:Middlewares/Third_Party/SEGGER/RTT/SEGGER_RTT.c ****   #define BUFFER_SIZE_DOWN                                16    // Size of the buffer for terminal 
 115:Middlewares/Third_Party/SEGGER/RTT/SEGGER_RTT.c **** #endif
 116:Middlewares/Third_Party/SEGGER/RTT/SEGGER_RTT.c **** 
 117:Middlewares/Third_Party/SEGGER/RTT/SEGGER_RTT.c **** #ifndef   SEGGER_RTT_MAX_NUM_UP_BUFFERS
 118:Middlewares/Third_Party/SEGGER/RTT/SEGGER_RTT.c ****   #define SEGGER_RTT_MAX_NUM_UP_BUFFERS                    2    // Number of up-buffers (T->H) avai
 119:Middlewares/Third_Party/SEGGER/RTT/SEGGER_RTT.c **** #endif
 120:Middlewares/Third_Party/SEGGER/RTT/SEGGER_RTT.c **** 
 121:Middlewares/Third_Party/SEGGER/RTT/SEGGER_RTT.c **** #ifndef   SEGGER_RTT_MAX_NUM_DOWN_BUFFERS
 122:Middlewares/Third_Party/SEGGER/RTT/SEGGER_RTT.c ****   #define SEGGER_RTT_MAX_NUM_DOWN_BUFFERS                  2    // Number of down-buffers (H->T) av
 123:Middlewares/Third_Party/SEGGER/RTT/SEGGER_RTT.c **** #endif
 124:Middlewares/Third_Party/SEGGER/RTT/SEGGER_RTT.c **** 
 125:Middlewares/Third_Party/SEGGER/RTT/SEGGER_RTT.c **** #ifndef SEGGER_RTT_BUFFER_SECTION
 126:Middlewares/Third_Party/SEGGER/RTT/SEGGER_RTT.c ****   #if defined(SEGGER_RTT_SECTION)
 127:Middlewares/Third_Party/SEGGER/RTT/SEGGER_RTT.c ****     #define SEGGER_RTT_BUFFER_SECTION SEGGER_RTT_SECTION
 128:Middlewares/Third_Party/SEGGER/RTT/SEGGER_RTT.c ****   #endif
 129:Middlewares/Third_Party/SEGGER/RTT/SEGGER_RTT.c **** #endif
 130:Middlewares/Third_Party/SEGGER/RTT/SEGGER_RTT.c **** 
 131:Middlewares/Third_Party/SEGGER/RTT/SEGGER_RTT.c **** #ifndef   SEGGER_RTT_ALIGNMENT
 132:Middlewares/Third_Party/SEGGER/RTT/SEGGER_RTT.c ****   #define SEGGER_RTT_ALIGNMENT                            SEGGER_RTT_CPU_CACHE_LINE_SIZE
 133:Middlewares/Third_Party/SEGGER/RTT/SEGGER_RTT.c **** #endif
 134:Middlewares/Third_Party/SEGGER/RTT/SEGGER_RTT.c **** 
 135:Middlewares/Third_Party/SEGGER/RTT/SEGGER_RTT.c **** #ifndef   SEGGER_RTT_BUFFER_ALIGNMENT
 136:Middlewares/Third_Party/SEGGER/RTT/SEGGER_RTT.c ****   #define SEGGER_RTT_BUFFER_ALIGNMENT                     SEGGER_RTT_CPU_CACHE_LINE_SIZE
 137:Middlewares/Third_Party/SEGGER/RTT/SEGGER_RTT.c **** #endif
 138:Middlewares/Third_Party/SEGGER/RTT/SEGGER_RTT.c **** 
 139:Middlewares/Third_Party/SEGGER/RTT/SEGGER_RTT.c **** #ifndef   SEGGER_RTT_MODE_DEFAULT
 140:Middlewares/Third_Party/SEGGER/RTT/SEGGER_RTT.c ****   #define SEGGER_RTT_MODE_DEFAULT                         SEGGER_RTT_MODE_NO_BLOCK_SKIP
 141:Middlewares/Third_Party/SEGGER/RTT/SEGGER_RTT.c **** #endif
 142:Middlewares/Third_Party/SEGGER/RTT/SEGGER_RTT.c **** 
 143:Middlewares/Third_Party/SEGGER/RTT/SEGGER_RTT.c **** #ifndef   SEGGER_RTT_LOCK
 144:Middlewares/Third_Party/SEGGER/RTT/SEGGER_RTT.c ****   #define SEGGER_RTT_LOCK()
ARM GAS  C:\Users\Administrator\AppData\Local\Temp\ccUGyMKj.s 			page 4


 145:Middlewares/Third_Party/SEGGER/RTT/SEGGER_RTT.c **** #endif
 146:Middlewares/Third_Party/SEGGER/RTT/SEGGER_RTT.c **** 
 147:Middlewares/Third_Party/SEGGER/RTT/SEGGER_RTT.c **** #ifndef   SEGGER_RTT_UNLOCK
 148:Middlewares/Third_Party/SEGGER/RTT/SEGGER_RTT.c ****   #define SEGGER_RTT_UNLOCK()
 149:Middlewares/Third_Party/SEGGER/RTT/SEGGER_RTT.c **** #endif
 150:Middlewares/Third_Party/SEGGER/RTT/SEGGER_RTT.c **** 
 151:Middlewares/Third_Party/SEGGER/RTT/SEGGER_RTT.c **** #ifndef   STRLEN
 152:Middlewares/Third_Party/SEGGER/RTT/SEGGER_RTT.c ****   #define STRLEN(a)                                       strlen((a))
 153:Middlewares/Third_Party/SEGGER/RTT/SEGGER_RTT.c **** #endif
 154:Middlewares/Third_Party/SEGGER/RTT/SEGGER_RTT.c **** 
 155:Middlewares/Third_Party/SEGGER/RTT/SEGGER_RTT.c **** #ifndef   STRCPY
 156:Middlewares/Third_Party/SEGGER/RTT/SEGGER_RTT.c ****   #define STRCPY(pDest, pSrc)                             strcpy((pDest), (pSrc))
 157:Middlewares/Third_Party/SEGGER/RTT/SEGGER_RTT.c **** #endif
 158:Middlewares/Third_Party/SEGGER/RTT/SEGGER_RTT.c **** 
 159:Middlewares/Third_Party/SEGGER/RTT/SEGGER_RTT.c **** #ifndef   SEGGER_RTT_MEMCPY_USE_BYTELOOP
 160:Middlewares/Third_Party/SEGGER/RTT/SEGGER_RTT.c ****   #define SEGGER_RTT_MEMCPY_USE_BYTELOOP                  0
 161:Middlewares/Third_Party/SEGGER/RTT/SEGGER_RTT.c **** #endif
 162:Middlewares/Third_Party/SEGGER/RTT/SEGGER_RTT.c **** 
 163:Middlewares/Third_Party/SEGGER/RTT/SEGGER_RTT.c **** #ifndef   SEGGER_RTT_MEMCPY
 164:Middlewares/Third_Party/SEGGER/RTT/SEGGER_RTT.c ****   #ifdef  MEMCPY
 165:Middlewares/Third_Party/SEGGER/RTT/SEGGER_RTT.c ****     #define SEGGER_RTT_MEMCPY(pDest, pSrc, NumBytes)      MEMCPY((pDest), (pSrc), (NumBytes))
 166:Middlewares/Third_Party/SEGGER/RTT/SEGGER_RTT.c ****   #else
 167:Middlewares/Third_Party/SEGGER/RTT/SEGGER_RTT.c ****     #define SEGGER_RTT_MEMCPY(pDest, pSrc, NumBytes)      memcpy((pDest), (pSrc), (NumBytes))
 168:Middlewares/Third_Party/SEGGER/RTT/SEGGER_RTT.c ****   #endif
 169:Middlewares/Third_Party/SEGGER/RTT/SEGGER_RTT.c **** #endif
 170:Middlewares/Third_Party/SEGGER/RTT/SEGGER_RTT.c **** 
 171:Middlewares/Third_Party/SEGGER/RTT/SEGGER_RTT.c **** #ifndef   MIN
 172:Middlewares/Third_Party/SEGGER/RTT/SEGGER_RTT.c ****   #define MIN(a, b)         (((a) < (b)) ? (a) : (b))
 173:Middlewares/Third_Party/SEGGER/RTT/SEGGER_RTT.c **** #endif
 174:Middlewares/Third_Party/SEGGER/RTT/SEGGER_RTT.c **** 
 175:Middlewares/Third_Party/SEGGER/RTT/SEGGER_RTT.c **** #ifndef   MAX
 176:Middlewares/Third_Party/SEGGER/RTT/SEGGER_RTT.c ****   #define MAX(a, b)         (((a) > (b)) ? (a) : (b))
 177:Middlewares/Third_Party/SEGGER/RTT/SEGGER_RTT.c **** #endif
 178:Middlewares/Third_Party/SEGGER/RTT/SEGGER_RTT.c **** //
 179:Middlewares/Third_Party/SEGGER/RTT/SEGGER_RTT.c **** // For some environments, NULL may not be defined until certain headers are included
 180:Middlewares/Third_Party/SEGGER/RTT/SEGGER_RTT.c **** //
 181:Middlewares/Third_Party/SEGGER/RTT/SEGGER_RTT.c **** #ifndef NULL
 182:Middlewares/Third_Party/SEGGER/RTT/SEGGER_RTT.c ****   #define NULL 0
 183:Middlewares/Third_Party/SEGGER/RTT/SEGGER_RTT.c **** #endif
 184:Middlewares/Third_Party/SEGGER/RTT/SEGGER_RTT.c **** 
 185:Middlewares/Third_Party/SEGGER/RTT/SEGGER_RTT.c **** /*********************************************************************
 186:Middlewares/Third_Party/SEGGER/RTT/SEGGER_RTT.c **** *
 187:Middlewares/Third_Party/SEGGER/RTT/SEGGER_RTT.c **** *       Defines, fixed
 188:Middlewares/Third_Party/SEGGER/RTT/SEGGER_RTT.c **** *
 189:Middlewares/Third_Party/SEGGER/RTT/SEGGER_RTT.c **** **********************************************************************
 190:Middlewares/Third_Party/SEGGER/RTT/SEGGER_RTT.c **** */
 191:Middlewares/Third_Party/SEGGER/RTT/SEGGER_RTT.c **** #if (defined __ICCARM__) || (defined __ICCRX__)
 192:Middlewares/Third_Party/SEGGER/RTT/SEGGER_RTT.c ****   #define RTT_PRAGMA(P) _Pragma(#P)
 193:Middlewares/Third_Party/SEGGER/RTT/SEGGER_RTT.c **** #endif
 194:Middlewares/Third_Party/SEGGER/RTT/SEGGER_RTT.c **** 
 195:Middlewares/Third_Party/SEGGER/RTT/SEGGER_RTT.c **** #if SEGGER_RTT_ALIGNMENT || SEGGER_RTT_BUFFER_ALIGNMENT
 196:Middlewares/Third_Party/SEGGER/RTT/SEGGER_RTT.c ****   #if ((defined __GNUC__) || (defined __clang__))
 197:Middlewares/Third_Party/SEGGER/RTT/SEGGER_RTT.c ****     #define SEGGER_RTT_ALIGN(Var, Alignment) Var __attribute__ ((aligned (Alignment)))
 198:Middlewares/Third_Party/SEGGER/RTT/SEGGER_RTT.c ****   #elif (defined __ICCARM__) || (defined __ICCRX__)
 199:Middlewares/Third_Party/SEGGER/RTT/SEGGER_RTT.c ****     #define PRAGMA(A) _Pragma(#A)
 200:Middlewares/Third_Party/SEGGER/RTT/SEGGER_RTT.c **** #define SEGGER_RTT_ALIGN(Var, Alignment) RTT_PRAGMA(data_alignment=Alignment) \
 201:Middlewares/Third_Party/SEGGER/RTT/SEGGER_RTT.c ****                                   Var
ARM GAS  C:\Users\Administrator\AppData\Local\Temp\ccUGyMKj.s 			page 5


 202:Middlewares/Third_Party/SEGGER/RTT/SEGGER_RTT.c ****   #elif (defined __CC_ARM)
 203:Middlewares/Third_Party/SEGGER/RTT/SEGGER_RTT.c ****     #define SEGGER_RTT_ALIGN(Var, Alignment) Var __attribute__ ((aligned (Alignment)))
 204:Middlewares/Third_Party/SEGGER/RTT/SEGGER_RTT.c ****   #else
 205:Middlewares/Third_Party/SEGGER/RTT/SEGGER_RTT.c ****     #error "Alignment not supported for this compiler."
 206:Middlewares/Third_Party/SEGGER/RTT/SEGGER_RTT.c ****   #endif
 207:Middlewares/Third_Party/SEGGER/RTT/SEGGER_RTT.c **** #else
 208:Middlewares/Third_Party/SEGGER/RTT/SEGGER_RTT.c ****   #define SEGGER_RTT_ALIGN(Var, Alignment) Var
 209:Middlewares/Third_Party/SEGGER/RTT/SEGGER_RTT.c **** #endif
 210:Middlewares/Third_Party/SEGGER/RTT/SEGGER_RTT.c **** 
 211:Middlewares/Third_Party/SEGGER/RTT/SEGGER_RTT.c **** #if defined(SEGGER_RTT_SECTION) || defined (SEGGER_RTT_BUFFER_SECTION)
 212:Middlewares/Third_Party/SEGGER/RTT/SEGGER_RTT.c ****   #if ((defined __GNUC__) || (defined __clang__))
 213:Middlewares/Third_Party/SEGGER/RTT/SEGGER_RTT.c ****     #define SEGGER_RTT_PUT_SECTION(Var, Section) __attribute__ ((section (Section))) Var
 214:Middlewares/Third_Party/SEGGER/RTT/SEGGER_RTT.c ****   #elif (defined __ICCARM__) || (defined __ICCRX__)
 215:Middlewares/Third_Party/SEGGER/RTT/SEGGER_RTT.c **** #define SEGGER_RTT_PUT_SECTION(Var, Section) RTT_PRAGMA(location=Section) \
 216:Middlewares/Third_Party/SEGGER/RTT/SEGGER_RTT.c ****                                         Var
 217:Middlewares/Third_Party/SEGGER/RTT/SEGGER_RTT.c ****   #elif (defined __CC_ARM)
 218:Middlewares/Third_Party/SEGGER/RTT/SEGGER_RTT.c ****     #define SEGGER_RTT_PUT_SECTION(Var, Section) __attribute__ ((section (Section), zero_init))  Va
 219:Middlewares/Third_Party/SEGGER/RTT/SEGGER_RTT.c ****   #else
 220:Middlewares/Third_Party/SEGGER/RTT/SEGGER_RTT.c ****     #error "Section placement not supported for this compiler."
 221:Middlewares/Third_Party/SEGGER/RTT/SEGGER_RTT.c ****   #endif
 222:Middlewares/Third_Party/SEGGER/RTT/SEGGER_RTT.c **** #else
 223:Middlewares/Third_Party/SEGGER/RTT/SEGGER_RTT.c ****   #define SEGGER_RTT_PUT_SECTION(Var, Section) Var
 224:Middlewares/Third_Party/SEGGER/RTT/SEGGER_RTT.c **** #endif
 225:Middlewares/Third_Party/SEGGER/RTT/SEGGER_RTT.c **** 
 226:Middlewares/Third_Party/SEGGER/RTT/SEGGER_RTT.c **** #if SEGGER_RTT_ALIGNMENT
 227:Middlewares/Third_Party/SEGGER/RTT/SEGGER_RTT.c ****   #define SEGGER_RTT_CB_ALIGN(Var)  SEGGER_RTT_ALIGN(Var, SEGGER_RTT_ALIGNMENT)
 228:Middlewares/Third_Party/SEGGER/RTT/SEGGER_RTT.c **** #else
 229:Middlewares/Third_Party/SEGGER/RTT/SEGGER_RTT.c ****   #define SEGGER_RTT_CB_ALIGN(Var)  Var
 230:Middlewares/Third_Party/SEGGER/RTT/SEGGER_RTT.c **** #endif
 231:Middlewares/Third_Party/SEGGER/RTT/SEGGER_RTT.c **** 
 232:Middlewares/Third_Party/SEGGER/RTT/SEGGER_RTT.c **** #if SEGGER_RTT_BUFFER_ALIGNMENT
 233:Middlewares/Third_Party/SEGGER/RTT/SEGGER_RTT.c ****   #define SEGGER_RTT_BUFFER_ALIGN(Var)  SEGGER_RTT_ALIGN(Var, SEGGER_RTT_BUFFER_ALIGNMENT)
 234:Middlewares/Third_Party/SEGGER/RTT/SEGGER_RTT.c **** #else
 235:Middlewares/Third_Party/SEGGER/RTT/SEGGER_RTT.c ****   #define SEGGER_RTT_BUFFER_ALIGN(Var)  Var
 236:Middlewares/Third_Party/SEGGER/RTT/SEGGER_RTT.c **** #endif
 237:Middlewares/Third_Party/SEGGER/RTT/SEGGER_RTT.c **** 
 238:Middlewares/Third_Party/SEGGER/RTT/SEGGER_RTT.c **** 
 239:Middlewares/Third_Party/SEGGER/RTT/SEGGER_RTT.c **** #if defined(SEGGER_RTT_SECTION)
 240:Middlewares/Third_Party/SEGGER/RTT/SEGGER_RTT.c ****   #define SEGGER_RTT_PUT_CB_SECTION(Var) SEGGER_RTT_PUT_SECTION(Var, SEGGER_RTT_SECTION)
 241:Middlewares/Third_Party/SEGGER/RTT/SEGGER_RTT.c **** #else
 242:Middlewares/Third_Party/SEGGER/RTT/SEGGER_RTT.c ****   #define SEGGER_RTT_PUT_CB_SECTION(Var) Var
 243:Middlewares/Third_Party/SEGGER/RTT/SEGGER_RTT.c **** #endif
 244:Middlewares/Third_Party/SEGGER/RTT/SEGGER_RTT.c **** 
 245:Middlewares/Third_Party/SEGGER/RTT/SEGGER_RTT.c **** #if defined(SEGGER_RTT_BUFFER_SECTION)
 246:Middlewares/Third_Party/SEGGER/RTT/SEGGER_RTT.c ****   #define SEGGER_RTT_PUT_BUFFER_SECTION(Var) SEGGER_RTT_PUT_SECTION(Var, SEGGER_RTT_BUFFER_SECTION)
 247:Middlewares/Third_Party/SEGGER/RTT/SEGGER_RTT.c **** #else
 248:Middlewares/Third_Party/SEGGER/RTT/SEGGER_RTT.c ****   #define SEGGER_RTT_PUT_BUFFER_SECTION(Var) Var
 249:Middlewares/Third_Party/SEGGER/RTT/SEGGER_RTT.c **** #endif
 250:Middlewares/Third_Party/SEGGER/RTT/SEGGER_RTT.c **** 
 251:Middlewares/Third_Party/SEGGER/RTT/SEGGER_RTT.c **** /*********************************************************************
 252:Middlewares/Third_Party/SEGGER/RTT/SEGGER_RTT.c **** *
 253:Middlewares/Third_Party/SEGGER/RTT/SEGGER_RTT.c **** *       Static const data
 254:Middlewares/Third_Party/SEGGER/RTT/SEGGER_RTT.c **** *
 255:Middlewares/Third_Party/SEGGER/RTT/SEGGER_RTT.c **** **********************************************************************
 256:Middlewares/Third_Party/SEGGER/RTT/SEGGER_RTT.c **** */
 257:Middlewares/Third_Party/SEGGER/RTT/SEGGER_RTT.c **** 
 258:Middlewares/Third_Party/SEGGER/RTT/SEGGER_RTT.c **** static unsigned char _aTerminalId[16] = { '0', '1', '2', '3', '4', '5', '6', '7', '8', '9', 'A', 'B
ARM GAS  C:\Users\Administrator\AppData\Local\Temp\ccUGyMKj.s 			page 6


 259:Middlewares/Third_Party/SEGGER/RTT/SEGGER_RTT.c **** 
 260:Middlewares/Third_Party/SEGGER/RTT/SEGGER_RTT.c **** /*********************************************************************
 261:Middlewares/Third_Party/SEGGER/RTT/SEGGER_RTT.c **** *
 262:Middlewares/Third_Party/SEGGER/RTT/SEGGER_RTT.c **** *       Static data
 263:Middlewares/Third_Party/SEGGER/RTT/SEGGER_RTT.c **** *
 264:Middlewares/Third_Party/SEGGER/RTT/SEGGER_RTT.c **** **********************************************************************
 265:Middlewares/Third_Party/SEGGER/RTT/SEGGER_RTT.c **** */
 266:Middlewares/Third_Party/SEGGER/RTT/SEGGER_RTT.c **** 
 267:Middlewares/Third_Party/SEGGER/RTT/SEGGER_RTT.c **** //
 268:Middlewares/Third_Party/SEGGER/RTT/SEGGER_RTT.c **** // RTT Control Block and allocate buffers for channel 0
 269:Middlewares/Third_Party/SEGGER/RTT/SEGGER_RTT.c **** //
 270:Middlewares/Third_Party/SEGGER/RTT/SEGGER_RTT.c **** #if SEGGER_RTT_CPU_CACHE_LINE_SIZE
 271:Middlewares/Third_Party/SEGGER/RTT/SEGGER_RTT.c ****   #if ((defined __GNUC__) || (defined __clang__))
 272:Middlewares/Third_Party/SEGGER/RTT/SEGGER_RTT.c ****     SEGGER_RTT_CB _SEGGER_RTT                                                             __attribu
 273:Middlewares/Third_Party/SEGGER/RTT/SEGGER_RTT.c ****     static char   _acUpBuffer  [SEGGER_RTT__ROUND_UP_2_CACHE_LINE_SIZE(BUFFER_SIZE_UP)]   __attribu
 274:Middlewares/Third_Party/SEGGER/RTT/SEGGER_RTT.c ****     static char   _acDownBuffer[SEGGER_RTT__ROUND_UP_2_CACHE_LINE_SIZE(BUFFER_SIZE_DOWN)] __attribu
 275:Middlewares/Third_Party/SEGGER/RTT/SEGGER_RTT.c ****   #else
 276:Middlewares/Third_Party/SEGGER/RTT/SEGGER_RTT.c ****     #error "Don't know how to place _SEGGER_RTT, _acUpBuffer, _acDownBuffer cache-line aligned"
 277:Middlewares/Third_Party/SEGGER/RTT/SEGGER_RTT.c ****   #endif
 278:Middlewares/Third_Party/SEGGER/RTT/SEGGER_RTT.c **** #else
 279:Middlewares/Third_Party/SEGGER/RTT/SEGGER_RTT.c ****   SEGGER_RTT_PUT_CB_SECTION(SEGGER_RTT_CB_ALIGN(SEGGER_RTT_CB _SEGGER_RTT));
 280:Middlewares/Third_Party/SEGGER/RTT/SEGGER_RTT.c ****   SEGGER_RTT_PUT_BUFFER_SECTION(SEGGER_RTT_BUFFER_ALIGN(static char _acUpBuffer  [BUFFER_SIZE_UP]))
 281:Middlewares/Third_Party/SEGGER/RTT/SEGGER_RTT.c ****   SEGGER_RTT_PUT_BUFFER_SECTION(SEGGER_RTT_BUFFER_ALIGN(static char _acDownBuffer[BUFFER_SIZE_DOWN]
 282:Middlewares/Third_Party/SEGGER/RTT/SEGGER_RTT.c **** #endif
 283:Middlewares/Third_Party/SEGGER/RTT/SEGGER_RTT.c **** 
 284:Middlewares/Third_Party/SEGGER/RTT/SEGGER_RTT.c **** static unsigned char _ActiveTerminal;
 285:Middlewares/Third_Party/SEGGER/RTT/SEGGER_RTT.c **** 
 286:Middlewares/Third_Party/SEGGER/RTT/SEGGER_RTT.c **** /*********************************************************************
 287:Middlewares/Third_Party/SEGGER/RTT/SEGGER_RTT.c **** *
 288:Middlewares/Third_Party/SEGGER/RTT/SEGGER_RTT.c **** *       Static functions
 289:Middlewares/Third_Party/SEGGER/RTT/SEGGER_RTT.c **** *
 290:Middlewares/Third_Party/SEGGER/RTT/SEGGER_RTT.c **** **********************************************************************
 291:Middlewares/Third_Party/SEGGER/RTT/SEGGER_RTT.c **** */
 292:Middlewares/Third_Party/SEGGER/RTT/SEGGER_RTT.c **** 
 293:Middlewares/Third_Party/SEGGER/RTT/SEGGER_RTT.c **** /*********************************************************************
 294:Middlewares/Third_Party/SEGGER/RTT/SEGGER_RTT.c **** *
 295:Middlewares/Third_Party/SEGGER/RTT/SEGGER_RTT.c **** *       _DoInit()
 296:Middlewares/Third_Party/SEGGER/RTT/SEGGER_RTT.c **** *
 297:Middlewares/Third_Party/SEGGER/RTT/SEGGER_RTT.c **** *  Function description
 298:Middlewares/Third_Party/SEGGER/RTT/SEGGER_RTT.c **** *    Initializes the control block an buffers.
 299:Middlewares/Third_Party/SEGGER/RTT/SEGGER_RTT.c **** *    May only be called via INIT() to avoid overriding settings.
 300:Middlewares/Third_Party/SEGGER/RTT/SEGGER_RTT.c **** *
 301:Middlewares/Third_Party/SEGGER/RTT/SEGGER_RTT.c **** */
 302:Middlewares/Third_Party/SEGGER/RTT/SEGGER_RTT.c **** #define INIT()  {                                                                                  
 303:Middlewares/Third_Party/SEGGER/RTT/SEGGER_RTT.c ****                   volatile SEGGER_RTT_CB* pRTTCBInit;                                              
 304:Middlewares/Third_Party/SEGGER/RTT/SEGGER_RTT.c ****                   pRTTCBInit = (volatile SEGGER_RTT_CB*)((char*)&_SEGGER_RTT + SEGGER_RTT_UNCACHED_
 305:Middlewares/Third_Party/SEGGER/RTT/SEGGER_RTT.c ****                   do {                                                                             
 306:Middlewares/Third_Party/SEGGER/RTT/SEGGER_RTT.c ****                     if (pRTTCBInit->acID[0] == '\0') {                                             
 307:Middlewares/Third_Party/SEGGER/RTT/SEGGER_RTT.c ****                       _DoInit();                                                                   
 308:Middlewares/Third_Party/SEGGER/RTT/SEGGER_RTT.c ****                     }                                                                              
 309:Middlewares/Third_Party/SEGGER/RTT/SEGGER_RTT.c ****                   } while (0);                                                                     
 310:Middlewares/Third_Party/SEGGER/RTT/SEGGER_RTT.c ****                 }
 311:Middlewares/Third_Party/SEGGER/RTT/SEGGER_RTT.c **** 
 312:Middlewares/Third_Party/SEGGER/RTT/SEGGER_RTT.c **** static void _DoInit(void) {
 313:Middlewares/Third_Party/SEGGER/RTT/SEGGER_RTT.c ****   volatile SEGGER_RTT_CB* p;   // Volatile to make sure that compiler cannot change the order of ac
 314:Middlewares/Third_Party/SEGGER/RTT/SEGGER_RTT.c ****   static const char _aInitStr[] = "\0\0\0\0\0\0TTR REGGES";  // Init complete ID string to make sur
 315:Middlewares/Third_Party/SEGGER/RTT/SEGGER_RTT.c ****   unsigned i;
ARM GAS  C:\Users\Administrator\AppData\Local\Temp\ccUGyMKj.s 			page 7


 316:Middlewares/Third_Party/SEGGER/RTT/SEGGER_RTT.c ****   //
 317:Middlewares/Third_Party/SEGGER/RTT/SEGGER_RTT.c ****   // Initialize control block
 318:Middlewares/Third_Party/SEGGER/RTT/SEGGER_RTT.c ****   //
 319:Middlewares/Third_Party/SEGGER/RTT/SEGGER_RTT.c ****   p                     = (volatile SEGGER_RTT_CB*)((char*)&_SEGGER_RTT + SEGGER_RTT_UNCACHED_OFF);
 320:Middlewares/Third_Party/SEGGER/RTT/SEGGER_RTT.c ****   memset((SEGGER_RTT_CB*)p, 0, sizeof(_SEGGER_RTT));         // Make sure that the RTT CB is always
 321:Middlewares/Third_Party/SEGGER/RTT/SEGGER_RTT.c ****   p->MaxNumUpBuffers    = SEGGER_RTT_MAX_NUM_UP_BUFFERS;
 322:Middlewares/Third_Party/SEGGER/RTT/SEGGER_RTT.c ****   p->MaxNumDownBuffers  = SEGGER_RTT_MAX_NUM_DOWN_BUFFERS;
 323:Middlewares/Third_Party/SEGGER/RTT/SEGGER_RTT.c ****   //
 324:Middlewares/Third_Party/SEGGER/RTT/SEGGER_RTT.c ****   // Initialize up buffer 0
 325:Middlewares/Third_Party/SEGGER/RTT/SEGGER_RTT.c ****   //
 326:Middlewares/Third_Party/SEGGER/RTT/SEGGER_RTT.c ****   p->aUp[0].sName         = "Terminal";
 327:Middlewares/Third_Party/SEGGER/RTT/SEGGER_RTT.c ****   p->aUp[0].pBuffer       = _acUpBuffer;
 328:Middlewares/Third_Party/SEGGER/RTT/SEGGER_RTT.c ****   p->aUp[0].SizeOfBuffer  = BUFFER_SIZE_UP;
 329:Middlewares/Third_Party/SEGGER/RTT/SEGGER_RTT.c ****   p->aUp[0].RdOff         = 0u;
 330:Middlewares/Third_Party/SEGGER/RTT/SEGGER_RTT.c ****   p->aUp[0].WrOff         = 0u;
 331:Middlewares/Third_Party/SEGGER/RTT/SEGGER_RTT.c ****   p->aUp[0].Flags         = SEGGER_RTT_MODE_DEFAULT;
 332:Middlewares/Third_Party/SEGGER/RTT/SEGGER_RTT.c ****   //
 333:Middlewares/Third_Party/SEGGER/RTT/SEGGER_RTT.c ****   // Initialize down buffer 0
 334:Middlewares/Third_Party/SEGGER/RTT/SEGGER_RTT.c ****   //
 335:Middlewares/Third_Party/SEGGER/RTT/SEGGER_RTT.c ****   p->aDown[0].sName         = "Terminal";
 336:Middlewares/Third_Party/SEGGER/RTT/SEGGER_RTT.c ****   p->aDown[0].pBuffer       = _acDownBuffer;
 337:Middlewares/Third_Party/SEGGER/RTT/SEGGER_RTT.c ****   p->aDown[0].SizeOfBuffer  = BUFFER_SIZE_DOWN;
 338:Middlewares/Third_Party/SEGGER/RTT/SEGGER_RTT.c ****   p->aDown[0].RdOff         = 0u;
 339:Middlewares/Third_Party/SEGGER/RTT/SEGGER_RTT.c ****   p->aDown[0].WrOff         = 0u;
 340:Middlewares/Third_Party/SEGGER/RTT/SEGGER_RTT.c ****   p->aDown[0].Flags         = SEGGER_RTT_MODE_DEFAULT;
 341:Middlewares/Third_Party/SEGGER/RTT/SEGGER_RTT.c ****   //
 342:Middlewares/Third_Party/SEGGER/RTT/SEGGER_RTT.c ****   // Finish initialization of the control block.
 343:Middlewares/Third_Party/SEGGER/RTT/SEGGER_RTT.c ****   // Copy Id string backwards to make sure that "SEGGER RTT" is not found in initializer memory (us
 344:Middlewares/Third_Party/SEGGER/RTT/SEGGER_RTT.c ****   // as this would cause J-Link to "find" the control block at a wrong address.
 345:Middlewares/Third_Party/SEGGER/RTT/SEGGER_RTT.c ****   //
 346:Middlewares/Third_Party/SEGGER/RTT/SEGGER_RTT.c ****   RTT__DMB();                       // Force order of memory accesses for cores that may perform ou
 347:Middlewares/Third_Party/SEGGER/RTT/SEGGER_RTT.c ****   for (i = 0; i < sizeof(_aInitStr) - 1; ++i) {
 348:Middlewares/Third_Party/SEGGER/RTT/SEGGER_RTT.c ****     p->acID[i] = _aInitStr[sizeof(_aInitStr) - 2 - i];  // Skip terminating \0 at the end of the ar
 349:Middlewares/Third_Party/SEGGER/RTT/SEGGER_RTT.c ****   }
 350:Middlewares/Third_Party/SEGGER/RTT/SEGGER_RTT.c ****   RTT__DMB();                       // Force order of memory accesses for cores that may perform ou
 351:Middlewares/Third_Party/SEGGER/RTT/SEGGER_RTT.c **** }
 352:Middlewares/Third_Party/SEGGER/RTT/SEGGER_RTT.c **** 
 353:Middlewares/Third_Party/SEGGER/RTT/SEGGER_RTT.c **** /*********************************************************************
 354:Middlewares/Third_Party/SEGGER/RTT/SEGGER_RTT.c **** *
 355:Middlewares/Third_Party/SEGGER/RTT/SEGGER_RTT.c **** *       _WriteBlocking()
 356:Middlewares/Third_Party/SEGGER/RTT/SEGGER_RTT.c **** *
 357:Middlewares/Third_Party/SEGGER/RTT/SEGGER_RTT.c **** *  Function description
 358:Middlewares/Third_Party/SEGGER/RTT/SEGGER_RTT.c **** *    Stores a specified number of characters in SEGGER RTT ring buffer
 359:Middlewares/Third_Party/SEGGER/RTT/SEGGER_RTT.c **** *    and updates the associated write pointer which is periodically
 360:Middlewares/Third_Party/SEGGER/RTT/SEGGER_RTT.c **** *    read by the host.
 361:Middlewares/Third_Party/SEGGER/RTT/SEGGER_RTT.c **** *    The caller is responsible for managing the write chunk sizes as
 362:Middlewares/Third_Party/SEGGER/RTT/SEGGER_RTT.c **** *    _WriteBlocking() will block until all data has been posted successfully.
 363:Middlewares/Third_Party/SEGGER/RTT/SEGGER_RTT.c **** *
 364:Middlewares/Third_Party/SEGGER/RTT/SEGGER_RTT.c **** *  Parameters
 365:Middlewares/Third_Party/SEGGER/RTT/SEGGER_RTT.c **** *    pRing        Ring buffer to post to.
 366:Middlewares/Third_Party/SEGGER/RTT/SEGGER_RTT.c **** *    pBuffer      Pointer to character array. Does not need to point to a \0 terminated string.
 367:Middlewares/Third_Party/SEGGER/RTT/SEGGER_RTT.c **** *    NumBytes     Number of bytes to be stored in the SEGGER RTT control block.
 368:Middlewares/Third_Party/SEGGER/RTT/SEGGER_RTT.c **** *
 369:Middlewares/Third_Party/SEGGER/RTT/SEGGER_RTT.c **** *  Return value
 370:Middlewares/Third_Party/SEGGER/RTT/SEGGER_RTT.c **** *    >= 0 - Number of bytes written into buffer.
 371:Middlewares/Third_Party/SEGGER/RTT/SEGGER_RTT.c **** */
 372:Middlewares/Third_Party/SEGGER/RTT/SEGGER_RTT.c **** static unsigned _WriteBlocking(SEGGER_RTT_BUFFER_UP* pRing, const char* pBuffer, unsigned NumBytes)
ARM GAS  C:\Users\Administrator\AppData\Local\Temp\ccUGyMKj.s 			page 8


 373:Middlewares/Third_Party/SEGGER/RTT/SEGGER_RTT.c ****   unsigned NumBytesToWrite;
 374:Middlewares/Third_Party/SEGGER/RTT/SEGGER_RTT.c ****   unsigned NumBytesWritten;
 375:Middlewares/Third_Party/SEGGER/RTT/SEGGER_RTT.c ****   unsigned RdOff;
 376:Middlewares/Third_Party/SEGGER/RTT/SEGGER_RTT.c ****   unsigned WrOff;
 377:Middlewares/Third_Party/SEGGER/RTT/SEGGER_RTT.c ****   volatile char* pDst;
 378:Middlewares/Third_Party/SEGGER/RTT/SEGGER_RTT.c ****   //
 379:Middlewares/Third_Party/SEGGER/RTT/SEGGER_RTT.c ****   // Write data to buffer and handle wrap-around if necessary
 380:Middlewares/Third_Party/SEGGER/RTT/SEGGER_RTT.c ****   //
 381:Middlewares/Third_Party/SEGGER/RTT/SEGGER_RTT.c ****   NumBytesWritten = 0u;
 382:Middlewares/Third_Party/SEGGER/RTT/SEGGER_RTT.c ****   WrOff = pRing->WrOff;
 383:Middlewares/Third_Party/SEGGER/RTT/SEGGER_RTT.c ****   do {
 384:Middlewares/Third_Party/SEGGER/RTT/SEGGER_RTT.c ****     RdOff = pRing->RdOff;                         // May be changed by host (debug probe) in the me
 385:Middlewares/Third_Party/SEGGER/RTT/SEGGER_RTT.c ****     if (RdOff > WrOff) {
 386:Middlewares/Third_Party/SEGGER/RTT/SEGGER_RTT.c ****       NumBytesToWrite = RdOff - WrOff - 1u;
 387:Middlewares/Third_Party/SEGGER/RTT/SEGGER_RTT.c ****     } else {
 388:Middlewares/Third_Party/SEGGER/RTT/SEGGER_RTT.c ****       NumBytesToWrite = pRing->SizeOfBuffer - (WrOff - RdOff + 1u);
 389:Middlewares/Third_Party/SEGGER/RTT/SEGGER_RTT.c ****     }
 390:Middlewares/Third_Party/SEGGER/RTT/SEGGER_RTT.c ****     NumBytesToWrite = MIN(NumBytesToWrite, (pRing->SizeOfBuffer - WrOff));      // Number of bytes 
 391:Middlewares/Third_Party/SEGGER/RTT/SEGGER_RTT.c ****     NumBytesToWrite = MIN(NumBytesToWrite, NumBytes);
 392:Middlewares/Third_Party/SEGGER/RTT/SEGGER_RTT.c ****     pDst = (pRing->pBuffer + WrOff) + SEGGER_RTT_UNCACHED_OFF;
 393:Middlewares/Third_Party/SEGGER/RTT/SEGGER_RTT.c **** #if SEGGER_RTT_MEMCPY_USE_BYTELOOP
 394:Middlewares/Third_Party/SEGGER/RTT/SEGGER_RTT.c ****     NumBytesWritten += NumBytesToWrite;
 395:Middlewares/Third_Party/SEGGER/RTT/SEGGER_RTT.c ****     NumBytes        -= NumBytesToWrite;
 396:Middlewares/Third_Party/SEGGER/RTT/SEGGER_RTT.c ****     WrOff           += NumBytesToWrite;
 397:Middlewares/Third_Party/SEGGER/RTT/SEGGER_RTT.c ****     while (NumBytesToWrite--) {
 398:Middlewares/Third_Party/SEGGER/RTT/SEGGER_RTT.c ****       *pDst++ = *pBuffer++;
 399:Middlewares/Third_Party/SEGGER/RTT/SEGGER_RTT.c ****     };
 400:Middlewares/Third_Party/SEGGER/RTT/SEGGER_RTT.c **** #else
 401:Middlewares/Third_Party/SEGGER/RTT/SEGGER_RTT.c ****     SEGGER_RTT_MEMCPY((void*)pDst, pBuffer, NumBytesToWrite);
 402:Middlewares/Third_Party/SEGGER/RTT/SEGGER_RTT.c ****     NumBytesWritten += NumBytesToWrite;
 403:Middlewares/Third_Party/SEGGER/RTT/SEGGER_RTT.c ****     pBuffer         += NumBytesToWrite;
 404:Middlewares/Third_Party/SEGGER/RTT/SEGGER_RTT.c ****     NumBytes        -= NumBytesToWrite;
 405:Middlewares/Third_Party/SEGGER/RTT/SEGGER_RTT.c ****     WrOff           += NumBytesToWrite;
 406:Middlewares/Third_Party/SEGGER/RTT/SEGGER_RTT.c **** #endif
 407:Middlewares/Third_Party/SEGGER/RTT/SEGGER_RTT.c ****     if (WrOff == pRing->SizeOfBuffer) {
 408:Middlewares/Third_Party/SEGGER/RTT/SEGGER_RTT.c ****       WrOff = 0u;
 409:Middlewares/Third_Party/SEGGER/RTT/SEGGER_RTT.c ****     }
 410:Middlewares/Third_Party/SEGGER/RTT/SEGGER_RTT.c ****     RTT__DMB();                     // Force data write to be complete before writing the <WrOff>, 
 411:Middlewares/Third_Party/SEGGER/RTT/SEGGER_RTT.c ****     pRing->WrOff = WrOff;
 412:Middlewares/Third_Party/SEGGER/RTT/SEGGER_RTT.c ****   } while (NumBytes);
 413:Middlewares/Third_Party/SEGGER/RTT/SEGGER_RTT.c ****   return NumBytesWritten;
 414:Middlewares/Third_Party/SEGGER/RTT/SEGGER_RTT.c **** }
 415:Middlewares/Third_Party/SEGGER/RTT/SEGGER_RTT.c **** 
 416:Middlewares/Third_Party/SEGGER/RTT/SEGGER_RTT.c **** /*********************************************************************
 417:Middlewares/Third_Party/SEGGER/RTT/SEGGER_RTT.c **** *
 418:Middlewares/Third_Party/SEGGER/RTT/SEGGER_RTT.c **** *       _WriteNoCheck()
 419:Middlewares/Third_Party/SEGGER/RTT/SEGGER_RTT.c **** *
 420:Middlewares/Third_Party/SEGGER/RTT/SEGGER_RTT.c **** *  Function description
 421:Middlewares/Third_Party/SEGGER/RTT/SEGGER_RTT.c **** *    Stores a specified number of characters in SEGGER RTT ring buffer
 422:Middlewares/Third_Party/SEGGER/RTT/SEGGER_RTT.c **** *    and updates the associated write pointer which is periodically
 423:Middlewares/Third_Party/SEGGER/RTT/SEGGER_RTT.c **** *    read by the host.
 424:Middlewares/Third_Party/SEGGER/RTT/SEGGER_RTT.c **** *    It is callers responsibility to make sure data actually fits in buffer.
 425:Middlewares/Third_Party/SEGGER/RTT/SEGGER_RTT.c **** *
 426:Middlewares/Third_Party/SEGGER/RTT/SEGGER_RTT.c **** *  Parameters
 427:Middlewares/Third_Party/SEGGER/RTT/SEGGER_RTT.c **** *    pRing        Ring buffer to post to.
 428:Middlewares/Third_Party/SEGGER/RTT/SEGGER_RTT.c **** *    pBuffer      Pointer to character array. Does not need to point to a \0 terminated string.
 429:Middlewares/Third_Party/SEGGER/RTT/SEGGER_RTT.c **** *    NumBytes     Number of bytes to be stored in the SEGGER RTT control block.
ARM GAS  C:\Users\Administrator\AppData\Local\Temp\ccUGyMKj.s 			page 9


 430:Middlewares/Third_Party/SEGGER/RTT/SEGGER_RTT.c **** *
 431:Middlewares/Third_Party/SEGGER/RTT/SEGGER_RTT.c **** *  Notes
 432:Middlewares/Third_Party/SEGGER/RTT/SEGGER_RTT.c **** *    (1) If there might not be enough space in the "Up"-buffer, call _WriteBlocking
 433:Middlewares/Third_Party/SEGGER/RTT/SEGGER_RTT.c **** */
 434:Middlewares/Third_Party/SEGGER/RTT/SEGGER_RTT.c **** static void _WriteNoCheck(SEGGER_RTT_BUFFER_UP* pRing, const char* pData, unsigned NumBytes) {
 435:Middlewares/Third_Party/SEGGER/RTT/SEGGER_RTT.c ****   unsigned NumBytesAtOnce;
 436:Middlewares/Third_Party/SEGGER/RTT/SEGGER_RTT.c ****   unsigned WrOff;
 437:Middlewares/Third_Party/SEGGER/RTT/SEGGER_RTT.c ****   unsigned Rem;
 438:Middlewares/Third_Party/SEGGER/RTT/SEGGER_RTT.c ****   volatile char* pDst;
 439:Middlewares/Third_Party/SEGGER/RTT/SEGGER_RTT.c **** 
 440:Middlewares/Third_Party/SEGGER/RTT/SEGGER_RTT.c ****   WrOff = pRing->WrOff;
 441:Middlewares/Third_Party/SEGGER/RTT/SEGGER_RTT.c ****   Rem = pRing->SizeOfBuffer - WrOff;
 442:Middlewares/Third_Party/SEGGER/RTT/SEGGER_RTT.c ****   if (Rem > NumBytes) {
 443:Middlewares/Third_Party/SEGGER/RTT/SEGGER_RTT.c ****     //
 444:Middlewares/Third_Party/SEGGER/RTT/SEGGER_RTT.c ****     // All data fits before wrap around
 445:Middlewares/Third_Party/SEGGER/RTT/SEGGER_RTT.c ****     //
 446:Middlewares/Third_Party/SEGGER/RTT/SEGGER_RTT.c ****     pDst = (pRing->pBuffer + WrOff) + SEGGER_RTT_UNCACHED_OFF;
 447:Middlewares/Third_Party/SEGGER/RTT/SEGGER_RTT.c **** #if SEGGER_RTT_MEMCPY_USE_BYTELOOP
 448:Middlewares/Third_Party/SEGGER/RTT/SEGGER_RTT.c ****     WrOff += NumBytes;
 449:Middlewares/Third_Party/SEGGER/RTT/SEGGER_RTT.c ****     while (NumBytes--) {
 450:Middlewares/Third_Party/SEGGER/RTT/SEGGER_RTT.c ****       *pDst++ = *pData++;
 451:Middlewares/Third_Party/SEGGER/RTT/SEGGER_RTT.c ****     };
 452:Middlewares/Third_Party/SEGGER/RTT/SEGGER_RTT.c ****     RTT__DMB();                     // Force data write to be complete before writing the <WrOff>, 
 453:Middlewares/Third_Party/SEGGER/RTT/SEGGER_RTT.c ****     pRing->WrOff = WrOff;
 454:Middlewares/Third_Party/SEGGER/RTT/SEGGER_RTT.c **** #else
 455:Middlewares/Third_Party/SEGGER/RTT/SEGGER_RTT.c ****     SEGGER_RTT_MEMCPY((void*)pDst, pData, NumBytes);
 456:Middlewares/Third_Party/SEGGER/RTT/SEGGER_RTT.c ****     RTT__DMB();                     // Force data write to be complete before writing the <WrOff>, 
 457:Middlewares/Third_Party/SEGGER/RTT/SEGGER_RTT.c ****     pRing->WrOff = WrOff + NumBytes;
 458:Middlewares/Third_Party/SEGGER/RTT/SEGGER_RTT.c **** #endif
 459:Middlewares/Third_Party/SEGGER/RTT/SEGGER_RTT.c ****   } else {
 460:Middlewares/Third_Party/SEGGER/RTT/SEGGER_RTT.c ****     //
 461:Middlewares/Third_Party/SEGGER/RTT/SEGGER_RTT.c ****     // We reach the end of the buffer, so need to wrap around
 462:Middlewares/Third_Party/SEGGER/RTT/SEGGER_RTT.c ****     //
 463:Middlewares/Third_Party/SEGGER/RTT/SEGGER_RTT.c **** #if SEGGER_RTT_MEMCPY_USE_BYTELOOP
 464:Middlewares/Third_Party/SEGGER/RTT/SEGGER_RTT.c ****     pDst = (pRing->pBuffer + WrOff) + SEGGER_RTT_UNCACHED_OFF;
 465:Middlewares/Third_Party/SEGGER/RTT/SEGGER_RTT.c ****     NumBytesAtOnce = Rem;
 466:Middlewares/Third_Party/SEGGER/RTT/SEGGER_RTT.c ****     while (NumBytesAtOnce--) {
 467:Middlewares/Third_Party/SEGGER/RTT/SEGGER_RTT.c ****       *pDst++ = *pData++;
 468:Middlewares/Third_Party/SEGGER/RTT/SEGGER_RTT.c ****     };
 469:Middlewares/Third_Party/SEGGER/RTT/SEGGER_RTT.c ****     pDst = pRing->pBuffer + SEGGER_RTT_UNCACHED_OFF;
 470:Middlewares/Third_Party/SEGGER/RTT/SEGGER_RTT.c ****     NumBytesAtOnce = NumBytes - Rem;
 471:Middlewares/Third_Party/SEGGER/RTT/SEGGER_RTT.c ****     while (NumBytesAtOnce--) {
 472:Middlewares/Third_Party/SEGGER/RTT/SEGGER_RTT.c ****       *pDst++ = *pData++;
 473:Middlewares/Third_Party/SEGGER/RTT/SEGGER_RTT.c ****     };
 474:Middlewares/Third_Party/SEGGER/RTT/SEGGER_RTT.c ****     RTT__DMB();                     // Force data write to be complete before writing the <WrOff>, 
 475:Middlewares/Third_Party/SEGGER/RTT/SEGGER_RTT.c ****     pRing->WrOff = NumBytes - Rem;
 476:Middlewares/Third_Party/SEGGER/RTT/SEGGER_RTT.c **** #else
 477:Middlewares/Third_Party/SEGGER/RTT/SEGGER_RTT.c ****     NumBytesAtOnce = Rem;
 478:Middlewares/Third_Party/SEGGER/RTT/SEGGER_RTT.c ****     pDst = (pRing->pBuffer + WrOff) + SEGGER_RTT_UNCACHED_OFF;
 479:Middlewares/Third_Party/SEGGER/RTT/SEGGER_RTT.c ****     SEGGER_RTT_MEMCPY((void*)pDst, pData, NumBytesAtOnce);
 480:Middlewares/Third_Party/SEGGER/RTT/SEGGER_RTT.c ****     NumBytesAtOnce = NumBytes - Rem;
 481:Middlewares/Third_Party/SEGGER/RTT/SEGGER_RTT.c ****     pDst = pRing->pBuffer + SEGGER_RTT_UNCACHED_OFF;
 482:Middlewares/Third_Party/SEGGER/RTT/SEGGER_RTT.c ****     SEGGER_RTT_MEMCPY((void*)pDst, pData + Rem, NumBytesAtOnce);
 483:Middlewares/Third_Party/SEGGER/RTT/SEGGER_RTT.c ****     RTT__DMB();                     // Force data write to be complete before writing the <WrOff>, 
 484:Middlewares/Third_Party/SEGGER/RTT/SEGGER_RTT.c ****     pRing->WrOff = NumBytesAtOnce;
 485:Middlewares/Third_Party/SEGGER/RTT/SEGGER_RTT.c **** #endif
 486:Middlewares/Third_Party/SEGGER/RTT/SEGGER_RTT.c ****   }
ARM GAS  C:\Users\Administrator\AppData\Local\Temp\ccUGyMKj.s 			page 10


 487:Middlewares/Third_Party/SEGGER/RTT/SEGGER_RTT.c **** }
 488:Middlewares/Third_Party/SEGGER/RTT/SEGGER_RTT.c **** 
 489:Middlewares/Third_Party/SEGGER/RTT/SEGGER_RTT.c **** /*********************************************************************
 490:Middlewares/Third_Party/SEGGER/RTT/SEGGER_RTT.c **** *
 491:Middlewares/Third_Party/SEGGER/RTT/SEGGER_RTT.c **** *       _PostTerminalSwitch()
 492:Middlewares/Third_Party/SEGGER/RTT/SEGGER_RTT.c **** *
 493:Middlewares/Third_Party/SEGGER/RTT/SEGGER_RTT.c **** *  Function description
 494:Middlewares/Third_Party/SEGGER/RTT/SEGGER_RTT.c **** *    Switch terminal to the given terminal ID.  It is the caller's
 495:Middlewares/Third_Party/SEGGER/RTT/SEGGER_RTT.c **** *    responsibility to ensure the terminal ID is correct and there is
 496:Middlewares/Third_Party/SEGGER/RTT/SEGGER_RTT.c **** *    enough space in the buffer for this to complete successfully.
 497:Middlewares/Third_Party/SEGGER/RTT/SEGGER_RTT.c **** *
 498:Middlewares/Third_Party/SEGGER/RTT/SEGGER_RTT.c **** *  Parameters
 499:Middlewares/Third_Party/SEGGER/RTT/SEGGER_RTT.c **** *    pRing        Ring buffer to post to.
 500:Middlewares/Third_Party/SEGGER/RTT/SEGGER_RTT.c **** *    TerminalId   Terminal ID to switch to.
 501:Middlewares/Third_Party/SEGGER/RTT/SEGGER_RTT.c **** */
 502:Middlewares/Third_Party/SEGGER/RTT/SEGGER_RTT.c **** static void _PostTerminalSwitch(SEGGER_RTT_BUFFER_UP* pRing, unsigned char TerminalId) {
 503:Middlewares/Third_Party/SEGGER/RTT/SEGGER_RTT.c ****   unsigned char ac[2];
 504:Middlewares/Third_Party/SEGGER/RTT/SEGGER_RTT.c **** 
 505:Middlewares/Third_Party/SEGGER/RTT/SEGGER_RTT.c ****   ac[0] = 0xFFu;
 506:Middlewares/Third_Party/SEGGER/RTT/SEGGER_RTT.c ****   ac[1] = _aTerminalId[TerminalId];  // Caller made already sure that TerminalId does not exceed ou
 507:Middlewares/Third_Party/SEGGER/RTT/SEGGER_RTT.c ****   _WriteBlocking(pRing, (const char*)ac, 2u);
 508:Middlewares/Third_Party/SEGGER/RTT/SEGGER_RTT.c **** }
 509:Middlewares/Third_Party/SEGGER/RTT/SEGGER_RTT.c **** 
 510:Middlewares/Third_Party/SEGGER/RTT/SEGGER_RTT.c **** /*********************************************************************
 511:Middlewares/Third_Party/SEGGER/RTT/SEGGER_RTT.c **** *
 512:Middlewares/Third_Party/SEGGER/RTT/SEGGER_RTT.c **** *       _GetAvailWriteSpace()
 513:Middlewares/Third_Party/SEGGER/RTT/SEGGER_RTT.c **** *
 514:Middlewares/Third_Party/SEGGER/RTT/SEGGER_RTT.c **** *  Function description
 515:Middlewares/Third_Party/SEGGER/RTT/SEGGER_RTT.c **** *    Returns the number of bytes that can be written to the ring
 516:Middlewares/Third_Party/SEGGER/RTT/SEGGER_RTT.c **** *    buffer without blocking.
 517:Middlewares/Third_Party/SEGGER/RTT/SEGGER_RTT.c **** *
 518:Middlewares/Third_Party/SEGGER/RTT/SEGGER_RTT.c **** *  Parameters
 519:Middlewares/Third_Party/SEGGER/RTT/SEGGER_RTT.c **** *    pRing        Ring buffer to check.
 520:Middlewares/Third_Party/SEGGER/RTT/SEGGER_RTT.c **** *
 521:Middlewares/Third_Party/SEGGER/RTT/SEGGER_RTT.c **** *  Return value
 522:Middlewares/Third_Party/SEGGER/RTT/SEGGER_RTT.c **** *    Number of bytes that are free in the buffer.
 523:Middlewares/Third_Party/SEGGER/RTT/SEGGER_RTT.c **** */
 524:Middlewares/Third_Party/SEGGER/RTT/SEGGER_RTT.c **** static unsigned _GetAvailWriteSpace(SEGGER_RTT_BUFFER_UP* pRing) {
  29              		.loc 1 524 66 view -0
  30              		.cfi_startproc
  31              		@ args = 0, pretend = 0, frame = 0
  32              		@ frame_needed = 0, uses_anonymous_args = 0
  33              		@ link register save eliminated.
 525:Middlewares/Third_Party/SEGGER/RTT/SEGGER_RTT.c ****   unsigned RdOff;
  34              		.loc 1 525 3 view .LVU1
 526:Middlewares/Third_Party/SEGGER/RTT/SEGGER_RTT.c ****   unsigned WrOff;
  35              		.loc 1 526 3 view .LVU2
 527:Middlewares/Third_Party/SEGGER/RTT/SEGGER_RTT.c ****   unsigned r;
  36              		.loc 1 527 3 view .LVU3
 528:Middlewares/Third_Party/SEGGER/RTT/SEGGER_RTT.c ****   //
 529:Middlewares/Third_Party/SEGGER/RTT/SEGGER_RTT.c ****   // Avoid warnings regarding volatile access order.  It's not a problem
 530:Middlewares/Third_Party/SEGGER/RTT/SEGGER_RTT.c ****   // in this case, but dampen compiler enthusiasm.
 531:Middlewares/Third_Party/SEGGER/RTT/SEGGER_RTT.c ****   //
 532:Middlewares/Third_Party/SEGGER/RTT/SEGGER_RTT.c ****   RdOff = pRing->RdOff;
  37              		.loc 1 532 3 view .LVU4
  38              		.loc 1 532 9 is_stmt 0 view .LVU5
  39 0000 0369     		ldr	r3, [r0, #16]
ARM GAS  C:\Users\Administrator\AppData\Local\Temp\ccUGyMKj.s 			page 11


  40              	.LVL1:
 533:Middlewares/Third_Party/SEGGER/RTT/SEGGER_RTT.c ****   WrOff = pRing->WrOff;
  41              		.loc 1 533 3 is_stmt 1 view .LVU6
  42              		.loc 1 533 9 is_stmt 0 view .LVU7
  43 0002 C268     		ldr	r2, [r0, #12]
  44              	.LVL2:
 534:Middlewares/Third_Party/SEGGER/RTT/SEGGER_RTT.c ****   if (RdOff <= WrOff) {
  45              		.loc 1 534 3 is_stmt 1 view .LVU8
  46              		.loc 1 534 6 is_stmt 0 view .LVU9
  47 0004 9342     		cmp	r3, r2
  48 0006 04D8     		bhi	.L2
 535:Middlewares/Third_Party/SEGGER/RTT/SEGGER_RTT.c ****     r = pRing->SizeOfBuffer - 1u - WrOff + RdOff;
  49              		.loc 1 535 5 is_stmt 1 view .LVU10
  50              		.loc 1 535 14 is_stmt 0 view .LVU11
  51 0008 8168     		ldr	r1, [r0, #8]
  52              		.loc 1 535 34 view .LVU12
  53 000a 8A1A     		subs	r2, r1, r2
  54              	.LVL3:
  55              		.loc 1 535 42 view .LVU13
  56 000c 1344     		add	r3, r3, r2
  57              	.LVL4:
  58              		.loc 1 535 7 view .LVU14
  59 000e 581E     		subs	r0, r3, #1
  60              	.LVL5:
  61              		.loc 1 535 7 view .LVU15
  62 0010 7047     		bx	lr
  63              	.LVL6:
  64              	.L2:
 536:Middlewares/Third_Party/SEGGER/RTT/SEGGER_RTT.c ****   } else {
 537:Middlewares/Third_Party/SEGGER/RTT/SEGGER_RTT.c ****     r = RdOff - WrOff - 1u;
  65              		.loc 1 537 5 is_stmt 1 view .LVU16
  66              		.loc 1 537 15 is_stmt 0 view .LVU17
  67 0012 981A     		subs	r0, r3, r2
  68              	.LVL7:
  69              		.loc 1 537 7 view .LVU18
  70 0014 0138     		subs	r0, r0, #1
  71              	.LVL8:
 538:Middlewares/Third_Party/SEGGER/RTT/SEGGER_RTT.c ****   }
 539:Middlewares/Third_Party/SEGGER/RTT/SEGGER_RTT.c ****   return r;
  72              		.loc 1 539 3 is_stmt 1 view .LVU19
 540:Middlewares/Third_Party/SEGGER/RTT/SEGGER_RTT.c **** }
  73              		.loc 1 540 1 is_stmt 0 view .LVU20
  74 0016 7047     		bx	lr
  75              		.cfi_endproc
  76              	.LFE4:
  78              		.section	.text._WriteNoCheck,"ax",%progbits
  79              		.align	1
  80              		.syntax unified
  81              		.thumb
  82              		.thumb_func
  84              	_WriteNoCheck:
  85              	.LVL9:
  86              	.LFB2:
 434:Middlewares/Third_Party/SEGGER/RTT/SEGGER_RTT.c ****   unsigned NumBytesAtOnce;
  87              		.loc 1 434 94 is_stmt 1 view -0
  88              		.cfi_startproc
  89              		@ args = 0, pretend = 0, frame = 0
ARM GAS  C:\Users\Administrator\AppData\Local\Temp\ccUGyMKj.s 			page 12


  90              		@ frame_needed = 0, uses_anonymous_args = 0
 434:Middlewares/Third_Party/SEGGER/RTT/SEGGER_RTT.c ****   unsigned NumBytesAtOnce;
  91              		.loc 1 434 94 is_stmt 0 view .LVU22
  92 0000 2DE9F843 		push	{r3, r4, r5, r6, r7, r8, r9, lr}
  93              		.cfi_def_cfa_offset 32
  94              		.cfi_offset 3, -32
  95              		.cfi_offset 4, -28
  96              		.cfi_offset 5, -24
  97              		.cfi_offset 6, -20
  98              		.cfi_offset 7, -16
  99              		.cfi_offset 8, -12
 100              		.cfi_offset 9, -8
 101              		.cfi_offset 14, -4
 102 0004 0446     		mov	r4, r0
 103 0006 1646     		mov	r6, r2
 435:Middlewares/Third_Party/SEGGER/RTT/SEGGER_RTT.c ****   unsigned WrOff;
 104              		.loc 1 435 3 is_stmt 1 view .LVU23
 436:Middlewares/Third_Party/SEGGER/RTT/SEGGER_RTT.c ****   unsigned Rem;
 105              		.loc 1 436 3 view .LVU24
 437:Middlewares/Third_Party/SEGGER/RTT/SEGGER_RTT.c ****   volatile char* pDst;
 106              		.loc 1 437 3 view .LVU25
 438:Middlewares/Third_Party/SEGGER/RTT/SEGGER_RTT.c **** 
 107              		.loc 1 438 3 view .LVU26
 440:Middlewares/Third_Party/SEGGER/RTT/SEGGER_RTT.c ****   Rem = pRing->SizeOfBuffer - WrOff;
 108              		.loc 1 440 3 view .LVU27
 440:Middlewares/Third_Party/SEGGER/RTT/SEGGER_RTT.c ****   Rem = pRing->SizeOfBuffer - WrOff;
 109              		.loc 1 440 9 is_stmt 0 view .LVU28
 110 0008 C568     		ldr	r5, [r0, #12]
 111              	.LVL10:
 441:Middlewares/Third_Party/SEGGER/RTT/SEGGER_RTT.c ****   if (Rem > NumBytes) {
 112              		.loc 1 441 3 is_stmt 1 view .LVU29
 441:Middlewares/Third_Party/SEGGER/RTT/SEGGER_RTT.c ****   if (Rem > NumBytes) {
 113              		.loc 1 441 14 is_stmt 0 view .LVU30
 114 000a 8768     		ldr	r7, [r0, #8]
 441:Middlewares/Third_Party/SEGGER/RTT/SEGGER_RTT.c ****   if (Rem > NumBytes) {
 115              		.loc 1 441 7 view .LVU31
 116 000c A7EB0508 		sub	r8, r7, r5
 117              	.LVL11:
 442:Middlewares/Third_Party/SEGGER/RTT/SEGGER_RTT.c ****     //
 118              		.loc 1 442 3 is_stmt 1 view .LVU32
 442:Middlewares/Third_Party/SEGGER/RTT/SEGGER_RTT.c ****     //
 119              		.loc 1 442 6 is_stmt 0 view .LVU33
 120 0010 9045     		cmp	r8, r2
 121 0012 09D9     		bls	.L5
 446:Middlewares/Third_Party/SEGGER/RTT/SEGGER_RTT.c **** #if SEGGER_RTT_MEMCPY_USE_BYTELOOP
 122              		.loc 1 446 5 is_stmt 1 view .LVU34
 446:Middlewares/Third_Party/SEGGER/RTT/SEGGER_RTT.c **** #if SEGGER_RTT_MEMCPY_USE_BYTELOOP
 123              		.loc 1 446 18 is_stmt 0 view .LVU35
 124 0014 4068     		ldr	r0, [r0, #4]
 125              	.LVL12:
 455:Middlewares/Third_Party/SEGGER/RTT/SEGGER_RTT.c ****     RTT__DMB();                     // Force data write to be complete before writing the <WrOff>, 
 126              		.loc 1 455 5 is_stmt 1 view .LVU36
 127 0016 2844     		add	r0, r0, r5
 128              	.LVL13:
 455:Middlewares/Third_Party/SEGGER/RTT/SEGGER_RTT.c ****     RTT__DMB();                     // Force data write to be complete before writing the <WrOff>, 
 129              		.loc 1 455 5 is_stmt 0 view .LVU37
 130 0018 FFF7FEFF 		bl	memcpy
ARM GAS  C:\Users\Administrator\AppData\Local\Temp\ccUGyMKj.s 			page 13


 131              	.LVL14:
 456:Middlewares/Third_Party/SEGGER/RTT/SEGGER_RTT.c ****     pRing->WrOff = WrOff + NumBytes;
 132              		.loc 1 456 5 is_stmt 1 view .LVU38
 133              		.syntax unified
 134              	@ 456 "Middlewares/Third_Party/SEGGER/RTT/SEGGER_RTT.c" 1
 135 001c BFF35F8F 		dmb
 136              	
 137              	@ 0 "" 2
 456:Middlewares/Third_Party/SEGGER/RTT/SEGGER_RTT.c ****     pRing->WrOff = WrOff + NumBytes;
 138              		.loc 1 456 15 view .LVU39
 457:Middlewares/Third_Party/SEGGER/RTT/SEGGER_RTT.c **** #endif
 139              		.loc 1 457 5 view .LVU40
 457:Middlewares/Third_Party/SEGGER/RTT/SEGGER_RTT.c **** #endif
 140              		.loc 1 457 26 is_stmt 0 view .LVU41
 141              		.thumb
 142              		.syntax unified
 143 0020 3544     		add	r5, r5, r6
 144              	.LVL15:
 457:Middlewares/Third_Party/SEGGER/RTT/SEGGER_RTT.c **** #endif
 145              		.loc 1 457 18 view .LVU42
 146 0022 E560     		str	r5, [r4, #12]
 147              	.LVL16:
 148              	.L4:
 487:Middlewares/Third_Party/SEGGER/RTT/SEGGER_RTT.c **** 
 149              		.loc 1 487 1 view .LVU43
 150 0024 BDE8F883 		pop	{r3, r4, r5, r6, r7, r8, r9, pc}
 151              	.LVL17:
 152              	.L5:
 477:Middlewares/Third_Party/SEGGER/RTT/SEGGER_RTT.c ****     pDst = (pRing->pBuffer + WrOff) + SEGGER_RTT_UNCACHED_OFF;
 153              		.loc 1 477 5 is_stmt 1 view .LVU44
 478:Middlewares/Third_Party/SEGGER/RTT/SEGGER_RTT.c ****     SEGGER_RTT_MEMCPY((void*)pDst, pData, NumBytesAtOnce);
 154              		.loc 1 478 5 view .LVU45
 478:Middlewares/Third_Party/SEGGER/RTT/SEGGER_RTT.c ****     SEGGER_RTT_MEMCPY((void*)pDst, pData, NumBytesAtOnce);
 155              		.loc 1 478 18 is_stmt 0 view .LVU46
 156 0028 4068     		ldr	r0, [r0, #4]
 157              	.LVL18:
 479:Middlewares/Third_Party/SEGGER/RTT/SEGGER_RTT.c ****     NumBytesAtOnce = NumBytes - Rem;
 158              		.loc 1 479 5 is_stmt 1 view .LVU47
 159 002a 4246     		mov	r2, r8
 160              	.LVL19:
 479:Middlewares/Third_Party/SEGGER/RTT/SEGGER_RTT.c ****     NumBytesAtOnce = NumBytes - Rem;
 161              		.loc 1 479 5 is_stmt 0 view .LVU48
 162 002c 8946     		mov	r9, r1
 163 002e 2844     		add	r0, r0, r5
 164              	.LVL20:
 479:Middlewares/Third_Party/SEGGER/RTT/SEGGER_RTT.c ****     NumBytesAtOnce = NumBytes - Rem;
 165              		.loc 1 479 5 view .LVU49
 166 0030 FFF7FEFF 		bl	memcpy
 167              	.LVL21:
 480:Middlewares/Third_Party/SEGGER/RTT/SEGGER_RTT.c ****     pDst = pRing->pBuffer + SEGGER_RTT_UNCACHED_OFF;
 168              		.loc 1 480 5 is_stmt 1 view .LVU50
 480:Middlewares/Third_Party/SEGGER/RTT/SEGGER_RTT.c ****     pDst = pRing->pBuffer + SEGGER_RTT_UNCACHED_OFF;
 169              		.loc 1 480 20 is_stmt 0 view .LVU51
 170 0034 ED1B     		subs	r5, r5, r7
 171              	.LVL22:
 480:Middlewares/Third_Party/SEGGER/RTT/SEGGER_RTT.c ****     pDst = pRing->pBuffer + SEGGER_RTT_UNCACHED_OFF;
 172              		.loc 1 480 20 view .LVU52
ARM GAS  C:\Users\Administrator\AppData\Local\Temp\ccUGyMKj.s 			page 14


 173 0036 3544     		add	r5, r5, r6
 174              	.LVL23:
 481:Middlewares/Third_Party/SEGGER/RTT/SEGGER_RTT.c ****     SEGGER_RTT_MEMCPY((void*)pDst, pData + Rem, NumBytesAtOnce);
 175              		.loc 1 481 5 is_stmt 1 view .LVU53
 482:Middlewares/Third_Party/SEGGER/RTT/SEGGER_RTT.c ****     RTT__DMB();                     // Force data write to be complete before writing the <WrOff>, 
 176              		.loc 1 482 5 view .LVU54
 177 0038 2A46     		mov	r2, r5
 178 003a 4946     		mov	r1, r9
 179 003c 4144     		add	r1, r1, r8
 180 003e 6068     		ldr	r0, [r4, #4]
 181 0040 FFF7FEFF 		bl	memcpy
 182              	.LVL24:
 483:Middlewares/Third_Party/SEGGER/RTT/SEGGER_RTT.c ****     pRing->WrOff = NumBytesAtOnce;
 183              		.loc 1 483 5 view .LVU55
 184              		.syntax unified
 185              	@ 483 "Middlewares/Third_Party/SEGGER/RTT/SEGGER_RTT.c" 1
 186 0044 BFF35F8F 		dmb
 187              	
 188              	@ 0 "" 2
 483:Middlewares/Third_Party/SEGGER/RTT/SEGGER_RTT.c ****     pRing->WrOff = NumBytesAtOnce;
 189              		.loc 1 483 15 view .LVU56
 484:Middlewares/Third_Party/SEGGER/RTT/SEGGER_RTT.c **** #endif
 190              		.loc 1 484 5 view .LVU57
 484:Middlewares/Third_Party/SEGGER/RTT/SEGGER_RTT.c **** #endif
 191              		.loc 1 484 18 is_stmt 0 view .LVU58
 192              		.thumb
 193              		.syntax unified
 194 0048 E560     		str	r5, [r4, #12]
 487:Middlewares/Third_Party/SEGGER/RTT/SEGGER_RTT.c **** 
 195              		.loc 1 487 1 view .LVU59
 196 004a EBE7     		b	.L4
 197              		.cfi_endproc
 198              	.LFE2:
 200              		.section	.text._WriteBlocking,"ax",%progbits
 201              		.align	1
 202              		.syntax unified
 203              		.thumb
 204              		.thumb_func
 206              	_WriteBlocking:
 207              	.LVL25:
 208              	.LFB1:
 372:Middlewares/Third_Party/SEGGER/RTT/SEGGER_RTT.c ****   unsigned NumBytesToWrite;
 209              		.loc 1 372 101 is_stmt 1 view -0
 210              		.cfi_startproc
 211              		@ args = 0, pretend = 0, frame = 0
 212              		@ frame_needed = 0, uses_anonymous_args = 0
 372:Middlewares/Third_Party/SEGGER/RTT/SEGGER_RTT.c ****   unsigned NumBytesToWrite;
 213              		.loc 1 372 101 is_stmt 0 view .LVU61
 214 0000 2DE9F843 		push	{r3, r4, r5, r6, r7, r8, r9, lr}
 215              		.cfi_def_cfa_offset 32
 216              		.cfi_offset 3, -32
 217              		.cfi_offset 4, -28
 218              		.cfi_offset 5, -24
 219              		.cfi_offset 6, -20
 220              		.cfi_offset 7, -16
 221              		.cfi_offset 8, -12
 222              		.cfi_offset 9, -8
ARM GAS  C:\Users\Administrator\AppData\Local\Temp\ccUGyMKj.s 			page 15


 223              		.cfi_offset 14, -4
 224 0004 0646     		mov	r6, r0
 225 0006 8846     		mov	r8, r1
 226 0008 1746     		mov	r7, r2
 373:Middlewares/Third_Party/SEGGER/RTT/SEGGER_RTT.c ****   unsigned NumBytesWritten;
 227              		.loc 1 373 3 is_stmt 1 view .LVU62
 374:Middlewares/Third_Party/SEGGER/RTT/SEGGER_RTT.c ****   unsigned RdOff;
 228              		.loc 1 374 3 view .LVU63
 375:Middlewares/Third_Party/SEGGER/RTT/SEGGER_RTT.c ****   unsigned WrOff;
 229              		.loc 1 375 3 view .LVU64
 376:Middlewares/Third_Party/SEGGER/RTT/SEGGER_RTT.c ****   volatile char* pDst;
 230              		.loc 1 376 3 view .LVU65
 377:Middlewares/Third_Party/SEGGER/RTT/SEGGER_RTT.c ****   //
 231              		.loc 1 377 3 view .LVU66
 381:Middlewares/Third_Party/SEGGER/RTT/SEGGER_RTT.c ****   WrOff = pRing->WrOff;
 232              		.loc 1 381 3 view .LVU67
 233              	.LVL26:
 382:Middlewares/Third_Party/SEGGER/RTT/SEGGER_RTT.c ****   do {
 234              		.loc 1 382 3 view .LVU68
 382:Middlewares/Third_Party/SEGGER/RTT/SEGGER_RTT.c ****   do {
 235              		.loc 1 382 9 is_stmt 0 view .LVU69
 236 000a C568     		ldr	r5, [r0, #12]
 237              	.LVL27:
 381:Middlewares/Third_Party/SEGGER/RTT/SEGGER_RTT.c ****   WrOff = pRing->WrOff;
 238              		.loc 1 381 19 view .LVU70
 239 000c 4FF00009 		mov	r9, #0
 240 0010 1CE0     		b	.L12
 241              	.LVL28:
 242              	.L9:
 388:Middlewares/Third_Party/SEGGER/RTT/SEGGER_RTT.c ****     }
 243              		.loc 1 388 7 is_stmt 1 view .LVU71
 388:Middlewares/Third_Party/SEGGER/RTT/SEGGER_RTT.c ****     }
 244              		.loc 1 388 30 is_stmt 0 view .LVU72
 245 0012 B268     		ldr	r2, [r6, #8]
 388:Middlewares/Third_Party/SEGGER/RTT/SEGGER_RTT.c ****     }
 246              		.loc 1 388 62 view .LVU73
 247 0014 5B1B     		subs	r3, r3, r5
 248              	.LVL29:
 388:Middlewares/Third_Party/SEGGER/RTT/SEGGER_RTT.c ****     }
 249              		.loc 1 388 45 view .LVU74
 250 0016 1A44     		add	r2, r2, r3
 388:Middlewares/Third_Party/SEGGER/RTT/SEGGER_RTT.c ****     }
 251              		.loc 1 388 23 view .LVU75
 252 0018 013A     		subs	r2, r2, #1
 253              	.L10:
 254              	.LVL30:
 390:Middlewares/Third_Party/SEGGER/RTT/SEGGER_RTT.c ****     NumBytesToWrite = MIN(NumBytesToWrite, NumBytes);
 255              		.loc 1 390 5 is_stmt 1 view .LVU76
 390:Middlewares/Third_Party/SEGGER/RTT/SEGGER_RTT.c ****     NumBytesToWrite = MIN(NumBytesToWrite, NumBytes);
 256              		.loc 1 390 23 is_stmt 0 view .LVU77
 257 001a B368     		ldr	r3, [r6, #8]
 258 001c 5C1B     		subs	r4, r3, r5
 390:Middlewares/Third_Party/SEGGER/RTT/SEGGER_RTT.c ****     NumBytesToWrite = MIN(NumBytesToWrite, NumBytes);
 259              		.loc 1 390 21 view .LVU78
 260 001e 9442     		cmp	r4, r2
 261 0020 28BF     		it	cs
 262 0022 1446     		movcs	r4, r2
ARM GAS  C:\Users\Administrator\AppData\Local\Temp\ccUGyMKj.s 			page 16


 263              	.LVL31:
 391:Middlewares/Third_Party/SEGGER/RTT/SEGGER_RTT.c ****     pDst = (pRing->pBuffer + WrOff) + SEGGER_RTT_UNCACHED_OFF;
 264              		.loc 1 391 5 is_stmt 1 view .LVU79
 391:Middlewares/Third_Party/SEGGER/RTT/SEGGER_RTT.c ****     pDst = (pRing->pBuffer + WrOff) + SEGGER_RTT_UNCACHED_OFF;
 265              		.loc 1 391 21 is_stmt 0 view .LVU80
 266 0024 BC42     		cmp	r4, r7
 267 0026 28BF     		it	cs
 268 0028 3C46     		movcs	r4, r7
 269              	.LVL32:
 392:Middlewares/Third_Party/SEGGER/RTT/SEGGER_RTT.c **** #if SEGGER_RTT_MEMCPY_USE_BYTELOOP
 270              		.loc 1 392 5 is_stmt 1 view .LVU81
 392:Middlewares/Third_Party/SEGGER/RTT/SEGGER_RTT.c **** #if SEGGER_RTT_MEMCPY_USE_BYTELOOP
 271              		.loc 1 392 18 is_stmt 0 view .LVU82
 272 002a 7068     		ldr	r0, [r6, #4]
 273              	.LVL33:
 401:Middlewares/Third_Party/SEGGER/RTT/SEGGER_RTT.c ****     NumBytesWritten += NumBytesToWrite;
 274              		.loc 1 401 5 is_stmt 1 view .LVU83
 275 002c 2246     		mov	r2, r4
 276 002e 4146     		mov	r1, r8
 277 0030 2844     		add	r0, r0, r5
 278              	.LVL34:
 401:Middlewares/Third_Party/SEGGER/RTT/SEGGER_RTT.c ****     NumBytesWritten += NumBytesToWrite;
 279              		.loc 1 401 5 is_stmt 0 view .LVU84
 280 0032 FFF7FEFF 		bl	memcpy
 281              	.LVL35:
 402:Middlewares/Third_Party/SEGGER/RTT/SEGGER_RTT.c ****     pBuffer         += NumBytesToWrite;
 282              		.loc 1 402 5 is_stmt 1 view .LVU85
 402:Middlewares/Third_Party/SEGGER/RTT/SEGGER_RTT.c ****     pBuffer         += NumBytesToWrite;
 283              		.loc 1 402 21 is_stmt 0 view .LVU86
 284 0036 A144     		add	r9, r9, r4
 285              	.LVL36:
 403:Middlewares/Third_Party/SEGGER/RTT/SEGGER_RTT.c ****     NumBytes        -= NumBytesToWrite;
 286              		.loc 1 403 5 is_stmt 1 view .LVU87
 403:Middlewares/Third_Party/SEGGER/RTT/SEGGER_RTT.c ****     NumBytes        -= NumBytesToWrite;
 287              		.loc 1 403 21 is_stmt 0 view .LVU88
 288 0038 A044     		add	r8, r8, r4
 289              	.LVL37:
 404:Middlewares/Third_Party/SEGGER/RTT/SEGGER_RTT.c ****     WrOff           += NumBytesToWrite;
 290              		.loc 1 404 5 is_stmt 1 view .LVU89
 404:Middlewares/Third_Party/SEGGER/RTT/SEGGER_RTT.c ****     WrOff           += NumBytesToWrite;
 291              		.loc 1 404 21 is_stmt 0 view .LVU90
 292 003a 3F1B     		subs	r7, r7, r4
 293              	.LVL38:
 405:Middlewares/Third_Party/SEGGER/RTT/SEGGER_RTT.c **** #endif
 294              		.loc 1 405 5 is_stmt 1 view .LVU91
 405:Middlewares/Third_Party/SEGGER/RTT/SEGGER_RTT.c **** #endif
 295              		.loc 1 405 21 is_stmt 0 view .LVU92
 296 003c 2544     		add	r5, r5, r4
 297              	.LVL39:
 407:Middlewares/Third_Party/SEGGER/RTT/SEGGER_RTT.c ****       WrOff = 0u;
 298              		.loc 1 407 5 is_stmt 1 view .LVU93
 407:Middlewares/Third_Party/SEGGER/RTT/SEGGER_RTT.c ****       WrOff = 0u;
 299              		.loc 1 407 23 is_stmt 0 view .LVU94
 300 003e B368     		ldr	r3, [r6, #8]
 407:Middlewares/Third_Party/SEGGER/RTT/SEGGER_RTT.c ****       WrOff = 0u;
 301              		.loc 1 407 8 view .LVU95
 302 0040 AB42     		cmp	r3, r5
ARM GAS  C:\Users\Administrator\AppData\Local\Temp\ccUGyMKj.s 			page 17


 303 0042 09D0     		beq	.L15
 304              	.LVL40:
 305              	.L11:
 410:Middlewares/Third_Party/SEGGER/RTT/SEGGER_RTT.c ****     pRing->WrOff = WrOff;
 306              		.loc 1 410 5 is_stmt 1 view .LVU96
 307              		.syntax unified
 308              	@ 410 "Middlewares/Third_Party/SEGGER/RTT/SEGGER_RTT.c" 1
 309 0044 BFF35F8F 		dmb
 310              	
 311              	@ 0 "" 2
 410:Middlewares/Third_Party/SEGGER/RTT/SEGGER_RTT.c ****     pRing->WrOff = WrOff;
 312              		.loc 1 410 15 view .LVU97
 411:Middlewares/Third_Party/SEGGER/RTT/SEGGER_RTT.c ****   } while (NumBytes);
 313              		.loc 1 411 5 view .LVU98
 411:Middlewares/Third_Party/SEGGER/RTT/SEGGER_RTT.c ****   } while (NumBytes);
 314              		.loc 1 411 18 is_stmt 0 view .LVU99
 315              		.thumb
 316              		.syntax unified
 317 0048 F560     		str	r5, [r6, #12]
 412:Middlewares/Third_Party/SEGGER/RTT/SEGGER_RTT.c ****   return NumBytesWritten;
 318              		.loc 1 412 12 is_stmt 1 view .LVU100
 319 004a 3FB1     		cbz	r7, .L16
 320              	.LVL41:
 321              	.L12:
 383:Middlewares/Third_Party/SEGGER/RTT/SEGGER_RTT.c ****     RdOff = pRing->RdOff;                         // May be changed by host (debug probe) in the me
 322              		.loc 1 383 3 view .LVU101
 384:Middlewares/Third_Party/SEGGER/RTT/SEGGER_RTT.c ****     if (RdOff > WrOff) {
 323              		.loc 1 384 5 view .LVU102
 384:Middlewares/Third_Party/SEGGER/RTT/SEGGER_RTT.c ****     if (RdOff > WrOff) {
 324              		.loc 1 384 11 is_stmt 0 view .LVU103
 325 004c 3369     		ldr	r3, [r6, #16]
 326              	.LVL42:
 385:Middlewares/Third_Party/SEGGER/RTT/SEGGER_RTT.c ****       NumBytesToWrite = RdOff - WrOff - 1u;
 327              		.loc 1 385 5 is_stmt 1 view .LVU104
 385:Middlewares/Third_Party/SEGGER/RTT/SEGGER_RTT.c ****       NumBytesToWrite = RdOff - WrOff - 1u;
 328              		.loc 1 385 8 is_stmt 0 view .LVU105
 329 004e 9D42     		cmp	r5, r3
 330 0050 DFD2     		bcs	.L9
 386:Middlewares/Third_Party/SEGGER/RTT/SEGGER_RTT.c ****     } else {
 331              		.loc 1 386 7 is_stmt 1 view .LVU106
 386:Middlewares/Third_Party/SEGGER/RTT/SEGGER_RTT.c ****     } else {
 332              		.loc 1 386 31 is_stmt 0 view .LVU107
 333 0052 5B1B     		subs	r3, r3, r5
 334              	.LVL43:
 386:Middlewares/Third_Party/SEGGER/RTT/SEGGER_RTT.c ****     } else {
 335              		.loc 1 386 23 view .LVU108
 336 0054 5A1E     		subs	r2, r3, #1
 337              	.LVL44:
 386:Middlewares/Third_Party/SEGGER/RTT/SEGGER_RTT.c ****     } else {
 338              		.loc 1 386 23 view .LVU109
 339 0056 E0E7     		b	.L10
 340              	.LVL45:
 341              	.L15:
 408:Middlewares/Third_Party/SEGGER/RTT/SEGGER_RTT.c ****     }
 342              		.loc 1 408 13 view .LVU110
 343 0058 0025     		movs	r5, #0
 344              	.LVL46:
ARM GAS  C:\Users\Administrator\AppData\Local\Temp\ccUGyMKj.s 			page 18


 408:Middlewares/Third_Party/SEGGER/RTT/SEGGER_RTT.c ****     }
 345              		.loc 1 408 13 view .LVU111
 346 005a F3E7     		b	.L11
 347              	.LVL47:
 348              	.L16:
 413:Middlewares/Third_Party/SEGGER/RTT/SEGGER_RTT.c **** }
 349              		.loc 1 413 3 is_stmt 1 view .LVU112
 414:Middlewares/Third_Party/SEGGER/RTT/SEGGER_RTT.c **** 
 350              		.loc 1 414 1 is_stmt 0 view .LVU113
 351 005c 4846     		mov	r0, r9
 352 005e BDE8F883 		pop	{r3, r4, r5, r6, r7, r8, r9, pc}
 414:Middlewares/Third_Party/SEGGER/RTT/SEGGER_RTT.c **** 
 353              		.loc 1 414 1 view .LVU114
 354              		.cfi_endproc
 355              	.LFE1:
 357              		.section	.text._PostTerminalSwitch,"ax",%progbits
 358              		.align	1
 359              		.syntax unified
 360              		.thumb
 361              		.thumb_func
 363              	_PostTerminalSwitch:
 364              	.LVL48:
 365              	.LFB3:
 502:Middlewares/Third_Party/SEGGER/RTT/SEGGER_RTT.c ****   unsigned char ac[2];
 366              		.loc 1 502 88 is_stmt 1 view -0
 367              		.cfi_startproc
 368              		@ args = 0, pretend = 0, frame = 8
 369              		@ frame_needed = 0, uses_anonymous_args = 0
 502:Middlewares/Third_Party/SEGGER/RTT/SEGGER_RTT.c ****   unsigned char ac[2];
 370              		.loc 1 502 88 is_stmt 0 view .LVU116
 371 0000 00B5     		push	{lr}
 372              		.cfi_def_cfa_offset 4
 373              		.cfi_offset 14, -4
 374 0002 83B0     		sub	sp, sp, #12
 375              		.cfi_def_cfa_offset 16
 503:Middlewares/Third_Party/SEGGER/RTT/SEGGER_RTT.c **** 
 376              		.loc 1 503 3 is_stmt 1 view .LVU117
 505:Middlewares/Third_Party/SEGGER/RTT/SEGGER_RTT.c ****   ac[1] = _aTerminalId[TerminalId];  // Caller made already sure that TerminalId does not exceed ou
 377              		.loc 1 505 3 view .LVU118
 505:Middlewares/Third_Party/SEGGER/RTT/SEGGER_RTT.c ****   ac[1] = _aTerminalId[TerminalId];  // Caller made already sure that TerminalId does not exceed ou
 378              		.loc 1 505 9 is_stmt 0 view .LVU119
 379 0004 FF23     		movs	r3, #255
 380 0006 8DF80430 		strb	r3, [sp, #4]
 506:Middlewares/Third_Party/SEGGER/RTT/SEGGER_RTT.c ****   _WriteBlocking(pRing, (const char*)ac, 2u);
 381              		.loc 1 506 3 is_stmt 1 view .LVU120
 506:Middlewares/Third_Party/SEGGER/RTT/SEGGER_RTT.c ****   _WriteBlocking(pRing, (const char*)ac, 2u);
 382              		.loc 1 506 23 is_stmt 0 view .LVU121
 383 000a 054B     		ldr	r3, .L19
 384 000c 5B5C     		ldrb	r3, [r3, r1]	@ zero_extendqisi2
 506:Middlewares/Third_Party/SEGGER/RTT/SEGGER_RTT.c ****   _WriteBlocking(pRing, (const char*)ac, 2u);
 385              		.loc 1 506 9 view .LVU122
 386 000e 8DF80530 		strb	r3, [sp, #5]
 507:Middlewares/Third_Party/SEGGER/RTT/SEGGER_RTT.c **** }
 387              		.loc 1 507 3 is_stmt 1 view .LVU123
 388 0012 0222     		movs	r2, #2
 389 0014 01A9     		add	r1, sp, #4
 390              	.LVL49:
ARM GAS  C:\Users\Administrator\AppData\Local\Temp\ccUGyMKj.s 			page 19


 507:Middlewares/Third_Party/SEGGER/RTT/SEGGER_RTT.c **** }
 391              		.loc 1 507 3 is_stmt 0 view .LVU124
 392 0016 FFF7FEFF 		bl	_WriteBlocking
 393              	.LVL50:
 508:Middlewares/Third_Party/SEGGER/RTT/SEGGER_RTT.c **** 
 394              		.loc 1 508 1 view .LVU125
 395 001a 03B0     		add	sp, sp, #12
 396              		.cfi_def_cfa_offset 4
 397              		@ sp needed
 398 001c 00BD     		pop	{pc}
 399              	.L20:
 400 001e 00BF     		.align	2
 401              	.L19:
 402 0020 00000000 		.word	_aTerminalId
 403              		.cfi_endproc
 404              	.LFE3:
 406              		.section	.rodata._DoInit.str1.4,"aMS",%progbits,1
 407              		.align	2
 408              	.LC0:
 409 0000 5465726D 		.ascii	"Terminal\000"
 409      696E616C 
 409      00
 410              		.section	.text._DoInit,"ax",%progbits
 411              		.align	1
 412              		.syntax unified
 413              		.thumb
 414              		.thumb_func
 416              	_DoInit:
 417              	.LFB0:
 312:Middlewares/Third_Party/SEGGER/RTT/SEGGER_RTT.c ****   volatile SEGGER_RTT_CB* p;   // Volatile to make sure that compiler cannot change the order of ac
 418              		.loc 1 312 27 is_stmt 1 view -0
 419              		.cfi_startproc
 420              		@ args = 0, pretend = 0, frame = 0
 421              		@ frame_needed = 0, uses_anonymous_args = 0
 422 0000 10B5     		push	{r4, lr}
 423              		.cfi_def_cfa_offset 8
 424              		.cfi_offset 4, -8
 425              		.cfi_offset 14, -4
 313:Middlewares/Third_Party/SEGGER/RTT/SEGGER_RTT.c ****   static const char _aInitStr[] = "\0\0\0\0\0\0TTR REGGES";  // Init complete ID string to make sur
 426              		.loc 1 313 3 view .LVU127
 314:Middlewares/Third_Party/SEGGER/RTT/SEGGER_RTT.c ****   unsigned i;
 427              		.loc 1 314 3 view .LVU128
 315:Middlewares/Third_Party/SEGGER/RTT/SEGGER_RTT.c ****   //
 428              		.loc 1 315 3 view .LVU129
 319:Middlewares/Third_Party/SEGGER/RTT/SEGGER_RTT.c ****   memset((SEGGER_RTT_CB*)p, 0, sizeof(_SEGGER_RTT));         // Make sure that the RTT CB is always
 429              		.loc 1 319 3 view .LVU130
 430              	.LVL51:
 320:Middlewares/Third_Party/SEGGER/RTT/SEGGER_RTT.c ****   p->MaxNumUpBuffers    = SEGGER_RTT_MAX_NUM_UP_BUFFERS;
 431              		.loc 1 320 3 view .LVU131
 432 0002 154C     		ldr	r4, .L25
 433 0004 A822     		movs	r2, #168
 434 0006 0021     		movs	r1, #0
 435 0008 2046     		mov	r0, r4
 436 000a FFF7FEFF 		bl	memset
 437              	.LVL52:
 321:Middlewares/Third_Party/SEGGER/RTT/SEGGER_RTT.c ****   p->MaxNumDownBuffers  = SEGGER_RTT_MAX_NUM_DOWN_BUFFERS;
 438              		.loc 1 321 3 view .LVU132
ARM GAS  C:\Users\Administrator\AppData\Local\Temp\ccUGyMKj.s 			page 20


 321:Middlewares/Third_Party/SEGGER/RTT/SEGGER_RTT.c ****   p->MaxNumDownBuffers  = SEGGER_RTT_MAX_NUM_DOWN_BUFFERS;
 439              		.loc 1 321 25 is_stmt 0 view .LVU133
 440 000e 0323     		movs	r3, #3
 441 0010 2361     		str	r3, [r4, #16]
 322:Middlewares/Third_Party/SEGGER/RTT/SEGGER_RTT.c ****   //
 442              		.loc 1 322 3 is_stmt 1 view .LVU134
 322:Middlewares/Third_Party/SEGGER/RTT/SEGGER_RTT.c ****   //
 443              		.loc 1 322 25 is_stmt 0 view .LVU135
 444 0012 6361     		str	r3, [r4, #20]
 326:Middlewares/Third_Party/SEGGER/RTT/SEGGER_RTT.c ****   p->aUp[0].pBuffer       = _acUpBuffer;
 445              		.loc 1 326 3 is_stmt 1 view .LVU136
 326:Middlewares/Third_Party/SEGGER/RTT/SEGGER_RTT.c ****   p->aUp[0].pBuffer       = _acUpBuffer;
 446              		.loc 1 326 27 is_stmt 0 view .LVU137
 447 0014 114A     		ldr	r2, .L25+4
 448 0016 A261     		str	r2, [r4, #24]
 327:Middlewares/Third_Party/SEGGER/RTT/SEGGER_RTT.c ****   p->aUp[0].SizeOfBuffer  = BUFFER_SIZE_UP;
 449              		.loc 1 327 3 is_stmt 1 view .LVU138
 327:Middlewares/Third_Party/SEGGER/RTT/SEGGER_RTT.c ****   p->aUp[0].SizeOfBuffer  = BUFFER_SIZE_UP;
 450              		.loc 1 327 27 is_stmt 0 view .LVU139
 451 0018 114B     		ldr	r3, .L25+8
 452 001a E361     		str	r3, [r4, #28]
 328:Middlewares/Third_Party/SEGGER/RTT/SEGGER_RTT.c ****   p->aUp[0].RdOff         = 0u;
 453              		.loc 1 328 3 is_stmt 1 view .LVU140
 328:Middlewares/Third_Party/SEGGER/RTT/SEGGER_RTT.c ****   p->aUp[0].RdOff         = 0u;
 454              		.loc 1 328 27 is_stmt 0 view .LVU141
 455 001c 4FF48063 		mov	r3, #1024
 456 0020 2362     		str	r3, [r4, #32]
 329:Middlewares/Third_Party/SEGGER/RTT/SEGGER_RTT.c ****   p->aUp[0].WrOff         = 0u;
 457              		.loc 1 329 3 is_stmt 1 view .LVU142
 329:Middlewares/Third_Party/SEGGER/RTT/SEGGER_RTT.c ****   p->aUp[0].WrOff         = 0u;
 458              		.loc 1 329 27 is_stmt 0 view .LVU143
 459 0022 0023     		movs	r3, #0
 460 0024 A362     		str	r3, [r4, #40]
 330:Middlewares/Third_Party/SEGGER/RTT/SEGGER_RTT.c ****   p->aUp[0].Flags         = SEGGER_RTT_MODE_DEFAULT;
 461              		.loc 1 330 3 is_stmt 1 view .LVU144
 330:Middlewares/Third_Party/SEGGER/RTT/SEGGER_RTT.c ****   p->aUp[0].Flags         = SEGGER_RTT_MODE_DEFAULT;
 462              		.loc 1 330 27 is_stmt 0 view .LVU145
 463 0026 6362     		str	r3, [r4, #36]
 331:Middlewares/Third_Party/SEGGER/RTT/SEGGER_RTT.c ****   //
 464              		.loc 1 331 3 is_stmt 1 view .LVU146
 331:Middlewares/Third_Party/SEGGER/RTT/SEGGER_RTT.c ****   //
 465              		.loc 1 331 27 is_stmt 0 view .LVU147
 466 0028 E362     		str	r3, [r4, #44]
 335:Middlewares/Third_Party/SEGGER/RTT/SEGGER_RTT.c ****   p->aDown[0].pBuffer       = _acDownBuffer;
 467              		.loc 1 335 3 is_stmt 1 view .LVU148
 335:Middlewares/Third_Party/SEGGER/RTT/SEGGER_RTT.c ****   p->aDown[0].pBuffer       = _acDownBuffer;
 468              		.loc 1 335 29 is_stmt 0 view .LVU149
 469 002a 2266     		str	r2, [r4, #96]
 336:Middlewares/Third_Party/SEGGER/RTT/SEGGER_RTT.c ****   p->aDown[0].SizeOfBuffer  = BUFFER_SIZE_DOWN;
 470              		.loc 1 336 3 is_stmt 1 view .LVU150
 336:Middlewares/Third_Party/SEGGER/RTT/SEGGER_RTT.c ****   p->aDown[0].SizeOfBuffer  = BUFFER_SIZE_DOWN;
 471              		.loc 1 336 29 is_stmt 0 view .LVU151
 472 002c 0D4A     		ldr	r2, .L25+12
 473 002e 6266     		str	r2, [r4, #100]
 337:Middlewares/Third_Party/SEGGER/RTT/SEGGER_RTT.c ****   p->aDown[0].RdOff         = 0u;
 474              		.loc 1 337 3 is_stmt 1 view .LVU152
 337:Middlewares/Third_Party/SEGGER/RTT/SEGGER_RTT.c ****   p->aDown[0].RdOff         = 0u;
ARM GAS  C:\Users\Administrator\AppData\Local\Temp\ccUGyMKj.s 			page 21


 475              		.loc 1 337 29 is_stmt 0 view .LVU153
 476 0030 1022     		movs	r2, #16
 477 0032 A266     		str	r2, [r4, #104]
 338:Middlewares/Third_Party/SEGGER/RTT/SEGGER_RTT.c ****   p->aDown[0].WrOff         = 0u;
 478              		.loc 1 338 3 is_stmt 1 view .LVU154
 338:Middlewares/Third_Party/SEGGER/RTT/SEGGER_RTT.c ****   p->aDown[0].WrOff         = 0u;
 479              		.loc 1 338 29 is_stmt 0 view .LVU155
 480 0034 2367     		str	r3, [r4, #112]
 339:Middlewares/Third_Party/SEGGER/RTT/SEGGER_RTT.c ****   p->aDown[0].Flags         = SEGGER_RTT_MODE_DEFAULT;
 481              		.loc 1 339 3 is_stmt 1 view .LVU156
 339:Middlewares/Third_Party/SEGGER/RTT/SEGGER_RTT.c ****   p->aDown[0].Flags         = SEGGER_RTT_MODE_DEFAULT;
 482              		.loc 1 339 29 is_stmt 0 view .LVU157
 483 0036 E366     		str	r3, [r4, #108]
 340:Middlewares/Third_Party/SEGGER/RTT/SEGGER_RTT.c ****   //
 484              		.loc 1 340 3 is_stmt 1 view .LVU158
 340:Middlewares/Third_Party/SEGGER/RTT/SEGGER_RTT.c ****   //
 485              		.loc 1 340 29 is_stmt 0 view .LVU159
 486 0038 6367     		str	r3, [r4, #116]
 346:Middlewares/Third_Party/SEGGER/RTT/SEGGER_RTT.c ****   for (i = 0; i < sizeof(_aInitStr) - 1; ++i) {
 487              		.loc 1 346 3 is_stmt 1 view .LVU160
 488              		.syntax unified
 489              	@ 346 "Middlewares/Third_Party/SEGGER/RTT/SEGGER_RTT.c" 1
 490 003a BFF35F8F 		dmb
 491              	
 492              	@ 0 "" 2
 346:Middlewares/Third_Party/SEGGER/RTT/SEGGER_RTT.c ****   for (i = 0; i < sizeof(_aInitStr) - 1; ++i) {
 493              		.loc 1 346 13 view .LVU161
 347:Middlewares/Third_Party/SEGGER/RTT/SEGGER_RTT.c ****     p->acID[i] = _aInitStr[sizeof(_aInitStr) - 2 - i];  // Skip terminating \0 at the end of the ar
 494              		.loc 1 347 3 view .LVU162
 495              	.LVL53:
 347:Middlewares/Third_Party/SEGGER/RTT/SEGGER_RTT.c ****     p->acID[i] = _aInitStr[sizeof(_aInitStr) - 2 - i];  // Skip terminating \0 at the end of the ar
 496              		.loc 1 347 3 is_stmt 0 view .LVU163
 497              		.thumb
 498              		.syntax unified
 499 003e 06E0     		b	.L22
 500              	.LVL54:
 501              	.L23:
 348:Middlewares/Third_Party/SEGGER/RTT/SEGGER_RTT.c ****   }
 502              		.loc 1 348 5 is_stmt 1 view .LVU164
 348:Middlewares/Third_Party/SEGGER/RTT/SEGGER_RTT.c ****   }
 503              		.loc 1 348 50 is_stmt 0 view .LVU165
 504 0040 C3F10F02 		rsb	r2, r3, #15
 348:Middlewares/Third_Party/SEGGER/RTT/SEGGER_RTT.c ****   }
 505              		.loc 1 348 27 view .LVU166
 506 0044 0849     		ldr	r1, .L25+16
 507 0046 895C     		ldrb	r1, [r1, r2]	@ zero_extendqisi2
 348:Middlewares/Third_Party/SEGGER/RTT/SEGGER_RTT.c ****   }
 508              		.loc 1 348 16 view .LVU167
 509 0048 034A     		ldr	r2, .L25
 510 004a D154     		strb	r1, [r2, r3]
 347:Middlewares/Third_Party/SEGGER/RTT/SEGGER_RTT.c ****     p->acID[i] = _aInitStr[sizeof(_aInitStr) - 2 - i];  // Skip terminating \0 at the end of the ar
 511              		.loc 1 347 42 is_stmt 1 discriminator 3 view .LVU168
 512 004c 0133     		adds	r3, r3, #1
 513              	.LVL55:
 514              	.L22:
 347:Middlewares/Third_Party/SEGGER/RTT/SEGGER_RTT.c ****     p->acID[i] = _aInitStr[sizeof(_aInitStr) - 2 - i];  // Skip terminating \0 at the end of the ar
 515              		.loc 1 347 17 discriminator 1 view .LVU169
ARM GAS  C:\Users\Administrator\AppData\Local\Temp\ccUGyMKj.s 			page 22


 516 004e 0F2B     		cmp	r3, #15
 517 0050 F6D9     		bls	.L23
 350:Middlewares/Third_Party/SEGGER/RTT/SEGGER_RTT.c **** }
 518              		.loc 1 350 3 view .LVU170
 519              		.syntax unified
 520              	@ 350 "Middlewares/Third_Party/SEGGER/RTT/SEGGER_RTT.c" 1
 521 0052 BFF35F8F 		dmb
 522              	
 523              	@ 0 "" 2
 350:Middlewares/Third_Party/SEGGER/RTT/SEGGER_RTT.c **** }
 524              		.loc 1 350 13 view .LVU171
 351:Middlewares/Third_Party/SEGGER/RTT/SEGGER_RTT.c **** 
 525              		.loc 1 351 1 is_stmt 0 view .LVU172
 526              		.thumb
 527              		.syntax unified
 528 0056 10BD     		pop	{r4, pc}
 529              	.L26:
 530              		.align	2
 531              	.L25:
 532 0058 00000000 		.word	_SEGGER_RTT
 533 005c 00000000 		.word	.LC0
 534 0060 00000000 		.word	_acUpBuffer
 535 0064 00000000 		.word	_acDownBuffer
 536 0068 00000000 		.word	_aInitStr.0
 537              		.cfi_endproc
 538              	.LFE0:
 540              		.section	.text.SEGGER_RTT_ReadUpBufferNoLock,"ax",%progbits
 541              		.align	1
 542              		.global	SEGGER_RTT_ReadUpBufferNoLock
 543              		.syntax unified
 544              		.thumb
 545              		.thumb_func
 547              	SEGGER_RTT_ReadUpBufferNoLock:
 548              	.LVL56:
 549              	.LFB5:
 541:Middlewares/Third_Party/SEGGER/RTT/SEGGER_RTT.c **** 
 542:Middlewares/Third_Party/SEGGER/RTT/SEGGER_RTT.c **** /*********************************************************************
 543:Middlewares/Third_Party/SEGGER/RTT/SEGGER_RTT.c **** *
 544:Middlewares/Third_Party/SEGGER/RTT/SEGGER_RTT.c **** *       Public code
 545:Middlewares/Third_Party/SEGGER/RTT/SEGGER_RTT.c **** *
 546:Middlewares/Third_Party/SEGGER/RTT/SEGGER_RTT.c **** **********************************************************************
 547:Middlewares/Third_Party/SEGGER/RTT/SEGGER_RTT.c **** */
 548:Middlewares/Third_Party/SEGGER/RTT/SEGGER_RTT.c **** 
 549:Middlewares/Third_Party/SEGGER/RTT/SEGGER_RTT.c **** /*********************************************************************
 550:Middlewares/Third_Party/SEGGER/RTT/SEGGER_RTT.c **** *
 551:Middlewares/Third_Party/SEGGER/RTT/SEGGER_RTT.c **** *       SEGGER_RTT_ReadUpBufferNoLock()
 552:Middlewares/Third_Party/SEGGER/RTT/SEGGER_RTT.c **** *
 553:Middlewares/Third_Party/SEGGER/RTT/SEGGER_RTT.c **** *  Function description
 554:Middlewares/Third_Party/SEGGER/RTT/SEGGER_RTT.c **** *    Reads characters from SEGGER real-time-terminal control block
 555:Middlewares/Third_Party/SEGGER/RTT/SEGGER_RTT.c **** *    which have been previously stored by the application.
 556:Middlewares/Third_Party/SEGGER/RTT/SEGGER_RTT.c **** *    Do not lock against interrupts and multiple access.
 557:Middlewares/Third_Party/SEGGER/RTT/SEGGER_RTT.c **** *    Used to do the same operation that J-Link does, to transfer 
 558:Middlewares/Third_Party/SEGGER/RTT/SEGGER_RTT.c **** *    RTT data via other channels, such as TCP/IP or UART.
 559:Middlewares/Third_Party/SEGGER/RTT/SEGGER_RTT.c **** *
 560:Middlewares/Third_Party/SEGGER/RTT/SEGGER_RTT.c **** *  Parameters
 561:Middlewares/Third_Party/SEGGER/RTT/SEGGER_RTT.c **** *    BufferIndex  Index of Up-buffer to be used.
 562:Middlewares/Third_Party/SEGGER/RTT/SEGGER_RTT.c **** *    pBuffer      Pointer to buffer provided by target application, to copy characters from RTT-up-
ARM GAS  C:\Users\Administrator\AppData\Local\Temp\ccUGyMKj.s 			page 23


 563:Middlewares/Third_Party/SEGGER/RTT/SEGGER_RTT.c **** *    BufferSize   Size of the target application buffer.
 564:Middlewares/Third_Party/SEGGER/RTT/SEGGER_RTT.c **** *
 565:Middlewares/Third_Party/SEGGER/RTT/SEGGER_RTT.c **** *  Return value
 566:Middlewares/Third_Party/SEGGER/RTT/SEGGER_RTT.c **** *    Number of bytes that have been read.
 567:Middlewares/Third_Party/SEGGER/RTT/SEGGER_RTT.c **** *
 568:Middlewares/Third_Party/SEGGER/RTT/SEGGER_RTT.c **** *  Additional information
 569:Middlewares/Third_Party/SEGGER/RTT/SEGGER_RTT.c **** *    This function must not be called when J-Link might also do RTT.
 570:Middlewares/Third_Party/SEGGER/RTT/SEGGER_RTT.c **** */
 571:Middlewares/Third_Party/SEGGER/RTT/SEGGER_RTT.c **** unsigned SEGGER_RTT_ReadUpBufferNoLock(unsigned BufferIndex, void* pData, unsigned BufferSize) {
 550              		.loc 1 571 96 is_stmt 1 view -0
 551              		.cfi_startproc
 552              		@ args = 0, pretend = 0, frame = 8
 553              		@ frame_needed = 0, uses_anonymous_args = 0
 554              		.loc 1 571 96 is_stmt 0 view .LVU174
 555 0000 2DE9F043 		push	{r4, r5, r6, r7, r8, r9, lr}
 556              		.cfi_def_cfa_offset 28
 557              		.cfi_offset 4, -28
 558              		.cfi_offset 5, -24
 559              		.cfi_offset 6, -20
 560              		.cfi_offset 7, -16
 561              		.cfi_offset 8, -12
 562              		.cfi_offset 9, -8
 563              		.cfi_offset 14, -4
 564 0004 83B0     		sub	sp, sp, #12
 565              		.cfi_def_cfa_offset 40
 566 0006 0446     		mov	r4, r0
 567 0008 8946     		mov	r9, r1
 568 000a 9046     		mov	r8, r2
 572:Middlewares/Third_Party/SEGGER/RTT/SEGGER_RTT.c ****   unsigned                NumBytesRem;
 569              		.loc 1 572 3 is_stmt 1 view .LVU175
 573:Middlewares/Third_Party/SEGGER/RTT/SEGGER_RTT.c ****   unsigned                NumBytesRead;
 570              		.loc 1 573 3 view .LVU176
 574:Middlewares/Third_Party/SEGGER/RTT/SEGGER_RTT.c ****   unsigned                RdOff;
 571              		.loc 1 574 3 view .LVU177
 575:Middlewares/Third_Party/SEGGER/RTT/SEGGER_RTT.c ****   unsigned                WrOff;
 572              		.loc 1 575 3 view .LVU178
 576:Middlewares/Third_Party/SEGGER/RTT/SEGGER_RTT.c ****   unsigned char*          pBuffer;
 573              		.loc 1 576 3 view .LVU179
 577:Middlewares/Third_Party/SEGGER/RTT/SEGGER_RTT.c ****   SEGGER_RTT_BUFFER_UP*   pRing;
 574              		.loc 1 577 3 view .LVU180
 578:Middlewares/Third_Party/SEGGER/RTT/SEGGER_RTT.c ****   volatile char*          pSrc;
 575              		.loc 1 578 3 view .LVU181
 576              	.LBB2:
 579:Middlewares/Third_Party/SEGGER/RTT/SEGGER_RTT.c **** 
 580:Middlewares/Third_Party/SEGGER/RTT/SEGGER_RTT.c ****   INIT();
 577              		.loc 1 580 3 view .LVU182
 578              		.loc 1 580 3 view .LVU183
 579              	.LVL57:
 580              		.loc 1 580 3 view .LVU184
 581              		.loc 1 580 3 view .LVU185
 582 000c 274B     		ldr	r3, .L38
 583 000e 1B78     		ldrb	r3, [r3]	@ zero_extendqisi2
 584 0010 CBB1     		cbz	r3, .L35
 585              	.LVL58:
 586              	.L28:
 587              		.loc 1 580 3 view .LVU186
 588              	.LBE2:
ARM GAS  C:\Users\Administrator\AppData\Local\Temp\ccUGyMKj.s 			page 24


 589              		.loc 1 580 9 view .LVU187
 581:Middlewares/Third_Party/SEGGER/RTT/SEGGER_RTT.c ****   pRing = (SEGGER_RTT_BUFFER_UP*)((char*)&_SEGGER_RTT.aUp[BufferIndex] + SEGGER_RTT_UNCACHED_OFF); 
 590              		.loc 1 581 3 view .LVU188
 582:Middlewares/Third_Party/SEGGER/RTT/SEGGER_RTT.c ****   pBuffer = (unsigned char*)pData;
 591              		.loc 1 582 3 view .LVU189
 583:Middlewares/Third_Party/SEGGER/RTT/SEGGER_RTT.c ****   RdOff = pRing->RdOff;
 592              		.loc 1 583 3 view .LVU190
 593              		.loc 1 583 9 is_stmt 0 view .LVU191
 594 0012 04EB4402 		add	r2, r4, r4, lsl #1
 595 0016 254B     		ldr	r3, .L38
 596 0018 03EBC203 		add	r3, r3, r2, lsl #3
 597 001c 9F6A     		ldr	r7, [r3, #40]
 598              	.LVL59:
 584:Middlewares/Third_Party/SEGGER/RTT/SEGGER_RTT.c ****   WrOff = pRing->WrOff;
 599              		.loc 1 584 3 is_stmt 1 view .LVU192
 600              		.loc 1 584 9 is_stmt 0 view .LVU193
 601 001e 5D6A     		ldr	r5, [r3, #36]
 602              	.LVL60:
 585:Middlewares/Third_Party/SEGGER/RTT/SEGGER_RTT.c ****   NumBytesRead = 0u;
 603              		.loc 1 585 3 is_stmt 1 view .LVU194
 586:Middlewares/Third_Party/SEGGER/RTT/SEGGER_RTT.c ****   //
 587:Middlewares/Third_Party/SEGGER/RTT/SEGGER_RTT.c ****   // Read from current read position to wrap-around of buffer, first
 588:Middlewares/Third_Party/SEGGER/RTT/SEGGER_RTT.c ****   //
 589:Middlewares/Third_Party/SEGGER/RTT/SEGGER_RTT.c ****   if (RdOff > WrOff) {
 604              		.loc 1 589 3 view .LVU195
 605              		.loc 1 589 6 is_stmt 0 view .LVU196
 606 0020 AF42     		cmp	r7, r5
 607 0022 13D8     		bhi	.L36
 585:Middlewares/Third_Party/SEGGER/RTT/SEGGER_RTT.c ****   NumBytesRead = 0u;
 608              		.loc 1 585 16 view .LVU197
 609 0024 0026     		movs	r6, #0
 610              	.LVL61:
 611              	.L29:
 590:Middlewares/Third_Party/SEGGER/RTT/SEGGER_RTT.c ****     NumBytesRem = pRing->SizeOfBuffer - RdOff;
 591:Middlewares/Third_Party/SEGGER/RTT/SEGGER_RTT.c ****     NumBytesRem = MIN(NumBytesRem, BufferSize);
 592:Middlewares/Third_Party/SEGGER/RTT/SEGGER_RTT.c ****     pSrc = (pRing->pBuffer + RdOff) + SEGGER_RTT_UNCACHED_OFF;
 593:Middlewares/Third_Party/SEGGER/RTT/SEGGER_RTT.c **** #if SEGGER_RTT_MEMCPY_USE_BYTELOOP
 594:Middlewares/Third_Party/SEGGER/RTT/SEGGER_RTT.c ****     NumBytesRead += NumBytesRem;
 595:Middlewares/Third_Party/SEGGER/RTT/SEGGER_RTT.c ****     BufferSize   -= NumBytesRem;
 596:Middlewares/Third_Party/SEGGER/RTT/SEGGER_RTT.c ****     RdOff        += NumBytesRem;
 597:Middlewares/Third_Party/SEGGER/RTT/SEGGER_RTT.c ****     while (NumBytesRem--) {
 598:Middlewares/Third_Party/SEGGER/RTT/SEGGER_RTT.c ****       *pBuffer++ = *pSrc++;
 599:Middlewares/Third_Party/SEGGER/RTT/SEGGER_RTT.c ****     };
 600:Middlewares/Third_Party/SEGGER/RTT/SEGGER_RTT.c **** #else
 601:Middlewares/Third_Party/SEGGER/RTT/SEGGER_RTT.c ****     SEGGER_RTT_MEMCPY(pBuffer, (void*)pSrc, NumBytesRem);
 602:Middlewares/Third_Party/SEGGER/RTT/SEGGER_RTT.c ****     NumBytesRead += NumBytesRem;
 603:Middlewares/Third_Party/SEGGER/RTT/SEGGER_RTT.c ****     pBuffer      += NumBytesRem;
 604:Middlewares/Third_Party/SEGGER/RTT/SEGGER_RTT.c ****     BufferSize   -= NumBytesRem;
 605:Middlewares/Third_Party/SEGGER/RTT/SEGGER_RTT.c ****     RdOff        += NumBytesRem;
 606:Middlewares/Third_Party/SEGGER/RTT/SEGGER_RTT.c **** #endif
 607:Middlewares/Third_Party/SEGGER/RTT/SEGGER_RTT.c ****     //
 608:Middlewares/Third_Party/SEGGER/RTT/SEGGER_RTT.c ****     // Handle wrap-around of buffer
 609:Middlewares/Third_Party/SEGGER/RTT/SEGGER_RTT.c ****     //
 610:Middlewares/Third_Party/SEGGER/RTT/SEGGER_RTT.c ****     if (RdOff == pRing->SizeOfBuffer) {
 611:Middlewares/Third_Party/SEGGER/RTT/SEGGER_RTT.c ****       RdOff = 0u;
 612:Middlewares/Third_Party/SEGGER/RTT/SEGGER_RTT.c ****     }
 613:Middlewares/Third_Party/SEGGER/RTT/SEGGER_RTT.c ****   }
ARM GAS  C:\Users\Administrator\AppData\Local\Temp\ccUGyMKj.s 			page 25


 614:Middlewares/Third_Party/SEGGER/RTT/SEGGER_RTT.c ****   //
 615:Middlewares/Third_Party/SEGGER/RTT/SEGGER_RTT.c ****   // Read remaining items of buffer
 616:Middlewares/Third_Party/SEGGER/RTT/SEGGER_RTT.c ****   //
 617:Middlewares/Third_Party/SEGGER/RTT/SEGGER_RTT.c ****   NumBytesRem = WrOff - RdOff;
 612              		.loc 1 617 3 is_stmt 1 view .LVU198
 613              		.loc 1 617 15 is_stmt 0 view .LVU199
 614 0026 ED1B     		subs	r5, r5, r7
 615              	.LVL62:
 618:Middlewares/Third_Party/SEGGER/RTT/SEGGER_RTT.c ****   NumBytesRem = MIN(NumBytesRem, BufferSize);
 616              		.loc 1 618 3 is_stmt 1 view .LVU200
 617              		.loc 1 618 15 is_stmt 0 view .LVU201
 618 0028 4545     		cmp	r5, r8
 619 002a 28BF     		it	cs
 620 002c 4546     		movcs	r5, r8
 621              	.LVL63:
 619:Middlewares/Third_Party/SEGGER/RTT/SEGGER_RTT.c ****   if (NumBytesRem > 0u) {
 622              		.loc 1 619 3 is_stmt 1 view .LVU202
 623              		.loc 1 619 6 is_stmt 0 view .LVU203
 624 002e 6DBB     		cbnz	r5, .L37
 625              	.LVL64:
 626              	.L30:
 620:Middlewares/Third_Party/SEGGER/RTT/SEGGER_RTT.c ****     pSrc = (pRing->pBuffer + RdOff) + SEGGER_RTT_UNCACHED_OFF;
 621:Middlewares/Third_Party/SEGGER/RTT/SEGGER_RTT.c **** #if SEGGER_RTT_MEMCPY_USE_BYTELOOP
 622:Middlewares/Third_Party/SEGGER/RTT/SEGGER_RTT.c ****     NumBytesRead += NumBytesRem;
 623:Middlewares/Third_Party/SEGGER/RTT/SEGGER_RTT.c ****     BufferSize   -= NumBytesRem;
 624:Middlewares/Third_Party/SEGGER/RTT/SEGGER_RTT.c ****     RdOff        += NumBytesRem;
 625:Middlewares/Third_Party/SEGGER/RTT/SEGGER_RTT.c ****     while (NumBytesRem--) {
 626:Middlewares/Third_Party/SEGGER/RTT/SEGGER_RTT.c ****       *pBuffer++ = *pSrc++;
 627:Middlewares/Third_Party/SEGGER/RTT/SEGGER_RTT.c ****     };
 628:Middlewares/Third_Party/SEGGER/RTT/SEGGER_RTT.c **** #else
 629:Middlewares/Third_Party/SEGGER/RTT/SEGGER_RTT.c ****     SEGGER_RTT_MEMCPY(pBuffer, (void*)pSrc, NumBytesRem);
 630:Middlewares/Third_Party/SEGGER/RTT/SEGGER_RTT.c ****     NumBytesRead += NumBytesRem;
 631:Middlewares/Third_Party/SEGGER/RTT/SEGGER_RTT.c ****     pBuffer      += NumBytesRem;
 632:Middlewares/Third_Party/SEGGER/RTT/SEGGER_RTT.c ****     BufferSize   -= NumBytesRem;
 633:Middlewares/Third_Party/SEGGER/RTT/SEGGER_RTT.c ****     RdOff        += NumBytesRem;
 634:Middlewares/Third_Party/SEGGER/RTT/SEGGER_RTT.c **** #endif
 635:Middlewares/Third_Party/SEGGER/RTT/SEGGER_RTT.c ****   }
 636:Middlewares/Third_Party/SEGGER/RTT/SEGGER_RTT.c ****   //
 637:Middlewares/Third_Party/SEGGER/RTT/SEGGER_RTT.c ****   // Update read offset of buffer
 638:Middlewares/Third_Party/SEGGER/RTT/SEGGER_RTT.c ****   //
 639:Middlewares/Third_Party/SEGGER/RTT/SEGGER_RTT.c ****   if (NumBytesRead) {
 627              		.loc 1 639 3 is_stmt 1 view .LVU204
 628              		.loc 1 639 6 is_stmt 0 view .LVU205
 629 0030 2EB1     		cbz	r6, .L27
 640:Middlewares/Third_Party/SEGGER/RTT/SEGGER_RTT.c ****     pRing->RdOff = RdOff;
 630              		.loc 1 640 5 is_stmt 1 view .LVU206
 631              		.loc 1 640 18 is_stmt 0 view .LVU207
 632 0032 04EB4404 		add	r4, r4, r4, lsl #1
 633              	.LVL65:
 634              		.loc 1 640 18 view .LVU208
 635 0036 1D4B     		ldr	r3, .L38
 636 0038 03EBC403 		add	r3, r3, r4, lsl #3
 637 003c 9F62     		str	r7, [r3, #40]
 641:Middlewares/Third_Party/SEGGER/RTT/SEGGER_RTT.c ****   }
 642:Middlewares/Third_Party/SEGGER/RTT/SEGGER_RTT.c ****   //
 643:Middlewares/Third_Party/SEGGER/RTT/SEGGER_RTT.c ****   return NumBytesRead;
 638              		.loc 1 643 3 is_stmt 1 view .LVU209
ARM GAS  C:\Users\Administrator\AppData\Local\Temp\ccUGyMKj.s 			page 26


 639              	.L27:
 644:Middlewares/Third_Party/SEGGER/RTT/SEGGER_RTT.c **** }
 640              		.loc 1 644 1 is_stmt 0 view .LVU210
 641 003e 3046     		mov	r0, r6
 642 0040 03B0     		add	sp, sp, #12
 643              		.cfi_remember_state
 644              		.cfi_def_cfa_offset 28
 645              		@ sp needed
 646 0042 BDE8F083 		pop	{r4, r5, r6, r7, r8, r9, pc}
 647              	.LVL66:
 648              	.L35:
 649              		.cfi_restore_state
 650              	.LBB3:
 580:Middlewares/Third_Party/SEGGER/RTT/SEGGER_RTT.c ****   pRing = (SEGGER_RTT_BUFFER_UP*)((char*)&_SEGGER_RTT.aUp[BufferIndex] + SEGGER_RTT_UNCACHED_OFF); 
 651              		.loc 1 580 3 is_stmt 1 discriminator 1 view .LVU211
 652 0046 FFF7FEFF 		bl	_DoInit
 653              	.LVL67:
 580:Middlewares/Third_Party/SEGGER/RTT/SEGGER_RTT.c ****   pRing = (SEGGER_RTT_BUFFER_UP*)((char*)&_SEGGER_RTT.aUp[BufferIndex] + SEGGER_RTT_UNCACHED_OFF); 
 654              		.loc 1 580 3 is_stmt 0 discriminator 1 view .LVU212
 655 004a E2E7     		b	.L28
 656              	.LVL68:
 657              	.L36:
 580:Middlewares/Third_Party/SEGGER/RTT/SEGGER_RTT.c ****   pRing = (SEGGER_RTT_BUFFER_UP*)((char*)&_SEGGER_RTT.aUp[BufferIndex] + SEGGER_RTT_UNCACHED_OFF); 
 658              		.loc 1 580 3 discriminator 1 view .LVU213
 659              	.LBE3:
 590:Middlewares/Third_Party/SEGGER/RTT/SEGGER_RTT.c ****     NumBytesRem = MIN(NumBytesRem, BufferSize);
 660              		.loc 1 590 5 is_stmt 1 view .LVU214
 590:Middlewares/Third_Party/SEGGER/RTT/SEGGER_RTT.c ****     NumBytesRem = MIN(NumBytesRem, BufferSize);
 661              		.loc 1 590 24 is_stmt 0 view .LVU215
 662 004c 174B     		ldr	r3, .L38
 663 004e 03EBC202 		add	r2, r3, r2, lsl #3
 664 0052 0192     		str	r2, [sp, #4]
 665 0054 166A     		ldr	r6, [r2, #32]
 590:Middlewares/Third_Party/SEGGER/RTT/SEGGER_RTT.c ****     NumBytesRem = MIN(NumBytesRem, BufferSize);
 666              		.loc 1 590 17 view .LVU216
 667 0056 F61B     		subs	r6, r6, r7
 668              	.LVL69:
 591:Middlewares/Third_Party/SEGGER/RTT/SEGGER_RTT.c ****     pSrc = (pRing->pBuffer + RdOff) + SEGGER_RTT_UNCACHED_OFF;
 669              		.loc 1 591 5 is_stmt 1 view .LVU217
 591:Middlewares/Third_Party/SEGGER/RTT/SEGGER_RTT.c ****     pSrc = (pRing->pBuffer + RdOff) + SEGGER_RTT_UNCACHED_OFF;
 670              		.loc 1 591 17 is_stmt 0 view .LVU218
 671 0058 4645     		cmp	r6, r8
 672 005a 28BF     		it	cs
 673 005c 4646     		movcs	r6, r8
 674              	.LVL70:
 592:Middlewares/Third_Party/SEGGER/RTT/SEGGER_RTT.c **** #if SEGGER_RTT_MEMCPY_USE_BYTELOOP
 675              		.loc 1 592 5 is_stmt 1 view .LVU219
 592:Middlewares/Third_Party/SEGGER/RTT/SEGGER_RTT.c **** #if SEGGER_RTT_MEMCPY_USE_BYTELOOP
 676              		.loc 1 592 18 is_stmt 0 view .LVU220
 677 005e 621C     		adds	r2, r4, #1
 678 0060 02EB4202 		add	r2, r2, r2, lsl #1
 679 0064 03EBC203 		add	r3, r3, r2, lsl #3
 680 0068 5968     		ldr	r1, [r3, #4]
 681              	.LVL71:
 601:Middlewares/Third_Party/SEGGER/RTT/SEGGER_RTT.c ****     NumBytesRead += NumBytesRem;
 682              		.loc 1 601 5 is_stmt 1 view .LVU221
 683 006a 3246     		mov	r2, r6
ARM GAS  C:\Users\Administrator\AppData\Local\Temp\ccUGyMKj.s 			page 27


 684 006c 3944     		add	r1, r1, r7
 685              	.LVL72:
 601:Middlewares/Third_Party/SEGGER/RTT/SEGGER_RTT.c ****     NumBytesRead += NumBytesRem;
 686              		.loc 1 601 5 is_stmt 0 view .LVU222
 687 006e 4846     		mov	r0, r9
 688 0070 FFF7FEFF 		bl	memcpy
 689              	.LVL73:
 602:Middlewares/Third_Party/SEGGER/RTT/SEGGER_RTT.c ****     pBuffer      += NumBytesRem;
 690              		.loc 1 602 5 is_stmt 1 view .LVU223
 603:Middlewares/Third_Party/SEGGER/RTT/SEGGER_RTT.c ****     BufferSize   -= NumBytesRem;
 691              		.loc 1 603 5 view .LVU224
 603:Middlewares/Third_Party/SEGGER/RTT/SEGGER_RTT.c ****     BufferSize   -= NumBytesRem;
 692              		.loc 1 603 18 is_stmt 0 view .LVU225
 693 0074 4B46     		mov	r3, r9
 694 0076 3344     		add	r3, r3, r6
 695              	.LVL74:
 603:Middlewares/Third_Party/SEGGER/RTT/SEGGER_RTT.c ****     BufferSize   -= NumBytesRem;
 696              		.loc 1 603 18 view .LVU226
 697 0078 9946     		mov	r9, r3
 698              	.LVL75:
 604:Middlewares/Third_Party/SEGGER/RTT/SEGGER_RTT.c ****     RdOff        += NumBytesRem;
 699              		.loc 1 604 5 is_stmt 1 view .LVU227
 604:Middlewares/Third_Party/SEGGER/RTT/SEGGER_RTT.c ****     RdOff        += NumBytesRem;
 700              		.loc 1 604 18 is_stmt 0 view .LVU228
 701 007a A8EB0608 		sub	r8, r8, r6
 702              	.LVL76:
 605:Middlewares/Third_Party/SEGGER/RTT/SEGGER_RTT.c **** #endif
 703              		.loc 1 605 5 is_stmt 1 view .LVU229
 605:Middlewares/Third_Party/SEGGER/RTT/SEGGER_RTT.c **** #endif
 704              		.loc 1 605 18 is_stmt 0 view .LVU230
 705 007e 3744     		add	r7, r7, r6
 706              	.LVL77:
 610:Middlewares/Third_Party/SEGGER/RTT/SEGGER_RTT.c ****       RdOff = 0u;
 707              		.loc 1 610 5 is_stmt 1 view .LVU231
 610:Middlewares/Third_Party/SEGGER/RTT/SEGGER_RTT.c ****       RdOff = 0u;
 708              		.loc 1 610 23 is_stmt 0 view .LVU232
 709 0080 019A     		ldr	r2, [sp, #4]
 710 0082 136A     		ldr	r3, [r2, #32]
 711              	.LVL78:
 610:Middlewares/Third_Party/SEGGER/RTT/SEGGER_RTT.c ****       RdOff = 0u;
 712              		.loc 1 610 8 view .LVU233
 713 0084 BB42     		cmp	r3, r7
 714 0086 CED1     		bne	.L29
 611:Middlewares/Third_Party/SEGGER/RTT/SEGGER_RTT.c ****     }
 715              		.loc 1 611 13 view .LVU234
 716 0088 0027     		movs	r7, #0
 717              	.LVL79:
 611:Middlewares/Third_Party/SEGGER/RTT/SEGGER_RTT.c ****     }
 718              		.loc 1 611 13 view .LVU235
 719 008a CCE7     		b	.L29
 720              	.LVL80:
 721              	.L37:
 620:Middlewares/Third_Party/SEGGER/RTT/SEGGER_RTT.c **** #if SEGGER_RTT_MEMCPY_USE_BYTELOOP
 722              		.loc 1 620 5 is_stmt 1 view .LVU236
 620:Middlewares/Third_Party/SEGGER/RTT/SEGGER_RTT.c **** #if SEGGER_RTT_MEMCPY_USE_BYTELOOP
 723              		.loc 1 620 18 is_stmt 0 view .LVU237
 724 008c 631C     		adds	r3, r4, #1
ARM GAS  C:\Users\Administrator\AppData\Local\Temp\ccUGyMKj.s 			page 28


 725 008e 03EB4303 		add	r3, r3, r3, lsl #1
 726 0092 064A     		ldr	r2, .L38
 727 0094 02EBC303 		add	r3, r2, r3, lsl #3
 728 0098 5968     		ldr	r1, [r3, #4]
 729              	.LVL81:
 629:Middlewares/Third_Party/SEGGER/RTT/SEGGER_RTT.c ****     NumBytesRead += NumBytesRem;
 730              		.loc 1 629 5 is_stmt 1 view .LVU238
 731 009a 2A46     		mov	r2, r5
 732 009c 3944     		add	r1, r1, r7
 733              	.LVL82:
 629:Middlewares/Third_Party/SEGGER/RTT/SEGGER_RTT.c ****     NumBytesRead += NumBytesRem;
 734              		.loc 1 629 5 is_stmt 0 view .LVU239
 735 009e 4846     		mov	r0, r9
 736 00a0 FFF7FEFF 		bl	memcpy
 737              	.LVL83:
 630:Middlewares/Third_Party/SEGGER/RTT/SEGGER_RTT.c ****     pBuffer      += NumBytesRem;
 738              		.loc 1 630 5 is_stmt 1 view .LVU240
 630:Middlewares/Third_Party/SEGGER/RTT/SEGGER_RTT.c ****     pBuffer      += NumBytesRem;
 739              		.loc 1 630 18 is_stmt 0 view .LVU241
 740 00a4 2E44     		add	r6, r6, r5
 741              	.LVL84:
 631:Middlewares/Third_Party/SEGGER/RTT/SEGGER_RTT.c ****     BufferSize   -= NumBytesRem;
 742              		.loc 1 631 5 is_stmt 1 view .LVU242
 632:Middlewares/Third_Party/SEGGER/RTT/SEGGER_RTT.c ****     RdOff        += NumBytesRem;
 743              		.loc 1 632 5 view .LVU243
 633:Middlewares/Third_Party/SEGGER/RTT/SEGGER_RTT.c **** #endif
 744              		.loc 1 633 5 view .LVU244
 633:Middlewares/Third_Party/SEGGER/RTT/SEGGER_RTT.c **** #endif
 745              		.loc 1 633 18 is_stmt 0 view .LVU245
 746 00a6 2F44     		add	r7, r7, r5
 747              	.LVL85:
 633:Middlewares/Third_Party/SEGGER/RTT/SEGGER_RTT.c **** #endif
 748              		.loc 1 633 18 view .LVU246
 749 00a8 C2E7     		b	.L30
 750              	.L39:
 751 00aa 00BF     		.align	2
 752              	.L38:
 753 00ac 00000000 		.word	_SEGGER_RTT
 754              		.cfi_endproc
 755              	.LFE5:
 757              		.section	.text.SEGGER_RTT_ReadNoLock,"ax",%progbits
 758              		.align	1
 759              		.global	SEGGER_RTT_ReadNoLock
 760              		.syntax unified
 761              		.thumb
 762              		.thumb_func
 764              	SEGGER_RTT_ReadNoLock:
 765              	.LVL86:
 766              	.LFB6:
 645:Middlewares/Third_Party/SEGGER/RTT/SEGGER_RTT.c **** 
 646:Middlewares/Third_Party/SEGGER/RTT/SEGGER_RTT.c **** /*********************************************************************
 647:Middlewares/Third_Party/SEGGER/RTT/SEGGER_RTT.c **** *
 648:Middlewares/Third_Party/SEGGER/RTT/SEGGER_RTT.c **** *       SEGGER_RTT_ReadNoLock()
 649:Middlewares/Third_Party/SEGGER/RTT/SEGGER_RTT.c **** *
 650:Middlewares/Third_Party/SEGGER/RTT/SEGGER_RTT.c **** *  Function description
 651:Middlewares/Third_Party/SEGGER/RTT/SEGGER_RTT.c **** *    Reads characters from SEGGER real-time-terminal control block
 652:Middlewares/Third_Party/SEGGER/RTT/SEGGER_RTT.c **** *    which have been previously stored by the host.
ARM GAS  C:\Users\Administrator\AppData\Local\Temp\ccUGyMKj.s 			page 29


 653:Middlewares/Third_Party/SEGGER/RTT/SEGGER_RTT.c **** *    Do not lock against interrupts and multiple access.
 654:Middlewares/Third_Party/SEGGER/RTT/SEGGER_RTT.c **** *
 655:Middlewares/Third_Party/SEGGER/RTT/SEGGER_RTT.c **** *  Parameters
 656:Middlewares/Third_Party/SEGGER/RTT/SEGGER_RTT.c **** *    BufferIndex  Index of Down-buffer to be used (e.g. 0 for "Terminal").
 657:Middlewares/Third_Party/SEGGER/RTT/SEGGER_RTT.c **** *    pBuffer      Pointer to buffer provided by target application, to copy characters from RTT-dow
 658:Middlewares/Third_Party/SEGGER/RTT/SEGGER_RTT.c **** *    BufferSize   Size of the target application buffer.
 659:Middlewares/Third_Party/SEGGER/RTT/SEGGER_RTT.c **** *
 660:Middlewares/Third_Party/SEGGER/RTT/SEGGER_RTT.c **** *  Return value
 661:Middlewares/Third_Party/SEGGER/RTT/SEGGER_RTT.c **** *    Number of bytes that have been read.
 662:Middlewares/Third_Party/SEGGER/RTT/SEGGER_RTT.c **** */
 663:Middlewares/Third_Party/SEGGER/RTT/SEGGER_RTT.c **** unsigned SEGGER_RTT_ReadNoLock(unsigned BufferIndex, void* pData, unsigned BufferSize) {
 767              		.loc 1 663 88 is_stmt 1 view -0
 768              		.cfi_startproc
 769              		@ args = 0, pretend = 0, frame = 0
 770              		@ frame_needed = 0, uses_anonymous_args = 0
 771              		.loc 1 663 88 is_stmt 0 view .LVU248
 772 0000 2DE9F047 		push	{r4, r5, r6, r7, r8, r9, r10, lr}
 773              		.cfi_def_cfa_offset 32
 774              		.cfi_offset 4, -32
 775              		.cfi_offset 5, -28
 776              		.cfi_offset 6, -24
 777              		.cfi_offset 7, -20
 778              		.cfi_offset 8, -16
 779              		.cfi_offset 9, -12
 780              		.cfi_offset 10, -8
 781              		.cfi_offset 14, -4
 782 0004 0446     		mov	r4, r0
 783 0006 8A46     		mov	r10, r1
 784 0008 9046     		mov	r8, r2
 664:Middlewares/Third_Party/SEGGER/RTT/SEGGER_RTT.c ****   unsigned                NumBytesRem;
 785              		.loc 1 664 3 is_stmt 1 view .LVU249
 665:Middlewares/Third_Party/SEGGER/RTT/SEGGER_RTT.c ****   unsigned                NumBytesRead;
 786              		.loc 1 665 3 view .LVU250
 666:Middlewares/Third_Party/SEGGER/RTT/SEGGER_RTT.c ****   unsigned                RdOff;
 787              		.loc 1 666 3 view .LVU251
 667:Middlewares/Third_Party/SEGGER/RTT/SEGGER_RTT.c ****   unsigned                WrOff;
 788              		.loc 1 667 3 view .LVU252
 668:Middlewares/Third_Party/SEGGER/RTT/SEGGER_RTT.c ****   unsigned char*          pBuffer;
 789              		.loc 1 668 3 view .LVU253
 669:Middlewares/Third_Party/SEGGER/RTT/SEGGER_RTT.c ****   SEGGER_RTT_BUFFER_DOWN* pRing;
 790              		.loc 1 669 3 view .LVU254
 670:Middlewares/Third_Party/SEGGER/RTT/SEGGER_RTT.c ****   volatile char*          pSrc;
 791              		.loc 1 670 3 view .LVU255
 792              	.LBB4:
 671:Middlewares/Third_Party/SEGGER/RTT/SEGGER_RTT.c ****   //
 672:Middlewares/Third_Party/SEGGER/RTT/SEGGER_RTT.c ****   INIT();
 793              		.loc 1 672 3 view .LVU256
 794              		.loc 1 672 3 view .LVU257
 795              	.LVL87:
 796              		.loc 1 672 3 view .LVU258
 797              		.loc 1 672 3 view .LVU259
 798 000a 254B     		ldr	r3, .L51
 799 000c 1B78     		ldrb	r3, [r3]	@ zero_extendqisi2
 800 000e C3B1     		cbz	r3, .L48
 801              	.LVL88:
 802              	.L41:
 803              		.loc 1 672 3 view .LVU260
ARM GAS  C:\Users\Administrator\AppData\Local\Temp\ccUGyMKj.s 			page 30


 804              	.LBE4:
 805              		.loc 1 672 9 view .LVU261
 673:Middlewares/Third_Party/SEGGER/RTT/SEGGER_RTT.c ****   pRing = (SEGGER_RTT_BUFFER_DOWN*)((char*)&_SEGGER_RTT.aDown[BufferIndex] + SEGGER_RTT_UNCACHED_OF
 806              		.loc 1 673 3 view .LVU262
 674:Middlewares/Third_Party/SEGGER/RTT/SEGGER_RTT.c ****   pBuffer = (unsigned char*)pData;
 807              		.loc 1 674 3 view .LVU263
 675:Middlewares/Third_Party/SEGGER/RTT/SEGGER_RTT.c ****   RdOff = pRing->RdOff;
 808              		.loc 1 675 3 view .LVU264
 809              		.loc 1 675 9 is_stmt 0 view .LVU265
 810 0010 04EB4402 		add	r2, r4, r4, lsl #1
 811 0014 224B     		ldr	r3, .L51
 812 0016 03EBC203 		add	r3, r3, r2, lsl #3
 813 001a 1F6F     		ldr	r7, [r3, #112]
 814              	.LVL89:
 676:Middlewares/Third_Party/SEGGER/RTT/SEGGER_RTT.c ****   WrOff = pRing->WrOff;
 815              		.loc 1 676 3 is_stmt 1 view .LVU266
 816              		.loc 1 676 9 is_stmt 0 view .LVU267
 817 001c DD6E     		ldr	r5, [r3, #108]
 818              	.LVL90:
 677:Middlewares/Third_Party/SEGGER/RTT/SEGGER_RTT.c ****   NumBytesRead = 0u;
 819              		.loc 1 677 3 is_stmt 1 view .LVU268
 678:Middlewares/Third_Party/SEGGER/RTT/SEGGER_RTT.c ****   //
 679:Middlewares/Third_Party/SEGGER/RTT/SEGGER_RTT.c ****   // Read from current read position to wrap-around of buffer, first
 680:Middlewares/Third_Party/SEGGER/RTT/SEGGER_RTT.c ****   //
 681:Middlewares/Third_Party/SEGGER/RTT/SEGGER_RTT.c ****   if (RdOff > WrOff) {
 820              		.loc 1 681 3 view .LVU269
 821              		.loc 1 681 6 is_stmt 0 view .LVU270
 822 001e AF42     		cmp	r7, r5
 823 0020 12D8     		bhi	.L49
 677:Middlewares/Third_Party/SEGGER/RTT/SEGGER_RTT.c ****   NumBytesRead = 0u;
 824              		.loc 1 677 16 view .LVU271
 825 0022 0026     		movs	r6, #0
 826              	.LVL91:
 827              	.L42:
 682:Middlewares/Third_Party/SEGGER/RTT/SEGGER_RTT.c ****     NumBytesRem = pRing->SizeOfBuffer - RdOff;
 683:Middlewares/Third_Party/SEGGER/RTT/SEGGER_RTT.c ****     NumBytesRem = MIN(NumBytesRem, BufferSize);
 684:Middlewares/Third_Party/SEGGER/RTT/SEGGER_RTT.c ****     pSrc = (pRing->pBuffer + RdOff) + SEGGER_RTT_UNCACHED_OFF;
 685:Middlewares/Third_Party/SEGGER/RTT/SEGGER_RTT.c **** #if SEGGER_RTT_MEMCPY_USE_BYTELOOP
 686:Middlewares/Third_Party/SEGGER/RTT/SEGGER_RTT.c ****     NumBytesRead += NumBytesRem;
 687:Middlewares/Third_Party/SEGGER/RTT/SEGGER_RTT.c ****     BufferSize   -= NumBytesRem;
 688:Middlewares/Third_Party/SEGGER/RTT/SEGGER_RTT.c ****     RdOff        += NumBytesRem;
 689:Middlewares/Third_Party/SEGGER/RTT/SEGGER_RTT.c ****     while (NumBytesRem--) {
 690:Middlewares/Third_Party/SEGGER/RTT/SEGGER_RTT.c ****       *pBuffer++ = *pSrc++;
 691:Middlewares/Third_Party/SEGGER/RTT/SEGGER_RTT.c ****     };
 692:Middlewares/Third_Party/SEGGER/RTT/SEGGER_RTT.c **** #else
 693:Middlewares/Third_Party/SEGGER/RTT/SEGGER_RTT.c ****     SEGGER_RTT_MEMCPY(pBuffer, (void*)pSrc, NumBytesRem);
 694:Middlewares/Third_Party/SEGGER/RTT/SEGGER_RTT.c ****     NumBytesRead += NumBytesRem;
 695:Middlewares/Third_Party/SEGGER/RTT/SEGGER_RTT.c ****     pBuffer      += NumBytesRem;
 696:Middlewares/Third_Party/SEGGER/RTT/SEGGER_RTT.c ****     BufferSize   -= NumBytesRem;
 697:Middlewares/Third_Party/SEGGER/RTT/SEGGER_RTT.c ****     RdOff        += NumBytesRem;
 698:Middlewares/Third_Party/SEGGER/RTT/SEGGER_RTT.c **** #endif
 699:Middlewares/Third_Party/SEGGER/RTT/SEGGER_RTT.c ****     //
 700:Middlewares/Third_Party/SEGGER/RTT/SEGGER_RTT.c ****     // Handle wrap-around of buffer
 701:Middlewares/Third_Party/SEGGER/RTT/SEGGER_RTT.c ****     //
 702:Middlewares/Third_Party/SEGGER/RTT/SEGGER_RTT.c ****     if (RdOff == pRing->SizeOfBuffer) {
 703:Middlewares/Third_Party/SEGGER/RTT/SEGGER_RTT.c ****       RdOff = 0u;
 704:Middlewares/Third_Party/SEGGER/RTT/SEGGER_RTT.c ****     }
ARM GAS  C:\Users\Administrator\AppData\Local\Temp\ccUGyMKj.s 			page 31


 705:Middlewares/Third_Party/SEGGER/RTT/SEGGER_RTT.c ****   }
 706:Middlewares/Third_Party/SEGGER/RTT/SEGGER_RTT.c ****   //
 707:Middlewares/Third_Party/SEGGER/RTT/SEGGER_RTT.c ****   // Read remaining items of buffer
 708:Middlewares/Third_Party/SEGGER/RTT/SEGGER_RTT.c ****   //
 709:Middlewares/Third_Party/SEGGER/RTT/SEGGER_RTT.c ****   NumBytesRem = WrOff - RdOff;
 828              		.loc 1 709 3 is_stmt 1 view .LVU272
 829              		.loc 1 709 15 is_stmt 0 view .LVU273
 830 0024 ED1B     		subs	r5, r5, r7
 831              	.LVL92:
 710:Middlewares/Third_Party/SEGGER/RTT/SEGGER_RTT.c ****   NumBytesRem = MIN(NumBytesRem, BufferSize);
 832              		.loc 1 710 3 is_stmt 1 view .LVU274
 833              		.loc 1 710 15 is_stmt 0 view .LVU275
 834 0026 4545     		cmp	r5, r8
 835 0028 28BF     		it	cs
 836 002a 4546     		movcs	r5, r8
 837              	.LVL93:
 711:Middlewares/Third_Party/SEGGER/RTT/SEGGER_RTT.c ****   if (NumBytesRem > 0u) {
 838              		.loc 1 711 3 is_stmt 1 view .LVU276
 839              		.loc 1 711 6 is_stmt 0 view .LVU277
 840 002c 4DBB     		cbnz	r5, .L50
 841              	.LVL94:
 842              	.L43:
 712:Middlewares/Third_Party/SEGGER/RTT/SEGGER_RTT.c ****     pSrc = (pRing->pBuffer + RdOff) + SEGGER_RTT_UNCACHED_OFF;
 713:Middlewares/Third_Party/SEGGER/RTT/SEGGER_RTT.c **** #if SEGGER_RTT_MEMCPY_USE_BYTELOOP
 714:Middlewares/Third_Party/SEGGER/RTT/SEGGER_RTT.c ****     NumBytesRead += NumBytesRem;
 715:Middlewares/Third_Party/SEGGER/RTT/SEGGER_RTT.c ****     BufferSize   -= NumBytesRem;
 716:Middlewares/Third_Party/SEGGER/RTT/SEGGER_RTT.c ****     RdOff        += NumBytesRem;
 717:Middlewares/Third_Party/SEGGER/RTT/SEGGER_RTT.c ****     while (NumBytesRem--) {
 718:Middlewares/Third_Party/SEGGER/RTT/SEGGER_RTT.c ****       *pBuffer++ = *pSrc++;
 719:Middlewares/Third_Party/SEGGER/RTT/SEGGER_RTT.c ****     };
 720:Middlewares/Third_Party/SEGGER/RTT/SEGGER_RTT.c **** #else
 721:Middlewares/Third_Party/SEGGER/RTT/SEGGER_RTT.c ****     SEGGER_RTT_MEMCPY(pBuffer, (void*)pSrc, NumBytesRem);
 722:Middlewares/Third_Party/SEGGER/RTT/SEGGER_RTT.c ****     NumBytesRead += NumBytesRem;
 723:Middlewares/Third_Party/SEGGER/RTT/SEGGER_RTT.c ****     pBuffer      += NumBytesRem;
 724:Middlewares/Third_Party/SEGGER/RTT/SEGGER_RTT.c ****     BufferSize   -= NumBytesRem;
 725:Middlewares/Third_Party/SEGGER/RTT/SEGGER_RTT.c ****     RdOff        += NumBytesRem;
 726:Middlewares/Third_Party/SEGGER/RTT/SEGGER_RTT.c **** #endif
 727:Middlewares/Third_Party/SEGGER/RTT/SEGGER_RTT.c ****   }
 728:Middlewares/Third_Party/SEGGER/RTT/SEGGER_RTT.c ****   if (NumBytesRead) {
 843              		.loc 1 728 3 is_stmt 1 view .LVU278
 844              		.loc 1 728 6 is_stmt 0 view .LVU279
 845 002e 2EB1     		cbz	r6, .L40
 729:Middlewares/Third_Party/SEGGER/RTT/SEGGER_RTT.c ****     pRing->RdOff = RdOff;
 846              		.loc 1 729 5 is_stmt 1 view .LVU280
 847              		.loc 1 729 18 is_stmt 0 view .LVU281
 848 0030 04EB4404 		add	r4, r4, r4, lsl #1
 849              	.LVL95:
 850              		.loc 1 729 18 view .LVU282
 851 0034 1A4B     		ldr	r3, .L51
 852 0036 03EBC403 		add	r3, r3, r4, lsl #3
 853 003a 1F67     		str	r7, [r3, #112]
 730:Middlewares/Third_Party/SEGGER/RTT/SEGGER_RTT.c ****   }
 731:Middlewares/Third_Party/SEGGER/RTT/SEGGER_RTT.c ****   //
 732:Middlewares/Third_Party/SEGGER/RTT/SEGGER_RTT.c ****   return NumBytesRead;
 854              		.loc 1 732 3 is_stmt 1 view .LVU283
 855              	.L40:
 733:Middlewares/Third_Party/SEGGER/RTT/SEGGER_RTT.c **** }
ARM GAS  C:\Users\Administrator\AppData\Local\Temp\ccUGyMKj.s 			page 32


 856              		.loc 1 733 1 is_stmt 0 view .LVU284
 857 003c 3046     		mov	r0, r6
 858 003e BDE8F087 		pop	{r4, r5, r6, r7, r8, r9, r10, pc}
 859              	.LVL96:
 860              	.L48:
 861              	.LBB5:
 672:Middlewares/Third_Party/SEGGER/RTT/SEGGER_RTT.c ****   pRing = (SEGGER_RTT_BUFFER_DOWN*)((char*)&_SEGGER_RTT.aDown[BufferIndex] + SEGGER_RTT_UNCACHED_OF
 862              		.loc 1 672 3 is_stmt 1 discriminator 1 view .LVU285
 863 0042 FFF7FEFF 		bl	_DoInit
 864              	.LVL97:
 672:Middlewares/Third_Party/SEGGER/RTT/SEGGER_RTT.c ****   pRing = (SEGGER_RTT_BUFFER_DOWN*)((char*)&_SEGGER_RTT.aDown[BufferIndex] + SEGGER_RTT_UNCACHED_OF
 865              		.loc 1 672 3 is_stmt 0 discriminator 1 view .LVU286
 866 0046 E3E7     		b	.L41
 867              	.LVL98:
 868              	.L49:
 672:Middlewares/Third_Party/SEGGER/RTT/SEGGER_RTT.c ****   pRing = (SEGGER_RTT_BUFFER_DOWN*)((char*)&_SEGGER_RTT.aDown[BufferIndex] + SEGGER_RTT_UNCACHED_OF
 869              		.loc 1 672 3 discriminator 1 view .LVU287
 870              	.LBE5:
 682:Middlewares/Third_Party/SEGGER/RTT/SEGGER_RTT.c ****     NumBytesRem = MIN(NumBytesRem, BufferSize);
 871              		.loc 1 682 5 is_stmt 1 view .LVU288
 682:Middlewares/Third_Party/SEGGER/RTT/SEGGER_RTT.c ****     NumBytesRem = MIN(NumBytesRem, BufferSize);
 872              		.loc 1 682 24 is_stmt 0 view .LVU289
 873 0048 1346     		mov	r3, r2
 874 004a 154A     		ldr	r2, .L51
 875 004c 02EBC309 		add	r9, r2, r3, lsl #3
 876 0050 D9F86860 		ldr	r6, [r9, #104]
 682:Middlewares/Third_Party/SEGGER/RTT/SEGGER_RTT.c ****     NumBytesRem = MIN(NumBytesRem, BufferSize);
 877              		.loc 1 682 17 view .LVU290
 878 0054 F61B     		subs	r6, r6, r7
 879              	.LVL99:
 683:Middlewares/Third_Party/SEGGER/RTT/SEGGER_RTT.c ****     pSrc = (pRing->pBuffer + RdOff) + SEGGER_RTT_UNCACHED_OFF;
 880              		.loc 1 683 5 is_stmt 1 view .LVU291
 683:Middlewares/Third_Party/SEGGER/RTT/SEGGER_RTT.c ****     pSrc = (pRing->pBuffer + RdOff) + SEGGER_RTT_UNCACHED_OFF;
 881              		.loc 1 683 17 is_stmt 0 view .LVU292
 882 0056 4645     		cmp	r6, r8
 883 0058 28BF     		it	cs
 884 005a 4646     		movcs	r6, r8
 885              	.LVL100:
 684:Middlewares/Third_Party/SEGGER/RTT/SEGGER_RTT.c **** #if SEGGER_RTT_MEMCPY_USE_BYTELOOP
 886              		.loc 1 684 5 is_stmt 1 view .LVU293
 684:Middlewares/Third_Party/SEGGER/RTT/SEGGER_RTT.c **** #if SEGGER_RTT_MEMCPY_USE_BYTELOOP
 887              		.loc 1 684 18 is_stmt 0 view .LVU294
 888 005c D9F86410 		ldr	r1, [r9, #100]
 889              	.LVL101:
 693:Middlewares/Third_Party/SEGGER/RTT/SEGGER_RTT.c ****     NumBytesRead += NumBytesRem;
 890              		.loc 1 693 5 is_stmt 1 view .LVU295
 891 0060 3246     		mov	r2, r6
 892 0062 3944     		add	r1, r1, r7
 893              	.LVL102:
 693:Middlewares/Third_Party/SEGGER/RTT/SEGGER_RTT.c ****     NumBytesRead += NumBytesRem;
 894              		.loc 1 693 5 is_stmt 0 view .LVU296
 895 0064 5046     		mov	r0, r10
 896 0066 FFF7FEFF 		bl	memcpy
 897              	.LVL103:
 694:Middlewares/Third_Party/SEGGER/RTT/SEGGER_RTT.c ****     pBuffer      += NumBytesRem;
 898              		.loc 1 694 5 is_stmt 1 view .LVU297
 695:Middlewares/Third_Party/SEGGER/RTT/SEGGER_RTT.c ****     BufferSize   -= NumBytesRem;
ARM GAS  C:\Users\Administrator\AppData\Local\Temp\ccUGyMKj.s 			page 33


 899              		.loc 1 695 5 view .LVU298
 695:Middlewares/Third_Party/SEGGER/RTT/SEGGER_RTT.c ****     BufferSize   -= NumBytesRem;
 900              		.loc 1 695 18 is_stmt 0 view .LVU299
 901 006a 5346     		mov	r3, r10
 902 006c 3344     		add	r3, r3, r6
 903              	.LVL104:
 695:Middlewares/Third_Party/SEGGER/RTT/SEGGER_RTT.c ****     BufferSize   -= NumBytesRem;
 904              		.loc 1 695 18 view .LVU300
 905 006e 9A46     		mov	r10, r3
 906              	.LVL105:
 696:Middlewares/Third_Party/SEGGER/RTT/SEGGER_RTT.c ****     RdOff        += NumBytesRem;
 907              		.loc 1 696 5 is_stmt 1 view .LVU301
 696:Middlewares/Third_Party/SEGGER/RTT/SEGGER_RTT.c ****     RdOff        += NumBytesRem;
 908              		.loc 1 696 18 is_stmt 0 view .LVU302
 909 0070 A8EB0608 		sub	r8, r8, r6
 910              	.LVL106:
 697:Middlewares/Third_Party/SEGGER/RTT/SEGGER_RTT.c **** #endif
 911              		.loc 1 697 5 is_stmt 1 view .LVU303
 697:Middlewares/Third_Party/SEGGER/RTT/SEGGER_RTT.c **** #endif
 912              		.loc 1 697 18 is_stmt 0 view .LVU304
 913 0074 3744     		add	r7, r7, r6
 914              	.LVL107:
 702:Middlewares/Third_Party/SEGGER/RTT/SEGGER_RTT.c ****       RdOff = 0u;
 915              		.loc 1 702 5 is_stmt 1 view .LVU305
 702:Middlewares/Third_Party/SEGGER/RTT/SEGGER_RTT.c ****       RdOff = 0u;
 916              		.loc 1 702 23 is_stmt 0 view .LVU306
 917 0076 D9F86830 		ldr	r3, [r9, #104]
 918              	.LVL108:
 702:Middlewares/Third_Party/SEGGER/RTT/SEGGER_RTT.c ****       RdOff = 0u;
 919              		.loc 1 702 8 view .LVU307
 920 007a BB42     		cmp	r3, r7
 921 007c D2D1     		bne	.L42
 703:Middlewares/Third_Party/SEGGER/RTT/SEGGER_RTT.c ****     }
 922              		.loc 1 703 13 view .LVU308
 923 007e 0027     		movs	r7, #0
 924              	.LVL109:
 703:Middlewares/Third_Party/SEGGER/RTT/SEGGER_RTT.c ****     }
 925              		.loc 1 703 13 view .LVU309
 926 0080 D0E7     		b	.L42
 927              	.LVL110:
 928              	.L50:
 712:Middlewares/Third_Party/SEGGER/RTT/SEGGER_RTT.c **** #if SEGGER_RTT_MEMCPY_USE_BYTELOOP
 929              		.loc 1 712 5 is_stmt 1 view .LVU310
 712:Middlewares/Third_Party/SEGGER/RTT/SEGGER_RTT.c **** #if SEGGER_RTT_MEMCPY_USE_BYTELOOP
 930              		.loc 1 712 18 is_stmt 0 view .LVU311
 931 0082 04EB4402 		add	r2, r4, r4, lsl #1
 932 0086 064B     		ldr	r3, .L51
 933 0088 03EBC203 		add	r3, r3, r2, lsl #3
 934 008c 596E     		ldr	r1, [r3, #100]
 935              	.LVL111:
 721:Middlewares/Third_Party/SEGGER/RTT/SEGGER_RTT.c ****     NumBytesRead += NumBytesRem;
 936              		.loc 1 721 5 is_stmt 1 view .LVU312
 937 008e 2A46     		mov	r2, r5
 938 0090 3944     		add	r1, r1, r7
 939              	.LVL112:
 721:Middlewares/Third_Party/SEGGER/RTT/SEGGER_RTT.c ****     NumBytesRead += NumBytesRem;
 940              		.loc 1 721 5 is_stmt 0 view .LVU313
ARM GAS  C:\Users\Administrator\AppData\Local\Temp\ccUGyMKj.s 			page 34


 941 0092 5046     		mov	r0, r10
 942 0094 FFF7FEFF 		bl	memcpy
 943              	.LVL113:
 722:Middlewares/Third_Party/SEGGER/RTT/SEGGER_RTT.c ****     pBuffer      += NumBytesRem;
 944              		.loc 1 722 5 is_stmt 1 view .LVU314
 722:Middlewares/Third_Party/SEGGER/RTT/SEGGER_RTT.c ****     pBuffer      += NumBytesRem;
 945              		.loc 1 722 18 is_stmt 0 view .LVU315
 946 0098 2E44     		add	r6, r6, r5
 947              	.LVL114:
 723:Middlewares/Third_Party/SEGGER/RTT/SEGGER_RTT.c ****     BufferSize   -= NumBytesRem;
 948              		.loc 1 723 5 is_stmt 1 view .LVU316
 724:Middlewares/Third_Party/SEGGER/RTT/SEGGER_RTT.c ****     RdOff        += NumBytesRem;
 949              		.loc 1 724 5 view .LVU317
 725:Middlewares/Third_Party/SEGGER/RTT/SEGGER_RTT.c **** #endif
 950              		.loc 1 725 5 view .LVU318
 725:Middlewares/Third_Party/SEGGER/RTT/SEGGER_RTT.c **** #endif
 951              		.loc 1 725 18 is_stmt 0 view .LVU319
 952 009a 2F44     		add	r7, r7, r5
 953              	.LVL115:
 725:Middlewares/Third_Party/SEGGER/RTT/SEGGER_RTT.c **** #endif
 954              		.loc 1 725 18 view .LVU320
 955 009c C7E7     		b	.L43
 956              	.L52:
 957 009e 00BF     		.align	2
 958              	.L51:
 959 00a0 00000000 		.word	_SEGGER_RTT
 960              		.cfi_endproc
 961              	.LFE6:
 963              		.section	.text.SEGGER_RTT_ReadUpBuffer,"ax",%progbits
 964              		.align	1
 965              		.global	SEGGER_RTT_ReadUpBuffer
 966              		.syntax unified
 967              		.thumb
 968              		.thumb_func
 970              	SEGGER_RTT_ReadUpBuffer:
 971              	.LVL116:
 972              	.LFB7:
 734:Middlewares/Third_Party/SEGGER/RTT/SEGGER_RTT.c **** 
 735:Middlewares/Third_Party/SEGGER/RTT/SEGGER_RTT.c **** /*********************************************************************
 736:Middlewares/Third_Party/SEGGER/RTT/SEGGER_RTT.c **** *
 737:Middlewares/Third_Party/SEGGER/RTT/SEGGER_RTT.c **** *       SEGGER_RTT_ReadUpBuffer
 738:Middlewares/Third_Party/SEGGER/RTT/SEGGER_RTT.c **** *
 739:Middlewares/Third_Party/SEGGER/RTT/SEGGER_RTT.c **** *  Function description
 740:Middlewares/Third_Party/SEGGER/RTT/SEGGER_RTT.c **** *    Reads characters from SEGGER real-time-terminal control block
 741:Middlewares/Third_Party/SEGGER/RTT/SEGGER_RTT.c **** *    which have been previously stored by the application.
 742:Middlewares/Third_Party/SEGGER/RTT/SEGGER_RTT.c **** *    Used to do the same operation that J-Link does, to transfer 
 743:Middlewares/Third_Party/SEGGER/RTT/SEGGER_RTT.c **** *    RTT data via other channels, such as TCP/IP or UART.
 744:Middlewares/Third_Party/SEGGER/RTT/SEGGER_RTT.c **** *
 745:Middlewares/Third_Party/SEGGER/RTT/SEGGER_RTT.c **** *  Parameters
 746:Middlewares/Third_Party/SEGGER/RTT/SEGGER_RTT.c **** *    BufferIndex  Index of Up-buffer to be used.
 747:Middlewares/Third_Party/SEGGER/RTT/SEGGER_RTT.c **** *    pBuffer      Pointer to buffer provided by target application, to copy characters from RTT-up-
 748:Middlewares/Third_Party/SEGGER/RTT/SEGGER_RTT.c **** *    BufferSize   Size of the target application buffer.
 749:Middlewares/Third_Party/SEGGER/RTT/SEGGER_RTT.c **** *
 750:Middlewares/Third_Party/SEGGER/RTT/SEGGER_RTT.c **** *  Return value
 751:Middlewares/Third_Party/SEGGER/RTT/SEGGER_RTT.c **** *    Number of bytes that have been read.
 752:Middlewares/Third_Party/SEGGER/RTT/SEGGER_RTT.c **** *
 753:Middlewares/Third_Party/SEGGER/RTT/SEGGER_RTT.c **** *  Additional information
ARM GAS  C:\Users\Administrator\AppData\Local\Temp\ccUGyMKj.s 			page 35


 754:Middlewares/Third_Party/SEGGER/RTT/SEGGER_RTT.c **** *    This function must not be called when J-Link might also do RTT.
 755:Middlewares/Third_Party/SEGGER/RTT/SEGGER_RTT.c **** *    This function locks against all other RTT operations. I.e. during
 756:Middlewares/Third_Party/SEGGER/RTT/SEGGER_RTT.c **** *    the read operation, writing is also locked.
 757:Middlewares/Third_Party/SEGGER/RTT/SEGGER_RTT.c **** *    If only one consumer reads from the up buffer, 
 758:Middlewares/Third_Party/SEGGER/RTT/SEGGER_RTT.c **** *    call sEGGER_RTT_ReadUpBufferNoLock() instead.
 759:Middlewares/Third_Party/SEGGER/RTT/SEGGER_RTT.c **** */
 760:Middlewares/Third_Party/SEGGER/RTT/SEGGER_RTT.c **** unsigned SEGGER_RTT_ReadUpBuffer(unsigned BufferIndex, void* pBuffer, unsigned BufferSize) {
 973              		.loc 1 760 92 is_stmt 1 view -0
 974              		.cfi_startproc
 975              		@ args = 0, pretend = 0, frame = 0
 976              		@ frame_needed = 0, uses_anonymous_args = 0
 977              		.loc 1 760 92 is_stmt 0 view .LVU322
 978 0000 10B5     		push	{r4, lr}
 979              		.cfi_def_cfa_offset 8
 980              		.cfi_offset 4, -8
 981              		.cfi_offset 14, -4
 982 0002 0B46     		mov	r3, r1
 761:Middlewares/Third_Party/SEGGER/RTT/SEGGER_RTT.c ****   unsigned NumBytesRead;
 983              		.loc 1 761 3 is_stmt 1 view .LVU323
 984              	.LBB6:
 762:Middlewares/Third_Party/SEGGER/RTT/SEGGER_RTT.c **** 
 763:Middlewares/Third_Party/SEGGER/RTT/SEGGER_RTT.c ****   SEGGER_RTT_LOCK();
 985              		.loc 1 763 3 view .LVU324
 986              		.loc 1 763 3 view .LVU325
 987              		.syntax unified
 988              	@ 763 "Middlewares/Third_Party/SEGGER/RTT/SEGGER_RTT.c" 1
 989 0004 EFF31184 		mrs   r4, basepri  
 990 0008 4FF02001 		mov   r1, #32       
 991 000c 81F31188 		msr   basepri, r1  
 992              		
 993              	@ 0 "" 2
 994              	.LVL117:
 995              		.loc 1 763 20 view .LVU326
 764:Middlewares/Third_Party/SEGGER/RTT/SEGGER_RTT.c ****   //
 765:Middlewares/Third_Party/SEGGER/RTT/SEGGER_RTT.c ****   // Call the non-locking read function
 766:Middlewares/Third_Party/SEGGER/RTT/SEGGER_RTT.c ****   //
 767:Middlewares/Third_Party/SEGGER/RTT/SEGGER_RTT.c ****   NumBytesRead = SEGGER_RTT_ReadUpBufferNoLock(BufferIndex, pBuffer, BufferSize);
 996              		.loc 1 767 3 view .LVU327
 997              		.loc 1 767 18 is_stmt 0 view .LVU328
 998              		.thumb
 999              		.syntax unified
 1000 0010 1946     		mov	r1, r3
 1001 0012 FFF7FEFF 		bl	SEGGER_RTT_ReadUpBufferNoLock
 1002              	.LVL118:
 768:Middlewares/Third_Party/SEGGER/RTT/SEGGER_RTT.c ****   //
 769:Middlewares/Third_Party/SEGGER/RTT/SEGGER_RTT.c ****   // Finish up.
 770:Middlewares/Third_Party/SEGGER/RTT/SEGGER_RTT.c ****   //
 771:Middlewares/Third_Party/SEGGER/RTT/SEGGER_RTT.c ****   SEGGER_RTT_UNLOCK();
 1003              		.loc 1 771 3 is_stmt 1 view .LVU329
 1004              		.syntax unified
 1005              	@ 771 "Middlewares/Third_Party/SEGGER/RTT/SEGGER_RTT.c" 1
 1006 0016 84F31188 		msr   basepri, r4  
 1007              		
 1008              	@ 0 "" 2
 1009              		.thumb
 1010              		.syntax unified
 1011              	.LBE6:
ARM GAS  C:\Users\Administrator\AppData\Local\Temp\ccUGyMKj.s 			page 36


 1012              		.loc 1 771 22 view .LVU330
 772:Middlewares/Third_Party/SEGGER/RTT/SEGGER_RTT.c ****   //
 773:Middlewares/Third_Party/SEGGER/RTT/SEGGER_RTT.c ****   return NumBytesRead;
 1013              		.loc 1 773 3 view .LVU331
 774:Middlewares/Third_Party/SEGGER/RTT/SEGGER_RTT.c **** }
 1014              		.loc 1 774 1 is_stmt 0 view .LVU332
 1015 001a 10BD     		pop	{r4, pc}
 1016              		.loc 1 774 1 view .LVU333
 1017              		.cfi_endproc
 1018              	.LFE7:
 1020              		.section	.text.SEGGER_RTT_Read,"ax",%progbits
 1021              		.align	1
 1022              		.global	SEGGER_RTT_Read
 1023              		.syntax unified
 1024              		.thumb
 1025              		.thumb_func
 1027              	SEGGER_RTT_Read:
 1028              	.LVL119:
 1029              	.LFB8:
 775:Middlewares/Third_Party/SEGGER/RTT/SEGGER_RTT.c **** 
 776:Middlewares/Third_Party/SEGGER/RTT/SEGGER_RTT.c **** /*********************************************************************
 777:Middlewares/Third_Party/SEGGER/RTT/SEGGER_RTT.c **** *
 778:Middlewares/Third_Party/SEGGER/RTT/SEGGER_RTT.c **** *       SEGGER_RTT_Read
 779:Middlewares/Third_Party/SEGGER/RTT/SEGGER_RTT.c **** *
 780:Middlewares/Third_Party/SEGGER/RTT/SEGGER_RTT.c **** *  Function description
 781:Middlewares/Third_Party/SEGGER/RTT/SEGGER_RTT.c **** *    Reads characters from SEGGER real-time-terminal control block
 782:Middlewares/Third_Party/SEGGER/RTT/SEGGER_RTT.c **** *    which have been previously stored by the host.
 783:Middlewares/Third_Party/SEGGER/RTT/SEGGER_RTT.c **** *
 784:Middlewares/Third_Party/SEGGER/RTT/SEGGER_RTT.c **** *  Parameters
 785:Middlewares/Third_Party/SEGGER/RTT/SEGGER_RTT.c **** *    BufferIndex  Index of Down-buffer to be used (e.g. 0 for "Terminal").
 786:Middlewares/Third_Party/SEGGER/RTT/SEGGER_RTT.c **** *    pBuffer      Pointer to buffer provided by target application, to copy characters from RTT-dow
 787:Middlewares/Third_Party/SEGGER/RTT/SEGGER_RTT.c **** *    BufferSize   Size of the target application buffer.
 788:Middlewares/Third_Party/SEGGER/RTT/SEGGER_RTT.c **** *
 789:Middlewares/Third_Party/SEGGER/RTT/SEGGER_RTT.c **** *  Return value
 790:Middlewares/Third_Party/SEGGER/RTT/SEGGER_RTT.c **** *    Number of bytes that have been read.
 791:Middlewares/Third_Party/SEGGER/RTT/SEGGER_RTT.c **** */
 792:Middlewares/Third_Party/SEGGER/RTT/SEGGER_RTT.c **** unsigned SEGGER_RTT_Read(unsigned BufferIndex, void* pBuffer, unsigned BufferSize) {
 1030              		.loc 1 792 84 is_stmt 1 view -0
 1031              		.cfi_startproc
 1032              		@ args = 0, pretend = 0, frame = 0
 1033              		@ frame_needed = 0, uses_anonymous_args = 0
 1034              		.loc 1 792 84 is_stmt 0 view .LVU335
 1035 0000 10B5     		push	{r4, lr}
 1036              		.cfi_def_cfa_offset 8
 1037              		.cfi_offset 4, -8
 1038              		.cfi_offset 14, -4
 1039 0002 0B46     		mov	r3, r1
 793:Middlewares/Third_Party/SEGGER/RTT/SEGGER_RTT.c ****   unsigned NumBytesRead;
 1040              		.loc 1 793 3 is_stmt 1 view .LVU336
 1041              	.LBB7:
 794:Middlewares/Third_Party/SEGGER/RTT/SEGGER_RTT.c **** 
 795:Middlewares/Third_Party/SEGGER/RTT/SEGGER_RTT.c ****   SEGGER_RTT_LOCK();
 1042              		.loc 1 795 3 view .LVU337
 1043              		.loc 1 795 3 view .LVU338
 1044              		.syntax unified
 1045              	@ 795 "Middlewares/Third_Party/SEGGER/RTT/SEGGER_RTT.c" 1
 1046 0004 EFF31184 		mrs   r4, basepri  
ARM GAS  C:\Users\Administrator\AppData\Local\Temp\ccUGyMKj.s 			page 37


 1047 0008 4FF02001 		mov   r1, #32       
 1048 000c 81F31188 		msr   basepri, r1  
 1049              		
 1050              	@ 0 "" 2
 1051              	.LVL120:
 1052              		.loc 1 795 20 view .LVU339
 796:Middlewares/Third_Party/SEGGER/RTT/SEGGER_RTT.c ****   //
 797:Middlewares/Third_Party/SEGGER/RTT/SEGGER_RTT.c ****   // Call the non-locking read function
 798:Middlewares/Third_Party/SEGGER/RTT/SEGGER_RTT.c ****   //
 799:Middlewares/Third_Party/SEGGER/RTT/SEGGER_RTT.c ****   NumBytesRead = SEGGER_RTT_ReadNoLock(BufferIndex, pBuffer, BufferSize);
 1053              		.loc 1 799 3 view .LVU340
 1054              		.loc 1 799 18 is_stmt 0 view .LVU341
 1055              		.thumb
 1056              		.syntax unified
 1057 0010 1946     		mov	r1, r3
 1058 0012 FFF7FEFF 		bl	SEGGER_RTT_ReadNoLock
 1059              	.LVL121:
 800:Middlewares/Third_Party/SEGGER/RTT/SEGGER_RTT.c ****   //
 801:Middlewares/Third_Party/SEGGER/RTT/SEGGER_RTT.c ****   // Finish up.
 802:Middlewares/Third_Party/SEGGER/RTT/SEGGER_RTT.c ****   //
 803:Middlewares/Third_Party/SEGGER/RTT/SEGGER_RTT.c ****   SEGGER_RTT_UNLOCK();
 1060              		.loc 1 803 3 is_stmt 1 view .LVU342
 1061              		.syntax unified
 1062              	@ 803 "Middlewares/Third_Party/SEGGER/RTT/SEGGER_RTT.c" 1
 1063 0016 84F31188 		msr   basepri, r4  
 1064              		
 1065              	@ 0 "" 2
 1066              		.thumb
 1067              		.syntax unified
 1068              	.LBE7:
 1069              		.loc 1 803 22 view .LVU343
 804:Middlewares/Third_Party/SEGGER/RTT/SEGGER_RTT.c ****   //
 805:Middlewares/Third_Party/SEGGER/RTT/SEGGER_RTT.c ****   return NumBytesRead;
 1070              		.loc 1 805 3 view .LVU344
 806:Middlewares/Third_Party/SEGGER/RTT/SEGGER_RTT.c **** }
 1071              		.loc 1 806 1 is_stmt 0 view .LVU345
 1072 001a 10BD     		pop	{r4, pc}
 1073              		.loc 1 806 1 view .LVU346
 1074              		.cfi_endproc
 1075              	.LFE8:
 1077              		.section	.text.SEGGER_RTT_WriteWithOverwriteNoLock,"ax",%progbits
 1078              		.align	1
 1079              		.global	SEGGER_RTT_WriteWithOverwriteNoLock
 1080              		.syntax unified
 1081              		.thumb
 1082              		.thumb_func
 1084              	SEGGER_RTT_WriteWithOverwriteNoLock:
 1085              	.LVL122:
 1086              	.LFB9:
 807:Middlewares/Third_Party/SEGGER/RTT/SEGGER_RTT.c **** 
 808:Middlewares/Third_Party/SEGGER/RTT/SEGGER_RTT.c **** /*********************************************************************
 809:Middlewares/Third_Party/SEGGER/RTT/SEGGER_RTT.c **** *
 810:Middlewares/Third_Party/SEGGER/RTT/SEGGER_RTT.c **** *       SEGGER_RTT_WriteWithOverwriteNoLock
 811:Middlewares/Third_Party/SEGGER/RTT/SEGGER_RTT.c **** *
 812:Middlewares/Third_Party/SEGGER/RTT/SEGGER_RTT.c **** *  Function description
 813:Middlewares/Third_Party/SEGGER/RTT/SEGGER_RTT.c **** *    Stores a specified number of characters in SEGGER RTT
 814:Middlewares/Third_Party/SEGGER/RTT/SEGGER_RTT.c **** *    control block.
ARM GAS  C:\Users\Administrator\AppData\Local\Temp\ccUGyMKj.s 			page 38


 815:Middlewares/Third_Party/SEGGER/RTT/SEGGER_RTT.c **** *    SEGGER_RTT_WriteWithOverwriteNoLock does not lock the application 
 816:Middlewares/Third_Party/SEGGER/RTT/SEGGER_RTT.c **** *    and overwrites data if the data does not fit into the buffer.
 817:Middlewares/Third_Party/SEGGER/RTT/SEGGER_RTT.c **** *
 818:Middlewares/Third_Party/SEGGER/RTT/SEGGER_RTT.c **** *  Parameters
 819:Middlewares/Third_Party/SEGGER/RTT/SEGGER_RTT.c **** *    BufferIndex  Index of "Up"-buffer to be used (e.g. 0 for "Terminal").
 820:Middlewares/Third_Party/SEGGER/RTT/SEGGER_RTT.c **** *    pBuffer      Pointer to character array. Does not need to point to a \0 terminated string.
 821:Middlewares/Third_Party/SEGGER/RTT/SEGGER_RTT.c **** *    NumBytes     Number of bytes to be stored in the SEGGER RTT control block.
 822:Middlewares/Third_Party/SEGGER/RTT/SEGGER_RTT.c **** *
 823:Middlewares/Third_Party/SEGGER/RTT/SEGGER_RTT.c **** *  Notes
 824:Middlewares/Third_Party/SEGGER/RTT/SEGGER_RTT.c **** *    (1) If there is not enough space in the "Up"-buffer, data is overwritten.
 825:Middlewares/Third_Party/SEGGER/RTT/SEGGER_RTT.c **** *    (2) For performance reasons this function does not call Init()
 826:Middlewares/Third_Party/SEGGER/RTT/SEGGER_RTT.c **** *        and may only be called after RTT has been initialized.
 827:Middlewares/Third_Party/SEGGER/RTT/SEGGER_RTT.c **** *        Either by calling SEGGER_RTT_Init() or calling another RTT API function first.
 828:Middlewares/Third_Party/SEGGER/RTT/SEGGER_RTT.c **** *    (3) Do not use SEGGER_RTT_WriteWithOverwriteNoLock if a J-Link 
 829:Middlewares/Third_Party/SEGGER/RTT/SEGGER_RTT.c **** *        connection reads RTT data.
 830:Middlewares/Third_Party/SEGGER/RTT/SEGGER_RTT.c **** */
 831:Middlewares/Third_Party/SEGGER/RTT/SEGGER_RTT.c **** void SEGGER_RTT_WriteWithOverwriteNoLock(unsigned BufferIndex, const void* pBuffer, unsigned NumByt
 1087              		.loc 1 831 104 is_stmt 1 view -0
 1088              		.cfi_startproc
 1089              		@ args = 0, pretend = 0, frame = 8
 1090              		@ frame_needed = 0, uses_anonymous_args = 0
 1091              		.loc 1 831 104 is_stmt 0 view .LVU348
 1092 0000 2DE9F041 		push	{r4, r5, r6, r7, r8, lr}
 1093              		.cfi_def_cfa_offset 24
 1094              		.cfi_offset 4, -24
 1095              		.cfi_offset 5, -20
 1096              		.cfi_offset 6, -16
 1097              		.cfi_offset 7, -12
 1098              		.cfi_offset 8, -8
 1099              		.cfi_offset 14, -4
 1100 0004 82B0     		sub	sp, sp, #8
 1101              		.cfi_def_cfa_offset 32
 1102 0006 0646     		mov	r6, r0
 1103 0008 8846     		mov	r8, r1
 1104 000a 1746     		mov	r7, r2
 832:Middlewares/Third_Party/SEGGER/RTT/SEGGER_RTT.c ****   const char*           pData;
 1105              		.loc 1 832 3 is_stmt 1 view .LVU349
 833:Middlewares/Third_Party/SEGGER/RTT/SEGGER_RTT.c ****   SEGGER_RTT_BUFFER_UP* pRing;
 1106              		.loc 1 833 3 view .LVU350
 834:Middlewares/Third_Party/SEGGER/RTT/SEGGER_RTT.c ****   unsigned              Avail;
 1107              		.loc 1 834 3 view .LVU351
 835:Middlewares/Third_Party/SEGGER/RTT/SEGGER_RTT.c ****   volatile char*        pDst;
 1108              		.loc 1 835 3 view .LVU352
 836:Middlewares/Third_Party/SEGGER/RTT/SEGGER_RTT.c ****   //
 837:Middlewares/Third_Party/SEGGER/RTT/SEGGER_RTT.c ****   // Get "to-host" ring buffer and copy some elements into local variables.
 838:Middlewares/Third_Party/SEGGER/RTT/SEGGER_RTT.c ****   //
 839:Middlewares/Third_Party/SEGGER/RTT/SEGGER_RTT.c ****   pData = (const char *)pBuffer;
 1109              		.loc 1 839 3 view .LVU353
 1110              	.LVL123:
 840:Middlewares/Third_Party/SEGGER/RTT/SEGGER_RTT.c ****   pRing = (SEGGER_RTT_BUFFER_UP*)((char*)&_SEGGER_RTT.aUp[BufferIndex] + SEGGER_RTT_UNCACHED_OFF); 
 1111              		.loc 1 840 3 view .LVU354
 841:Middlewares/Third_Party/SEGGER/RTT/SEGGER_RTT.c ****   //
 842:Middlewares/Third_Party/SEGGER/RTT/SEGGER_RTT.c ****   // Check if we will overwrite data and need to adjust the RdOff.
 843:Middlewares/Third_Party/SEGGER/RTT/SEGGER_RTT.c ****   //
 844:Middlewares/Third_Party/SEGGER/RTT/SEGGER_RTT.c ****   if (pRing->WrOff == pRing->RdOff) {
 1112              		.loc 1 844 3 view .LVU355
 1113              		.loc 1 844 12 is_stmt 0 view .LVU356
ARM GAS  C:\Users\Administrator\AppData\Local\Temp\ccUGyMKj.s 			page 39


 1114 000c 00EB4002 		add	r2, r0, r0, lsl #1
 1115              	.LVL124:
 1116              		.loc 1 844 12 view .LVU357
 1117 0010 434B     		ldr	r3, .L70
 1118 0012 03EBC203 		add	r3, r3, r2, lsl #3
 1119 0016 596A     		ldr	r1, [r3, #36]
 1120              	.LVL125:
 1121              		.loc 1 844 28 view .LVU358
 1122 0018 9B6A     		ldr	r3, [r3, #40]
 1123              		.loc 1 844 6 view .LVU359
 1124 001a 9942     		cmp	r1, r3
 1125 001c 0ED0     		beq	.L68
 845:Middlewares/Third_Party/SEGGER/RTT/SEGGER_RTT.c ****     Avail = pRing->SizeOfBuffer - 1u;
 846:Middlewares/Third_Party/SEGGER/RTT/SEGGER_RTT.c ****   } else if ( pRing->WrOff < pRing->RdOff) {
 1126              		.loc 1 846 10 is_stmt 1 view .LVU360
 1127              		.loc 1 846 35 is_stmt 0 view .LVU361
 1128 001e 00EB4002 		add	r2, r0, r0, lsl #1
 1129 0022 3F4B     		ldr	r3, .L70
 1130 0024 03EBC203 		add	r3, r3, r2, lsl #3
 1131 0028 9B6A     		ldr	r3, [r3, #40]
 1132              		.loc 1 846 13 view .LVU362
 1133 002a 9942     		cmp	r1, r3
 1134 002c 17D2     		bcs	.L60
 847:Middlewares/Third_Party/SEGGER/RTT/SEGGER_RTT.c ****     Avail = pRing->RdOff - pRing->WrOff - 1u;
 1135              		.loc 1 847 5 is_stmt 1 view .LVU363
 1136              		.loc 1 847 18 is_stmt 0 view .LVU364
 1137 002e 3C4B     		ldr	r3, .L70
 1138 0030 03EBC203 		add	r3, r3, r2, lsl #3
 1139 0034 9B6A     		ldr	r3, [r3, #40]
 1140              		.loc 1 847 26 view .LVU365
 1141 0036 5B1A     		subs	r3, r3, r1
 1142              		.loc 1 847 11 view .LVU366
 1143 0038 013B     		subs	r3, r3, #1
 1144              	.LVL126:
 1145              		.loc 1 847 11 view .LVU367
 1146 003a 04E0     		b	.L59
 1147              	.LVL127:
 1148              	.L68:
 845:Middlewares/Third_Party/SEGGER/RTT/SEGGER_RTT.c ****     Avail = pRing->SizeOfBuffer - 1u;
 1149              		.loc 1 845 5 is_stmt 1 view .LVU368
 845:Middlewares/Third_Party/SEGGER/RTT/SEGGER_RTT.c ****     Avail = pRing->SizeOfBuffer - 1u;
 1150              		.loc 1 845 18 is_stmt 0 view .LVU369
 1151 003c 384B     		ldr	r3, .L70
 1152 003e 03EBC203 		add	r3, r3, r2, lsl #3
 1153 0042 1B6A     		ldr	r3, [r3, #32]
 845:Middlewares/Third_Party/SEGGER/RTT/SEGGER_RTT.c ****     Avail = pRing->SizeOfBuffer - 1u;
 1154              		.loc 1 845 11 view .LVU370
 1155 0044 013B     		subs	r3, r3, #1
 1156              	.LVL128:
 1157              	.L59:
 848:Middlewares/Third_Party/SEGGER/RTT/SEGGER_RTT.c ****   } else {
 849:Middlewares/Third_Party/SEGGER/RTT/SEGGER_RTT.c ****     Avail = pRing->RdOff - pRing->WrOff - 1u + pRing->SizeOfBuffer;
 850:Middlewares/Third_Party/SEGGER/RTT/SEGGER_RTT.c ****   }
 851:Middlewares/Third_Party/SEGGER/RTT/SEGGER_RTT.c ****   if (NumBytes > Avail) {
 1158              		.loc 1 851 3 is_stmt 1 view .LVU371
 1159              		.loc 1 851 6 is_stmt 0 view .LVU372
 1160 0046 BB42     		cmp	r3, r7
ARM GAS  C:\Users\Administrator\AppData\Local\Temp\ccUGyMKj.s 			page 40


 1161 0048 25D2     		bcs	.L61
 852:Middlewares/Third_Party/SEGGER/RTT/SEGGER_RTT.c ****     pRing->RdOff += (NumBytes - Avail);
 1162              		.loc 1 852 5 is_stmt 1 view .LVU373
 1163              		.loc 1 852 10 is_stmt 0 view .LVU374
 1164 004a 06EB4600 		add	r0, r6, r6, lsl #1
 1165              	.LVL129:
 1166              		.loc 1 852 10 view .LVU375
 1167 004e 344A     		ldr	r2, .L70
 1168 0050 02EBC002 		add	r2, r2, r0, lsl #3
 1169 0054 906A     		ldr	r0, [r2, #40]
 1170              		.loc 1 852 31 view .LVU376
 1171 0056 FB1A     		subs	r3, r7, r3
 1172              	.LVL130:
 1173              		.loc 1 852 18 view .LVU377
 1174 0058 0344     		add	r3, r3, r0
 1175 005a 9362     		str	r3, [r2, #40]
 853:Middlewares/Third_Party/SEGGER/RTT/SEGGER_RTT.c ****     while (pRing->RdOff >= pRing->SizeOfBuffer) {
 1176              		.loc 1 853 5 is_stmt 1 view .LVU378
 1177              		.loc 1 853 11 is_stmt 0 view .LVU379
 1178 005c 12E0     		b	.L62
 1179              	.LVL131:
 1180              	.L60:
 849:Middlewares/Third_Party/SEGGER/RTT/SEGGER_RTT.c ****   }
 1181              		.loc 1 849 5 is_stmt 1 view .LVU380
 849:Middlewares/Third_Party/SEGGER/RTT/SEGGER_RTT.c ****   }
 1182              		.loc 1 849 18 is_stmt 0 view .LVU381
 1183 005e 00EB4003 		add	r3, r0, r0, lsl #1
 1184 0062 2F4A     		ldr	r2, .L70
 1185 0064 02EBC302 		add	r2, r2, r3, lsl #3
 1186 0068 936A     		ldr	r3, [r2, #40]
 849:Middlewares/Third_Party/SEGGER/RTT/SEGGER_RTT.c ****   }
 1187              		.loc 1 849 26 view .LVU382
 1188 006a 5B1A     		subs	r3, r3, r1
 849:Middlewares/Third_Party/SEGGER/RTT/SEGGER_RTT.c ****   }
 1189              		.loc 1 849 53 view .LVU383
 1190 006c 126A     		ldr	r2, [r2, #32]
 849:Middlewares/Third_Party/SEGGER/RTT/SEGGER_RTT.c ****   }
 1191              		.loc 1 849 46 view .LVU384
 1192 006e 1344     		add	r3, r3, r2
 849:Middlewares/Third_Party/SEGGER/RTT/SEGGER_RTT.c ****   }
 1193              		.loc 1 849 11 view .LVU385
 1194 0070 013B     		subs	r3, r3, #1
 1195 0072 E8E7     		b	.L59
 1196              	.LVL132:
 1197              	.L63:
 854:Middlewares/Third_Party/SEGGER/RTT/SEGGER_RTT.c ****       pRing->RdOff -= pRing->SizeOfBuffer;
 1198              		.loc 1 854 7 is_stmt 1 view .LVU386
 1199              		.loc 1 854 12 is_stmt 0 view .LVU387
 1200 0074 06EB4602 		add	r2, r6, r6, lsl #1
 1201 0078 294B     		ldr	r3, .L70
 1202 007a 03EBC203 		add	r3, r3, r2, lsl #3
 1203 007e 9A6A     		ldr	r2, [r3, #40]
 1204              		.loc 1 854 20 view .LVU388
 1205 0080 121A     		subs	r2, r2, r0
 1206 0082 9A62     		str	r2, [r3, #40]
 1207              	.L62:
 853:Middlewares/Third_Party/SEGGER/RTT/SEGGER_RTT.c ****     while (pRing->RdOff >= pRing->SizeOfBuffer) {
ARM GAS  C:\Users\Administrator\AppData\Local\Temp\ccUGyMKj.s 			page 41


 1208              		.loc 1 853 25 is_stmt 1 view .LVU389
 853:Middlewares/Third_Party/SEGGER/RTT/SEGGER_RTT.c ****     while (pRing->RdOff >= pRing->SizeOfBuffer) {
 1209              		.loc 1 853 17 is_stmt 0 view .LVU390
 1210 0084 06EB4602 		add	r2, r6, r6, lsl #1
 1211 0088 254B     		ldr	r3, .L70
 1212 008a 03EBC203 		add	r3, r3, r2, lsl #3
 1213 008e 9A6A     		ldr	r2, [r3, #40]
 853:Middlewares/Third_Party/SEGGER/RTT/SEGGER_RTT.c ****     while (pRing->RdOff >= pRing->SizeOfBuffer) {
 1214              		.loc 1 853 33 view .LVU391
 1215 0090 186A     		ldr	r0, [r3, #32]
 853:Middlewares/Third_Party/SEGGER/RTT/SEGGER_RTT.c ****     while (pRing->RdOff >= pRing->SizeOfBuffer) {
 1216              		.loc 1 853 25 view .LVU392
 1217 0092 8242     		cmp	r2, r0
 1218 0094 EED2     		bcs	.L63
 1219              	.L61:
 855:Middlewares/Third_Party/SEGGER/RTT/SEGGER_RTT.c ****     }
 856:Middlewares/Third_Party/SEGGER/RTT/SEGGER_RTT.c ****   }
 857:Middlewares/Third_Party/SEGGER/RTT/SEGGER_RTT.c ****   //
 858:Middlewares/Third_Party/SEGGER/RTT/SEGGER_RTT.c ****   // Write all data, no need to check the RdOff, but possibly handle multiple wrap-arounds
 859:Middlewares/Third_Party/SEGGER/RTT/SEGGER_RTT.c ****   //
 860:Middlewares/Third_Party/SEGGER/RTT/SEGGER_RTT.c ****   Avail = pRing->SizeOfBuffer - pRing->WrOff;
 1220              		.loc 1 860 3 is_stmt 1 view .LVU393
 1221              		.loc 1 860 16 is_stmt 0 view .LVU394
 1222 0096 06EB4602 		add	r2, r6, r6, lsl #1
 1223 009a 214B     		ldr	r3, .L70
 1224 009c 03EBC203 		add	r3, r3, r2, lsl #3
 1225 00a0 1C6A     		ldr	r4, [r3, #32]
 1226              		.loc 1 860 9 view .LVU395
 1227 00a2 641A     		subs	r4, r4, r1
 1228              	.LVL133:
 1229              	.L66:
 861:Middlewares/Third_Party/SEGGER/RTT/SEGGER_RTT.c ****   do {
 1230              		.loc 1 861 3 is_stmt 1 view .LVU396
 862:Middlewares/Third_Party/SEGGER/RTT/SEGGER_RTT.c ****     if (Avail > NumBytes) {
 1231              		.loc 1 862 5 view .LVU397
 1232              		.loc 1 862 8 is_stmt 0 view .LVU398
 1233 00a4 A742     		cmp	r7, r4
 1234 00a6 1BD3     		bcc	.L69
 863:Middlewares/Third_Party/SEGGER/RTT/SEGGER_RTT.c ****       //
 864:Middlewares/Third_Party/SEGGER/RTT/SEGGER_RTT.c ****       // Last round
 865:Middlewares/Third_Party/SEGGER/RTT/SEGGER_RTT.c ****       //
 866:Middlewares/Third_Party/SEGGER/RTT/SEGGER_RTT.c ****       pDst = (pRing->pBuffer + pRing->WrOff) + SEGGER_RTT_UNCACHED_OFF;
 867:Middlewares/Third_Party/SEGGER/RTT/SEGGER_RTT.c **** #if SEGGER_RTT_MEMCPY_USE_BYTELOOP
 868:Middlewares/Third_Party/SEGGER/RTT/SEGGER_RTT.c ****       Avail = NumBytes;
 869:Middlewares/Third_Party/SEGGER/RTT/SEGGER_RTT.c ****       while (NumBytes--) {
 870:Middlewares/Third_Party/SEGGER/RTT/SEGGER_RTT.c ****         *pDst++ = *pData++;
 871:Middlewares/Third_Party/SEGGER/RTT/SEGGER_RTT.c ****       };
 872:Middlewares/Third_Party/SEGGER/RTT/SEGGER_RTT.c ****       RTT__DMB();                     // Force data write to be complete before writing the <WrOff>
 873:Middlewares/Third_Party/SEGGER/RTT/SEGGER_RTT.c ****       pRing->WrOff += Avail;
 874:Middlewares/Third_Party/SEGGER/RTT/SEGGER_RTT.c **** #else
 875:Middlewares/Third_Party/SEGGER/RTT/SEGGER_RTT.c ****       SEGGER_RTT_MEMCPY((void*)pDst, pData, NumBytes);
 876:Middlewares/Third_Party/SEGGER/RTT/SEGGER_RTT.c ****       RTT__DMB();                     // Force data write to be complete before writing the <WrOff>
 877:Middlewares/Third_Party/SEGGER/RTT/SEGGER_RTT.c ****       pRing->WrOff += NumBytes;
 878:Middlewares/Third_Party/SEGGER/RTT/SEGGER_RTT.c **** #endif
 879:Middlewares/Third_Party/SEGGER/RTT/SEGGER_RTT.c ****       break;
 880:Middlewares/Third_Party/SEGGER/RTT/SEGGER_RTT.c ****     } else {
 881:Middlewares/Third_Party/SEGGER/RTT/SEGGER_RTT.c ****       //
ARM GAS  C:\Users\Administrator\AppData\Local\Temp\ccUGyMKj.s 			page 42


 882:Middlewares/Third_Party/SEGGER/RTT/SEGGER_RTT.c ****       //  Wrap-around necessary, write until wrap-around and reset WrOff
 883:Middlewares/Third_Party/SEGGER/RTT/SEGGER_RTT.c ****       //
 884:Middlewares/Third_Party/SEGGER/RTT/SEGGER_RTT.c ****       pDst = (pRing->pBuffer + pRing->WrOff) + SEGGER_RTT_UNCACHED_OFF;
 1235              		.loc 1 884 7 is_stmt 1 view .LVU399
 1236              		.loc 1 884 20 is_stmt 0 view .LVU400
 1237 00a8 1D4D     		ldr	r5, .L70
 1238 00aa 731C     		adds	r3, r6, #1
 1239 00ac 03EB4303 		add	r3, r3, r3, lsl #1
 1240 00b0 05EBC303 		add	r3, r5, r3, lsl #3
 1241 00b4 5868     		ldr	r0, [r3, #4]
 1242              		.loc 1 884 37 view .LVU401
 1243 00b6 06EB4603 		add	r3, r6, r6, lsl #1
 1244 00ba 05EBC305 		add	r5, r5, r3, lsl #3
 1245 00be 6B6A     		ldr	r3, [r5, #36]
 1246              	.LVL134:
 885:Middlewares/Third_Party/SEGGER/RTT/SEGGER_RTT.c **** #if SEGGER_RTT_MEMCPY_USE_BYTELOOP
 886:Middlewares/Third_Party/SEGGER/RTT/SEGGER_RTT.c ****       NumBytes -= Avail;
 887:Middlewares/Third_Party/SEGGER/RTT/SEGGER_RTT.c ****       while (Avail--) {
 888:Middlewares/Third_Party/SEGGER/RTT/SEGGER_RTT.c ****         *pDst++ = *pData++;
 889:Middlewares/Third_Party/SEGGER/RTT/SEGGER_RTT.c ****       };
 890:Middlewares/Third_Party/SEGGER/RTT/SEGGER_RTT.c ****       RTT__DMB();                     // Force data write to be complete before writing the <WrOff>
 891:Middlewares/Third_Party/SEGGER/RTT/SEGGER_RTT.c ****       pRing->WrOff = 0;
 892:Middlewares/Third_Party/SEGGER/RTT/SEGGER_RTT.c **** #else
 893:Middlewares/Third_Party/SEGGER/RTT/SEGGER_RTT.c ****       SEGGER_RTT_MEMCPY((void*)pDst, pData, Avail);
 1247              		.loc 1 893 7 is_stmt 1 view .LVU402
 1248 00c0 2246     		mov	r2, r4
 1249 00c2 4146     		mov	r1, r8
 1250 00c4 1844     		add	r0, r0, r3
 1251              	.LVL135:
 1252              		.loc 1 893 7 is_stmt 0 view .LVU403
 1253 00c6 FFF7FEFF 		bl	memcpy
 1254              	.LVL136:
 894:Middlewares/Third_Party/SEGGER/RTT/SEGGER_RTT.c ****       pData += Avail;
 1255              		.loc 1 894 7 is_stmt 1 view .LVU404
 1256              		.loc 1 894 13 is_stmt 0 view .LVU405
 1257 00ca A044     		add	r8, r8, r4
 1258              	.LVL137:
 895:Middlewares/Third_Party/SEGGER/RTT/SEGGER_RTT.c ****       RTT__DMB();                     // Force data write to be complete before writing the <WrOff>
 1259              		.loc 1 895 7 is_stmt 1 view .LVU406
 1260              		.syntax unified
 1261              	@ 895 "Middlewares/Third_Party/SEGGER/RTT/SEGGER_RTT.c" 1
 1262 00cc BFF35F8F 		dmb
 1263              	
 1264              	@ 0 "" 2
 1265              		.loc 1 895 17 view .LVU407
 896:Middlewares/Third_Party/SEGGER/RTT/SEGGER_RTT.c ****       pRing->WrOff = 0;
 1266              		.loc 1 896 7 view .LVU408
 1267              		.loc 1 896 20 is_stmt 0 view .LVU409
 1268              		.thumb
 1269              		.syntax unified
 1270 00d0 0023     		movs	r3, #0
 1271 00d2 6B62     		str	r3, [r5, #36]
 897:Middlewares/Third_Party/SEGGER/RTT/SEGGER_RTT.c ****       NumBytes -= Avail;
 1272              		.loc 1 897 7 is_stmt 1 view .LVU410
 1273              		.loc 1 897 16 is_stmt 0 view .LVU411
 1274 00d4 3F1B     		subs	r7, r7, r4
 1275              	.LVL138:
ARM GAS  C:\Users\Administrator\AppData\Local\Temp\ccUGyMKj.s 			page 43


 898:Middlewares/Third_Party/SEGGER/RTT/SEGGER_RTT.c **** #endif
 899:Middlewares/Third_Party/SEGGER/RTT/SEGGER_RTT.c ****       Avail = (pRing->SizeOfBuffer - 1);
 1276              		.loc 1 899 7 is_stmt 1 view .LVU412
 1277              		.loc 1 899 21 is_stmt 0 view .LVU413
 1278 00d6 2C6A     		ldr	r4, [r5, #32]
 1279              	.LVL139:
 1280              		.loc 1 899 13 view .LVU414
 1281 00d8 013C     		subs	r4, r4, #1
 1282              	.LVL140:
 900:Middlewares/Third_Party/SEGGER/RTT/SEGGER_RTT.c ****     }
 901:Middlewares/Third_Party/SEGGER/RTT/SEGGER_RTT.c ****   } while (NumBytes);
 1283              		.loc 1 901 12 is_stmt 1 view .LVU415
 1284 00da 002F     		cmp	r7, #0
 1285 00dc E2D1     		bne	.L66
 1286 00de 1BE0     		b	.L57
 1287              	.LVL141:
 1288              	.L69:
 866:Middlewares/Third_Party/SEGGER/RTT/SEGGER_RTT.c **** #if SEGGER_RTT_MEMCPY_USE_BYTELOOP
 1289              		.loc 1 866 7 view .LVU416
 866:Middlewares/Third_Party/SEGGER/RTT/SEGGER_RTT.c **** #if SEGGER_RTT_MEMCPY_USE_BYTELOOP
 1290              		.loc 1 866 20 is_stmt 0 view .LVU417
 1291 00e0 0F4C     		ldr	r4, .L70
 1292              	.LVL142:
 866:Middlewares/Third_Party/SEGGER/RTT/SEGGER_RTT.c **** #if SEGGER_RTT_MEMCPY_USE_BYTELOOP
 1293              		.loc 1 866 20 view .LVU418
 1294 00e2 731C     		adds	r3, r6, #1
 1295 00e4 03EB4303 		add	r3, r3, r3, lsl #1
 1296 00e8 04EBC303 		add	r3, r4, r3, lsl #3
 1297 00ec 5868     		ldr	r0, [r3, #4]
 866:Middlewares/Third_Party/SEGGER/RTT/SEGGER_RTT.c **** #if SEGGER_RTT_MEMCPY_USE_BYTELOOP
 1298              		.loc 1 866 37 view .LVU419
 1299 00ee 7300     		lsls	r3, r6, #1
 1300 00f0 0193     		str	r3, [sp, #4]
 1301 00f2 06EB4605 		add	r5, r6, r6, lsl #1
 1302 00f6 04EBC505 		add	r5, r4, r5, lsl #3
 1303 00fa 6B6A     		ldr	r3, [r5, #36]
 1304              	.LVL143:
 875:Middlewares/Third_Party/SEGGER/RTT/SEGGER_RTT.c ****       RTT__DMB();                     // Force data write to be complete before writing the <WrOff>
 1305              		.loc 1 875 7 is_stmt 1 view .LVU420
 1306 00fc 3A46     		mov	r2, r7
 1307 00fe 4146     		mov	r1, r8
 1308 0100 1844     		add	r0, r0, r3
 1309              	.LVL144:
 875:Middlewares/Third_Party/SEGGER/RTT/SEGGER_RTT.c ****       RTT__DMB();                     // Force data write to be complete before writing the <WrOff>
 1310              		.loc 1 875 7 is_stmt 0 view .LVU421
 1311 0102 FFF7FEFF 		bl	memcpy
 1312              	.LVL145:
 876:Middlewares/Third_Party/SEGGER/RTT/SEGGER_RTT.c ****       pRing->WrOff += NumBytes;
 1313              		.loc 1 876 7 is_stmt 1 view .LVU422
 1314              		.syntax unified
 1315              	@ 876 "Middlewares/Third_Party/SEGGER/RTT/SEGGER_RTT.c" 1
 1316 0106 BFF35F8F 		dmb
 1317              	
 1318              	@ 0 "" 2
 876:Middlewares/Third_Party/SEGGER/RTT/SEGGER_RTT.c ****       pRing->WrOff += NumBytes;
 1319              		.loc 1 876 17 view .LVU423
 877:Middlewares/Third_Party/SEGGER/RTT/SEGGER_RTT.c **** #endif
ARM GAS  C:\Users\Administrator\AppData\Local\Temp\ccUGyMKj.s 			page 44


 1320              		.loc 1 877 7 view .LVU424
 877:Middlewares/Third_Party/SEGGER/RTT/SEGGER_RTT.c **** #endif
 1321              		.loc 1 877 12 is_stmt 0 view .LVU425
 1322              		.thumb
 1323              		.syntax unified
 1324 010a 6B6A     		ldr	r3, [r5, #36]
 877:Middlewares/Third_Party/SEGGER/RTT/SEGGER_RTT.c **** #endif
 1325              		.loc 1 877 20 view .LVU426
 1326 010c 019A     		ldr	r2, [sp, #4]
 1327 010e 3244     		add	r2, r2, r6
 1328 0110 04EBC204 		add	r4, r4, r2, lsl #3
 1329 0114 3B44     		add	r3, r3, r7
 1330 0116 6362     		str	r3, [r4, #36]
 879:Middlewares/Third_Party/SEGGER/RTT/SEGGER_RTT.c ****     } else {
 1331              		.loc 1 879 7 is_stmt 1 view .LVU427
 1332              	.LVL146:
 1333              	.L57:
 902:Middlewares/Third_Party/SEGGER/RTT/SEGGER_RTT.c **** }
 1334              		.loc 1 902 1 is_stmt 0 view .LVU428
 1335 0118 02B0     		add	sp, sp, #8
 1336              		.cfi_def_cfa_offset 24
 1337              		@ sp needed
 1338 011a BDE8F081 		pop	{r4, r5, r6, r7, r8, pc}
 1339              	.LVL147:
 1340              	.L71:
 1341              		.loc 1 902 1 view .LVU429
 1342 011e 00BF     		.align	2
 1343              	.L70:
 1344 0120 00000000 		.word	_SEGGER_RTT
 1345              		.cfi_endproc
 1346              	.LFE9:
 1348              		.section	.text.SEGGER_RTT_WriteDownBufferNoLock,"ax",%progbits
 1349              		.align	1
 1350              		.global	SEGGER_RTT_WriteDownBufferNoLock
 1351              		.syntax unified
 1352              		.thumb
 1353              		.thumb_func
 1355              	SEGGER_RTT_WriteDownBufferNoLock:
 1356              	.LVL148:
 1357              	.LFB10:
 903:Middlewares/Third_Party/SEGGER/RTT/SEGGER_RTT.c **** 
 904:Middlewares/Third_Party/SEGGER/RTT/SEGGER_RTT.c **** /*********************************************************************
 905:Middlewares/Third_Party/SEGGER/RTT/SEGGER_RTT.c **** *
 906:Middlewares/Third_Party/SEGGER/RTT/SEGGER_RTT.c **** *       SEGGER_RTT_WriteSkipNoLock
 907:Middlewares/Third_Party/SEGGER/RTT/SEGGER_RTT.c **** *
 908:Middlewares/Third_Party/SEGGER/RTT/SEGGER_RTT.c **** *  Function description
 909:Middlewares/Third_Party/SEGGER/RTT/SEGGER_RTT.c **** *    Stores a specified number of characters in SEGGER RTT
 910:Middlewares/Third_Party/SEGGER/RTT/SEGGER_RTT.c **** *    control block which is then read by the host.
 911:Middlewares/Third_Party/SEGGER/RTT/SEGGER_RTT.c **** *    SEGGER_RTT_WriteSkipNoLock does not lock the application and
 912:Middlewares/Third_Party/SEGGER/RTT/SEGGER_RTT.c **** *    skips all data, if the data does not fit into the buffer.
 913:Middlewares/Third_Party/SEGGER/RTT/SEGGER_RTT.c **** *
 914:Middlewares/Third_Party/SEGGER/RTT/SEGGER_RTT.c **** *  Parameters
 915:Middlewares/Third_Party/SEGGER/RTT/SEGGER_RTT.c **** *    BufferIndex  Index of "Up"-buffer to be used (e.g. 0 for "Terminal").
 916:Middlewares/Third_Party/SEGGER/RTT/SEGGER_RTT.c **** *    pBuffer      Pointer to character array. Does not need to point to a \0 terminated string.
 917:Middlewares/Third_Party/SEGGER/RTT/SEGGER_RTT.c **** *    NumBytes     Number of bytes to be stored in the SEGGER RTT control block.
 918:Middlewares/Third_Party/SEGGER/RTT/SEGGER_RTT.c **** *                 MUST be > 0!!!
 919:Middlewares/Third_Party/SEGGER/RTT/SEGGER_RTT.c **** *                 This is done for performance reasons, so no initial check has do be done.
ARM GAS  C:\Users\Administrator\AppData\Local\Temp\ccUGyMKj.s 			page 45


 920:Middlewares/Third_Party/SEGGER/RTT/SEGGER_RTT.c **** *
 921:Middlewares/Third_Party/SEGGER/RTT/SEGGER_RTT.c **** *  Return value
 922:Middlewares/Third_Party/SEGGER/RTT/SEGGER_RTT.c **** *    1: Data has been copied
 923:Middlewares/Third_Party/SEGGER/RTT/SEGGER_RTT.c **** *    0: No space, data has not been copied
 924:Middlewares/Third_Party/SEGGER/RTT/SEGGER_RTT.c **** *
 925:Middlewares/Third_Party/SEGGER/RTT/SEGGER_RTT.c **** *  Notes
 926:Middlewares/Third_Party/SEGGER/RTT/SEGGER_RTT.c **** *    (1) If there is not enough space in the "Up"-buffer, all data is dropped.
 927:Middlewares/Third_Party/SEGGER/RTT/SEGGER_RTT.c **** *    (2) For performance reasons this function does not call Init()
 928:Middlewares/Third_Party/SEGGER/RTT/SEGGER_RTT.c **** *        and may only be called after RTT has been initialized.
 929:Middlewares/Third_Party/SEGGER/RTT/SEGGER_RTT.c **** *        Either by calling SEGGER_RTT_Init() or calling another RTT API function first.
 930:Middlewares/Third_Party/SEGGER/RTT/SEGGER_RTT.c **** */
 931:Middlewares/Third_Party/SEGGER/RTT/SEGGER_RTT.c **** #if (RTT_USE_ASM == 0)
 932:Middlewares/Third_Party/SEGGER/RTT/SEGGER_RTT.c **** unsigned SEGGER_RTT_WriteSkipNoLock(unsigned BufferIndex, const void* pBuffer, unsigned NumBytes) {
 933:Middlewares/Third_Party/SEGGER/RTT/SEGGER_RTT.c ****   const char*           pData;
 934:Middlewares/Third_Party/SEGGER/RTT/SEGGER_RTT.c ****   SEGGER_RTT_BUFFER_UP* pRing;
 935:Middlewares/Third_Party/SEGGER/RTT/SEGGER_RTT.c ****   unsigned              Avail;
 936:Middlewares/Third_Party/SEGGER/RTT/SEGGER_RTT.c ****   unsigned              RdOff;
 937:Middlewares/Third_Party/SEGGER/RTT/SEGGER_RTT.c ****   unsigned              WrOff;
 938:Middlewares/Third_Party/SEGGER/RTT/SEGGER_RTT.c ****   unsigned              Rem;
 939:Middlewares/Third_Party/SEGGER/RTT/SEGGER_RTT.c ****   volatile char*        pDst;
 940:Middlewares/Third_Party/SEGGER/RTT/SEGGER_RTT.c ****   //
 941:Middlewares/Third_Party/SEGGER/RTT/SEGGER_RTT.c ****   // Cases:
 942:Middlewares/Third_Party/SEGGER/RTT/SEGGER_RTT.c ****   //   1) RdOff <= WrOff => Space until wrap-around is sufficient
 943:Middlewares/Third_Party/SEGGER/RTT/SEGGER_RTT.c ****   //   2) RdOff <= WrOff => Space after wrap-around needed (copy in 2 chunks)
 944:Middlewares/Third_Party/SEGGER/RTT/SEGGER_RTT.c ****   //   3) RdOff <  WrOff => No space in buf
 945:Middlewares/Third_Party/SEGGER/RTT/SEGGER_RTT.c ****   //   4) RdOff >  WrOff => Space is sufficient
 946:Middlewares/Third_Party/SEGGER/RTT/SEGGER_RTT.c ****   //   5) RdOff >  WrOff => No space in buf
 947:Middlewares/Third_Party/SEGGER/RTT/SEGGER_RTT.c ****   //
 948:Middlewares/Third_Party/SEGGER/RTT/SEGGER_RTT.c ****   // 1) is the most common case for large buffers and assuming that J-Link reads the data fast enou
 949:Middlewares/Third_Party/SEGGER/RTT/SEGGER_RTT.c ****   //
 950:Middlewares/Third_Party/SEGGER/RTT/SEGGER_RTT.c ****   pData = (const char *)pBuffer;
 951:Middlewares/Third_Party/SEGGER/RTT/SEGGER_RTT.c ****   pRing = (SEGGER_RTT_BUFFER_UP*)((char*)&_SEGGER_RTT.aUp[BufferIndex] + SEGGER_RTT_UNCACHED_OFF); 
 952:Middlewares/Third_Party/SEGGER/RTT/SEGGER_RTT.c ****   RdOff = pRing->RdOff;
 953:Middlewares/Third_Party/SEGGER/RTT/SEGGER_RTT.c ****   WrOff = pRing->WrOff;
 954:Middlewares/Third_Party/SEGGER/RTT/SEGGER_RTT.c ****   if (RdOff <= WrOff) {                                 // Case 1), 2) or 3)
 955:Middlewares/Third_Party/SEGGER/RTT/SEGGER_RTT.c ****     Avail = pRing->SizeOfBuffer - WrOff - 1u;           // Space until wrap-around (assume 1 byte n
 956:Middlewares/Third_Party/SEGGER/RTT/SEGGER_RTT.c ****     if (Avail >= NumBytes) {                            // Case 1)?
 957:Middlewares/Third_Party/SEGGER/RTT/SEGGER_RTT.c **** CopyStraight:
 958:Middlewares/Third_Party/SEGGER/RTT/SEGGER_RTT.c ****       pDst = (pRing->pBuffer + WrOff) + SEGGER_RTT_UNCACHED_OFF;
 959:Middlewares/Third_Party/SEGGER/RTT/SEGGER_RTT.c ****       memcpy((void*)pDst, pData, NumBytes);
 960:Middlewares/Third_Party/SEGGER/RTT/SEGGER_RTT.c ****       RTT__DMB();                     // Force data write to be complete before writing the <WrOff>
 961:Middlewares/Third_Party/SEGGER/RTT/SEGGER_RTT.c ****       pRing->WrOff = WrOff + NumBytes;
 962:Middlewares/Third_Party/SEGGER/RTT/SEGGER_RTT.c ****       return 1;
 963:Middlewares/Third_Party/SEGGER/RTT/SEGGER_RTT.c ****     }
 964:Middlewares/Third_Party/SEGGER/RTT/SEGGER_RTT.c ****     Avail += RdOff;                                     // Space incl. wrap-around
 965:Middlewares/Third_Party/SEGGER/RTT/SEGGER_RTT.c ****     if (Avail >= NumBytes) {                            // Case 2? => If not, we have case 3) (does
 966:Middlewares/Third_Party/SEGGER/RTT/SEGGER_RTT.c ****       Rem = pRing->SizeOfBuffer - WrOff;                // Space until end of buffer
 967:Middlewares/Third_Party/SEGGER/RTT/SEGGER_RTT.c ****       pDst = (pRing->pBuffer + WrOff) + SEGGER_RTT_UNCACHED_OFF;
 968:Middlewares/Third_Party/SEGGER/RTT/SEGGER_RTT.c ****       memcpy((void*)pDst, pData, Rem);                  // Copy 1st chunk
 969:Middlewares/Third_Party/SEGGER/RTT/SEGGER_RTT.c ****       NumBytes -= Rem;
 970:Middlewares/Third_Party/SEGGER/RTT/SEGGER_RTT.c ****       //
 971:Middlewares/Third_Party/SEGGER/RTT/SEGGER_RTT.c ****       // Special case: First check that assumed RdOff == 0 calculated that last element before wrap
 972:Middlewares/Third_Party/SEGGER/RTT/SEGGER_RTT.c ****       // But 2nd check (considering space until wrap-around and until RdOff) revealed that RdOff is
 973:Middlewares/Third_Party/SEGGER/RTT/SEGGER_RTT.c ****       // In this case, we may use a copy straight until buffer end anyway without needing to copy 2
 974:Middlewares/Third_Party/SEGGER/RTT/SEGGER_RTT.c ****       // Therefore, check if 2nd memcpy is necessary at all
 975:Middlewares/Third_Party/SEGGER/RTT/SEGGER_RTT.c ****       //
 976:Middlewares/Third_Party/SEGGER/RTT/SEGGER_RTT.c ****       if (NumBytes) {
ARM GAS  C:\Users\Administrator\AppData\Local\Temp\ccUGyMKj.s 			page 46


 977:Middlewares/Third_Party/SEGGER/RTT/SEGGER_RTT.c ****         pDst = pRing->pBuffer + SEGGER_RTT_UNCACHED_OFF;
 978:Middlewares/Third_Party/SEGGER/RTT/SEGGER_RTT.c ****         memcpy((void*)pDst, pData + Rem, NumBytes);
 979:Middlewares/Third_Party/SEGGER/RTT/SEGGER_RTT.c ****       }
 980:Middlewares/Third_Party/SEGGER/RTT/SEGGER_RTT.c ****       RTT__DMB();                     // Force data write to be complete before writing the <WrOff>
 981:Middlewares/Third_Party/SEGGER/RTT/SEGGER_RTT.c ****       pRing->WrOff = NumBytes;
 982:Middlewares/Third_Party/SEGGER/RTT/SEGGER_RTT.c ****       return 1;
 983:Middlewares/Third_Party/SEGGER/RTT/SEGGER_RTT.c ****     }
 984:Middlewares/Third_Party/SEGGER/RTT/SEGGER_RTT.c ****   } else {                                             // Potential case 4)
 985:Middlewares/Third_Party/SEGGER/RTT/SEGGER_RTT.c ****     Avail = RdOff - WrOff - 1u;
 986:Middlewares/Third_Party/SEGGER/RTT/SEGGER_RTT.c ****     if (Avail >= NumBytes) {                           // Case 4)? => If not, we have case 5) (does
 987:Middlewares/Third_Party/SEGGER/RTT/SEGGER_RTT.c ****       goto CopyStraight;
 988:Middlewares/Third_Party/SEGGER/RTT/SEGGER_RTT.c ****     }
 989:Middlewares/Third_Party/SEGGER/RTT/SEGGER_RTT.c ****   }
 990:Middlewares/Third_Party/SEGGER/RTT/SEGGER_RTT.c ****   return 0;     // No space in buffer
 991:Middlewares/Third_Party/SEGGER/RTT/SEGGER_RTT.c **** }
 992:Middlewares/Third_Party/SEGGER/RTT/SEGGER_RTT.c **** #endif
 993:Middlewares/Third_Party/SEGGER/RTT/SEGGER_RTT.c **** 
 994:Middlewares/Third_Party/SEGGER/RTT/SEGGER_RTT.c **** /*********************************************************************
 995:Middlewares/Third_Party/SEGGER/RTT/SEGGER_RTT.c **** *
 996:Middlewares/Third_Party/SEGGER/RTT/SEGGER_RTT.c **** *       SEGGER_RTT_WriteDownBufferNoLock
 997:Middlewares/Third_Party/SEGGER/RTT/SEGGER_RTT.c **** *
 998:Middlewares/Third_Party/SEGGER/RTT/SEGGER_RTT.c **** *  Function description
 999:Middlewares/Third_Party/SEGGER/RTT/SEGGER_RTT.c **** *    Stores a specified number of characters in SEGGER RTT
1000:Middlewares/Third_Party/SEGGER/RTT/SEGGER_RTT.c **** *    control block inside a <Down> buffer.
1001:Middlewares/Third_Party/SEGGER/RTT/SEGGER_RTT.c **** *    SEGGER_RTT_WriteDownBufferNoLock does not lock the application.
1002:Middlewares/Third_Party/SEGGER/RTT/SEGGER_RTT.c **** *    Used to do the same operation that J-Link does, to transfer 
1003:Middlewares/Third_Party/SEGGER/RTT/SEGGER_RTT.c **** *    RTT data from other channels, such as TCP/IP or UART.
1004:Middlewares/Third_Party/SEGGER/RTT/SEGGER_RTT.c **** *
1005:Middlewares/Third_Party/SEGGER/RTT/SEGGER_RTT.c **** *  Parameters
1006:Middlewares/Third_Party/SEGGER/RTT/SEGGER_RTT.c **** *    BufferIndex  Index of "Down"-buffer to be used.
1007:Middlewares/Third_Party/SEGGER/RTT/SEGGER_RTT.c **** *    pBuffer      Pointer to character array. Does not need to point to a \0 terminated string.
1008:Middlewares/Third_Party/SEGGER/RTT/SEGGER_RTT.c **** *    NumBytes     Number of bytes to be stored in the SEGGER RTT control block.
1009:Middlewares/Third_Party/SEGGER/RTT/SEGGER_RTT.c **** *
1010:Middlewares/Third_Party/SEGGER/RTT/SEGGER_RTT.c **** *  Return value
1011:Middlewares/Third_Party/SEGGER/RTT/SEGGER_RTT.c **** *    Number of bytes which have been stored in the "Down"-buffer.
1012:Middlewares/Third_Party/SEGGER/RTT/SEGGER_RTT.c **** *
1013:Middlewares/Third_Party/SEGGER/RTT/SEGGER_RTT.c **** *  Notes
1014:Middlewares/Third_Party/SEGGER/RTT/SEGGER_RTT.c **** *    (1) Data is stored according to buffer flags.
1015:Middlewares/Third_Party/SEGGER/RTT/SEGGER_RTT.c **** *    (2) For performance reasons this function does not call Init()
1016:Middlewares/Third_Party/SEGGER/RTT/SEGGER_RTT.c **** *        and may only be called after RTT has been initialized.
1017:Middlewares/Third_Party/SEGGER/RTT/SEGGER_RTT.c **** *        Either by calling SEGGER_RTT_Init() or calling another RTT API function first.
1018:Middlewares/Third_Party/SEGGER/RTT/SEGGER_RTT.c **** *
1019:Middlewares/Third_Party/SEGGER/RTT/SEGGER_RTT.c **** *  Additional information
1020:Middlewares/Third_Party/SEGGER/RTT/SEGGER_RTT.c **** *    This function must not be called when J-Link might also do RTT.
1021:Middlewares/Third_Party/SEGGER/RTT/SEGGER_RTT.c **** */
1022:Middlewares/Third_Party/SEGGER/RTT/SEGGER_RTT.c **** unsigned SEGGER_RTT_WriteDownBufferNoLock(unsigned BufferIndex, const void* pBuffer, unsigned NumBy
 1358              		.loc 1 1022 105 is_stmt 1 view -0
 1359              		.cfi_startproc
 1360              		@ args = 0, pretend = 0, frame = 0
 1361              		@ frame_needed = 0, uses_anonymous_args = 0
 1362              		.loc 1 1022 105 is_stmt 0 view .LVU431
 1363 0000 F8B5     		push	{r3, r4, r5, r6, r7, lr}
 1364              		.cfi_def_cfa_offset 24
 1365              		.cfi_offset 3, -24
 1366              		.cfi_offset 4, -20
 1367              		.cfi_offset 5, -16
 1368              		.cfi_offset 6, -12
ARM GAS  C:\Users\Administrator\AppData\Local\Temp\ccUGyMKj.s 			page 47


 1369              		.cfi_offset 7, -8
 1370              		.cfi_offset 14, -4
 1371 0002 0F46     		mov	r7, r1
 1372 0004 1646     		mov	r6, r2
1023:Middlewares/Third_Party/SEGGER/RTT/SEGGER_RTT.c ****   unsigned                Status;
 1373              		.loc 1 1023 3 is_stmt 1 view .LVU432
1024:Middlewares/Third_Party/SEGGER/RTT/SEGGER_RTT.c ****   unsigned                Avail;
 1374              		.loc 1 1024 3 view .LVU433
1025:Middlewares/Third_Party/SEGGER/RTT/SEGGER_RTT.c ****   const char*             pData;
 1375              		.loc 1 1025 3 view .LVU434
1026:Middlewares/Third_Party/SEGGER/RTT/SEGGER_RTT.c ****   SEGGER_RTT_BUFFER_UP*   pRing;
 1376              		.loc 1 1026 3 view .LVU435
1027:Middlewares/Third_Party/SEGGER/RTT/SEGGER_RTT.c ****   //
1028:Middlewares/Third_Party/SEGGER/RTT/SEGGER_RTT.c ****   // Get "to-target" ring buffer.
1029:Middlewares/Third_Party/SEGGER/RTT/SEGGER_RTT.c ****   // It is save to cast that to a "to-host" buffer. Up and Down buffer differ in volatility of offs
1030:Middlewares/Third_Party/SEGGER/RTT/SEGGER_RTT.c ****   //
1031:Middlewares/Third_Party/SEGGER/RTT/SEGGER_RTT.c ****   pData = (const char *)pBuffer;
 1377              		.loc 1 1031 3 view .LVU436
 1378              	.LVL149:
1032:Middlewares/Third_Party/SEGGER/RTT/SEGGER_RTT.c ****   pRing = (SEGGER_RTT_BUFFER_UP*)((char*)&_SEGGER_RTT.aDown[BufferIndex] + SEGGER_RTT_UNCACHED_OFF)
 1379              		.loc 1 1032 3 view .LVU437
 1380              		.loc 1 1032 9 is_stmt 0 view .LVU438
 1381 0006 00EB4000 		add	r0, r0, r0, lsl #1
 1382              	.LVL150:
 1383              		.loc 1 1032 9 view .LVU439
 1384 000a C400     		lsls	r4, r0, #3
 1385 000c 6034     		adds	r4, r4, #96
 1386 000e 144B     		ldr	r3, .L78
 1387 0010 1C44     		add	r4, r4, r3
 1388              	.LVL151:
1033:Middlewares/Third_Party/SEGGER/RTT/SEGGER_RTT.c ****   //
1034:Middlewares/Third_Party/SEGGER/RTT/SEGGER_RTT.c ****   // How we output depends upon the mode...
1035:Middlewares/Third_Party/SEGGER/RTT/SEGGER_RTT.c ****   //
1036:Middlewares/Third_Party/SEGGER/RTT/SEGGER_RTT.c ****   switch (pRing->Flags) {
 1389              		.loc 1 1036 3 is_stmt 1 view .LVU440
 1390              		.loc 1 1036 16 is_stmt 0 view .LVU441
 1391 0012 6569     		ldr	r5, [r4, #20]
 1392              		.loc 1 1036 3 view .LVU442
 1393 0014 012D     		cmp	r5, #1
 1394 0016 0ED0     		beq	.L73
 1395 0018 022D     		cmp	r5, #2
 1396 001a 1AD0     		beq	.L74
 1397 001c F5B9     		cbnz	r5, .L76
1037:Middlewares/Third_Party/SEGGER/RTT/SEGGER_RTT.c ****   case SEGGER_RTT_MODE_NO_BLOCK_SKIP:
1038:Middlewares/Third_Party/SEGGER/RTT/SEGGER_RTT.c ****     //
1039:Middlewares/Third_Party/SEGGER/RTT/SEGGER_RTT.c ****     // If we are in skip mode and there is no space for the whole
1040:Middlewares/Third_Party/SEGGER/RTT/SEGGER_RTT.c ****     // of this output, don't bother.
1041:Middlewares/Third_Party/SEGGER/RTT/SEGGER_RTT.c ****     //
1042:Middlewares/Third_Party/SEGGER/RTT/SEGGER_RTT.c ****     Avail = _GetAvailWriteSpace(pRing);
 1398              		.loc 1 1042 5 is_stmt 1 view .LVU443
 1399              		.loc 1 1042 13 is_stmt 0 view .LVU444
 1400 001e 2046     		mov	r0, r4
 1401 0020 FFF7FEFF 		bl	_GetAvailWriteSpace
 1402              	.LVL152:
1043:Middlewares/Third_Party/SEGGER/RTT/SEGGER_RTT.c ****     if (Avail < NumBytes) {
 1403              		.loc 1 1043 5 is_stmt 1 view .LVU445
 1404              		.loc 1 1043 8 is_stmt 0 view .LVU446
ARM GAS  C:\Users\Administrator\AppData\Local\Temp\ccUGyMKj.s 			page 48


 1405 0024 8642     		cmp	r6, r0
 1406 0026 12D8     		bhi	.L72
1044:Middlewares/Third_Party/SEGGER/RTT/SEGGER_RTT.c ****       Status = 0u;
1045:Middlewares/Third_Party/SEGGER/RTT/SEGGER_RTT.c ****     } else {
1046:Middlewares/Third_Party/SEGGER/RTT/SEGGER_RTT.c ****       Status = NumBytes;
 1407              		.loc 1 1046 7 is_stmt 1 view .LVU447
 1408              	.LVL153:
1047:Middlewares/Third_Party/SEGGER/RTT/SEGGER_RTT.c ****       _WriteNoCheck(pRing, pData, NumBytes);
 1409              		.loc 1 1047 7 view .LVU448
 1410 0028 3546     		mov	r5, r6
 1411 002a 3246     		mov	r2, r6
 1412 002c 3946     		mov	r1, r7
 1413 002e 2046     		mov	r0, r4
 1414              	.LVL154:
 1415              		.loc 1 1047 7 is_stmt 0 view .LVU449
 1416 0030 FFF7FEFF 		bl	_WriteNoCheck
 1417              	.LVL155:
 1418 0034 0BE0     		b	.L72
 1419              	.LVL156:
 1420              	.L73:
1048:Middlewares/Third_Party/SEGGER/RTT/SEGGER_RTT.c ****     }
1049:Middlewares/Third_Party/SEGGER/RTT/SEGGER_RTT.c ****     break;
1050:Middlewares/Third_Party/SEGGER/RTT/SEGGER_RTT.c ****   case SEGGER_RTT_MODE_NO_BLOCK_TRIM:
1051:Middlewares/Third_Party/SEGGER/RTT/SEGGER_RTT.c ****     //
1052:Middlewares/Third_Party/SEGGER/RTT/SEGGER_RTT.c ****     // If we are in trim mode, trim to what we can output without blocking.
1053:Middlewares/Third_Party/SEGGER/RTT/SEGGER_RTT.c ****     //
1054:Middlewares/Third_Party/SEGGER/RTT/SEGGER_RTT.c ****     Avail = _GetAvailWriteSpace(pRing);
 1421              		.loc 1 1054 5 is_stmt 1 view .LVU450
 1422              		.loc 1 1054 13 is_stmt 0 view .LVU451
 1423 0036 2046     		mov	r0, r4
 1424 0038 FFF7FEFF 		bl	_GetAvailWriteSpace
 1425              	.LVL157:
1055:Middlewares/Third_Party/SEGGER/RTT/SEGGER_RTT.c ****     Status = Avail < NumBytes ? Avail : NumBytes;
 1426              		.loc 1 1055 5 is_stmt 1 view .LVU452
 1427              		.loc 1 1055 12 is_stmt 0 view .LVU453
 1428 003c 3546     		mov	r5, r6
 1429 003e 8642     		cmp	r6, r0
 1430 0040 28BF     		it	cs
 1431 0042 0546     		movcs	r5, r0
 1432              	.LVL158:
1056:Middlewares/Third_Party/SEGGER/RTT/SEGGER_RTT.c ****     _WriteNoCheck(pRing, pData, Status);
 1433              		.loc 1 1056 5 is_stmt 1 view .LVU454
 1434 0044 2A46     		mov	r2, r5
 1435 0046 3946     		mov	r1, r7
 1436 0048 2046     		mov	r0, r4
 1437              	.LVL159:
 1438              		.loc 1 1056 5 is_stmt 0 view .LVU455
 1439 004a FFF7FEFF 		bl	_WriteNoCheck
 1440              	.LVL160:
1057:Middlewares/Third_Party/SEGGER/RTT/SEGGER_RTT.c ****     break;
 1441              		.loc 1 1057 5 is_stmt 1 view .LVU456
 1442              	.L72:
1058:Middlewares/Third_Party/SEGGER/RTT/SEGGER_RTT.c ****   case SEGGER_RTT_MODE_BLOCK_IF_FIFO_FULL:
1059:Middlewares/Third_Party/SEGGER/RTT/SEGGER_RTT.c ****     //
1060:Middlewares/Third_Party/SEGGER/RTT/SEGGER_RTT.c ****     // If we are in blocking mode, output everything.
1061:Middlewares/Third_Party/SEGGER/RTT/SEGGER_RTT.c ****     //
1062:Middlewares/Third_Party/SEGGER/RTT/SEGGER_RTT.c ****     Status = _WriteBlocking(pRing, pData, NumBytes);
ARM GAS  C:\Users\Administrator\AppData\Local\Temp\ccUGyMKj.s 			page 49


1063:Middlewares/Third_Party/SEGGER/RTT/SEGGER_RTT.c ****     break;
1064:Middlewares/Third_Party/SEGGER/RTT/SEGGER_RTT.c ****   default:
1065:Middlewares/Third_Party/SEGGER/RTT/SEGGER_RTT.c ****     Status = 0u;
1066:Middlewares/Third_Party/SEGGER/RTT/SEGGER_RTT.c ****     break;
1067:Middlewares/Third_Party/SEGGER/RTT/SEGGER_RTT.c ****   }
1068:Middlewares/Third_Party/SEGGER/RTT/SEGGER_RTT.c ****   //
1069:Middlewares/Third_Party/SEGGER/RTT/SEGGER_RTT.c ****   // Finish up.
1070:Middlewares/Third_Party/SEGGER/RTT/SEGGER_RTT.c ****   //
1071:Middlewares/Third_Party/SEGGER/RTT/SEGGER_RTT.c ****   return Status;
1072:Middlewares/Third_Party/SEGGER/RTT/SEGGER_RTT.c **** }
 1443              		.loc 1 1072 1 is_stmt 0 view .LVU457
 1444 004e 2846     		mov	r0, r5
 1445 0050 F8BD     		pop	{r3, r4, r5, r6, r7, pc}
 1446              	.LVL161:
 1447              	.L74:
1062:Middlewares/Third_Party/SEGGER/RTT/SEGGER_RTT.c ****     break;
 1448              		.loc 1 1062 5 is_stmt 1 view .LVU458
1062:Middlewares/Third_Party/SEGGER/RTT/SEGGER_RTT.c ****     break;
 1449              		.loc 1 1062 14 is_stmt 0 view .LVU459
 1450 0052 2046     		mov	r0, r4
 1451 0054 FFF7FEFF 		bl	_WriteBlocking
 1452              	.LVL162:
1062:Middlewares/Third_Party/SEGGER/RTT/SEGGER_RTT.c ****     break;
 1453              		.loc 1 1062 14 view .LVU460
 1454 0058 0546     		mov	r5, r0
 1455              	.LVL163:
1063:Middlewares/Third_Party/SEGGER/RTT/SEGGER_RTT.c ****   default:
 1456              		.loc 1 1063 5 is_stmt 1 view .LVU461
 1457 005a F8E7     		b	.L72
 1458              	.LVL164:
 1459              	.L76:
1036:Middlewares/Third_Party/SEGGER/RTT/SEGGER_RTT.c ****   case SEGGER_RTT_MODE_NO_BLOCK_SKIP:
 1460              		.loc 1 1036 3 is_stmt 0 view .LVU462
 1461 005c 0025     		movs	r5, #0
 1462              	.LVL165:
1071:Middlewares/Third_Party/SEGGER/RTT/SEGGER_RTT.c **** }
 1463              		.loc 1 1071 3 is_stmt 1 view .LVU463
1071:Middlewares/Third_Party/SEGGER/RTT/SEGGER_RTT.c **** }
 1464              		.loc 1 1071 10 is_stmt 0 view .LVU464
 1465 005e F6E7     		b	.L72
 1466              	.L79:
 1467              		.align	2
 1468              	.L78:
 1469 0060 00000000 		.word	_SEGGER_RTT
 1470              		.cfi_endproc
 1471              	.LFE10:
 1473              		.section	.text.SEGGER_RTT_WriteNoLock,"ax",%progbits
 1474              		.align	1
 1475              		.global	SEGGER_RTT_WriteNoLock
 1476              		.syntax unified
 1477              		.thumb
 1478              		.thumb_func
 1480              	SEGGER_RTT_WriteNoLock:
 1481              	.LVL166:
 1482              	.LFB11:
1073:Middlewares/Third_Party/SEGGER/RTT/SEGGER_RTT.c **** 
1074:Middlewares/Third_Party/SEGGER/RTT/SEGGER_RTT.c **** /*********************************************************************
ARM GAS  C:\Users\Administrator\AppData\Local\Temp\ccUGyMKj.s 			page 50


1075:Middlewares/Third_Party/SEGGER/RTT/SEGGER_RTT.c **** *
1076:Middlewares/Third_Party/SEGGER/RTT/SEGGER_RTT.c **** *       SEGGER_RTT_WriteNoLock
1077:Middlewares/Third_Party/SEGGER/RTT/SEGGER_RTT.c **** *
1078:Middlewares/Third_Party/SEGGER/RTT/SEGGER_RTT.c **** *  Function description
1079:Middlewares/Third_Party/SEGGER/RTT/SEGGER_RTT.c **** *    Stores a specified number of characters in SEGGER RTT
1080:Middlewares/Third_Party/SEGGER/RTT/SEGGER_RTT.c **** *    control block which is then read by the host.
1081:Middlewares/Third_Party/SEGGER/RTT/SEGGER_RTT.c **** *    SEGGER_RTT_WriteNoLock does not lock the application.
1082:Middlewares/Third_Party/SEGGER/RTT/SEGGER_RTT.c **** *
1083:Middlewares/Third_Party/SEGGER/RTT/SEGGER_RTT.c **** *  Parameters
1084:Middlewares/Third_Party/SEGGER/RTT/SEGGER_RTT.c **** *    BufferIndex  Index of "Up"-buffer to be used (e.g. 0 for "Terminal").
1085:Middlewares/Third_Party/SEGGER/RTT/SEGGER_RTT.c **** *    pBuffer      Pointer to character array. Does not need to point to a \0 terminated string.
1086:Middlewares/Third_Party/SEGGER/RTT/SEGGER_RTT.c **** *    NumBytes     Number of bytes to be stored in the SEGGER RTT control block.
1087:Middlewares/Third_Party/SEGGER/RTT/SEGGER_RTT.c **** *
1088:Middlewares/Third_Party/SEGGER/RTT/SEGGER_RTT.c **** *  Return value
1089:Middlewares/Third_Party/SEGGER/RTT/SEGGER_RTT.c **** *    Number of bytes which have been stored in the "Up"-buffer.
1090:Middlewares/Third_Party/SEGGER/RTT/SEGGER_RTT.c **** *
1091:Middlewares/Third_Party/SEGGER/RTT/SEGGER_RTT.c **** *  Notes
1092:Middlewares/Third_Party/SEGGER/RTT/SEGGER_RTT.c **** *    (1) Data is stored according to buffer flags.
1093:Middlewares/Third_Party/SEGGER/RTT/SEGGER_RTT.c **** *    (2) For performance reasons this function does not call Init()
1094:Middlewares/Third_Party/SEGGER/RTT/SEGGER_RTT.c **** *        and may only be called after RTT has been initialized.
1095:Middlewares/Third_Party/SEGGER/RTT/SEGGER_RTT.c **** *        Either by calling SEGGER_RTT_Init() or calling another RTT API function first.
1096:Middlewares/Third_Party/SEGGER/RTT/SEGGER_RTT.c **** */
1097:Middlewares/Third_Party/SEGGER/RTT/SEGGER_RTT.c **** unsigned SEGGER_RTT_WriteNoLock(unsigned BufferIndex, const void* pBuffer, unsigned NumBytes) {
 1483              		.loc 1 1097 95 is_stmt 1 view -0
 1484              		.cfi_startproc
 1485              		@ args = 0, pretend = 0, frame = 0
 1486              		@ frame_needed = 0, uses_anonymous_args = 0
 1487              		.loc 1 1097 95 is_stmt 0 view .LVU466
 1488 0000 2DE9F041 		push	{r4, r5, r6, r7, r8, lr}
 1489              		.cfi_def_cfa_offset 24
 1490              		.cfi_offset 4, -24
 1491              		.cfi_offset 5, -20
 1492              		.cfi_offset 6, -16
 1493              		.cfi_offset 7, -12
 1494              		.cfi_offset 8, -8
 1495              		.cfi_offset 14, -4
 1496 0004 0F46     		mov	r7, r1
 1497 0006 1546     		mov	r5, r2
 1498 0008 9046     		mov	r8, r2
1098:Middlewares/Third_Party/SEGGER/RTT/SEGGER_RTT.c ****   unsigned              Status;
 1499              		.loc 1 1098 3 is_stmt 1 view .LVU467
1099:Middlewares/Third_Party/SEGGER/RTT/SEGGER_RTT.c ****   unsigned              Avail;
 1500              		.loc 1 1099 3 view .LVU468
1100:Middlewares/Third_Party/SEGGER/RTT/SEGGER_RTT.c ****   const char*           pData;
 1501              		.loc 1 1100 3 view .LVU469
1101:Middlewares/Third_Party/SEGGER/RTT/SEGGER_RTT.c ****   SEGGER_RTT_BUFFER_UP* pRing;
 1502              		.loc 1 1101 3 view .LVU470
1102:Middlewares/Third_Party/SEGGER/RTT/SEGGER_RTT.c ****   //
1103:Middlewares/Third_Party/SEGGER/RTT/SEGGER_RTT.c ****   // Get "to-host" ring buffer.
1104:Middlewares/Third_Party/SEGGER/RTT/SEGGER_RTT.c ****   //
1105:Middlewares/Third_Party/SEGGER/RTT/SEGGER_RTT.c ****   pData = (const char *)pBuffer;
 1503              		.loc 1 1105 3 view .LVU471
 1504              	.LVL167:
1106:Middlewares/Third_Party/SEGGER/RTT/SEGGER_RTT.c ****   pRing = (SEGGER_RTT_BUFFER_UP*)((char*)&_SEGGER_RTT.aUp[BufferIndex] + SEGGER_RTT_UNCACHED_OFF); 
 1505              		.loc 1 1106 3 view .LVU472
 1506              		.loc 1 1106 9 is_stmt 0 view .LVU473
 1507 000a 431C     		adds	r3, r0, #1
ARM GAS  C:\Users\Administrator\AppData\Local\Temp\ccUGyMKj.s 			page 51


 1508 000c 03EB4302 		add	r2, r3, r3, lsl #1
 1509              	.LVL168:
 1510              		.loc 1 1106 9 view .LVU474
 1511 0010 184B     		ldr	r3, .L86
 1512 0012 03EBC201 		add	r1, r3, r2, lsl #3
 1513              	.LVL169:
 1514              		.loc 1 1106 9 view .LVU475
 1515 0016 0E46     		mov	r6, r1
 1516              	.LVL170:
1107:Middlewares/Third_Party/SEGGER/RTT/SEGGER_RTT.c ****   //
1108:Middlewares/Third_Party/SEGGER/RTT/SEGGER_RTT.c ****   // How we output depends upon the mode...
1109:Middlewares/Third_Party/SEGGER/RTT/SEGGER_RTT.c ****   //
1110:Middlewares/Third_Party/SEGGER/RTT/SEGGER_RTT.c ****   switch (pRing->Flags) {
 1517              		.loc 1 1110 3 is_stmt 1 view .LVU476
 1518              		.loc 1 1110 16 is_stmt 0 view .LVU477
 1519 0018 00EB4000 		add	r0, r0, r0, lsl #1
 1520              	.LVL171:
 1521              		.loc 1 1110 16 view .LVU478
 1522 001c 03EBC003 		add	r3, r3, r0, lsl #3
 1523 0020 DC6A     		ldr	r4, [r3, #44]
 1524              		.loc 1 1110 3 view .LVU479
 1525 0022 012C     		cmp	r4, #1
 1526 0024 0ED0     		beq	.L81
 1527 0026 022C     		cmp	r4, #2
 1528 0028 1BD0     		beq	.L82
 1529 002a 0CBB     		cbnz	r4, .L84
1111:Middlewares/Third_Party/SEGGER/RTT/SEGGER_RTT.c ****   case SEGGER_RTT_MODE_NO_BLOCK_SKIP:
1112:Middlewares/Third_Party/SEGGER/RTT/SEGGER_RTT.c ****     //
1113:Middlewares/Third_Party/SEGGER/RTT/SEGGER_RTT.c ****     // If we are in skip mode and there is no space for the whole
1114:Middlewares/Third_Party/SEGGER/RTT/SEGGER_RTT.c ****     // of this output, don't bother.
1115:Middlewares/Third_Party/SEGGER/RTT/SEGGER_RTT.c ****     //
1116:Middlewares/Third_Party/SEGGER/RTT/SEGGER_RTT.c ****     Avail = _GetAvailWriteSpace(pRing);
 1530              		.loc 1 1116 5 is_stmt 1 view .LVU480
 1531              		.loc 1 1116 13 is_stmt 0 view .LVU481
 1532 002c 0846     		mov	r0, r1
 1533 002e FFF7FEFF 		bl	_GetAvailWriteSpace
 1534              	.LVL172:
1117:Middlewares/Third_Party/SEGGER/RTT/SEGGER_RTT.c ****     if (Avail < NumBytes) {
 1535              		.loc 1 1117 5 is_stmt 1 view .LVU482
 1536              		.loc 1 1117 8 is_stmt 0 view .LVU483
 1537 0032 8542     		cmp	r5, r0
 1538 0034 12D8     		bhi	.L80
1118:Middlewares/Third_Party/SEGGER/RTT/SEGGER_RTT.c ****       Status = 0u;
1119:Middlewares/Third_Party/SEGGER/RTT/SEGGER_RTT.c ****     } else {
1120:Middlewares/Third_Party/SEGGER/RTT/SEGGER_RTT.c ****       Status = NumBytes;
 1539              		.loc 1 1120 7 is_stmt 1 view .LVU484
 1540              	.LVL173:
1121:Middlewares/Third_Party/SEGGER/RTT/SEGGER_RTT.c ****       _WriteNoCheck(pRing, pData, NumBytes);
 1541              		.loc 1 1121 7 view .LVU485
 1542 0036 2C46     		mov	r4, r5
 1543 0038 2A46     		mov	r2, r5
 1544 003a 3946     		mov	r1, r7
 1545 003c 3046     		mov	r0, r6
 1546              	.LVL174:
 1547              		.loc 1 1121 7 is_stmt 0 view .LVU486
 1548 003e FFF7FEFF 		bl	_WriteNoCheck
 1549              	.LVL175:
ARM GAS  C:\Users\Administrator\AppData\Local\Temp\ccUGyMKj.s 			page 52


 1550 0042 0BE0     		b	.L80
 1551              	.LVL176:
 1552              	.L81:
1122:Middlewares/Third_Party/SEGGER/RTT/SEGGER_RTT.c ****     }
1123:Middlewares/Third_Party/SEGGER/RTT/SEGGER_RTT.c ****     break;
1124:Middlewares/Third_Party/SEGGER/RTT/SEGGER_RTT.c ****   case SEGGER_RTT_MODE_NO_BLOCK_TRIM:
1125:Middlewares/Third_Party/SEGGER/RTT/SEGGER_RTT.c ****     //
1126:Middlewares/Third_Party/SEGGER/RTT/SEGGER_RTT.c ****     // If we are in trim mode, trim to what we can output without blocking.
1127:Middlewares/Third_Party/SEGGER/RTT/SEGGER_RTT.c ****     //
1128:Middlewares/Third_Party/SEGGER/RTT/SEGGER_RTT.c ****     Avail = _GetAvailWriteSpace(pRing);
 1553              		.loc 1 1128 5 is_stmt 1 view .LVU487
 1554              		.loc 1 1128 13 is_stmt 0 view .LVU488
 1555 0044 0846     		mov	r0, r1
 1556 0046 FFF7FEFF 		bl	_GetAvailWriteSpace
 1557              	.LVL177:
1129:Middlewares/Third_Party/SEGGER/RTT/SEGGER_RTT.c ****     Status = Avail < NumBytes ? Avail : NumBytes;
 1558              		.loc 1 1129 5 is_stmt 1 view .LVU489
 1559              		.loc 1 1129 12 is_stmt 0 view .LVU490
 1560 004a 4446     		mov	r4, r8
 1561 004c 8045     		cmp	r8, r0
 1562 004e 28BF     		it	cs
 1563 0050 0446     		movcs	r4, r0
 1564              	.LVL178:
1130:Middlewares/Third_Party/SEGGER/RTT/SEGGER_RTT.c ****     _WriteNoCheck(pRing, pData, Status);
 1565              		.loc 1 1130 5 is_stmt 1 view .LVU491
 1566 0052 2246     		mov	r2, r4
 1567 0054 3946     		mov	r1, r7
 1568 0056 3046     		mov	r0, r6
 1569              	.LVL179:
 1570              		.loc 1 1130 5 is_stmt 0 view .LVU492
 1571 0058 FFF7FEFF 		bl	_WriteNoCheck
 1572              	.LVL180:
1131:Middlewares/Third_Party/SEGGER/RTT/SEGGER_RTT.c ****     break;
 1573              		.loc 1 1131 5 is_stmt 1 view .LVU493
 1574              	.L80:
1132:Middlewares/Third_Party/SEGGER/RTT/SEGGER_RTT.c ****   case SEGGER_RTT_MODE_BLOCK_IF_FIFO_FULL:
1133:Middlewares/Third_Party/SEGGER/RTT/SEGGER_RTT.c ****     //
1134:Middlewares/Third_Party/SEGGER/RTT/SEGGER_RTT.c ****     // If we are in blocking mode, output everything.
1135:Middlewares/Third_Party/SEGGER/RTT/SEGGER_RTT.c ****     //
1136:Middlewares/Third_Party/SEGGER/RTT/SEGGER_RTT.c ****     Status = _WriteBlocking(pRing, pData, NumBytes);
1137:Middlewares/Third_Party/SEGGER/RTT/SEGGER_RTT.c ****     break;
1138:Middlewares/Third_Party/SEGGER/RTT/SEGGER_RTT.c ****   default:
1139:Middlewares/Third_Party/SEGGER/RTT/SEGGER_RTT.c ****     Status = 0u;
1140:Middlewares/Third_Party/SEGGER/RTT/SEGGER_RTT.c ****     break;
1141:Middlewares/Third_Party/SEGGER/RTT/SEGGER_RTT.c ****   }
1142:Middlewares/Third_Party/SEGGER/RTT/SEGGER_RTT.c ****   //
1143:Middlewares/Third_Party/SEGGER/RTT/SEGGER_RTT.c ****   // Finish up.
1144:Middlewares/Third_Party/SEGGER/RTT/SEGGER_RTT.c ****   //
1145:Middlewares/Third_Party/SEGGER/RTT/SEGGER_RTT.c ****   return Status;
1146:Middlewares/Third_Party/SEGGER/RTT/SEGGER_RTT.c **** }
 1575              		.loc 1 1146 1 is_stmt 0 view .LVU494
 1576 005c 2046     		mov	r0, r4
 1577 005e BDE8F081 		pop	{r4, r5, r6, r7, r8, pc}
 1578              	.LVL181:
 1579              	.L82:
1136:Middlewares/Third_Party/SEGGER/RTT/SEGGER_RTT.c ****     break;
 1580              		.loc 1 1136 5 is_stmt 1 view .LVU495
ARM GAS  C:\Users\Administrator\AppData\Local\Temp\ccUGyMKj.s 			page 53


1136:Middlewares/Third_Party/SEGGER/RTT/SEGGER_RTT.c ****     break;
 1581              		.loc 1 1136 14 is_stmt 0 view .LVU496
 1582 0062 2A46     		mov	r2, r5
 1583 0064 3946     		mov	r1, r7
 1584              	.LVL182:
1136:Middlewares/Third_Party/SEGGER/RTT/SEGGER_RTT.c ****     break;
 1585              		.loc 1 1136 14 view .LVU497
 1586 0066 3046     		mov	r0, r6
 1587 0068 FFF7FEFF 		bl	_WriteBlocking
 1588              	.LVL183:
 1589 006c 0446     		mov	r4, r0
 1590              	.LVL184:
1137:Middlewares/Third_Party/SEGGER/RTT/SEGGER_RTT.c ****   default:
 1591              		.loc 1 1137 5 is_stmt 1 view .LVU498
 1592 006e F5E7     		b	.L80
 1593              	.LVL185:
 1594              	.L84:
1110:Middlewares/Third_Party/SEGGER/RTT/SEGGER_RTT.c ****   case SEGGER_RTT_MODE_NO_BLOCK_SKIP:
 1595              		.loc 1 1110 3 is_stmt 0 view .LVU499
 1596 0070 0024     		movs	r4, #0
 1597              	.LVL186:
1145:Middlewares/Third_Party/SEGGER/RTT/SEGGER_RTT.c **** }
 1598              		.loc 1 1145 3 is_stmt 1 view .LVU500
1145:Middlewares/Third_Party/SEGGER/RTT/SEGGER_RTT.c **** }
 1599              		.loc 1 1145 10 is_stmt 0 view .LVU501
 1600 0072 F3E7     		b	.L80
 1601              	.L87:
 1602              		.align	2
 1603              	.L86:
 1604 0074 00000000 		.word	_SEGGER_RTT
 1605              		.cfi_endproc
 1606              	.LFE11:
 1608              		.section	.text.SEGGER_RTT_WriteDownBuffer,"ax",%progbits
 1609              		.align	1
 1610              		.global	SEGGER_RTT_WriteDownBuffer
 1611              		.syntax unified
 1612              		.thumb
 1613              		.thumb_func
 1615              	SEGGER_RTT_WriteDownBuffer:
 1616              	.LVL187:
 1617              	.LFB12:
1147:Middlewares/Third_Party/SEGGER/RTT/SEGGER_RTT.c **** 
1148:Middlewares/Third_Party/SEGGER/RTT/SEGGER_RTT.c **** /*********************************************************************
1149:Middlewares/Third_Party/SEGGER/RTT/SEGGER_RTT.c **** *
1150:Middlewares/Third_Party/SEGGER/RTT/SEGGER_RTT.c **** *       SEGGER_RTT_WriteDownBuffer
1151:Middlewares/Third_Party/SEGGER/RTT/SEGGER_RTT.c **** *
1152:Middlewares/Third_Party/SEGGER/RTT/SEGGER_RTT.c **** *  Function description
1153:Middlewares/Third_Party/SEGGER/RTT/SEGGER_RTT.c **** *    Stores a specified number of characters in SEGGER RTT control block in a <Down> buffer.
1154:Middlewares/Third_Party/SEGGER/RTT/SEGGER_RTT.c **** *
1155:Middlewares/Third_Party/SEGGER/RTT/SEGGER_RTT.c **** *  Parameters
1156:Middlewares/Third_Party/SEGGER/RTT/SEGGER_RTT.c **** *    BufferIndex  Index of "Up"-buffer to be used (e.g. 0 for "Terminal").
1157:Middlewares/Third_Party/SEGGER/RTT/SEGGER_RTT.c **** *    pBuffer      Pointer to character array. Does not need to point to a \0 terminated string.
1158:Middlewares/Third_Party/SEGGER/RTT/SEGGER_RTT.c **** *    NumBytes     Number of bytes to be stored in the SEGGER RTT control block.
1159:Middlewares/Third_Party/SEGGER/RTT/SEGGER_RTT.c **** *
1160:Middlewares/Third_Party/SEGGER/RTT/SEGGER_RTT.c **** *  Return value
1161:Middlewares/Third_Party/SEGGER/RTT/SEGGER_RTT.c **** *    Number of bytes which have been stored in the "Down"-buffer.
1162:Middlewares/Third_Party/SEGGER/RTT/SEGGER_RTT.c **** *
ARM GAS  C:\Users\Administrator\AppData\Local\Temp\ccUGyMKj.s 			page 54


1163:Middlewares/Third_Party/SEGGER/RTT/SEGGER_RTT.c **** *  Notes
1164:Middlewares/Third_Party/SEGGER/RTT/SEGGER_RTT.c **** *    (1) Data is stored according to buffer flags.
1165:Middlewares/Third_Party/SEGGER/RTT/SEGGER_RTT.c **** *
1166:Middlewares/Third_Party/SEGGER/RTT/SEGGER_RTT.c **** *  Additional information
1167:Middlewares/Third_Party/SEGGER/RTT/SEGGER_RTT.c **** *    This function must not be called when J-Link might also do RTT.
1168:Middlewares/Third_Party/SEGGER/RTT/SEGGER_RTT.c **** *    This function locks against all other RTT operations. I.e. during
1169:Middlewares/Third_Party/SEGGER/RTT/SEGGER_RTT.c **** *    the write operation, writing from the application is also locked.
1170:Middlewares/Third_Party/SEGGER/RTT/SEGGER_RTT.c **** *    If only one consumer writes to the down buffer, 
1171:Middlewares/Third_Party/SEGGER/RTT/SEGGER_RTT.c **** *    call SEGGER_RTT_WriteDownBufferNoLock() instead.
1172:Middlewares/Third_Party/SEGGER/RTT/SEGGER_RTT.c **** */
1173:Middlewares/Third_Party/SEGGER/RTT/SEGGER_RTT.c **** unsigned SEGGER_RTT_WriteDownBuffer(unsigned BufferIndex, const void* pBuffer, unsigned NumBytes) {
 1618              		.loc 1 1173 99 is_stmt 1 view -0
 1619              		.cfi_startproc
 1620              		@ args = 0, pretend = 0, frame = 0
 1621              		@ frame_needed = 0, uses_anonymous_args = 0
 1622              		.loc 1 1173 99 is_stmt 0 view .LVU503
 1623 0000 F8B5     		push	{r3, r4, r5, r6, r7, lr}
 1624              		.cfi_def_cfa_offset 24
 1625              		.cfi_offset 3, -24
 1626              		.cfi_offset 4, -20
 1627              		.cfi_offset 5, -16
 1628              		.cfi_offset 6, -12
 1629              		.cfi_offset 7, -8
 1630              		.cfi_offset 14, -4
 1631 0002 0546     		mov	r5, r0
 1632 0004 0E46     		mov	r6, r1
 1633 0006 1746     		mov	r7, r2
1174:Middlewares/Third_Party/SEGGER/RTT/SEGGER_RTT.c ****   unsigned Status;
 1634              		.loc 1 1174 3 is_stmt 1 view .LVU504
 1635              	.LBB8:
1175:Middlewares/Third_Party/SEGGER/RTT/SEGGER_RTT.c **** 
1176:Middlewares/Third_Party/SEGGER/RTT/SEGGER_RTT.c ****   INIT();
 1636              		.loc 1 1176 3 view .LVU505
 1637              		.loc 1 1176 3 view .LVU506
 1638              	.LVL188:
 1639              		.loc 1 1176 3 view .LVU507
 1640              		.loc 1 1176 3 view .LVU508
 1641 0008 094B     		ldr	r3, .L92
 1642 000a 1B78     		ldrb	r3, [r3]	@ zero_extendqisi2
 1643 000c 6BB1     		cbz	r3, .L91
 1644              	.LVL189:
 1645              	.L89:
 1646              		.loc 1 1176 3 view .LVU509
 1647              	.LBE8:
 1648              		.loc 1 1176 9 view .LVU510
 1649              	.LBB9:
1177:Middlewares/Third_Party/SEGGER/RTT/SEGGER_RTT.c ****   SEGGER_RTT_LOCK();
 1650              		.loc 1 1177 3 view .LVU511
 1651              		.loc 1 1177 3 view .LVU512
 1652              		.syntax unified
 1653              	@ 1177 "Middlewares/Third_Party/SEGGER/RTT/SEGGER_RTT.c" 1
 1654 000e EFF31184 		mrs   r4, basepri  
 1655 0012 4FF02001 		mov   r1, #32       
 1656 0016 81F31188 		msr   basepri, r1  
 1657              		
 1658              	@ 0 "" 2
 1659              	.LVL190:
ARM GAS  C:\Users\Administrator\AppData\Local\Temp\ccUGyMKj.s 			page 55


 1660              		.loc 1 1177 20 view .LVU513
1178:Middlewares/Third_Party/SEGGER/RTT/SEGGER_RTT.c ****   Status = SEGGER_RTT_WriteDownBufferNoLock(BufferIndex, pBuffer, NumBytes);  // Call the non-locki
 1661              		.loc 1 1178 3 view .LVU514
 1662              		.loc 1 1178 12 is_stmt 0 view .LVU515
 1663              		.thumb
 1664              		.syntax unified
 1665 001a 3A46     		mov	r2, r7
 1666 001c 3146     		mov	r1, r6
 1667 001e 2846     		mov	r0, r5
 1668 0020 FFF7FEFF 		bl	SEGGER_RTT_WriteDownBufferNoLock
 1669              	.LVL191:
1179:Middlewares/Third_Party/SEGGER/RTT/SEGGER_RTT.c ****   SEGGER_RTT_UNLOCK();
 1670              		.loc 1 1179 3 is_stmt 1 view .LVU516
 1671              		.syntax unified
 1672              	@ 1179 "Middlewares/Third_Party/SEGGER/RTT/SEGGER_RTT.c" 1
 1673 0024 84F31188 		msr   basepri, r4  
 1674              		
 1675              	@ 0 "" 2
 1676              		.thumb
 1677              		.syntax unified
 1678              	.LBE9:
 1679              		.loc 1 1179 22 view .LVU517
1180:Middlewares/Third_Party/SEGGER/RTT/SEGGER_RTT.c ****   return Status;
 1680              		.loc 1 1180 3 view .LVU518
1181:Middlewares/Third_Party/SEGGER/RTT/SEGGER_RTT.c **** }
 1681              		.loc 1 1181 1 is_stmt 0 view .LVU519
 1682 0028 F8BD     		pop	{r3, r4, r5, r6, r7, pc}
 1683              	.LVL192:
 1684              	.L91:
 1685              	.LBB10:
1176:Middlewares/Third_Party/SEGGER/RTT/SEGGER_RTT.c ****   SEGGER_RTT_LOCK();
 1686              		.loc 1 1176 3 is_stmt 1 discriminator 1 view .LVU520
 1687 002a FFF7FEFF 		bl	_DoInit
 1688              	.LVL193:
1176:Middlewares/Third_Party/SEGGER/RTT/SEGGER_RTT.c ****   SEGGER_RTT_LOCK();
 1689              		.loc 1 1176 3 is_stmt 0 discriminator 1 view .LVU521
 1690 002e EEE7     		b	.L89
 1691              	.L93:
 1692              		.align	2
 1693              	.L92:
 1694 0030 00000000 		.word	_SEGGER_RTT
 1695              	.LBE10:
 1696              		.cfi_endproc
 1697              	.LFE12:
 1699              		.section	.text.SEGGER_RTT_Write,"ax",%progbits
 1700              		.align	1
 1701              		.global	SEGGER_RTT_Write
 1702              		.syntax unified
 1703              		.thumb
 1704              		.thumb_func
 1706              	SEGGER_RTT_Write:
 1707              	.LVL194:
 1708              	.LFB13:
1182:Middlewares/Third_Party/SEGGER/RTT/SEGGER_RTT.c **** 
1183:Middlewares/Third_Party/SEGGER/RTT/SEGGER_RTT.c **** /*********************************************************************
1184:Middlewares/Third_Party/SEGGER/RTT/SEGGER_RTT.c **** *
1185:Middlewares/Third_Party/SEGGER/RTT/SEGGER_RTT.c **** *       SEGGER_RTT_Write
ARM GAS  C:\Users\Administrator\AppData\Local\Temp\ccUGyMKj.s 			page 56


1186:Middlewares/Third_Party/SEGGER/RTT/SEGGER_RTT.c **** *
1187:Middlewares/Third_Party/SEGGER/RTT/SEGGER_RTT.c **** *  Function description
1188:Middlewares/Third_Party/SEGGER/RTT/SEGGER_RTT.c **** *    Stores a specified number of characters in SEGGER RTT
1189:Middlewares/Third_Party/SEGGER/RTT/SEGGER_RTT.c **** *    control block which is then read by the host.
1190:Middlewares/Third_Party/SEGGER/RTT/SEGGER_RTT.c **** *
1191:Middlewares/Third_Party/SEGGER/RTT/SEGGER_RTT.c **** *  Parameters
1192:Middlewares/Third_Party/SEGGER/RTT/SEGGER_RTT.c **** *    BufferIndex  Index of "Up"-buffer to be used (e.g. 0 for "Terminal").
1193:Middlewares/Third_Party/SEGGER/RTT/SEGGER_RTT.c **** *    pBuffer      Pointer to character array. Does not need to point to a \0 terminated string.
1194:Middlewares/Third_Party/SEGGER/RTT/SEGGER_RTT.c **** *    NumBytes     Number of bytes to be stored in the SEGGER RTT control block.
1195:Middlewares/Third_Party/SEGGER/RTT/SEGGER_RTT.c **** *
1196:Middlewares/Third_Party/SEGGER/RTT/SEGGER_RTT.c **** *  Return value
1197:Middlewares/Third_Party/SEGGER/RTT/SEGGER_RTT.c **** *    Number of bytes which have been stored in the "Up"-buffer.
1198:Middlewares/Third_Party/SEGGER/RTT/SEGGER_RTT.c **** *
1199:Middlewares/Third_Party/SEGGER/RTT/SEGGER_RTT.c **** *  Notes
1200:Middlewares/Third_Party/SEGGER/RTT/SEGGER_RTT.c **** *    (1) Data is stored according to buffer flags.
1201:Middlewares/Third_Party/SEGGER/RTT/SEGGER_RTT.c **** */
1202:Middlewares/Third_Party/SEGGER/RTT/SEGGER_RTT.c **** unsigned SEGGER_RTT_Write(unsigned BufferIndex, const void* pBuffer, unsigned NumBytes) {
 1709              		.loc 1 1202 89 is_stmt 1 view -0
 1710              		.cfi_startproc
 1711              		@ args = 0, pretend = 0, frame = 0
 1712              		@ frame_needed = 0, uses_anonymous_args = 0
 1713              		.loc 1 1202 89 is_stmt 0 view .LVU523
 1714 0000 F8B5     		push	{r3, r4, r5, r6, r7, lr}
 1715              		.cfi_def_cfa_offset 24
 1716              		.cfi_offset 3, -24
 1717              		.cfi_offset 4, -20
 1718              		.cfi_offset 5, -16
 1719              		.cfi_offset 6, -12
 1720              		.cfi_offset 7, -8
 1721              		.cfi_offset 14, -4
 1722 0002 0546     		mov	r5, r0
 1723 0004 0E46     		mov	r6, r1
 1724 0006 1746     		mov	r7, r2
1203:Middlewares/Third_Party/SEGGER/RTT/SEGGER_RTT.c ****   unsigned Status;
 1725              		.loc 1 1203 3 is_stmt 1 view .LVU524
 1726              	.LBB11:
1204:Middlewares/Third_Party/SEGGER/RTT/SEGGER_RTT.c **** 
1205:Middlewares/Third_Party/SEGGER/RTT/SEGGER_RTT.c ****   INIT();
 1727              		.loc 1 1205 3 view .LVU525
 1728              		.loc 1 1205 3 view .LVU526
 1729              	.LVL195:
 1730              		.loc 1 1205 3 view .LVU527
 1731              		.loc 1 1205 3 view .LVU528
 1732 0008 094B     		ldr	r3, .L98
 1733 000a 1B78     		ldrb	r3, [r3]	@ zero_extendqisi2
 1734 000c 6BB1     		cbz	r3, .L97
 1735              	.LVL196:
 1736              	.L95:
 1737              		.loc 1 1205 3 view .LVU529
 1738              	.LBE11:
 1739              		.loc 1 1205 9 view .LVU530
 1740              	.LBB12:
1206:Middlewares/Third_Party/SEGGER/RTT/SEGGER_RTT.c ****   SEGGER_RTT_LOCK();
 1741              		.loc 1 1206 3 view .LVU531
 1742              		.loc 1 1206 3 view .LVU532
 1743              		.syntax unified
 1744              	@ 1206 "Middlewares/Third_Party/SEGGER/RTT/SEGGER_RTT.c" 1
ARM GAS  C:\Users\Administrator\AppData\Local\Temp\ccUGyMKj.s 			page 57


 1745 000e EFF31184 		mrs   r4, basepri  
 1746 0012 4FF02001 		mov   r1, #32       
 1747 0016 81F31188 		msr   basepri, r1  
 1748              		
 1749              	@ 0 "" 2
 1750              	.LVL197:
 1751              		.loc 1 1206 20 view .LVU533
1207:Middlewares/Third_Party/SEGGER/RTT/SEGGER_RTT.c ****   Status = SEGGER_RTT_WriteNoLock(BufferIndex, pBuffer, NumBytes);  // Call the non-locking write f
 1752              		.loc 1 1207 3 view .LVU534
 1753              		.loc 1 1207 12 is_stmt 0 view .LVU535
 1754              		.thumb
 1755              		.syntax unified
 1756 001a 3A46     		mov	r2, r7
 1757 001c 3146     		mov	r1, r6
 1758 001e 2846     		mov	r0, r5
 1759 0020 FFF7FEFF 		bl	SEGGER_RTT_WriteNoLock
 1760              	.LVL198:
1208:Middlewares/Third_Party/SEGGER/RTT/SEGGER_RTT.c ****   SEGGER_RTT_UNLOCK();
 1761              		.loc 1 1208 3 is_stmt 1 view .LVU536
 1762              		.syntax unified
 1763              	@ 1208 "Middlewares/Third_Party/SEGGER/RTT/SEGGER_RTT.c" 1
 1764 0024 84F31188 		msr   basepri, r4  
 1765              		
 1766              	@ 0 "" 2
 1767              		.thumb
 1768              		.syntax unified
 1769              	.LBE12:
 1770              		.loc 1 1208 22 view .LVU537
1209:Middlewares/Third_Party/SEGGER/RTT/SEGGER_RTT.c ****   return Status;
 1771              		.loc 1 1209 3 view .LVU538
1210:Middlewares/Third_Party/SEGGER/RTT/SEGGER_RTT.c **** }
 1772              		.loc 1 1210 1 is_stmt 0 view .LVU539
 1773 0028 F8BD     		pop	{r3, r4, r5, r6, r7, pc}
 1774              	.LVL199:
 1775              	.L97:
 1776              	.LBB13:
1205:Middlewares/Third_Party/SEGGER/RTT/SEGGER_RTT.c ****   SEGGER_RTT_LOCK();
 1777              		.loc 1 1205 3 is_stmt 1 discriminator 1 view .LVU540
 1778 002a FFF7FEFF 		bl	_DoInit
 1779              	.LVL200:
1205:Middlewares/Third_Party/SEGGER/RTT/SEGGER_RTT.c ****   SEGGER_RTT_LOCK();
 1780              		.loc 1 1205 3 is_stmt 0 discriminator 1 view .LVU541
 1781 002e EEE7     		b	.L95
 1782              	.L99:
 1783              		.align	2
 1784              	.L98:
 1785 0030 00000000 		.word	_SEGGER_RTT
 1786              	.LBE13:
 1787              		.cfi_endproc
 1788              	.LFE13:
 1790              		.section	.text.SEGGER_RTT_WriteString,"ax",%progbits
 1791              		.align	1
 1792              		.global	SEGGER_RTT_WriteString
 1793              		.syntax unified
 1794              		.thumb
 1795              		.thumb_func
 1797              	SEGGER_RTT_WriteString:
ARM GAS  C:\Users\Administrator\AppData\Local\Temp\ccUGyMKj.s 			page 58


 1798              	.LVL201:
 1799              	.LFB14:
1211:Middlewares/Third_Party/SEGGER/RTT/SEGGER_RTT.c **** 
1212:Middlewares/Third_Party/SEGGER/RTT/SEGGER_RTT.c **** /*********************************************************************
1213:Middlewares/Third_Party/SEGGER/RTT/SEGGER_RTT.c **** *
1214:Middlewares/Third_Party/SEGGER/RTT/SEGGER_RTT.c **** *       SEGGER_RTT_WriteString
1215:Middlewares/Third_Party/SEGGER/RTT/SEGGER_RTT.c **** *
1216:Middlewares/Third_Party/SEGGER/RTT/SEGGER_RTT.c **** *  Function description
1217:Middlewares/Third_Party/SEGGER/RTT/SEGGER_RTT.c **** *    Stores string in SEGGER RTT control block.
1218:Middlewares/Third_Party/SEGGER/RTT/SEGGER_RTT.c **** *    This data is read by the host.
1219:Middlewares/Third_Party/SEGGER/RTT/SEGGER_RTT.c **** *
1220:Middlewares/Third_Party/SEGGER/RTT/SEGGER_RTT.c **** *  Parameters
1221:Middlewares/Third_Party/SEGGER/RTT/SEGGER_RTT.c **** *    BufferIndex  Index of "Up"-buffer to be used (e.g. 0 for "Terminal").
1222:Middlewares/Third_Party/SEGGER/RTT/SEGGER_RTT.c **** *    s            Pointer to string.
1223:Middlewares/Third_Party/SEGGER/RTT/SEGGER_RTT.c **** *
1224:Middlewares/Third_Party/SEGGER/RTT/SEGGER_RTT.c **** *  Return value
1225:Middlewares/Third_Party/SEGGER/RTT/SEGGER_RTT.c **** *    Number of bytes which have been stored in the "Up"-buffer.
1226:Middlewares/Third_Party/SEGGER/RTT/SEGGER_RTT.c **** *
1227:Middlewares/Third_Party/SEGGER/RTT/SEGGER_RTT.c **** *  Notes
1228:Middlewares/Third_Party/SEGGER/RTT/SEGGER_RTT.c **** *    (1) Data is stored according to buffer flags.
1229:Middlewares/Third_Party/SEGGER/RTT/SEGGER_RTT.c **** *    (2) String passed to this function has to be \0 terminated
1230:Middlewares/Third_Party/SEGGER/RTT/SEGGER_RTT.c **** *    (3) \0 termination character is *not* stored in RTT buffer
1231:Middlewares/Third_Party/SEGGER/RTT/SEGGER_RTT.c **** */
1232:Middlewares/Third_Party/SEGGER/RTT/SEGGER_RTT.c **** unsigned SEGGER_RTT_WriteString(unsigned BufferIndex, const char* s) {
 1800              		.loc 1 1232 70 is_stmt 1 view -0
 1801              		.cfi_startproc
 1802              		@ args = 0, pretend = 0, frame = 0
 1803              		@ frame_needed = 0, uses_anonymous_args = 0
 1804              		.loc 1 1232 70 is_stmt 0 view .LVU543
 1805 0000 38B5     		push	{r3, r4, r5, lr}
 1806              		.cfi_def_cfa_offset 16
 1807              		.cfi_offset 3, -16
 1808              		.cfi_offset 4, -12
 1809              		.cfi_offset 5, -8
 1810              		.cfi_offset 14, -4
 1811 0002 0546     		mov	r5, r0
 1812 0004 0C46     		mov	r4, r1
1233:Middlewares/Third_Party/SEGGER/RTT/SEGGER_RTT.c ****   unsigned Len;
 1813              		.loc 1 1233 3 is_stmt 1 view .LVU544
1234:Middlewares/Third_Party/SEGGER/RTT/SEGGER_RTT.c **** 
1235:Middlewares/Third_Party/SEGGER/RTT/SEGGER_RTT.c ****   Len = STRLEN(s);
 1814              		.loc 1 1235 3 view .LVU545
 1815              		.loc 1 1235 9 is_stmt 0 view .LVU546
 1816 0006 0846     		mov	r0, r1
 1817              	.LVL202:
 1818              		.loc 1 1235 9 view .LVU547
 1819 0008 FFF7FEFF 		bl	strlen
 1820              	.LVL203:
 1821              		.loc 1 1235 9 view .LVU548
 1822 000c 0246     		mov	r2, r0
 1823              	.LVL204:
1236:Middlewares/Third_Party/SEGGER/RTT/SEGGER_RTT.c ****   return SEGGER_RTT_Write(BufferIndex, s, Len);
 1824              		.loc 1 1236 3 is_stmt 1 view .LVU549
 1825              		.loc 1 1236 10 is_stmt 0 view .LVU550
 1826 000e 2146     		mov	r1, r4
 1827 0010 2846     		mov	r0, r5
 1828              	.LVL205:
ARM GAS  C:\Users\Administrator\AppData\Local\Temp\ccUGyMKj.s 			page 59


 1829              		.loc 1 1236 10 view .LVU551
 1830 0012 FFF7FEFF 		bl	SEGGER_RTT_Write
 1831              	.LVL206:
1237:Middlewares/Third_Party/SEGGER/RTT/SEGGER_RTT.c **** }
 1832              		.loc 1 1237 1 view .LVU552
 1833 0016 38BD     		pop	{r3, r4, r5, pc}
 1834              		.loc 1 1237 1 view .LVU553
 1835              		.cfi_endproc
 1836              	.LFE14:
 1838              		.section	.text.SEGGER_RTT_PutCharSkipNoLock,"ax",%progbits
 1839              		.align	1
 1840              		.global	SEGGER_RTT_PutCharSkipNoLock
 1841              		.syntax unified
 1842              		.thumb
 1843              		.thumb_func
 1845              	SEGGER_RTT_PutCharSkipNoLock:
 1846              	.LVL207:
 1847              	.LFB15:
1238:Middlewares/Third_Party/SEGGER/RTT/SEGGER_RTT.c **** 
1239:Middlewares/Third_Party/SEGGER/RTT/SEGGER_RTT.c **** /*********************************************************************
1240:Middlewares/Third_Party/SEGGER/RTT/SEGGER_RTT.c **** *
1241:Middlewares/Third_Party/SEGGER/RTT/SEGGER_RTT.c **** *       SEGGER_RTT_PutCharSkipNoLock
1242:Middlewares/Third_Party/SEGGER/RTT/SEGGER_RTT.c **** *
1243:Middlewares/Third_Party/SEGGER/RTT/SEGGER_RTT.c **** *  Function description
1244:Middlewares/Third_Party/SEGGER/RTT/SEGGER_RTT.c **** *    Stores a single character/byte in SEGGER RTT buffer.
1245:Middlewares/Third_Party/SEGGER/RTT/SEGGER_RTT.c **** *    SEGGER_RTT_PutCharSkipNoLock does not lock the application and
1246:Middlewares/Third_Party/SEGGER/RTT/SEGGER_RTT.c **** *    skips the byte, if it does not fit into the buffer.
1247:Middlewares/Third_Party/SEGGER/RTT/SEGGER_RTT.c **** *
1248:Middlewares/Third_Party/SEGGER/RTT/SEGGER_RTT.c **** *  Parameters
1249:Middlewares/Third_Party/SEGGER/RTT/SEGGER_RTT.c **** *    BufferIndex  Index of "Up"-buffer to be used (e.g. 0 for "Terminal").
1250:Middlewares/Third_Party/SEGGER/RTT/SEGGER_RTT.c **** *    c            Byte to be stored.
1251:Middlewares/Third_Party/SEGGER/RTT/SEGGER_RTT.c **** *
1252:Middlewares/Third_Party/SEGGER/RTT/SEGGER_RTT.c **** *  Return value
1253:Middlewares/Third_Party/SEGGER/RTT/SEGGER_RTT.c **** *    Number of bytes which have been stored in the "Up"-buffer.
1254:Middlewares/Third_Party/SEGGER/RTT/SEGGER_RTT.c **** *
1255:Middlewares/Third_Party/SEGGER/RTT/SEGGER_RTT.c **** *  Notes
1256:Middlewares/Third_Party/SEGGER/RTT/SEGGER_RTT.c **** *    (1) If there is not enough space in the "Up"-buffer, the character is dropped.
1257:Middlewares/Third_Party/SEGGER/RTT/SEGGER_RTT.c **** *    (2) For performance reasons this function does not call Init()
1258:Middlewares/Third_Party/SEGGER/RTT/SEGGER_RTT.c **** *        and may only be called after RTT has been initialized.
1259:Middlewares/Third_Party/SEGGER/RTT/SEGGER_RTT.c **** *        Either by calling SEGGER_RTT_Init() or calling another RTT API function first.
1260:Middlewares/Third_Party/SEGGER/RTT/SEGGER_RTT.c **** */
1261:Middlewares/Third_Party/SEGGER/RTT/SEGGER_RTT.c **** 
1262:Middlewares/Third_Party/SEGGER/RTT/SEGGER_RTT.c **** unsigned SEGGER_RTT_PutCharSkipNoLock(unsigned BufferIndex, char c) {
 1848              		.loc 1 1262 69 is_stmt 1 view -0
 1849              		.cfi_startproc
 1850              		@ args = 0, pretend = 0, frame = 0
 1851              		@ frame_needed = 0, uses_anonymous_args = 0
 1852              		.loc 1 1262 69 is_stmt 0 view .LVU555
 1853 0000 00B5     		push	{lr}
 1854              		.cfi_def_cfa_offset 4
 1855              		.cfi_offset 14, -4
1263:Middlewares/Third_Party/SEGGER/RTT/SEGGER_RTT.c ****   SEGGER_RTT_BUFFER_UP* pRing;
 1856              		.loc 1 1263 3 is_stmt 1 view .LVU556
1264:Middlewares/Third_Party/SEGGER/RTT/SEGGER_RTT.c ****   unsigned              WrOff;
 1857              		.loc 1 1264 3 view .LVU557
1265:Middlewares/Third_Party/SEGGER/RTT/SEGGER_RTT.c ****   unsigned              Status;
 1858              		.loc 1 1265 3 view .LVU558
ARM GAS  C:\Users\Administrator\AppData\Local\Temp\ccUGyMKj.s 			page 60


1266:Middlewares/Third_Party/SEGGER/RTT/SEGGER_RTT.c ****   volatile char*        pDst;
 1859              		.loc 1 1266 3 view .LVU559
1267:Middlewares/Third_Party/SEGGER/RTT/SEGGER_RTT.c ****   //
1268:Middlewares/Third_Party/SEGGER/RTT/SEGGER_RTT.c ****   // Get "to-host" ring buffer.
1269:Middlewares/Third_Party/SEGGER/RTT/SEGGER_RTT.c ****   //
1270:Middlewares/Third_Party/SEGGER/RTT/SEGGER_RTT.c ****   pRing = (SEGGER_RTT_BUFFER_UP*)((char*)&_SEGGER_RTT.aUp[BufferIndex] + SEGGER_RTT_UNCACHED_OFF); 
 1860              		.loc 1 1270 3 view .LVU560
 1861              	.LVL208:
1271:Middlewares/Third_Party/SEGGER/RTT/SEGGER_RTT.c ****   //
1272:Middlewares/Third_Party/SEGGER/RTT/SEGGER_RTT.c ****   // Get write position and handle wrap-around if necessary
1273:Middlewares/Third_Party/SEGGER/RTT/SEGGER_RTT.c ****   //
1274:Middlewares/Third_Party/SEGGER/RTT/SEGGER_RTT.c ****   WrOff = pRing->WrOff + 1;
 1862              		.loc 1 1274 3 view .LVU561
 1863              		.loc 1 1274 16 is_stmt 0 view .LVU562
 1864 0002 00EB4002 		add	r2, r0, r0, lsl #1
 1865 0006 154B     		ldr	r3, .L109
 1866 0008 03EBC203 		add	r3, r3, r2, lsl #3
 1867 000c D3F824E0 		ldr	lr, [r3, #36]
 1868              		.loc 1 1274 9 view .LVU563
 1869 0010 0EF10102 		add	r2, lr, #1
 1870              	.LVL209:
1275:Middlewares/Third_Party/SEGGER/RTT/SEGGER_RTT.c ****   if (WrOff == pRing->SizeOfBuffer) {
 1871              		.loc 1 1275 3 is_stmt 1 view .LVU564
 1872              		.loc 1 1275 21 is_stmt 0 view .LVU565
 1873 0014 1B6A     		ldr	r3, [r3, #32]
 1874              		.loc 1 1275 6 view .LVU566
 1875 0016 9342     		cmp	r3, r2
 1876 0018 1BD0     		beq	.L108
 1877              	.LVL210:
 1878              	.L103:
1276:Middlewares/Third_Party/SEGGER/RTT/SEGGER_RTT.c ****     WrOff = 0;
1277:Middlewares/Third_Party/SEGGER/RTT/SEGGER_RTT.c ****   }
1278:Middlewares/Third_Party/SEGGER/RTT/SEGGER_RTT.c ****   //
1279:Middlewares/Third_Party/SEGGER/RTT/SEGGER_RTT.c ****   // Output byte if free space is available
1280:Middlewares/Third_Party/SEGGER/RTT/SEGGER_RTT.c ****   //
1281:Middlewares/Third_Party/SEGGER/RTT/SEGGER_RTT.c ****   if (WrOff != pRing->RdOff) {
 1879              		.loc 1 1281 3 is_stmt 1 view .LVU567
 1880              		.loc 1 1281 21 is_stmt 0 view .LVU568
 1881 001a 00EB400C 		add	ip, r0, r0, lsl #1
 1882 001e 0F4B     		ldr	r3, .L109
 1883 0020 03EBCC03 		add	r3, r3, ip, lsl #3
 1884 0024 9B6A     		ldr	r3, [r3, #40]
 1885              		.loc 1 1281 6 view .LVU569
 1886 0026 9342     		cmp	r3, r2
 1887 0028 15D0     		beq	.L106
1282:Middlewares/Third_Party/SEGGER/RTT/SEGGER_RTT.c ****     pDst = (pRing->pBuffer + pRing->WrOff) + SEGGER_RTT_UNCACHED_OFF;
 1888              		.loc 1 1282 5 is_stmt 1 view .LVU570
 1889              		.loc 1 1282 18 is_stmt 0 view .LVU571
 1890 002a DFF830C0 		ldr	ip, .L109
 1891 002e 431C     		adds	r3, r0, #1
 1892 0030 03EB4303 		add	r3, r3, r3, lsl #1
 1893 0034 0CEBC303 		add	r3, ip, r3, lsl #3
 1894 0038 5B68     		ldr	r3, [r3, #4]
 1895              	.LVL211:
1283:Middlewares/Third_Party/SEGGER/RTT/SEGGER_RTT.c ****     *pDst = c;
 1896              		.loc 1 1283 5 is_stmt 1 view .LVU572
 1897              		.loc 1 1283 11 is_stmt 0 view .LVU573
ARM GAS  C:\Users\Administrator\AppData\Local\Temp\ccUGyMKj.s 			page 61


 1898 003a 03F80E10 		strb	r1, [r3, lr]
1284:Middlewares/Third_Party/SEGGER/RTT/SEGGER_RTT.c ****     RTT__DMB();                     // Force data write to be complete before writing the <WrOff>, 
 1899              		.loc 1 1284 5 is_stmt 1 view .LVU574
 1900              		.syntax unified
 1901              	@ 1284 "Middlewares/Third_Party/SEGGER/RTT/SEGGER_RTT.c" 1
 1902 003e BFF35F8F 		dmb
 1903              	
 1904              	@ 0 "" 2
 1905              		.loc 1 1284 15 view .LVU575
1285:Middlewares/Third_Party/SEGGER/RTT/SEGGER_RTT.c ****     pRing->WrOff = WrOff;
 1906              		.loc 1 1285 5 view .LVU576
 1907              		.loc 1 1285 18 is_stmt 0 view .LVU577
 1908              		.thumb
 1909              		.syntax unified
 1910 0042 00EB4000 		add	r0, r0, r0, lsl #1
 1911              	.LVL212:
 1912              		.loc 1 1285 18 view .LVU578
 1913 0046 0CEBC00C 		add	ip, ip, r0, lsl #3
 1914 004a CCF82420 		str	r2, [ip, #36]
1286:Middlewares/Third_Party/SEGGER/RTT/SEGGER_RTT.c ****     Status = 1;
 1915              		.loc 1 1286 5 is_stmt 1 view .LVU579
 1916              	.LVL213:
 1917              		.loc 1 1286 12 is_stmt 0 view .LVU580
 1918 004e 0120     		movs	r0, #1
 1919              	.LVL214:
 1920              	.L102:
1287:Middlewares/Third_Party/SEGGER/RTT/SEGGER_RTT.c ****   } else {
1288:Middlewares/Third_Party/SEGGER/RTT/SEGGER_RTT.c ****     Status = 0;
1289:Middlewares/Third_Party/SEGGER/RTT/SEGGER_RTT.c ****   }
1290:Middlewares/Third_Party/SEGGER/RTT/SEGGER_RTT.c ****   //
1291:Middlewares/Third_Party/SEGGER/RTT/SEGGER_RTT.c ****   return Status;
1292:Middlewares/Third_Party/SEGGER/RTT/SEGGER_RTT.c **** }
 1921              		.loc 1 1292 1 view .LVU581
 1922 0050 00BD     		pop	{pc}
 1923              	.LVL215:
 1924              	.L108:
1276:Middlewares/Third_Party/SEGGER/RTT/SEGGER_RTT.c ****   }
 1925              		.loc 1 1276 11 view .LVU582
 1926 0052 0022     		movs	r2, #0
 1927              	.LVL216:
1276:Middlewares/Third_Party/SEGGER/RTT/SEGGER_RTT.c ****   }
 1928              		.loc 1 1276 11 view .LVU583
 1929 0054 E1E7     		b	.L103
 1930              	.LVL217:
 1931              	.L106:
1288:Middlewares/Third_Party/SEGGER/RTT/SEGGER_RTT.c ****   }
 1932              		.loc 1 1288 12 view .LVU584
 1933 0056 0020     		movs	r0, #0
 1934              	.LVL218:
1291:Middlewares/Third_Party/SEGGER/RTT/SEGGER_RTT.c **** }
 1935              		.loc 1 1291 3 is_stmt 1 view .LVU585
1291:Middlewares/Third_Party/SEGGER/RTT/SEGGER_RTT.c **** }
 1936              		.loc 1 1291 10 is_stmt 0 view .LVU586
 1937 0058 FAE7     		b	.L102
 1938              	.L110:
 1939 005a 00BF     		.align	2
 1940              	.L109:
ARM GAS  C:\Users\Administrator\AppData\Local\Temp\ccUGyMKj.s 			page 62


 1941 005c 00000000 		.word	_SEGGER_RTT
 1942              		.cfi_endproc
 1943              	.LFE15:
 1945              		.section	.text.SEGGER_RTT_PutCharSkip,"ax",%progbits
 1946              		.align	1
 1947              		.global	SEGGER_RTT_PutCharSkip
 1948              		.syntax unified
 1949              		.thumb
 1950              		.thumb_func
 1952              	SEGGER_RTT_PutCharSkip:
 1953              	.LVL219:
 1954              	.LFB16:
1293:Middlewares/Third_Party/SEGGER/RTT/SEGGER_RTT.c **** 
1294:Middlewares/Third_Party/SEGGER/RTT/SEGGER_RTT.c **** /*********************************************************************
1295:Middlewares/Third_Party/SEGGER/RTT/SEGGER_RTT.c **** *
1296:Middlewares/Third_Party/SEGGER/RTT/SEGGER_RTT.c **** *       SEGGER_RTT_PutCharSkip
1297:Middlewares/Third_Party/SEGGER/RTT/SEGGER_RTT.c **** *
1298:Middlewares/Third_Party/SEGGER/RTT/SEGGER_RTT.c **** *  Function description
1299:Middlewares/Third_Party/SEGGER/RTT/SEGGER_RTT.c **** *    Stores a single character/byte in SEGGER RTT buffer.
1300:Middlewares/Third_Party/SEGGER/RTT/SEGGER_RTT.c **** *
1301:Middlewares/Third_Party/SEGGER/RTT/SEGGER_RTT.c **** *  Parameters
1302:Middlewares/Third_Party/SEGGER/RTT/SEGGER_RTT.c **** *    BufferIndex  Index of "Up"-buffer to be used (e.g. 0 for "Terminal").
1303:Middlewares/Third_Party/SEGGER/RTT/SEGGER_RTT.c **** *    c            Byte to be stored.
1304:Middlewares/Third_Party/SEGGER/RTT/SEGGER_RTT.c **** *
1305:Middlewares/Third_Party/SEGGER/RTT/SEGGER_RTT.c **** *  Return value
1306:Middlewares/Third_Party/SEGGER/RTT/SEGGER_RTT.c **** *    Number of bytes which have been stored in the "Up"-buffer.
1307:Middlewares/Third_Party/SEGGER/RTT/SEGGER_RTT.c **** *
1308:Middlewares/Third_Party/SEGGER/RTT/SEGGER_RTT.c **** *  Notes
1309:Middlewares/Third_Party/SEGGER/RTT/SEGGER_RTT.c **** *    (1) If there is not enough space in the "Up"-buffer, the character is dropped.
1310:Middlewares/Third_Party/SEGGER/RTT/SEGGER_RTT.c **** */
1311:Middlewares/Third_Party/SEGGER/RTT/SEGGER_RTT.c **** 
1312:Middlewares/Third_Party/SEGGER/RTT/SEGGER_RTT.c **** unsigned SEGGER_RTT_PutCharSkip(unsigned BufferIndex, char c) {
 1955              		.loc 1 1312 63 is_stmt 1 view -0
 1956              		.cfi_startproc
 1957              		@ args = 0, pretend = 0, frame = 0
 1958              		@ frame_needed = 0, uses_anonymous_args = 0
 1959              		.loc 1 1312 63 is_stmt 0 view .LVU588
 1960 0000 38B5     		push	{r3, r4, r5, lr}
 1961              		.cfi_def_cfa_offset 16
 1962              		.cfi_offset 3, -16
 1963              		.cfi_offset 4, -12
 1964              		.cfi_offset 5, -8
 1965              		.cfi_offset 14, -4
 1966 0002 0446     		mov	r4, r0
 1967 0004 0D46     		mov	r5, r1
1313:Middlewares/Third_Party/SEGGER/RTT/SEGGER_RTT.c ****   SEGGER_RTT_BUFFER_UP* pRing;
 1968              		.loc 1 1313 3 is_stmt 1 view .LVU589
1314:Middlewares/Third_Party/SEGGER/RTT/SEGGER_RTT.c ****   unsigned              WrOff;
 1969              		.loc 1 1314 3 view .LVU590
1315:Middlewares/Third_Party/SEGGER/RTT/SEGGER_RTT.c ****   unsigned              Status;
 1970              		.loc 1 1315 3 view .LVU591
1316:Middlewares/Third_Party/SEGGER/RTT/SEGGER_RTT.c ****   volatile char*        pDst;
 1971              		.loc 1 1316 3 view .LVU592
 1972              	.LBB14:
1317:Middlewares/Third_Party/SEGGER/RTT/SEGGER_RTT.c ****   //
1318:Middlewares/Third_Party/SEGGER/RTT/SEGGER_RTT.c ****   // Prepare
1319:Middlewares/Third_Party/SEGGER/RTT/SEGGER_RTT.c ****   //
ARM GAS  C:\Users\Administrator\AppData\Local\Temp\ccUGyMKj.s 			page 63


1320:Middlewares/Third_Party/SEGGER/RTT/SEGGER_RTT.c ****   INIT();
 1973              		.loc 1 1320 3 view .LVU593
 1974              		.loc 1 1320 3 view .LVU594
 1975              	.LVL220:
 1976              		.loc 1 1320 3 view .LVU595
 1977              		.loc 1 1320 3 view .LVU596
 1978 0006 1C4B     		ldr	r3, .L120
 1979 0008 1B78     		ldrb	r3, [r3]	@ zero_extendqisi2
 1980 000a 6BB3     		cbz	r3, .L118
 1981              	.LVL221:
 1982              	.L112:
 1983              		.loc 1 1320 3 view .LVU597
 1984              	.LBE14:
 1985              		.loc 1 1320 9 view .LVU598
 1986              	.LBB15:
1321:Middlewares/Third_Party/SEGGER/RTT/SEGGER_RTT.c ****   SEGGER_RTT_LOCK();
 1987              		.loc 1 1321 3 view .LVU599
 1988              		.loc 1 1321 3 view .LVU600
 1989              		.syntax unified
 1990              	@ 1321 "Middlewares/Third_Party/SEGGER/RTT/SEGGER_RTT.c" 1
 1991 000c EFF31182 		mrs   r2, basepri  
 1992 0010 4FF02001 		mov   r1, #32       
 1993 0014 81F31188 		msr   basepri, r1  
 1994              		
 1995              	@ 0 "" 2
 1996              	.LVL222:
 1997              		.loc 1 1321 20 view .LVU601
1322:Middlewares/Third_Party/SEGGER/RTT/SEGGER_RTT.c ****   //
1323:Middlewares/Third_Party/SEGGER/RTT/SEGGER_RTT.c ****   // Get "to-host" ring buffer.
1324:Middlewares/Third_Party/SEGGER/RTT/SEGGER_RTT.c ****   //
1325:Middlewares/Third_Party/SEGGER/RTT/SEGGER_RTT.c ****   pRing = (SEGGER_RTT_BUFFER_UP*)((char*)&_SEGGER_RTT.aUp[BufferIndex] + SEGGER_RTT_UNCACHED_OFF); 
 1998              		.loc 1 1325 3 view .LVU602
1326:Middlewares/Third_Party/SEGGER/RTT/SEGGER_RTT.c ****   //
1327:Middlewares/Third_Party/SEGGER/RTT/SEGGER_RTT.c ****   // Get write position and handle wrap-around if necessary
1328:Middlewares/Third_Party/SEGGER/RTT/SEGGER_RTT.c ****   //
1329:Middlewares/Third_Party/SEGGER/RTT/SEGGER_RTT.c ****   WrOff = pRing->WrOff + 1;
 1999              		.loc 1 1329 3 view .LVU603
 2000              		.loc 1 1329 16 is_stmt 0 view .LVU604
 2001              		.thumb
 2002              		.syntax unified
 2003 0018 04EB4401 		add	r1, r4, r4, lsl #1
 2004 001c 164B     		ldr	r3, .L120
 2005 001e 03EBC103 		add	r3, r3, r1, lsl #3
 2006 0022 D3F824C0 		ldr	ip, [r3, #36]
 2007              		.loc 1 1329 9 view .LVU605
 2008 0026 0CF10101 		add	r1, ip, #1
 2009              	.LVL223:
1330:Middlewares/Third_Party/SEGGER/RTT/SEGGER_RTT.c ****   if (WrOff == pRing->SizeOfBuffer) {
 2010              		.loc 1 1330 3 is_stmt 1 view .LVU606
 2011              		.loc 1 1330 21 is_stmt 0 view .LVU607
 2012 002a 1B6A     		ldr	r3, [r3, #32]
 2013              		.loc 1 1330 6 view .LVU608
 2014 002c 8B42     		cmp	r3, r1
 2015 002e 1ED0     		beq	.L119
 2016              	.LVL224:
 2017              	.L113:
1331:Middlewares/Third_Party/SEGGER/RTT/SEGGER_RTT.c ****     WrOff = 0;
ARM GAS  C:\Users\Administrator\AppData\Local\Temp\ccUGyMKj.s 			page 64


1332:Middlewares/Third_Party/SEGGER/RTT/SEGGER_RTT.c ****   }
1333:Middlewares/Third_Party/SEGGER/RTT/SEGGER_RTT.c ****   //
1334:Middlewares/Third_Party/SEGGER/RTT/SEGGER_RTT.c ****   // Output byte if free space is available
1335:Middlewares/Third_Party/SEGGER/RTT/SEGGER_RTT.c ****   //
1336:Middlewares/Third_Party/SEGGER/RTT/SEGGER_RTT.c ****   if (WrOff != pRing->RdOff) {
 2018              		.loc 1 1336 3 is_stmt 1 view .LVU609
 2019              		.loc 1 1336 21 is_stmt 0 view .LVU610
 2020 0030 04EB4400 		add	r0, r4, r4, lsl #1
 2021 0034 104B     		ldr	r3, .L120
 2022 0036 03EBC003 		add	r3, r3, r0, lsl #3
 2023 003a 9B6A     		ldr	r3, [r3, #40]
 2024              		.loc 1 1336 6 view .LVU611
 2025 003c 8B42     		cmp	r3, r1
 2026 003e 18D0     		beq	.L116
1337:Middlewares/Third_Party/SEGGER/RTT/SEGGER_RTT.c ****     pDst  = (pRing->pBuffer + pRing->WrOff) + SEGGER_RTT_UNCACHED_OFF;
 2027              		.loc 1 1337 5 is_stmt 1 view .LVU612
 2028              		.loc 1 1337 19 is_stmt 0 view .LVU613
 2029 0040 0D48     		ldr	r0, .L120
 2030 0042 631C     		adds	r3, r4, #1
 2031 0044 03EB4303 		add	r3, r3, r3, lsl #1
 2032 0048 00EBC303 		add	r3, r0, r3, lsl #3
 2033 004c 5B68     		ldr	r3, [r3, #4]
 2034              	.LVL225:
1338:Middlewares/Third_Party/SEGGER/RTT/SEGGER_RTT.c ****     *pDst = c;
 2035              		.loc 1 1338 5 is_stmt 1 view .LVU614
 2036              		.loc 1 1338 11 is_stmt 0 view .LVU615
 2037 004e 03F80C50 		strb	r5, [r3, ip]
1339:Middlewares/Third_Party/SEGGER/RTT/SEGGER_RTT.c ****     RTT__DMB();                     // Force data write to be complete before writing the <WrOff>, 
 2038              		.loc 1 1339 5 is_stmt 1 view .LVU616
 2039              		.syntax unified
 2040              	@ 1339 "Middlewares/Third_Party/SEGGER/RTT/SEGGER_RTT.c" 1
 2041 0052 BFF35F8F 		dmb
 2042              	
 2043              	@ 0 "" 2
 2044              		.loc 1 1339 15 view .LVU617
1340:Middlewares/Third_Party/SEGGER/RTT/SEGGER_RTT.c ****     pRing->WrOff = WrOff;
 2045              		.loc 1 1340 5 view .LVU618
 2046              		.loc 1 1340 18 is_stmt 0 view .LVU619
 2047              		.thumb
 2048              		.syntax unified
 2049 0056 04EB4404 		add	r4, r4, r4, lsl #1
 2050              	.LVL226:
 2051              		.loc 1 1340 18 view .LVU620
 2052 005a 00EBC400 		add	r0, r0, r4, lsl #3
 2053 005e 4162     		str	r1, [r0, #36]
1341:Middlewares/Third_Party/SEGGER/RTT/SEGGER_RTT.c ****     Status = 1;
 2054              		.loc 1 1341 5 is_stmt 1 view .LVU621
 2055              	.LVL227:
 2056              		.loc 1 1341 12 is_stmt 0 view .LVU622
 2057 0060 0120     		movs	r0, #1
 2058              	.LVL228:
 2059              	.L114:
1342:Middlewares/Third_Party/SEGGER/RTT/SEGGER_RTT.c ****   } else {
1343:Middlewares/Third_Party/SEGGER/RTT/SEGGER_RTT.c ****     Status = 0;
1344:Middlewares/Third_Party/SEGGER/RTT/SEGGER_RTT.c ****   }
1345:Middlewares/Third_Party/SEGGER/RTT/SEGGER_RTT.c ****   //
1346:Middlewares/Third_Party/SEGGER/RTT/SEGGER_RTT.c ****   // Finish up.
ARM GAS  C:\Users\Administrator\AppData\Local\Temp\ccUGyMKj.s 			page 65


1347:Middlewares/Third_Party/SEGGER/RTT/SEGGER_RTT.c ****   //
1348:Middlewares/Third_Party/SEGGER/RTT/SEGGER_RTT.c ****   SEGGER_RTT_UNLOCK();
 2060              		.loc 1 1348 3 is_stmt 1 view .LVU623
 2061              		.syntax unified
 2062              	@ 1348 "Middlewares/Third_Party/SEGGER/RTT/SEGGER_RTT.c" 1
 2063 0062 82F31188 		msr   basepri, r2  
 2064              		
 2065              	@ 0 "" 2
 2066              		.thumb
 2067              		.syntax unified
 2068              	.LBE15:
 2069              		.loc 1 1348 22 view .LVU624
1349:Middlewares/Third_Party/SEGGER/RTT/SEGGER_RTT.c ****   //
1350:Middlewares/Third_Party/SEGGER/RTT/SEGGER_RTT.c ****   return Status;
 2070              		.loc 1 1350 3 view .LVU625
1351:Middlewares/Third_Party/SEGGER/RTT/SEGGER_RTT.c **** }
 2071              		.loc 1 1351 1 is_stmt 0 view .LVU626
 2072 0066 38BD     		pop	{r3, r4, r5, pc}
 2073              	.LVL229:
 2074              	.L118:
 2075              	.LBB16:
1320:Middlewares/Third_Party/SEGGER/RTT/SEGGER_RTT.c ****   SEGGER_RTT_LOCK();
 2076              		.loc 1 1320 3 is_stmt 1 discriminator 1 view .LVU627
 2077 0068 FFF7FEFF 		bl	_DoInit
 2078              	.LVL230:
1320:Middlewares/Third_Party/SEGGER/RTT/SEGGER_RTT.c ****   SEGGER_RTT_LOCK();
 2079              		.loc 1 1320 3 is_stmt 0 discriminator 1 view .LVU628
 2080 006c CEE7     		b	.L112
 2081              	.LVL231:
 2082              	.L119:
1320:Middlewares/Third_Party/SEGGER/RTT/SEGGER_RTT.c ****   SEGGER_RTT_LOCK();
 2083              		.loc 1 1320 3 discriminator 1 view .LVU629
 2084              	.LBE16:
 2085              	.LBB17:
1331:Middlewares/Third_Party/SEGGER/RTT/SEGGER_RTT.c ****   }
 2086              		.loc 1 1331 11 view .LVU630
 2087 006e 0021     		movs	r1, #0
 2088              	.LVL232:
1331:Middlewares/Third_Party/SEGGER/RTT/SEGGER_RTT.c ****   }
 2089              		.loc 1 1331 11 view .LVU631
 2090 0070 DEE7     		b	.L113
 2091              	.LVL233:
 2092              	.L116:
1343:Middlewares/Third_Party/SEGGER/RTT/SEGGER_RTT.c ****   }
 2093              		.loc 1 1343 12 view .LVU632
 2094 0072 0020     		movs	r0, #0
 2095 0074 F5E7     		b	.L114
 2096              	.L121:
 2097 0076 00BF     		.align	2
 2098              	.L120:
 2099 0078 00000000 		.word	_SEGGER_RTT
 2100              	.LBE17:
 2101              		.cfi_endproc
 2102              	.LFE16:
 2104              		.section	.text.SEGGER_RTT_PutChar,"ax",%progbits
 2105              		.align	1
 2106              		.global	SEGGER_RTT_PutChar
ARM GAS  C:\Users\Administrator\AppData\Local\Temp\ccUGyMKj.s 			page 66


 2107              		.syntax unified
 2108              		.thumb
 2109              		.thumb_func
 2111              	SEGGER_RTT_PutChar:
 2112              	.LVL234:
 2113              	.LFB17:
1352:Middlewares/Third_Party/SEGGER/RTT/SEGGER_RTT.c **** 
1353:Middlewares/Third_Party/SEGGER/RTT/SEGGER_RTT.c ****  /*********************************************************************
1354:Middlewares/Third_Party/SEGGER/RTT/SEGGER_RTT.c **** *
1355:Middlewares/Third_Party/SEGGER/RTT/SEGGER_RTT.c **** *       SEGGER_RTT_PutChar
1356:Middlewares/Third_Party/SEGGER/RTT/SEGGER_RTT.c **** *
1357:Middlewares/Third_Party/SEGGER/RTT/SEGGER_RTT.c **** *  Function description
1358:Middlewares/Third_Party/SEGGER/RTT/SEGGER_RTT.c **** *    Stores a single character/byte in SEGGER RTT buffer.
1359:Middlewares/Third_Party/SEGGER/RTT/SEGGER_RTT.c **** *
1360:Middlewares/Third_Party/SEGGER/RTT/SEGGER_RTT.c **** *  Parameters
1361:Middlewares/Third_Party/SEGGER/RTT/SEGGER_RTT.c **** *    BufferIndex  Index of "Up"-buffer to be used (e.g. 0 for "Terminal").
1362:Middlewares/Third_Party/SEGGER/RTT/SEGGER_RTT.c **** *    c            Byte to be stored.
1363:Middlewares/Third_Party/SEGGER/RTT/SEGGER_RTT.c **** *
1364:Middlewares/Third_Party/SEGGER/RTT/SEGGER_RTT.c **** *  Return value
1365:Middlewares/Third_Party/SEGGER/RTT/SEGGER_RTT.c **** *    Number of bytes which have been stored in the "Up"-buffer.
1366:Middlewares/Third_Party/SEGGER/RTT/SEGGER_RTT.c **** *
1367:Middlewares/Third_Party/SEGGER/RTT/SEGGER_RTT.c **** *  Notes
1368:Middlewares/Third_Party/SEGGER/RTT/SEGGER_RTT.c **** *    (1) Data is stored according to buffer flags.
1369:Middlewares/Third_Party/SEGGER/RTT/SEGGER_RTT.c **** */
1370:Middlewares/Third_Party/SEGGER/RTT/SEGGER_RTT.c **** 
1371:Middlewares/Third_Party/SEGGER/RTT/SEGGER_RTT.c **** unsigned SEGGER_RTT_PutChar(unsigned BufferIndex, char c) {
 2114              		.loc 1 1371 59 is_stmt 1 view -0
 2115              		.cfi_startproc
 2116              		@ args = 0, pretend = 0, frame = 0
 2117              		@ frame_needed = 0, uses_anonymous_args = 0
 2118              		.loc 1 1371 59 is_stmt 0 view .LVU634
 2119 0000 38B5     		push	{r3, r4, r5, lr}
 2120              		.cfi_def_cfa_offset 16
 2121              		.cfi_offset 3, -16
 2122              		.cfi_offset 4, -12
 2123              		.cfi_offset 5, -8
 2124              		.cfi_offset 14, -4
 2125 0002 0446     		mov	r4, r0
 2126 0004 0D46     		mov	r5, r1
1372:Middlewares/Third_Party/SEGGER/RTT/SEGGER_RTT.c ****   SEGGER_RTT_BUFFER_UP* pRing;
 2127              		.loc 1 1372 3 is_stmt 1 view .LVU635
1373:Middlewares/Third_Party/SEGGER/RTT/SEGGER_RTT.c ****   unsigned              WrOff;
 2128              		.loc 1 1373 3 view .LVU636
1374:Middlewares/Third_Party/SEGGER/RTT/SEGGER_RTT.c ****   unsigned              Status;
 2129              		.loc 1 1374 3 view .LVU637
1375:Middlewares/Third_Party/SEGGER/RTT/SEGGER_RTT.c ****   volatile char*        pDst;
 2130              		.loc 1 1375 3 view .LVU638
 2131              	.LBB18:
1376:Middlewares/Third_Party/SEGGER/RTT/SEGGER_RTT.c ****   //
1377:Middlewares/Third_Party/SEGGER/RTT/SEGGER_RTT.c ****   // Prepare
1378:Middlewares/Third_Party/SEGGER/RTT/SEGGER_RTT.c ****   //
1379:Middlewares/Third_Party/SEGGER/RTT/SEGGER_RTT.c ****   INIT();
 2132              		.loc 1 1379 3 view .LVU639
 2133              		.loc 1 1379 3 view .LVU640
 2134              	.LVL235:
 2135              		.loc 1 1379 3 view .LVU641
 2136              		.loc 1 1379 3 view .LVU642
ARM GAS  C:\Users\Administrator\AppData\Local\Temp\ccUGyMKj.s 			page 67


 2137 0006 254B     		ldr	r3, .L133
 2138 0008 1B78     		ldrb	r3, [r3]	@ zero_extendqisi2
 2139 000a 002B     		cmp	r3, #0
 2140 000c 36D0     		beq	.L131
 2141              	.LVL236:
 2142              	.L123:
 2143              		.loc 1 1379 3 view .LVU643
 2144              	.LBE18:
 2145              		.loc 1 1379 9 view .LVU644
 2146              	.LBB19:
1380:Middlewares/Third_Party/SEGGER/RTT/SEGGER_RTT.c ****   SEGGER_RTT_LOCK();
 2147              		.loc 1 1380 3 view .LVU645
 2148              		.loc 1 1380 3 view .LVU646
 2149              		.syntax unified
 2150              	@ 1380 "Middlewares/Third_Party/SEGGER/RTT/SEGGER_RTT.c" 1
 2151 000e EFF31183 		mrs   r3, basepri  
 2152 0012 4FF02001 		mov   r1, #32       
 2153 0016 81F31188 		msr   basepri, r1  
 2154              		
 2155              	@ 0 "" 2
 2156              		.thumb
 2157              		.syntax unified
 2158 001a 1946     		mov	r1, r3
 2159              	.LVL237:
 2160              		.loc 1 1380 20 view .LVU647
1381:Middlewares/Third_Party/SEGGER/RTT/SEGGER_RTT.c ****   //
1382:Middlewares/Third_Party/SEGGER/RTT/SEGGER_RTT.c ****   // Get "to-host" ring buffer.
1383:Middlewares/Third_Party/SEGGER/RTT/SEGGER_RTT.c ****   //
1384:Middlewares/Third_Party/SEGGER/RTT/SEGGER_RTT.c ****   pRing = (SEGGER_RTT_BUFFER_UP*)((char*)&_SEGGER_RTT.aUp[BufferIndex] + SEGGER_RTT_UNCACHED_OFF); 
 2161              		.loc 1 1384 3 view .LVU648
1385:Middlewares/Third_Party/SEGGER/RTT/SEGGER_RTT.c ****   //
1386:Middlewares/Third_Party/SEGGER/RTT/SEGGER_RTT.c ****   // Get write position and handle wrap-around if necessary
1387:Middlewares/Third_Party/SEGGER/RTT/SEGGER_RTT.c ****   //
1388:Middlewares/Third_Party/SEGGER/RTT/SEGGER_RTT.c ****   WrOff = pRing->WrOff + 1;
 2162              		.loc 1 1388 3 view .LVU649
 2163              		.loc 1 1388 16 is_stmt 0 view .LVU650
 2164 001c 04EB4402 		add	r2, r4, r4, lsl #1
 2165 0020 1E4B     		ldr	r3, .L133
 2166 0022 03EBC203 		add	r3, r3, r2, lsl #3
 2167 0026 D3F824C0 		ldr	ip, [r3, #36]
 2168              		.loc 1 1388 9 view .LVU651
 2169 002a 0CF10100 		add	r0, ip, #1
 2170              	.LVL238:
1389:Middlewares/Third_Party/SEGGER/RTT/SEGGER_RTT.c ****   if (WrOff == pRing->SizeOfBuffer) {
 2171              		.loc 1 1389 3 is_stmt 1 view .LVU652
 2172              		.loc 1 1389 21 is_stmt 0 view .LVU653
 2173 002e 1B6A     		ldr	r3, [r3, #32]
 2174              		.loc 1 1389 6 view .LVU654
 2175 0030 8342     		cmp	r3, r0
 2176 0032 26D0     		beq	.L132
 2177              	.LVL239:
 2178              	.L124:
1390:Middlewares/Third_Party/SEGGER/RTT/SEGGER_RTT.c ****     WrOff = 0;
1391:Middlewares/Third_Party/SEGGER/RTT/SEGGER_RTT.c ****   }
1392:Middlewares/Third_Party/SEGGER/RTT/SEGGER_RTT.c ****   //
1393:Middlewares/Third_Party/SEGGER/RTT/SEGGER_RTT.c ****   // Wait for free space if mode is set to blocking
1394:Middlewares/Third_Party/SEGGER/RTT/SEGGER_RTT.c ****   //
ARM GAS  C:\Users\Administrator\AppData\Local\Temp\ccUGyMKj.s 			page 68


1395:Middlewares/Third_Party/SEGGER/RTT/SEGGER_RTT.c ****   if (pRing->Flags == SEGGER_RTT_MODE_BLOCK_IF_FIFO_FULL) {
 2179              		.loc 1 1395 3 is_stmt 1 view .LVU655
 2180              		.loc 1 1395 12 is_stmt 0 view .LVU656
 2181 0034 04EB4402 		add	r2, r4, r4, lsl #1
 2182 0038 184B     		ldr	r3, .L133
 2183 003a 03EBC203 		add	r3, r3, r2, lsl #3
 2184 003e DB6A     		ldr	r3, [r3, #44]
 2185              		.loc 1 1395 6 view .LVU657
 2186 0040 022B     		cmp	r3, #2
 2187 0042 20D0     		beq	.L126
 2188              	.L125:
1396:Middlewares/Third_Party/SEGGER/RTT/SEGGER_RTT.c ****     while (WrOff == pRing->RdOff) {
1397:Middlewares/Third_Party/SEGGER/RTT/SEGGER_RTT.c ****       ;
1398:Middlewares/Third_Party/SEGGER/RTT/SEGGER_RTT.c ****     }
1399:Middlewares/Third_Party/SEGGER/RTT/SEGGER_RTT.c ****   }
1400:Middlewares/Third_Party/SEGGER/RTT/SEGGER_RTT.c ****   //
1401:Middlewares/Third_Party/SEGGER/RTT/SEGGER_RTT.c ****   // Output byte if free space is available
1402:Middlewares/Third_Party/SEGGER/RTT/SEGGER_RTT.c ****   //
1403:Middlewares/Third_Party/SEGGER/RTT/SEGGER_RTT.c ****   if (WrOff != pRing->RdOff) {
 2189              		.loc 1 1403 3 is_stmt 1 view .LVU658
 2190              		.loc 1 1403 21 is_stmt 0 view .LVU659
 2191 0044 04EB4402 		add	r2, r4, r4, lsl #1
 2192 0048 144B     		ldr	r3, .L133
 2193 004a 03EBC203 		add	r3, r3, r2, lsl #3
 2194 004e 9B6A     		ldr	r3, [r3, #40]
 2195              		.loc 1 1403 6 view .LVU660
 2196 0050 8342     		cmp	r3, r0
 2197 0052 21D0     		beq	.L129
1404:Middlewares/Third_Party/SEGGER/RTT/SEGGER_RTT.c ****     pDst  = (pRing->pBuffer + pRing->WrOff) + SEGGER_RTT_UNCACHED_OFF;
 2198              		.loc 1 1404 5 is_stmt 1 view .LVU661
 2199              		.loc 1 1404 19 is_stmt 0 view .LVU662
 2200 0054 114A     		ldr	r2, .L133
 2201 0056 631C     		adds	r3, r4, #1
 2202 0058 03EB4303 		add	r3, r3, r3, lsl #1
 2203 005c 02EBC303 		add	r3, r2, r3, lsl #3
 2204 0060 5B68     		ldr	r3, [r3, #4]
 2205              	.LVL240:
1405:Middlewares/Third_Party/SEGGER/RTT/SEGGER_RTT.c ****     *pDst = c;
 2206              		.loc 1 1405 5 is_stmt 1 view .LVU663
 2207              		.loc 1 1405 11 is_stmt 0 view .LVU664
 2208 0062 03F80C50 		strb	r5, [r3, ip]
1406:Middlewares/Third_Party/SEGGER/RTT/SEGGER_RTT.c ****     RTT__DMB();                     // Force data write to be complete before writing the <WrOff>, 
 2209              		.loc 1 1406 5 is_stmt 1 view .LVU665
 2210              		.syntax unified
 2211              	@ 1406 "Middlewares/Third_Party/SEGGER/RTT/SEGGER_RTT.c" 1
 2212 0066 BFF35F8F 		dmb
 2213              	
 2214              	@ 0 "" 2
 2215              		.loc 1 1406 15 view .LVU666
1407:Middlewares/Third_Party/SEGGER/RTT/SEGGER_RTT.c ****     pRing->WrOff = WrOff;
 2216              		.loc 1 1407 5 view .LVU667
 2217              		.loc 1 1407 18 is_stmt 0 view .LVU668
 2218              		.thumb
 2219              		.syntax unified
 2220 006a 04EB4404 		add	r4, r4, r4, lsl #1
 2221              	.LVL241:
