ARM GAS  C:\Users\Administrator\AppData\Local\Temp\cczHSQjt.s 			page 1


   1              		.cpu cortex-m4
   2              		.arch armv7e-m
   3              		.fpu fpv4-sp-d16
   4              		.eabi_attribute 27, 1
   5              		.eabi_attribute 28, 1
   6              		.eabi_attribute 20, 1
   7              		.eabi_attribute 21, 1
   8              		.eabi_attribute 23, 3
   9              		.eabi_attribute 24, 1
  10              		.eabi_attribute 25, 1
  11              		.eabi_attribute 26, 1
  12              		.eabi_attribute 30, 1
  13              		.eabi_attribute 34, 1
  14              		.eabi_attribute 18, 4
  15              		.file	"stm32f4xx_hal_rtc_ex.c"
  16              		.text
  17              	.Ltext0:
  18              		.cfi_sections	.debug_frame
  19              		.file 1 "Drivers/STM32F4xx_HAL_Driver/Src/stm32f4xx_hal_rtc_ex.c"
  20              		.section	.text.HAL_RTCEx_SetTimeStamp,"ax",%progbits
  21              		.align	1
  22              		.global	HAL_RTCEx_SetTimeStamp
  23              		.syntax unified
  24              		.thumb
  25              		.thumb_func
  27              	HAL_RTCEx_SetTimeStamp:
  28              	.LVL0:
  29              	.LFB235:
   1:Drivers/STM32F4xx_HAL_Driver/Src/stm32f4xx_hal_rtc_ex.c **** /**
   2:Drivers/STM32F4xx_HAL_Driver/Src/stm32f4xx_hal_rtc_ex.c ****   ******************************************************************************
   3:Drivers/STM32F4xx_HAL_Driver/Src/stm32f4xx_hal_rtc_ex.c ****   * @file    stm32f4xx_hal_rtc_ex.c
   4:Drivers/STM32F4xx_HAL_Driver/Src/stm32f4xx_hal_rtc_ex.c ****   * @author  MCD Application Team
   5:Drivers/STM32F4xx_HAL_Driver/Src/stm32f4xx_hal_rtc_ex.c ****   * @brief   Extended RTC HAL module driver.
   6:Drivers/STM32F4xx_HAL_Driver/Src/stm32f4xx_hal_rtc_ex.c ****   *          This file provides firmware functions to manage the following
   7:Drivers/STM32F4xx_HAL_Driver/Src/stm32f4xx_hal_rtc_ex.c ****   *          functionalities of the Real-Time Clock (RTC) Extended peripheral:
   8:Drivers/STM32F4xx_HAL_Driver/Src/stm32f4xx_hal_rtc_ex.c ****   *           + RTC Timestamp functions
   9:Drivers/STM32F4xx_HAL_Driver/Src/stm32f4xx_hal_rtc_ex.c ****   *           + RTC Tamper functions
  10:Drivers/STM32F4xx_HAL_Driver/Src/stm32f4xx_hal_rtc_ex.c ****   *           + RTC Wakeup functions
  11:Drivers/STM32F4xx_HAL_Driver/Src/stm32f4xx_hal_rtc_ex.c ****   *           + Extended Control functions
  12:Drivers/STM32F4xx_HAL_Driver/Src/stm32f4xx_hal_rtc_ex.c ****   *           + Extended RTC features functions
  13:Drivers/STM32F4xx_HAL_Driver/Src/stm32f4xx_hal_rtc_ex.c ****   *
  14:Drivers/STM32F4xx_HAL_Driver/Src/stm32f4xx_hal_rtc_ex.c ****   ******************************************************************************
  15:Drivers/STM32F4xx_HAL_Driver/Src/stm32f4xx_hal_rtc_ex.c ****   * @attention
  16:Drivers/STM32F4xx_HAL_Driver/Src/stm32f4xx_hal_rtc_ex.c ****   *
  17:Drivers/STM32F4xx_HAL_Driver/Src/stm32f4xx_hal_rtc_ex.c ****   * Copyright (c) 2017 STMicroelectronics.
  18:Drivers/STM32F4xx_HAL_Driver/Src/stm32f4xx_hal_rtc_ex.c ****   * All rights reserved.
  19:Drivers/STM32F4xx_HAL_Driver/Src/stm32f4xx_hal_rtc_ex.c ****   *
  20:Drivers/STM32F4xx_HAL_Driver/Src/stm32f4xx_hal_rtc_ex.c ****   * This software is licensed under terms that can be found in the LICENSE file
  21:Drivers/STM32F4xx_HAL_Driver/Src/stm32f4xx_hal_rtc_ex.c ****   * in the root directory of this software component.
  22:Drivers/STM32F4xx_HAL_Driver/Src/stm32f4xx_hal_rtc_ex.c ****   * If no LICENSE file comes with this software, it is provided AS-IS.
  23:Drivers/STM32F4xx_HAL_Driver/Src/stm32f4xx_hal_rtc_ex.c ****   *
  24:Drivers/STM32F4xx_HAL_Driver/Src/stm32f4xx_hal_rtc_ex.c ****   ******************************************************************************
  25:Drivers/STM32F4xx_HAL_Driver/Src/stm32f4xx_hal_rtc_ex.c ****   @verbatim
  26:Drivers/STM32F4xx_HAL_Driver/Src/stm32f4xx_hal_rtc_ex.c ****   ==============================================================================
  27:Drivers/STM32F4xx_HAL_Driver/Src/stm32f4xx_hal_rtc_ex.c ****                         ##### How to use this driver #####
  28:Drivers/STM32F4xx_HAL_Driver/Src/stm32f4xx_hal_rtc_ex.c ****   ==============================================================================
  29:Drivers/STM32F4xx_HAL_Driver/Src/stm32f4xx_hal_rtc_ex.c ****   [..]
ARM GAS  C:\Users\Administrator\AppData\Local\Temp\cczHSQjt.s 			page 2


  30:Drivers/STM32F4xx_HAL_Driver/Src/stm32f4xx_hal_rtc_ex.c ****     (+) Enable the RTC domain access.
  31:Drivers/STM32F4xx_HAL_Driver/Src/stm32f4xx_hal_rtc_ex.c ****     (+) Configure the RTC Prescaler (Asynchronous and Synchronous) and RTC hour
  32:Drivers/STM32F4xx_HAL_Driver/Src/stm32f4xx_hal_rtc_ex.c ****         format using the HAL_RTC_Init() function.
  33:Drivers/STM32F4xx_HAL_Driver/Src/stm32f4xx_hal_rtc_ex.c **** 
  34:Drivers/STM32F4xx_HAL_Driver/Src/stm32f4xx_hal_rtc_ex.c ****   *** RTC Wakeup configuration ***
  35:Drivers/STM32F4xx_HAL_Driver/Src/stm32f4xx_hal_rtc_ex.c ****   ================================
  36:Drivers/STM32F4xx_HAL_Driver/Src/stm32f4xx_hal_rtc_ex.c ****   [..]
  37:Drivers/STM32F4xx_HAL_Driver/Src/stm32f4xx_hal_rtc_ex.c ****     (+) To configure the RTC Wakeup Clock source and Counter use the
  38:Drivers/STM32F4xx_HAL_Driver/Src/stm32f4xx_hal_rtc_ex.c ****         HAL_RTCEx_SetWakeUpTimer() function.
  39:Drivers/STM32F4xx_HAL_Driver/Src/stm32f4xx_hal_rtc_ex.c ****         You can also configure the RTC Wakeup timer in interrupt mode using the
  40:Drivers/STM32F4xx_HAL_Driver/Src/stm32f4xx_hal_rtc_ex.c ****         HAL_RTCEx_SetWakeUpTimer_IT() function.
  41:Drivers/STM32F4xx_HAL_Driver/Src/stm32f4xx_hal_rtc_ex.c ****     (+) To read the RTC Wakeup Counter register, use the HAL_RTCEx_GetWakeUpTimer()
  42:Drivers/STM32F4xx_HAL_Driver/Src/stm32f4xx_hal_rtc_ex.c ****         function.
  43:Drivers/STM32F4xx_HAL_Driver/Src/stm32f4xx_hal_rtc_ex.c **** 
  44:Drivers/STM32F4xx_HAL_Driver/Src/stm32f4xx_hal_rtc_ex.c ****   *** Timestamp configuration ***
  45:Drivers/STM32F4xx_HAL_Driver/Src/stm32f4xx_hal_rtc_ex.c ****   ===============================
  46:Drivers/STM32F4xx_HAL_Driver/Src/stm32f4xx_hal_rtc_ex.c ****   [..]
  47:Drivers/STM32F4xx_HAL_Driver/Src/stm32f4xx_hal_rtc_ex.c ****     (+) To configure the RTC Timestamp use the HAL_RTCEx_SetTimeStamp() function.
  48:Drivers/STM32F4xx_HAL_Driver/Src/stm32f4xx_hal_rtc_ex.c ****         You can also configure the RTC Timestamp with interrupt mode using the
  49:Drivers/STM32F4xx_HAL_Driver/Src/stm32f4xx_hal_rtc_ex.c ****         HAL_RTCEx_SetTimeStamp_IT() function.
  50:Drivers/STM32F4xx_HAL_Driver/Src/stm32f4xx_hal_rtc_ex.c ****     (+) To read the RTC Timestamp Time and Date register, use the
  51:Drivers/STM32F4xx_HAL_Driver/Src/stm32f4xx_hal_rtc_ex.c ****         HAL_RTCEx_GetTimeStamp() function.
  52:Drivers/STM32F4xx_HAL_Driver/Src/stm32f4xx_hal_rtc_ex.c ****     (+) The Timestamp alternate function can be mapped either to RTC_AF1 (PC13)
  53:Drivers/STM32F4xx_HAL_Driver/Src/stm32f4xx_hal_rtc_ex.c ****         or RTC_AF2 (PI8) depending on the value of TSINSEL bit in RTC_TAFCR
  54:Drivers/STM32F4xx_HAL_Driver/Src/stm32f4xx_hal_rtc_ex.c ****         register.
  55:Drivers/STM32F4xx_HAL_Driver/Src/stm32f4xx_hal_rtc_ex.c ****         For STM32F446xx devices RTC_AF2 corresponds to pin PA0 and not to pin PI8.
  56:Drivers/STM32F4xx_HAL_Driver/Src/stm32f4xx_hal_rtc_ex.c ****         The corresponding pin is also selected by HAL_RTCEx_SetTimeStamp()
  57:Drivers/STM32F4xx_HAL_Driver/Src/stm32f4xx_hal_rtc_ex.c ****         or HAL_RTCEx_SetTimeStamp_IT() functions.
  58:Drivers/STM32F4xx_HAL_Driver/Src/stm32f4xx_hal_rtc_ex.c **** 
  59:Drivers/STM32F4xx_HAL_Driver/Src/stm32f4xx_hal_rtc_ex.c ****   *** Tamper configuration ***
  60:Drivers/STM32F4xx_HAL_Driver/Src/stm32f4xx_hal_rtc_ex.c ****   ============================
  61:Drivers/STM32F4xx_HAL_Driver/Src/stm32f4xx_hal_rtc_ex.c ****   [..]
  62:Drivers/STM32F4xx_HAL_Driver/Src/stm32f4xx_hal_rtc_ex.c ****     (+) To Enable the RTC Tamper and configure the Tamper filter count, trigger
  63:Drivers/STM32F4xx_HAL_Driver/Src/stm32f4xx_hal_rtc_ex.c ****         Edge or Level according to the Tamper filter value (if equal to 0 Edge
  64:Drivers/STM32F4xx_HAL_Driver/Src/stm32f4xx_hal_rtc_ex.c ****         else Level), sampling frequency, precharge or discharge and Pull-UP use
  65:Drivers/STM32F4xx_HAL_Driver/Src/stm32f4xx_hal_rtc_ex.c ****         the HAL_RTCEx_SetTamper() function.
  66:Drivers/STM32F4xx_HAL_Driver/Src/stm32f4xx_hal_rtc_ex.c ****         You can configure RTC Tamper in interrupt mode using HAL_RTCEx_SetTamper_IT()
  67:Drivers/STM32F4xx_HAL_Driver/Src/stm32f4xx_hal_rtc_ex.c ****         function.
  68:Drivers/STM32F4xx_HAL_Driver/Src/stm32f4xx_hal_rtc_ex.c ****     (+) The TAMPER1 alternate function can be mapped either to RTC_AF1 (PC13)
  69:Drivers/STM32F4xx_HAL_Driver/Src/stm32f4xx_hal_rtc_ex.c ****         or RTC_AF2 (PI8) depending on the value of TAMP1INSEL bit in RTC_TAFCR
  70:Drivers/STM32F4xx_HAL_Driver/Src/stm32f4xx_hal_rtc_ex.c ****         register.
  71:Drivers/STM32F4xx_HAL_Driver/Src/stm32f4xx_hal_rtc_ex.c ****         The corresponding pin is also selected by HAL_RTCEx_SetTamper()
  72:Drivers/STM32F4xx_HAL_Driver/Src/stm32f4xx_hal_rtc_ex.c ****         or HAL_RTCEx_SetTamper_IT() functions.
  73:Drivers/STM32F4xx_HAL_Driver/Src/stm32f4xx_hal_rtc_ex.c ****     (+) The TAMPER2 alternate function is mapped to RTC_AF2 (PI8).
  74:Drivers/STM32F4xx_HAL_Driver/Src/stm32f4xx_hal_rtc_ex.c ****         For STM32F446xx devices RTC_AF2 corresponds to pin PA0 and not to pin PI8.
  75:Drivers/STM32F4xx_HAL_Driver/Src/stm32f4xx_hal_rtc_ex.c **** 
  76:Drivers/STM32F4xx_HAL_Driver/Src/stm32f4xx_hal_rtc_ex.c ****   *** Backup Data Registers configuration ***
  77:Drivers/STM32F4xx_HAL_Driver/Src/stm32f4xx_hal_rtc_ex.c ****   ===========================================
  78:Drivers/STM32F4xx_HAL_Driver/Src/stm32f4xx_hal_rtc_ex.c ****   [..]
  79:Drivers/STM32F4xx_HAL_Driver/Src/stm32f4xx_hal_rtc_ex.c ****     (+) To write to the RTC Backup Data registers, use the HAL_RTCEx_BKUPWrite()
  80:Drivers/STM32F4xx_HAL_Driver/Src/stm32f4xx_hal_rtc_ex.c ****         function.
  81:Drivers/STM32F4xx_HAL_Driver/Src/stm32f4xx_hal_rtc_ex.c ****     (+) To read the RTC Backup Data registers, use the HAL_RTCEx_BKUPRead()
  82:Drivers/STM32F4xx_HAL_Driver/Src/stm32f4xx_hal_rtc_ex.c ****         function.
  83:Drivers/STM32F4xx_HAL_Driver/Src/stm32f4xx_hal_rtc_ex.c **** 
  84:Drivers/STM32F4xx_HAL_Driver/Src/stm32f4xx_hal_rtc_ex.c ****   *** Coarse Digital Calibration configuration ***
  85:Drivers/STM32F4xx_HAL_Driver/Src/stm32f4xx_hal_rtc_ex.c ****   ================================================
  86:Drivers/STM32F4xx_HAL_Driver/Src/stm32f4xx_hal_rtc_ex.c ****   [..]
ARM GAS  C:\Users\Administrator\AppData\Local\Temp\cczHSQjt.s 			page 3


  87:Drivers/STM32F4xx_HAL_Driver/Src/stm32f4xx_hal_rtc_ex.c ****     (+) The Coarse Digital Calibration can be used to compensate crystal inaccuracy
  88:Drivers/STM32F4xx_HAL_Driver/Src/stm32f4xx_hal_rtc_ex.c ****         by setting the DCS bit in RTC_CALIBR register.
  89:Drivers/STM32F4xx_HAL_Driver/Src/stm32f4xx_hal_rtc_ex.c ****     (+) When positive calibration is enabled (DCS = ‘0’), 2 asynchronous prescaler
  90:Drivers/STM32F4xx_HAL_Driver/Src/stm32f4xx_hal_rtc_ex.c ****         clock cycles are added every minute during 2xDC minutes.
  91:Drivers/STM32F4xx_HAL_Driver/Src/stm32f4xx_hal_rtc_ex.c ****         This causes the calendar to be updated sooner, thereby adjusting the
  92:Drivers/STM32F4xx_HAL_Driver/Src/stm32f4xx_hal_rtc_ex.c ****         effective RTC frequency to be a bit higher.
  93:Drivers/STM32F4xx_HAL_Driver/Src/stm32f4xx_hal_rtc_ex.c ****     (+) When negative calibration is enabled (DCS = ‘1’), 1 asynchronous prescaler
  94:Drivers/STM32F4xx_HAL_Driver/Src/stm32f4xx_hal_rtc_ex.c ****         clock cycle is removed every minute during 2xDC minutes.
  95:Drivers/STM32F4xx_HAL_Driver/Src/stm32f4xx_hal_rtc_ex.c ****         This causes the calendar to be updated later, thereby adjusting the
  96:Drivers/STM32F4xx_HAL_Driver/Src/stm32f4xx_hal_rtc_ex.c ****         effective RTC frequency to be a bit lower.
  97:Drivers/STM32F4xx_HAL_Driver/Src/stm32f4xx_hal_rtc_ex.c ****     (+) DC is configured through bits DC[4:0] of RTC_CALIBR register. This number
  98:Drivers/STM32F4xx_HAL_Driver/Src/stm32f4xx_hal_rtc_ex.c ****         ranges from 0 to 31 corresponding to a time interval (2xDC) ranging from
  99:Drivers/STM32F4xx_HAL_Driver/Src/stm32f4xx_hal_rtc_ex.c ****         0 to 62.
 100:Drivers/STM32F4xx_HAL_Driver/Src/stm32f4xx_hal_rtc_ex.c ****     (+) In order to measure the clock deviation, a 512 Hz clock is output for
 101:Drivers/STM32F4xx_HAL_Driver/Src/stm32f4xx_hal_rtc_ex.c ****         calibration.
 102:Drivers/STM32F4xx_HAL_Driver/Src/stm32f4xx_hal_rtc_ex.c ****     (+) The RTC Coarse Digital Calibration value and sign can be calibrated using
 103:Drivers/STM32F4xx_HAL_Driver/Src/stm32f4xx_hal_rtc_ex.c ****         the HAL_RTCEx_SetCoarseCalib() function.
 104:Drivers/STM32F4xx_HAL_Driver/Src/stm32f4xx_hal_rtc_ex.c **** 
 105:Drivers/STM32F4xx_HAL_Driver/Src/stm32f4xx_hal_rtc_ex.c ****   *** Smooth Digital Calibration configuration ***
 106:Drivers/STM32F4xx_HAL_Driver/Src/stm32f4xx_hal_rtc_ex.c ****   ================================================
 107:Drivers/STM32F4xx_HAL_Driver/Src/stm32f4xx_hal_rtc_ex.c ****   [..]
 108:Drivers/STM32F4xx_HAL_Driver/Src/stm32f4xx_hal_rtc_ex.c ****     (+) RTC frequency can be digitally calibrated with a resolution of about
 109:Drivers/STM32F4xx_HAL_Driver/Src/stm32f4xx_hal_rtc_ex.c ****         0.954 ppm with a range from -487.1 ppm to +488.5 ppm.
 110:Drivers/STM32F4xx_HAL_Driver/Src/stm32f4xx_hal_rtc_ex.c ****         The correction of the frequency is performed using a series of small
 111:Drivers/STM32F4xx_HAL_Driver/Src/stm32f4xx_hal_rtc_ex.c ****         adjustments (adding and/or subtracting individual RTCCLK pulses).
 112:Drivers/STM32F4xx_HAL_Driver/Src/stm32f4xx_hal_rtc_ex.c ****     (+) The smooth digital calibration is performed during a cycle of about 2^20
 113:Drivers/STM32F4xx_HAL_Driver/Src/stm32f4xx_hal_rtc_ex.c ****         RTCCLK pulses (or 32 seconds) when the input frequency is 32,768 Hz.
 114:Drivers/STM32F4xx_HAL_Driver/Src/stm32f4xx_hal_rtc_ex.c ****         This cycle is maintained by a 20-bit counter clocked by RTCCLK.
 115:Drivers/STM32F4xx_HAL_Driver/Src/stm32f4xx_hal_rtc_ex.c ****     (+) The smooth calibration register (RTC_CALR) specifies the number of RTCCLK
 116:Drivers/STM32F4xx_HAL_Driver/Src/stm32f4xx_hal_rtc_ex.c ****         clock cycles to be masked during the 32-second cycle.
 117:Drivers/STM32F4xx_HAL_Driver/Src/stm32f4xx_hal_rtc_ex.c ****     (+) The RTC Smooth Digital Calibration value and the corresponding calibration
 118:Drivers/STM32F4xx_HAL_Driver/Src/stm32f4xx_hal_rtc_ex.c ****         cycle period (32s, 16s, or 8s) can be calibrated using the
 119:Drivers/STM32F4xx_HAL_Driver/Src/stm32f4xx_hal_rtc_ex.c ****         HAL_RTCEx_SetSmoothCalib() function.
 120:Drivers/STM32F4xx_HAL_Driver/Src/stm32f4xx_hal_rtc_ex.c **** 
 121:Drivers/STM32F4xx_HAL_Driver/Src/stm32f4xx_hal_rtc_ex.c ****   @endverbatim
 122:Drivers/STM32F4xx_HAL_Driver/Src/stm32f4xx_hal_rtc_ex.c ****   ******************************************************************************
 123:Drivers/STM32F4xx_HAL_Driver/Src/stm32f4xx_hal_rtc_ex.c ****   */
 124:Drivers/STM32F4xx_HAL_Driver/Src/stm32f4xx_hal_rtc_ex.c **** 
 125:Drivers/STM32F4xx_HAL_Driver/Src/stm32f4xx_hal_rtc_ex.c **** /* Includes ------------------------------------------------------------------*/
 126:Drivers/STM32F4xx_HAL_Driver/Src/stm32f4xx_hal_rtc_ex.c **** #include "stm32f4xx_hal.h"
 127:Drivers/STM32F4xx_HAL_Driver/Src/stm32f4xx_hal_rtc_ex.c **** 
 128:Drivers/STM32F4xx_HAL_Driver/Src/stm32f4xx_hal_rtc_ex.c **** /** @addtogroup STM32F4xx_HAL_Driver
 129:Drivers/STM32F4xx_HAL_Driver/Src/stm32f4xx_hal_rtc_ex.c ****   * @{
 130:Drivers/STM32F4xx_HAL_Driver/Src/stm32f4xx_hal_rtc_ex.c ****   */
 131:Drivers/STM32F4xx_HAL_Driver/Src/stm32f4xx_hal_rtc_ex.c **** 
 132:Drivers/STM32F4xx_HAL_Driver/Src/stm32f4xx_hal_rtc_ex.c **** /** @defgroup RTCEx RTCEx
 133:Drivers/STM32F4xx_HAL_Driver/Src/stm32f4xx_hal_rtc_ex.c ****   * @brief    RTC Extended HAL module driver
 134:Drivers/STM32F4xx_HAL_Driver/Src/stm32f4xx_hal_rtc_ex.c ****   * @{
 135:Drivers/STM32F4xx_HAL_Driver/Src/stm32f4xx_hal_rtc_ex.c ****   */
 136:Drivers/STM32F4xx_HAL_Driver/Src/stm32f4xx_hal_rtc_ex.c **** 
 137:Drivers/STM32F4xx_HAL_Driver/Src/stm32f4xx_hal_rtc_ex.c **** #ifdef HAL_RTC_MODULE_ENABLED
 138:Drivers/STM32F4xx_HAL_Driver/Src/stm32f4xx_hal_rtc_ex.c **** 
 139:Drivers/STM32F4xx_HAL_Driver/Src/stm32f4xx_hal_rtc_ex.c **** /* Private typedef -----------------------------------------------------------*/
 140:Drivers/STM32F4xx_HAL_Driver/Src/stm32f4xx_hal_rtc_ex.c **** /* Private define ------------------------------------------------------------*/
 141:Drivers/STM32F4xx_HAL_Driver/Src/stm32f4xx_hal_rtc_ex.c **** /* Private macro -------------------------------------------------------------*/
 142:Drivers/STM32F4xx_HAL_Driver/Src/stm32f4xx_hal_rtc_ex.c **** /* Private variables ---------------------------------------------------------*/
 143:Drivers/STM32F4xx_HAL_Driver/Src/stm32f4xx_hal_rtc_ex.c **** /* Private function prototypes -----------------------------------------------*/
ARM GAS  C:\Users\Administrator\AppData\Local\Temp\cczHSQjt.s 			page 4


 144:Drivers/STM32F4xx_HAL_Driver/Src/stm32f4xx_hal_rtc_ex.c **** /* Exported functions --------------------------------------------------------*/
 145:Drivers/STM32F4xx_HAL_Driver/Src/stm32f4xx_hal_rtc_ex.c **** 
 146:Drivers/STM32F4xx_HAL_Driver/Src/stm32f4xx_hal_rtc_ex.c **** /** @defgroup RTCEx_Exported_Functions RTCEx Exported Functions
 147:Drivers/STM32F4xx_HAL_Driver/Src/stm32f4xx_hal_rtc_ex.c ****   * @{
 148:Drivers/STM32F4xx_HAL_Driver/Src/stm32f4xx_hal_rtc_ex.c ****   */
 149:Drivers/STM32F4xx_HAL_Driver/Src/stm32f4xx_hal_rtc_ex.c **** 
 150:Drivers/STM32F4xx_HAL_Driver/Src/stm32f4xx_hal_rtc_ex.c **** /** @defgroup RTCEx_Exported_Functions_Group1 RTC Timestamp and Tamper functions
 151:Drivers/STM32F4xx_HAL_Driver/Src/stm32f4xx_hal_rtc_ex.c ****   * @brief    RTC Timestamp and Tamper functions
 152:Drivers/STM32F4xx_HAL_Driver/Src/stm32f4xx_hal_rtc_ex.c ****   *
 153:Drivers/STM32F4xx_HAL_Driver/Src/stm32f4xx_hal_rtc_ex.c **** @verbatim
 154:Drivers/STM32F4xx_HAL_Driver/Src/stm32f4xx_hal_rtc_ex.c ****  ===============================================================================
 155:Drivers/STM32F4xx_HAL_Driver/Src/stm32f4xx_hal_rtc_ex.c ****                  ##### RTC Timestamp and Tamper functions #####
 156:Drivers/STM32F4xx_HAL_Driver/Src/stm32f4xx_hal_rtc_ex.c ****  ===============================================================================
 157:Drivers/STM32F4xx_HAL_Driver/Src/stm32f4xx_hal_rtc_ex.c **** 
 158:Drivers/STM32F4xx_HAL_Driver/Src/stm32f4xx_hal_rtc_ex.c ****  [..] This section provides functions allowing to configure Timestamp feature
 159:Drivers/STM32F4xx_HAL_Driver/Src/stm32f4xx_hal_rtc_ex.c **** 
 160:Drivers/STM32F4xx_HAL_Driver/Src/stm32f4xx_hal_rtc_ex.c **** @endverbatim
 161:Drivers/STM32F4xx_HAL_Driver/Src/stm32f4xx_hal_rtc_ex.c ****   * @{
 162:Drivers/STM32F4xx_HAL_Driver/Src/stm32f4xx_hal_rtc_ex.c ****   */
 163:Drivers/STM32F4xx_HAL_Driver/Src/stm32f4xx_hal_rtc_ex.c **** 
 164:Drivers/STM32F4xx_HAL_Driver/Src/stm32f4xx_hal_rtc_ex.c **** /**
 165:Drivers/STM32F4xx_HAL_Driver/Src/stm32f4xx_hal_rtc_ex.c ****   * @brief  Sets Timestamp.
 166:Drivers/STM32F4xx_HAL_Driver/Src/stm32f4xx_hal_rtc_ex.c ****   * @note   This API must be called before enabling the Timestamp feature.
 167:Drivers/STM32F4xx_HAL_Driver/Src/stm32f4xx_hal_rtc_ex.c ****   * @param  hrtc pointer to a RTC_HandleTypeDef structure that contains
 168:Drivers/STM32F4xx_HAL_Driver/Src/stm32f4xx_hal_rtc_ex.c ****   *                the configuration information for RTC.
 169:Drivers/STM32F4xx_HAL_Driver/Src/stm32f4xx_hal_rtc_ex.c ****   * @param  RTC_TimeStampEdge Specifies the pin edge on which the Timestamp is
 170:Drivers/STM32F4xx_HAL_Driver/Src/stm32f4xx_hal_rtc_ex.c ****   *         activated.
 171:Drivers/STM32F4xx_HAL_Driver/Src/stm32f4xx_hal_rtc_ex.c ****   *          This parameter can be one of the following values:
 172:Drivers/STM32F4xx_HAL_Driver/Src/stm32f4xx_hal_rtc_ex.c ****   *             @arg RTC_TIMESTAMPEDGE_RISING: the Timestamp event occurs on
 173:Drivers/STM32F4xx_HAL_Driver/Src/stm32f4xx_hal_rtc_ex.c ****   *                                        the rising edge of the related pin.
 174:Drivers/STM32F4xx_HAL_Driver/Src/stm32f4xx_hal_rtc_ex.c ****   *             @arg RTC_TIMESTAMPEDGE_FALLING: the Timestamp event occurs on
 175:Drivers/STM32F4xx_HAL_Driver/Src/stm32f4xx_hal_rtc_ex.c ****   *                                        the falling edge of the related pin.
 176:Drivers/STM32F4xx_HAL_Driver/Src/stm32f4xx_hal_rtc_ex.c ****   * @param  RTC_TimeStampPin Specifies the RTC Timestamp Pin.
 177:Drivers/STM32F4xx_HAL_Driver/Src/stm32f4xx_hal_rtc_ex.c ****   *          This parameter can be one of the following values:
 178:Drivers/STM32F4xx_HAL_Driver/Src/stm32f4xx_hal_rtc_ex.c ****   *             @arg RTC_TIMESTAMPPIN_DEFAULT: PC13 is selected as RTC Timestamp Pin.
 179:Drivers/STM32F4xx_HAL_Driver/Src/stm32f4xx_hal_rtc_ex.c ****   *             @arg RTC_TIMESTAMPPIN_POS1: PI8 is selected as RTC Timestamp Pin.
 180:Drivers/STM32F4xx_HAL_Driver/Src/stm32f4xx_hal_rtc_ex.c ****   * @note RTC_TIMESTAMPPIN_POS1 corresponds to pin PA0 in the case of
 181:Drivers/STM32F4xx_HAL_Driver/Src/stm32f4xx_hal_rtc_ex.c ****   *       STM32F446xx devices.
 182:Drivers/STM32F4xx_HAL_Driver/Src/stm32f4xx_hal_rtc_ex.c ****   * @note RTC_TIMESTAMPPIN_POS1 is not applicable to the following list of devices:
 183:Drivers/STM32F4xx_HAL_Driver/Src/stm32f4xx_hal_rtc_ex.c ****   *       STM32F412xx, STM32F413xx and STM32F423xx.
 184:Drivers/STM32F4xx_HAL_Driver/Src/stm32f4xx_hal_rtc_ex.c ****   * @retval HAL status
 185:Drivers/STM32F4xx_HAL_Driver/Src/stm32f4xx_hal_rtc_ex.c ****   */
 186:Drivers/STM32F4xx_HAL_Driver/Src/stm32f4xx_hal_rtc_ex.c **** HAL_StatusTypeDef HAL_RTCEx_SetTimeStamp(RTC_HandleTypeDef *hrtc, uint32_t RTC_TimeStampEdge, uint3
 187:Drivers/STM32F4xx_HAL_Driver/Src/stm32f4xx_hal_rtc_ex.c **** {
  30              		.loc 1 187 1 view -0
  31              		.cfi_startproc
  32              		@ args = 0, pretend = 0, frame = 0
  33              		@ frame_needed = 0, uses_anonymous_args = 0
  34              		.loc 1 187 1 is_stmt 0 view .LVU1
  35 0000 0346     		mov	r3, r0
 188:Drivers/STM32F4xx_HAL_Driver/Src/stm32f4xx_hal_rtc_ex.c ****   uint32_t tmpreg = 0U;
  36              		.loc 1 188 3 is_stmt 1 view .LVU2
  37              	.LVL1:
 189:Drivers/STM32F4xx_HAL_Driver/Src/stm32f4xx_hal_rtc_ex.c **** 
 190:Drivers/STM32F4xx_HAL_Driver/Src/stm32f4xx_hal_rtc_ex.c ****   /* Check the parameters */
 191:Drivers/STM32F4xx_HAL_Driver/Src/stm32f4xx_hal_rtc_ex.c ****   assert_param(IS_TIMESTAMP_EDGE(RTC_TimeStampEdge));
  38              		.loc 1 191 3 view .LVU3
ARM GAS  C:\Users\Administrator\AppData\Local\Temp\cczHSQjt.s 			page 5


 192:Drivers/STM32F4xx_HAL_Driver/Src/stm32f4xx_hal_rtc_ex.c ****   assert_param(IS_RTC_TIMESTAMP_PIN(RTC_TimeStampPin));
  39              		.loc 1 192 3 view .LVU4
 193:Drivers/STM32F4xx_HAL_Driver/Src/stm32f4xx_hal_rtc_ex.c **** 
 194:Drivers/STM32F4xx_HAL_Driver/Src/stm32f4xx_hal_rtc_ex.c ****   /* Process Locked */
 195:Drivers/STM32F4xx_HAL_Driver/Src/stm32f4xx_hal_rtc_ex.c ****   __HAL_LOCK(hrtc);
  40              		.loc 1 195 3 view .LVU5
  41              		.loc 1 195 3 view .LVU6
  42 0002 007F     		ldrb	r0, [r0, #28]	@ zero_extendqisi2
  43              	.LVL2:
  44              		.loc 1 195 3 is_stmt 0 view .LVU7
  45 0004 0128     		cmp	r0, #1
  46 0006 3FD0     		beq	.L3
 187:Drivers/STM32F4xx_HAL_Driver/Src/stm32f4xx_hal_rtc_ex.c ****   uint32_t tmpreg = 0U;
  47              		.loc 1 187 1 view .LVU8
  48 0008 10B5     		push	{r4, lr}
  49              		.cfi_def_cfa_offset 8
  50              		.cfi_offset 4, -8
  51              		.cfi_offset 14, -4
  52              		.loc 1 195 3 is_stmt 1 discriminator 2 view .LVU9
  53 000a 0120     		movs	r0, #1
  54 000c 1877     		strb	r0, [r3, #28]
  55              		.loc 1 195 3 view .LVU10
 196:Drivers/STM32F4xx_HAL_Driver/Src/stm32f4xx_hal_rtc_ex.c **** 
 197:Drivers/STM32F4xx_HAL_Driver/Src/stm32f4xx_hal_rtc_ex.c ****   /* Change RTC state to BUSY */
 198:Drivers/STM32F4xx_HAL_Driver/Src/stm32f4xx_hal_rtc_ex.c ****   hrtc->State = HAL_RTC_STATE_BUSY;
  56              		.loc 1 198 3 view .LVU11
  57              		.loc 1 198 15 is_stmt 0 view .LVU12
  58 000e 4FF0020C 		mov	ip, #2
  59 0012 83F81DC0 		strb	ip, [r3, #29]
 199:Drivers/STM32F4xx_HAL_Driver/Src/stm32f4xx_hal_rtc_ex.c **** 
 200:Drivers/STM32F4xx_HAL_Driver/Src/stm32f4xx_hal_rtc_ex.c ****   hrtc->Instance->TAFCR &= (uint32_t)~RTC_TAFCR_TSINSEL;
  60              		.loc 1 200 3 is_stmt 1 view .LVU13
  61              		.loc 1 200 7 is_stmt 0 view .LVU14
  62 0016 D3F800E0 		ldr	lr, [r3]
  63              		.loc 1 200 17 view .LVU15
  64 001a DEF840C0 		ldr	ip, [lr, #64]
  65              		.loc 1 200 25 view .LVU16
  66 001e 2CF4003C 		bic	ip, ip, #131072
  67 0022 CEF840C0 		str	ip, [lr, #64]
 201:Drivers/STM32F4xx_HAL_Driver/Src/stm32f4xx_hal_rtc_ex.c ****   hrtc->Instance->TAFCR |= (uint32_t)(RTC_TimeStampPin);
  68              		.loc 1 201 3 is_stmt 1 view .LVU17
  69              		.loc 1 201 7 is_stmt 0 view .LVU18
  70 0026 D3F800E0 		ldr	lr, [r3]
  71              		.loc 1 201 17 view .LVU19
  72 002a DEF840C0 		ldr	ip, [lr, #64]
  73              		.loc 1 201 25 view .LVU20
  74 002e 4CEA0202 		orr	r2, ip, r2
  75              	.LVL3:
  76              		.loc 1 201 25 view .LVU21
  77 0032 CEF84020 		str	r2, [lr, #64]
 202:Drivers/STM32F4xx_HAL_Driver/Src/stm32f4xx_hal_rtc_ex.c **** 
 203:Drivers/STM32F4xx_HAL_Driver/Src/stm32f4xx_hal_rtc_ex.c ****   /* Get the RTC_CR register and clear the bits to be configured */
 204:Drivers/STM32F4xx_HAL_Driver/Src/stm32f4xx_hal_rtc_ex.c ****   tmpreg = (uint32_t)(hrtc->Instance->CR & (uint32_t)~(RTC_CR_TSEDGE | RTC_CR_TSE));
  78              		.loc 1 204 3 is_stmt 1 view .LVU22
  79              		.loc 1 204 27 is_stmt 0 view .LVU23
  80 0036 D3F800C0 		ldr	ip, [r3]
  81              		.loc 1 204 37 view .LVU24
ARM GAS  C:\Users\Administrator\AppData\Local\Temp\cczHSQjt.s 			page 6


  82 003a DCF80820 		ldr	r2, [ip, #8]
  83              		.loc 1 204 10 view .LVU25
  84 003e 22F40062 		bic	r2, r2, #2048
  85 0042 22F00802 		bic	r2, r2, #8
  86              	.LVL4:
 205:Drivers/STM32F4xx_HAL_Driver/Src/stm32f4xx_hal_rtc_ex.c **** 
 206:Drivers/STM32F4xx_HAL_Driver/Src/stm32f4xx_hal_rtc_ex.c ****   /* Configure the Timestamp TSEDGE bit */
 207:Drivers/STM32F4xx_HAL_Driver/Src/stm32f4xx_hal_rtc_ex.c ****   tmpreg |= RTC_TimeStampEdge;
  87              		.loc 1 207 3 is_stmt 1 view .LVU26
  88              		.loc 1 207 10 is_stmt 0 view .LVU27
  89 0046 0A43     		orrs	r2, r2, r1
  90              	.LVL5:
 208:Drivers/STM32F4xx_HAL_Driver/Src/stm32f4xx_hal_rtc_ex.c **** 
 209:Drivers/STM32F4xx_HAL_Driver/Src/stm32f4xx_hal_rtc_ex.c ****   /* Disable the write protection for RTC registers */
 210:Drivers/STM32F4xx_HAL_Driver/Src/stm32f4xx_hal_rtc_ex.c ****   __HAL_RTC_WRITEPROTECTION_DISABLE(hrtc);
  91              		.loc 1 210 3 is_stmt 1 view .LVU28
  92              		.loc 1 210 3 view .LVU29
  93 0048 CA21     		movs	r1, #202
  94              	.LVL6:
  95              		.loc 1 210 3 is_stmt 0 view .LVU30
  96 004a CCF82410 		str	r1, [ip, #36]
  97              		.loc 1 210 3 is_stmt 1 view .LVU31
  98 004e 5321     		movs	r1, #83
  99 0050 1C68     		ldr	r4, [r3]
 100 0052 6162     		str	r1, [r4, #36]
 101              		.loc 1 210 3 view .LVU32
 211:Drivers/STM32F4xx_HAL_Driver/Src/stm32f4xx_hal_rtc_ex.c **** 
 212:Drivers/STM32F4xx_HAL_Driver/Src/stm32f4xx_hal_rtc_ex.c ****   /* Copy the desired configuration into the CR register */
 213:Drivers/STM32F4xx_HAL_Driver/Src/stm32f4xx_hal_rtc_ex.c ****   hrtc->Instance->CR = (uint32_t)tmpreg;
 102              		.loc 1 213 3 view .LVU33
 103              		.loc 1 213 7 is_stmt 0 view .LVU34
 104 0054 1968     		ldr	r1, [r3]
 105              		.loc 1 213 22 view .LVU35
 106 0056 8A60     		str	r2, [r1, #8]
 214:Drivers/STM32F4xx_HAL_Driver/Src/stm32f4xx_hal_rtc_ex.c **** 
 215:Drivers/STM32F4xx_HAL_Driver/Src/stm32f4xx_hal_rtc_ex.c ****   /* Clear RTC Timestamp flag */
 216:Drivers/STM32F4xx_HAL_Driver/Src/stm32f4xx_hal_rtc_ex.c ****   __HAL_RTC_TIMESTAMP_CLEAR_FLAG(hrtc, RTC_FLAG_TSF);
 107              		.loc 1 216 3 is_stmt 1 view .LVU36
 108 0058 1968     		ldr	r1, [r3]
 109 005a CA68     		ldr	r2, [r1, #12]
 110              	.LVL7:
 111              		.loc 1 216 3 is_stmt 0 view .LVU37
 112 005c D2B2     		uxtb	r2, r2
 113 005e 62F40862 		orn	r2, r2, #2176
 114 0062 CA60     		str	r2, [r1, #12]
 217:Drivers/STM32F4xx_HAL_Driver/Src/stm32f4xx_hal_rtc_ex.c **** 
 218:Drivers/STM32F4xx_HAL_Driver/Src/stm32f4xx_hal_rtc_ex.c ****   /* Clear RTC Timestamp overrun Flag */
 219:Drivers/STM32F4xx_HAL_Driver/Src/stm32f4xx_hal_rtc_ex.c ****   __HAL_RTC_TIMESTAMP_CLEAR_FLAG(hrtc, RTC_FLAG_TSOVF);
 115              		.loc 1 219 3 is_stmt 1 view .LVU38
 116 0064 1968     		ldr	r1, [r3]
 117 0066 CA68     		ldr	r2, [r1, #12]
 118 0068 D2B2     		uxtb	r2, r2
 119 006a 62F48452 		orn	r2, r2, #4224
 120 006e CA60     		str	r2, [r1, #12]
 220:Drivers/STM32F4xx_HAL_Driver/Src/stm32f4xx_hal_rtc_ex.c **** 
 221:Drivers/STM32F4xx_HAL_Driver/Src/stm32f4xx_hal_rtc_ex.c ****   /* Enable the Timestamp saving */
 222:Drivers/STM32F4xx_HAL_Driver/Src/stm32f4xx_hal_rtc_ex.c ****   __HAL_RTC_TIMESTAMP_ENABLE(hrtc);
ARM GAS  C:\Users\Administrator\AppData\Local\Temp\cczHSQjt.s 			page 7


 121              		.loc 1 222 3 view .LVU39
 122 0070 1968     		ldr	r1, [r3]
 123 0072 8A68     		ldr	r2, [r1, #8]
 124 0074 42F40062 		orr	r2, r2, #2048
 125 0078 8A60     		str	r2, [r1, #8]
 223:Drivers/STM32F4xx_HAL_Driver/Src/stm32f4xx_hal_rtc_ex.c **** 
 224:Drivers/STM32F4xx_HAL_Driver/Src/stm32f4xx_hal_rtc_ex.c ****   /* Enable the write protection for RTC registers */
 225:Drivers/STM32F4xx_HAL_Driver/Src/stm32f4xx_hal_rtc_ex.c ****   __HAL_RTC_WRITEPROTECTION_ENABLE(hrtc);
 126              		.loc 1 225 3 view .LVU40
 127              		.loc 1 225 3 view .LVU41
 128 007a 1A68     		ldr	r2, [r3]
 129 007c FF21     		movs	r1, #255
 130 007e 5162     		str	r1, [r2, #36]
 131              		.loc 1 225 3 view .LVU42
 226:Drivers/STM32F4xx_HAL_Driver/Src/stm32f4xx_hal_rtc_ex.c **** 
 227:Drivers/STM32F4xx_HAL_Driver/Src/stm32f4xx_hal_rtc_ex.c ****   /* Change RTC state back to READY */
 228:Drivers/STM32F4xx_HAL_Driver/Src/stm32f4xx_hal_rtc_ex.c ****   hrtc->State = HAL_RTC_STATE_READY;
 132              		.loc 1 228 3 view .LVU43
 133              		.loc 1 228 15 is_stmt 0 view .LVU44
 134 0080 5877     		strb	r0, [r3, #29]
 229:Drivers/STM32F4xx_HAL_Driver/Src/stm32f4xx_hal_rtc_ex.c **** 
 230:Drivers/STM32F4xx_HAL_Driver/Src/stm32f4xx_hal_rtc_ex.c ****   /* Process Unlocked */
 231:Drivers/STM32F4xx_HAL_Driver/Src/stm32f4xx_hal_rtc_ex.c ****   __HAL_UNLOCK(hrtc);
 135              		.loc 1 231 3 is_stmt 1 view .LVU45
 136              		.loc 1 231 3 view .LVU46
 137 0082 0020     		movs	r0, #0
 138 0084 1877     		strb	r0, [r3, #28]
 139              		.loc 1 231 3 view .LVU47
 232:Drivers/STM32F4xx_HAL_Driver/Src/stm32f4xx_hal_rtc_ex.c **** 
 233:Drivers/STM32F4xx_HAL_Driver/Src/stm32f4xx_hal_rtc_ex.c ****   return HAL_OK;
 140              		.loc 1 233 3 view .LVU48
 234:Drivers/STM32F4xx_HAL_Driver/Src/stm32f4xx_hal_rtc_ex.c **** }
 141              		.loc 1 234 1 is_stmt 0 view .LVU49
 142 0086 10BD     		pop	{r4, pc}
 143              	.LVL8:
 144              	.L3:
 145              		.cfi_def_cfa_offset 0
 146              		.cfi_restore 4
 147              		.cfi_restore 14
 195:Drivers/STM32F4xx_HAL_Driver/Src/stm32f4xx_hal_rtc_ex.c **** 
 148              		.loc 1 195 3 discriminator 1 view .LVU50
 149 0088 0220     		movs	r0, #2
 150              		.loc 1 234 1 view .LVU51
 151 008a 7047     		bx	lr
 152              		.cfi_endproc
 153              	.LFE235:
 155              		.section	.text.HAL_RTCEx_SetTimeStamp_IT,"ax",%progbits
 156              		.align	1
 157              		.global	HAL_RTCEx_SetTimeStamp_IT
 158              		.syntax unified
 159              		.thumb
 160              		.thumb_func
 162              	HAL_RTCEx_SetTimeStamp_IT:
 163              	.LVL9:
 164              	.LFB236:
 235:Drivers/STM32F4xx_HAL_Driver/Src/stm32f4xx_hal_rtc_ex.c **** 
 236:Drivers/STM32F4xx_HAL_Driver/Src/stm32f4xx_hal_rtc_ex.c **** /**
ARM GAS  C:\Users\Administrator\AppData\Local\Temp\cczHSQjt.s 			page 8


 237:Drivers/STM32F4xx_HAL_Driver/Src/stm32f4xx_hal_rtc_ex.c ****   * @brief  Sets Timestamp with Interrupt.
 238:Drivers/STM32F4xx_HAL_Driver/Src/stm32f4xx_hal_rtc_ex.c ****   * @param  hrtc pointer to a RTC_HandleTypeDef structure that contains
 239:Drivers/STM32F4xx_HAL_Driver/Src/stm32f4xx_hal_rtc_ex.c ****   *                the configuration information for RTC.
 240:Drivers/STM32F4xx_HAL_Driver/Src/stm32f4xx_hal_rtc_ex.c ****   * @note   This API must be called before enabling the Timestamp feature.
 241:Drivers/STM32F4xx_HAL_Driver/Src/stm32f4xx_hal_rtc_ex.c ****   * @param  RTC_TimeStampEdge Specifies the pin edge on which the Timestamp is
 242:Drivers/STM32F4xx_HAL_Driver/Src/stm32f4xx_hal_rtc_ex.c ****   *         activated.
 243:Drivers/STM32F4xx_HAL_Driver/Src/stm32f4xx_hal_rtc_ex.c ****   *          This parameter can be one of the following values:
 244:Drivers/STM32F4xx_HAL_Driver/Src/stm32f4xx_hal_rtc_ex.c ****   *             @arg RTC_TIMESTAMPEDGE_RISING: the Timestamp event occurs on
 245:Drivers/STM32F4xx_HAL_Driver/Src/stm32f4xx_hal_rtc_ex.c ****   *                                        the rising edge of the related pin.
 246:Drivers/STM32F4xx_HAL_Driver/Src/stm32f4xx_hal_rtc_ex.c ****   *             @arg RTC_TIMESTAMPEDGE_FALLING: the Timestamp event occurs on
 247:Drivers/STM32F4xx_HAL_Driver/Src/stm32f4xx_hal_rtc_ex.c ****   *                                        the falling edge of the related pin.
 248:Drivers/STM32F4xx_HAL_Driver/Src/stm32f4xx_hal_rtc_ex.c ****   * @param  RTC_TimeStampPin Specifies the RTC Timestamp Pin.
 249:Drivers/STM32F4xx_HAL_Driver/Src/stm32f4xx_hal_rtc_ex.c ****   *          This parameter can be one of the following values:
 250:Drivers/STM32F4xx_HAL_Driver/Src/stm32f4xx_hal_rtc_ex.c ****   *             @arg RTC_TIMESTAMPPIN_DEFAULT: PC13 is selected as RTC Timestamp Pin.
 251:Drivers/STM32F4xx_HAL_Driver/Src/stm32f4xx_hal_rtc_ex.c ****   *             @arg RTC_TIMESTAMPPIN_POS1: PI8 is selected as RTC Timestamp Pin.
 252:Drivers/STM32F4xx_HAL_Driver/Src/stm32f4xx_hal_rtc_ex.c ****   * @note RTC_TIMESTAMPPIN_POS1 corresponds to pin PA0 in the case of
 253:Drivers/STM32F4xx_HAL_Driver/Src/stm32f4xx_hal_rtc_ex.c ****   *       STM32F446xx devices.
 254:Drivers/STM32F4xx_HAL_Driver/Src/stm32f4xx_hal_rtc_ex.c ****   * @note RTC_TIMESTAMPPIN_POS1 is not applicable to the following list of devices:
 255:Drivers/STM32F4xx_HAL_Driver/Src/stm32f4xx_hal_rtc_ex.c ****   *       STM32F412xx, STM32F413xx and STM32F423xx.
 256:Drivers/STM32F4xx_HAL_Driver/Src/stm32f4xx_hal_rtc_ex.c ****   * @retval HAL status
 257:Drivers/STM32F4xx_HAL_Driver/Src/stm32f4xx_hal_rtc_ex.c ****   */
 258:Drivers/STM32F4xx_HAL_Driver/Src/stm32f4xx_hal_rtc_ex.c **** HAL_StatusTypeDef HAL_RTCEx_SetTimeStamp_IT(RTC_HandleTypeDef *hrtc, uint32_t RTC_TimeStampEdge, ui
 259:Drivers/STM32F4xx_HAL_Driver/Src/stm32f4xx_hal_rtc_ex.c **** {
 165              		.loc 1 259 1 is_stmt 1 view -0
 166              		.cfi_startproc
 167              		@ args = 0, pretend = 0, frame = 0
 168              		@ frame_needed = 0, uses_anonymous_args = 0
 169              		.loc 1 259 1 is_stmt 0 view .LVU53
 170 0000 0346     		mov	r3, r0
 260:Drivers/STM32F4xx_HAL_Driver/Src/stm32f4xx_hal_rtc_ex.c ****   uint32_t tmpreg = 0U;
 171              		.loc 1 260 3 is_stmt 1 view .LVU54
 172              	.LVL10:
 261:Drivers/STM32F4xx_HAL_Driver/Src/stm32f4xx_hal_rtc_ex.c **** 
 262:Drivers/STM32F4xx_HAL_Driver/Src/stm32f4xx_hal_rtc_ex.c ****   /* Check the parameters */
 263:Drivers/STM32F4xx_HAL_Driver/Src/stm32f4xx_hal_rtc_ex.c ****   assert_param(IS_TIMESTAMP_EDGE(RTC_TimeStampEdge));
 173              		.loc 1 263 3 view .LVU55
 264:Drivers/STM32F4xx_HAL_Driver/Src/stm32f4xx_hal_rtc_ex.c ****   assert_param(IS_RTC_TIMESTAMP_PIN(RTC_TimeStampPin));
 174              		.loc 1 264 3 view .LVU56
 265:Drivers/STM32F4xx_HAL_Driver/Src/stm32f4xx_hal_rtc_ex.c **** 
 266:Drivers/STM32F4xx_HAL_Driver/Src/stm32f4xx_hal_rtc_ex.c ****   /* Process Locked */
 267:Drivers/STM32F4xx_HAL_Driver/Src/stm32f4xx_hal_rtc_ex.c ****   __HAL_LOCK(hrtc);
 175              		.loc 1 267 3 view .LVU57
 176              		.loc 1 267 3 view .LVU58
 177 0002 007F     		ldrb	r0, [r0, #28]	@ zero_extendqisi2
 178              	.LVL11:
 179              		.loc 1 267 3 is_stmt 0 view .LVU59
 180 0004 0128     		cmp	r0, #1
 181 0006 4DD0     		beq	.L10
 259:Drivers/STM32F4xx_HAL_Driver/Src/stm32f4xx_hal_rtc_ex.c ****   uint32_t tmpreg = 0U;
 182              		.loc 1 259 1 view .LVU60
 183 0008 10B5     		push	{r4, lr}
 184              		.cfi_def_cfa_offset 8
 185              		.cfi_offset 4, -8
 186              		.cfi_offset 14, -4
 187              		.loc 1 267 3 is_stmt 1 discriminator 2 view .LVU61
 188 000a 0120     		movs	r0, #1
 189 000c 1877     		strb	r0, [r3, #28]
ARM GAS  C:\Users\Administrator\AppData\Local\Temp\cczHSQjt.s 			page 9


 190              		.loc 1 267 3 view .LVU62
 268:Drivers/STM32F4xx_HAL_Driver/Src/stm32f4xx_hal_rtc_ex.c **** 
 269:Drivers/STM32F4xx_HAL_Driver/Src/stm32f4xx_hal_rtc_ex.c ****   /* Change RTC state to BUSY */
 270:Drivers/STM32F4xx_HAL_Driver/Src/stm32f4xx_hal_rtc_ex.c ****   hrtc->State = HAL_RTC_STATE_BUSY;
 191              		.loc 1 270 3 view .LVU63
 192              		.loc 1 270 15 is_stmt 0 view .LVU64
 193 000e 4FF0020C 		mov	ip, #2
 194 0012 83F81DC0 		strb	ip, [r3, #29]
 271:Drivers/STM32F4xx_HAL_Driver/Src/stm32f4xx_hal_rtc_ex.c **** 
 272:Drivers/STM32F4xx_HAL_Driver/Src/stm32f4xx_hal_rtc_ex.c ****   hrtc->Instance->TAFCR &= (uint32_t)~RTC_TAFCR_TSINSEL;
 195              		.loc 1 272 3 is_stmt 1 view .LVU65
 196              		.loc 1 272 7 is_stmt 0 view .LVU66
 197 0016 D3F800E0 		ldr	lr, [r3]
 198              		.loc 1 272 17 view .LVU67
 199 001a DEF840C0 		ldr	ip, [lr, #64]
 200              		.loc 1 272 25 view .LVU68
 201 001e 2CF4003C 		bic	ip, ip, #131072
 202 0022 CEF840C0 		str	ip, [lr, #64]
 273:Drivers/STM32F4xx_HAL_Driver/Src/stm32f4xx_hal_rtc_ex.c ****   hrtc->Instance->TAFCR |= (uint32_t)(RTC_TimeStampPin);
 203              		.loc 1 273 3 is_stmt 1 view .LVU69
 204              		.loc 1 273 7 is_stmt 0 view .LVU70
 205 0026 D3F800E0 		ldr	lr, [r3]
 206              		.loc 1 273 17 view .LVU71
 207 002a DEF840C0 		ldr	ip, [lr, #64]
 208              		.loc 1 273 25 view .LVU72
 209 002e 4CEA0202 		orr	r2, ip, r2
 210              	.LVL12:
 211              		.loc 1 273 25 view .LVU73
 212 0032 CEF84020 		str	r2, [lr, #64]
 274:Drivers/STM32F4xx_HAL_Driver/Src/stm32f4xx_hal_rtc_ex.c **** 
 275:Drivers/STM32F4xx_HAL_Driver/Src/stm32f4xx_hal_rtc_ex.c ****   /* Get the RTC_CR register and clear the bits to be configured */
 276:Drivers/STM32F4xx_HAL_Driver/Src/stm32f4xx_hal_rtc_ex.c ****   tmpreg = (uint32_t)(hrtc->Instance->CR & (uint32_t)~(RTC_CR_TSEDGE | RTC_CR_TSE));
 213              		.loc 1 276 3 is_stmt 1 view .LVU74
 214              		.loc 1 276 27 is_stmt 0 view .LVU75
 215 0036 D3F800C0 		ldr	ip, [r3]
 216              		.loc 1 276 37 view .LVU76
 217 003a DCF80820 		ldr	r2, [ip, #8]
 218              		.loc 1 276 10 view .LVU77
 219 003e 22F40062 		bic	r2, r2, #2048
 220 0042 22F00802 		bic	r2, r2, #8
 221              	.LVL13:
 277:Drivers/STM32F4xx_HAL_Driver/Src/stm32f4xx_hal_rtc_ex.c **** 
 278:Drivers/STM32F4xx_HAL_Driver/Src/stm32f4xx_hal_rtc_ex.c ****   /* Configure the Timestamp TSEDGE bit */
 279:Drivers/STM32F4xx_HAL_Driver/Src/stm32f4xx_hal_rtc_ex.c ****   tmpreg |= RTC_TimeStampEdge;
 222              		.loc 1 279 3 is_stmt 1 view .LVU78
 223              		.loc 1 279 10 is_stmt 0 view .LVU79
 224 0046 0A43     		orrs	r2, r2, r1
 225              	.LVL14:
 280:Drivers/STM32F4xx_HAL_Driver/Src/stm32f4xx_hal_rtc_ex.c **** 
 281:Drivers/STM32F4xx_HAL_Driver/Src/stm32f4xx_hal_rtc_ex.c ****   /* Disable the write protection for RTC registers */
 282:Drivers/STM32F4xx_HAL_Driver/Src/stm32f4xx_hal_rtc_ex.c ****   __HAL_RTC_WRITEPROTECTION_DISABLE(hrtc);
 226              		.loc 1 282 3 is_stmt 1 view .LVU80
 227              		.loc 1 282 3 view .LVU81
 228 0048 CA21     		movs	r1, #202
 229              	.LVL15:
 230              		.loc 1 282 3 is_stmt 0 view .LVU82
 231 004a CCF82410 		str	r1, [ip, #36]
ARM GAS  C:\Users\Administrator\AppData\Local\Temp\cczHSQjt.s 			page 10


 232              		.loc 1 282 3 is_stmt 1 view .LVU83
 233 004e 5321     		movs	r1, #83
 234 0050 1C68     		ldr	r4, [r3]
 235 0052 6162     		str	r1, [r4, #36]
 236              		.loc 1 282 3 view .LVU84
 283:Drivers/STM32F4xx_HAL_Driver/Src/stm32f4xx_hal_rtc_ex.c **** 
 284:Drivers/STM32F4xx_HAL_Driver/Src/stm32f4xx_hal_rtc_ex.c ****   /* Copy the desired configuration into the CR register */
 285:Drivers/STM32F4xx_HAL_Driver/Src/stm32f4xx_hal_rtc_ex.c ****   hrtc->Instance->CR = (uint32_t)tmpreg;
 237              		.loc 1 285 3 view .LVU85
 238              		.loc 1 285 7 is_stmt 0 view .LVU86
 239 0054 1968     		ldr	r1, [r3]
 240              		.loc 1 285 22 view .LVU87
 241 0056 8A60     		str	r2, [r1, #8]
 286:Drivers/STM32F4xx_HAL_Driver/Src/stm32f4xx_hal_rtc_ex.c **** 
 287:Drivers/STM32F4xx_HAL_Driver/Src/stm32f4xx_hal_rtc_ex.c ****   /* Clear RTC Timestamp flag */
 288:Drivers/STM32F4xx_HAL_Driver/Src/stm32f4xx_hal_rtc_ex.c ****   __HAL_RTC_TIMESTAMP_CLEAR_FLAG(hrtc, RTC_FLAG_TSF);
 242              		.loc 1 288 3 is_stmt 1 view .LVU88
 243 0058 1968     		ldr	r1, [r3]
 244 005a CA68     		ldr	r2, [r1, #12]
 245              	.LVL16:
 246              		.loc 1 288 3 is_stmt 0 view .LVU89
 247 005c D2B2     		uxtb	r2, r2
 248 005e 62F40862 		orn	r2, r2, #2176
 249 0062 CA60     		str	r2, [r1, #12]
 289:Drivers/STM32F4xx_HAL_Driver/Src/stm32f4xx_hal_rtc_ex.c **** 
 290:Drivers/STM32F4xx_HAL_Driver/Src/stm32f4xx_hal_rtc_ex.c ****   /* Clear RTC Timestamp overrun Flag */
 291:Drivers/STM32F4xx_HAL_Driver/Src/stm32f4xx_hal_rtc_ex.c ****   __HAL_RTC_TIMESTAMP_CLEAR_FLAG(hrtc, RTC_FLAG_TSOVF);
 250              		.loc 1 291 3 is_stmt 1 view .LVU90
 251 0064 1968     		ldr	r1, [r3]
 252 0066 CA68     		ldr	r2, [r1, #12]
 253 0068 D2B2     		uxtb	r2, r2
 254 006a 62F48452 		orn	r2, r2, #4224
 255 006e CA60     		str	r2, [r1, #12]
 292:Drivers/STM32F4xx_HAL_Driver/Src/stm32f4xx_hal_rtc_ex.c **** 
 293:Drivers/STM32F4xx_HAL_Driver/Src/stm32f4xx_hal_rtc_ex.c ****   /* Enable the Timestamp saving */
 294:Drivers/STM32F4xx_HAL_Driver/Src/stm32f4xx_hal_rtc_ex.c ****   __HAL_RTC_TIMESTAMP_ENABLE(hrtc);
 256              		.loc 1 294 3 view .LVU91
 257 0070 1968     		ldr	r1, [r3]
 258 0072 8A68     		ldr	r2, [r1, #8]
 259 0074 42F40062 		orr	r2, r2, #2048
 260 0078 8A60     		str	r2, [r1, #8]
 295:Drivers/STM32F4xx_HAL_Driver/Src/stm32f4xx_hal_rtc_ex.c **** 
 296:Drivers/STM32F4xx_HAL_Driver/Src/stm32f4xx_hal_rtc_ex.c ****   /* Enable IT Timestamp */
 297:Drivers/STM32F4xx_HAL_Driver/Src/stm32f4xx_hal_rtc_ex.c ****   __HAL_RTC_TIMESTAMP_ENABLE_IT(hrtc, RTC_IT_TS);
 261              		.loc 1 297 3 view .LVU92
 262 007a 1968     		ldr	r1, [r3]
 263 007c 8A68     		ldr	r2, [r1, #8]
 264 007e 42F40042 		orr	r2, r2, #32768
 265 0082 8A60     		str	r2, [r1, #8]
 298:Drivers/STM32F4xx_HAL_Driver/Src/stm32f4xx_hal_rtc_ex.c **** 
 299:Drivers/STM32F4xx_HAL_Driver/Src/stm32f4xx_hal_rtc_ex.c ****   /* Enable the write protection for RTC registers */
 300:Drivers/STM32F4xx_HAL_Driver/Src/stm32f4xx_hal_rtc_ex.c ****   __HAL_RTC_WRITEPROTECTION_ENABLE(hrtc);
 266              		.loc 1 300 3 view .LVU93
 267              		.loc 1 300 3 view .LVU94
 268 0084 1A68     		ldr	r2, [r3]
 269 0086 FF21     		movs	r1, #255
 270 0088 5162     		str	r1, [r2, #36]
ARM GAS  C:\Users\Administrator\AppData\Local\Temp\cczHSQjt.s 			page 11


 271              		.loc 1 300 3 view .LVU95
 301:Drivers/STM32F4xx_HAL_Driver/Src/stm32f4xx_hal_rtc_ex.c **** 
 302:Drivers/STM32F4xx_HAL_Driver/Src/stm32f4xx_hal_rtc_ex.c ****   /* RTC Timestamp Interrupt Configuration: EXTI configuration */
 303:Drivers/STM32F4xx_HAL_Driver/Src/stm32f4xx_hal_rtc_ex.c ****   __HAL_RTC_TAMPER_TIMESTAMP_EXTI_ENABLE_IT();
 272              		.loc 1 303 3 view .LVU96
 273 008a 074A     		ldr	r2, .L15
 274 008c 1168     		ldr	r1, [r2]
 275 008e 41F40011 		orr	r1, r1, #2097152
 276 0092 1160     		str	r1, [r2]
 304:Drivers/STM32F4xx_HAL_Driver/Src/stm32f4xx_hal_rtc_ex.c ****   __HAL_RTC_TAMPER_TIMESTAMP_EXTI_ENABLE_RISING_EDGE();
 277              		.loc 1 304 3 view .LVU97
 278 0094 9168     		ldr	r1, [r2, #8]
 279 0096 41F40011 		orr	r1, r1, #2097152
 280 009a 9160     		str	r1, [r2, #8]
 305:Drivers/STM32F4xx_HAL_Driver/Src/stm32f4xx_hal_rtc_ex.c **** 
 306:Drivers/STM32F4xx_HAL_Driver/Src/stm32f4xx_hal_rtc_ex.c ****   /* Change RTC state back to READY */
 307:Drivers/STM32F4xx_HAL_Driver/Src/stm32f4xx_hal_rtc_ex.c ****   hrtc->State = HAL_RTC_STATE_READY;
 281              		.loc 1 307 3 view .LVU98
 282              		.loc 1 307 15 is_stmt 0 view .LVU99
 283 009c 5877     		strb	r0, [r3, #29]
 308:Drivers/STM32F4xx_HAL_Driver/Src/stm32f4xx_hal_rtc_ex.c **** 
 309:Drivers/STM32F4xx_HAL_Driver/Src/stm32f4xx_hal_rtc_ex.c ****   /* Process Unlocked */
 310:Drivers/STM32F4xx_HAL_Driver/Src/stm32f4xx_hal_rtc_ex.c ****   __HAL_UNLOCK(hrtc);
 284              		.loc 1 310 3 is_stmt 1 view .LVU100
 285              		.loc 1 310 3 view .LVU101
 286 009e 0020     		movs	r0, #0
 287 00a0 1877     		strb	r0, [r3, #28]
 288              		.loc 1 310 3 view .LVU102
 311:Drivers/STM32F4xx_HAL_Driver/Src/stm32f4xx_hal_rtc_ex.c **** 
 312:Drivers/STM32F4xx_HAL_Driver/Src/stm32f4xx_hal_rtc_ex.c ****   return HAL_OK;
 289              		.loc 1 312 3 view .LVU103
 313:Drivers/STM32F4xx_HAL_Driver/Src/stm32f4xx_hal_rtc_ex.c **** }
 290              		.loc 1 313 1 is_stmt 0 view .LVU104
 291 00a2 10BD     		pop	{r4, pc}
 292              	.LVL17:
 293              	.L10:
 294              		.cfi_def_cfa_offset 0
 295              		.cfi_restore 4
 296              		.cfi_restore 14
 267:Drivers/STM32F4xx_HAL_Driver/Src/stm32f4xx_hal_rtc_ex.c **** 
 297              		.loc 1 267 3 discriminator 1 view .LVU105
 298 00a4 0220     		movs	r0, #2
 299              		.loc 1 313 1 view .LVU106
 300 00a6 7047     		bx	lr
 301              	.L16:
 302              		.align	2
 303              	.L15:
 304 00a8 003C0140 		.word	1073822720
 305              		.cfi_endproc
 306              	.LFE236:
 308              		.section	.text.HAL_RTCEx_DeactivateTimeStamp,"ax",%progbits
 309              		.align	1
 310              		.global	HAL_RTCEx_DeactivateTimeStamp
 311              		.syntax unified
 312              		.thumb
 313              		.thumb_func
 315              	HAL_RTCEx_DeactivateTimeStamp:
ARM GAS  C:\Users\Administrator\AppData\Local\Temp\cczHSQjt.s 			page 12


 316              	.LVL18:
 317              	.LFB237:
 314:Drivers/STM32F4xx_HAL_Driver/Src/stm32f4xx_hal_rtc_ex.c **** 
 315:Drivers/STM32F4xx_HAL_Driver/Src/stm32f4xx_hal_rtc_ex.c **** /**
 316:Drivers/STM32F4xx_HAL_Driver/Src/stm32f4xx_hal_rtc_ex.c ****   * @brief  Deactivates Timestamp.
 317:Drivers/STM32F4xx_HAL_Driver/Src/stm32f4xx_hal_rtc_ex.c ****   * @param  hrtc pointer to a RTC_HandleTypeDef structure that contains
 318:Drivers/STM32F4xx_HAL_Driver/Src/stm32f4xx_hal_rtc_ex.c ****   *                the configuration information for RTC.
 319:Drivers/STM32F4xx_HAL_Driver/Src/stm32f4xx_hal_rtc_ex.c ****   * @retval HAL status
 320:Drivers/STM32F4xx_HAL_Driver/Src/stm32f4xx_hal_rtc_ex.c ****   */
 321:Drivers/STM32F4xx_HAL_Driver/Src/stm32f4xx_hal_rtc_ex.c **** HAL_StatusTypeDef HAL_RTCEx_DeactivateTimeStamp(RTC_HandleTypeDef *hrtc)
 322:Drivers/STM32F4xx_HAL_Driver/Src/stm32f4xx_hal_rtc_ex.c **** {
 318              		.loc 1 322 1 is_stmt 1 view -0
 319              		.cfi_startproc
 320              		@ args = 0, pretend = 0, frame = 0
 321              		@ frame_needed = 0, uses_anonymous_args = 0
 322              		@ link register save eliminated.
 323              		.loc 1 322 1 is_stmt 0 view .LVU108
 324 0000 0346     		mov	r3, r0
 323:Drivers/STM32F4xx_HAL_Driver/Src/stm32f4xx_hal_rtc_ex.c ****   uint32_t tmpreg = 0U;
 325              		.loc 1 323 3 is_stmt 1 view .LVU109
 326              	.LVL19:
 324:Drivers/STM32F4xx_HAL_Driver/Src/stm32f4xx_hal_rtc_ex.c **** 
 325:Drivers/STM32F4xx_HAL_Driver/Src/stm32f4xx_hal_rtc_ex.c ****   /* Process Locked */
 326:Drivers/STM32F4xx_HAL_Driver/Src/stm32f4xx_hal_rtc_ex.c ****   __HAL_LOCK(hrtc);
 327              		.loc 1 326 3 view .LVU110
 328              		.loc 1 326 3 view .LVU111
 329 0002 027F     		ldrb	r2, [r0, #28]	@ zero_extendqisi2
 330 0004 012A     		cmp	r2, #1
 331 0006 1CD0     		beq	.L19
 332              		.loc 1 326 3 discriminator 2 view .LVU112
 333 0008 0121     		movs	r1, #1
 334 000a 0177     		strb	r1, [r0, #28]
 335              		.loc 1 326 3 view .LVU113
 327:Drivers/STM32F4xx_HAL_Driver/Src/stm32f4xx_hal_rtc_ex.c **** 
 328:Drivers/STM32F4xx_HAL_Driver/Src/stm32f4xx_hal_rtc_ex.c ****   hrtc->State = HAL_RTC_STATE_BUSY;
 336              		.loc 1 328 3 view .LVU114
 337              		.loc 1 328 15 is_stmt 0 view .LVU115
 338 000c 0222     		movs	r2, #2
 339 000e 4277     		strb	r2, [r0, #29]
 329:Drivers/STM32F4xx_HAL_Driver/Src/stm32f4xx_hal_rtc_ex.c **** 
 330:Drivers/STM32F4xx_HAL_Driver/Src/stm32f4xx_hal_rtc_ex.c ****   /* Disable the write protection for RTC registers */
 331:Drivers/STM32F4xx_HAL_Driver/Src/stm32f4xx_hal_rtc_ex.c ****   __HAL_RTC_WRITEPROTECTION_DISABLE(hrtc);
 340              		.loc 1 331 3 is_stmt 1 view .LVU116
 341              		.loc 1 331 3 view .LVU117
 342 0010 0268     		ldr	r2, [r0]
 343 0012 CA20     		movs	r0, #202
 344              	.LVL20:
 345              		.loc 1 331 3 is_stmt 0 view .LVU118
 346 0014 5062     		str	r0, [r2, #36]
 347              		.loc 1 331 3 is_stmt 1 view .LVU119
 348 0016 1A68     		ldr	r2, [r3]
 349 0018 5320     		movs	r0, #83
 350 001a 5062     		str	r0, [r2, #36]
 351              		.loc 1 331 3 view .LVU120
 332:Drivers/STM32F4xx_HAL_Driver/Src/stm32f4xx_hal_rtc_ex.c **** 
 333:Drivers/STM32F4xx_HAL_Driver/Src/stm32f4xx_hal_rtc_ex.c ****   /* In case of interrupt mode is used, the interrupt source must disabled */
 334:Drivers/STM32F4xx_HAL_Driver/Src/stm32f4xx_hal_rtc_ex.c ****   __HAL_RTC_TIMESTAMP_DISABLE_IT(hrtc, RTC_IT_TS);
ARM GAS  C:\Users\Administrator\AppData\Local\Temp\cczHSQjt.s 			page 13


 352              		.loc 1 334 3 view .LVU121
 353 001c 1868     		ldr	r0, [r3]
 354 001e 8268     		ldr	r2, [r0, #8]
 355 0020 22F40042 		bic	r2, r2, #32768
 356 0024 8260     		str	r2, [r0, #8]
 335:Drivers/STM32F4xx_HAL_Driver/Src/stm32f4xx_hal_rtc_ex.c **** 
 336:Drivers/STM32F4xx_HAL_Driver/Src/stm32f4xx_hal_rtc_ex.c ****   /* Get the RTC_CR register and clear the bits to be configured */
 337:Drivers/STM32F4xx_HAL_Driver/Src/stm32f4xx_hal_rtc_ex.c ****   tmpreg = (uint32_t)(hrtc->Instance->CR & (uint32_t)~(RTC_CR_TSEDGE | RTC_CR_TSE));
 357              		.loc 1 337 3 view .LVU122
 358              		.loc 1 337 27 is_stmt 0 view .LVU123
 359 0026 1868     		ldr	r0, [r3]
 360              		.loc 1 337 37 view .LVU124
 361 0028 8268     		ldr	r2, [r0, #8]
 362              		.loc 1 337 10 view .LVU125
 363 002a 22F40062 		bic	r2, r2, #2048
 364 002e 22F00802 		bic	r2, r2, #8
 365              	.LVL21:
 338:Drivers/STM32F4xx_HAL_Driver/Src/stm32f4xx_hal_rtc_ex.c **** 
 339:Drivers/STM32F4xx_HAL_Driver/Src/stm32f4xx_hal_rtc_ex.c ****   /* Configure the Timestamp TSEDGE and Enable bits */
 340:Drivers/STM32F4xx_HAL_Driver/Src/stm32f4xx_hal_rtc_ex.c ****   hrtc->Instance->CR = (uint32_t)tmpreg;
 366              		.loc 1 340 3 is_stmt 1 view .LVU126
 367              		.loc 1 340 22 is_stmt 0 view .LVU127
 368 0032 8260     		str	r2, [r0, #8]
 341:Drivers/STM32F4xx_HAL_Driver/Src/stm32f4xx_hal_rtc_ex.c **** 
 342:Drivers/STM32F4xx_HAL_Driver/Src/stm32f4xx_hal_rtc_ex.c ****   /* Enable the write protection for RTC registers */
 343:Drivers/STM32F4xx_HAL_Driver/Src/stm32f4xx_hal_rtc_ex.c ****   __HAL_RTC_WRITEPROTECTION_ENABLE(hrtc);
 369              		.loc 1 343 3 is_stmt 1 view .LVU128
 370              		.loc 1 343 3 view .LVU129
 371 0034 1A68     		ldr	r2, [r3]
 372              	.LVL22:
 373              		.loc 1 343 3 is_stmt 0 view .LVU130
 374 0036 FF20     		movs	r0, #255
 375              	.LVL23:
 376              		.loc 1 343 3 view .LVU131
 377 0038 5062     		str	r0, [r2, #36]
 378              		.loc 1 343 3 is_stmt 1 view .LVU132
 344:Drivers/STM32F4xx_HAL_Driver/Src/stm32f4xx_hal_rtc_ex.c **** 
 345:Drivers/STM32F4xx_HAL_Driver/Src/stm32f4xx_hal_rtc_ex.c ****   hrtc->State = HAL_RTC_STATE_READY;
 379              		.loc 1 345 3 view .LVU133
 380              		.loc 1 345 15 is_stmt 0 view .LVU134
 381 003a 5977     		strb	r1, [r3, #29]
 346:Drivers/STM32F4xx_HAL_Driver/Src/stm32f4xx_hal_rtc_ex.c **** 
 347:Drivers/STM32F4xx_HAL_Driver/Src/stm32f4xx_hal_rtc_ex.c ****   /* Process Unlocked */
 348:Drivers/STM32F4xx_HAL_Driver/Src/stm32f4xx_hal_rtc_ex.c ****   __HAL_UNLOCK(hrtc);
 382              		.loc 1 348 3 is_stmt 1 view .LVU135
 383              		.loc 1 348 3 view .LVU136
 384 003c 0020     		movs	r0, #0
 385 003e 1877     		strb	r0, [r3, #28]
 386              		.loc 1 348 3 view .LVU137
 349:Drivers/STM32F4xx_HAL_Driver/Src/stm32f4xx_hal_rtc_ex.c **** 
 350:Drivers/STM32F4xx_HAL_Driver/Src/stm32f4xx_hal_rtc_ex.c ****   return HAL_OK;
 387              		.loc 1 350 3 view .LVU138
 388              		.loc 1 350 10 is_stmt 0 view .LVU139
 389 0040 7047     		bx	lr
 390              	.LVL24:
 391              	.L19:
 326:Drivers/STM32F4xx_HAL_Driver/Src/stm32f4xx_hal_rtc_ex.c **** 
ARM GAS  C:\Users\Administrator\AppData\Local\Temp\cczHSQjt.s 			page 14


 392              		.loc 1 326 3 discriminator 1 view .LVU140
 393 0042 0220     		movs	r0, #2
 394              	.LVL25:
 351:Drivers/STM32F4xx_HAL_Driver/Src/stm32f4xx_hal_rtc_ex.c **** }
 395              		.loc 1 351 1 view .LVU141
 396 0044 7047     		bx	lr
 397              		.cfi_endproc
 398              	.LFE237:
 400              		.section	.text.HAL_RTCEx_GetTimeStamp,"ax",%progbits
 401              		.align	1
 402              		.global	HAL_RTCEx_GetTimeStamp
 403              		.syntax unified
 404              		.thumb
 405              		.thumb_func
 407              	HAL_RTCEx_GetTimeStamp:
 408              	.LVL26:
 409              	.LFB238:
 352:Drivers/STM32F4xx_HAL_Driver/Src/stm32f4xx_hal_rtc_ex.c **** 
 353:Drivers/STM32F4xx_HAL_Driver/Src/stm32f4xx_hal_rtc_ex.c **** /**
 354:Drivers/STM32F4xx_HAL_Driver/Src/stm32f4xx_hal_rtc_ex.c ****   * @brief  Gets the RTC Timestamp value.
 355:Drivers/STM32F4xx_HAL_Driver/Src/stm32f4xx_hal_rtc_ex.c ****   * @param  hrtc pointer to a RTC_HandleTypeDef structure that contains
 356:Drivers/STM32F4xx_HAL_Driver/Src/stm32f4xx_hal_rtc_ex.c ****   *                the configuration information for RTC.
 357:Drivers/STM32F4xx_HAL_Driver/Src/stm32f4xx_hal_rtc_ex.c ****   * @param  sTimeStamp Pointer to Time structure
 358:Drivers/STM32F4xx_HAL_Driver/Src/stm32f4xx_hal_rtc_ex.c ****   * @param  sTimeStampDate Pointer to Date structure
 359:Drivers/STM32F4xx_HAL_Driver/Src/stm32f4xx_hal_rtc_ex.c ****   * @param  Format specifies the format of the entered parameters.
 360:Drivers/STM32F4xx_HAL_Driver/Src/stm32f4xx_hal_rtc_ex.c ****   *          This parameter can be one of the following values:
 361:Drivers/STM32F4xx_HAL_Driver/Src/stm32f4xx_hal_rtc_ex.c ****   *             @arg RTC_FORMAT_BIN: Binary data format
 362:Drivers/STM32F4xx_HAL_Driver/Src/stm32f4xx_hal_rtc_ex.c ****   *             @arg RTC_FORMAT_BCD: BCD data format
 363:Drivers/STM32F4xx_HAL_Driver/Src/stm32f4xx_hal_rtc_ex.c ****   * @retval HAL status
 364:Drivers/STM32F4xx_HAL_Driver/Src/stm32f4xx_hal_rtc_ex.c ****   */
 365:Drivers/STM32F4xx_HAL_Driver/Src/stm32f4xx_hal_rtc_ex.c **** HAL_StatusTypeDef HAL_RTCEx_GetTimeStamp(RTC_HandleTypeDef *hrtc, RTC_TimeTypeDef *sTimeStamp, RTC_
 366:Drivers/STM32F4xx_HAL_Driver/Src/stm32f4xx_hal_rtc_ex.c **** {
 410              		.loc 1 366 1 is_stmt 1 view -0
 411              		.cfi_startproc
 412              		@ args = 0, pretend = 0, frame = 0
 413              		@ frame_needed = 0, uses_anonymous_args = 0
 414              		.loc 1 366 1 is_stmt 0 view .LVU143
 415 0000 70B5     		push	{r4, r5, r6, lr}
 416              		.cfi_def_cfa_offset 16
 417              		.cfi_offset 4, -16
 418              		.cfi_offset 5, -12
 419              		.cfi_offset 6, -8
 420              		.cfi_offset 14, -4
 421 0002 0646     		mov	r6, r0
 422 0004 0C46     		mov	r4, r1
 423 0006 1546     		mov	r5, r2
 367:Drivers/STM32F4xx_HAL_Driver/Src/stm32f4xx_hal_rtc_ex.c ****   uint32_t tmptime = 0U;
 424              		.loc 1 367 3 is_stmt 1 view .LVU144
 425              	.LVL27:
 368:Drivers/STM32F4xx_HAL_Driver/Src/stm32f4xx_hal_rtc_ex.c ****   uint32_t tmpdate = 0U;
 426              		.loc 1 368 3 view .LVU145
 369:Drivers/STM32F4xx_HAL_Driver/Src/stm32f4xx_hal_rtc_ex.c **** 
 370:Drivers/STM32F4xx_HAL_Driver/Src/stm32f4xx_hal_rtc_ex.c ****   /* Check the parameters */
 371:Drivers/STM32F4xx_HAL_Driver/Src/stm32f4xx_hal_rtc_ex.c ****   assert_param(IS_RTC_FORMAT(Format));
 427              		.loc 1 371 3 view .LVU146
 372:Drivers/STM32F4xx_HAL_Driver/Src/stm32f4xx_hal_rtc_ex.c **** 
 373:Drivers/STM32F4xx_HAL_Driver/Src/stm32f4xx_hal_rtc_ex.c ****   /* Get the Timestamp time and date registers values */
ARM GAS  C:\Users\Administrator\AppData\Local\Temp\cczHSQjt.s 			page 15


 374:Drivers/STM32F4xx_HAL_Driver/Src/stm32f4xx_hal_rtc_ex.c ****   tmptime = (uint32_t)(hrtc->Instance->TSTR & RTC_TR_RESERVED_MASK);
 428              		.loc 1 374 3 view .LVU147
 429              		.loc 1 374 28 is_stmt 0 view .LVU148
 430 0008 0168     		ldr	r1, [r0]
 431              	.LVL28:
 432              		.loc 1 374 38 view .LVU149
 433 000a 0A6B     		ldr	r2, [r1, #48]
 434              	.LVL29:
 375:Drivers/STM32F4xx_HAL_Driver/Src/stm32f4xx_hal_rtc_ex.c ****   tmpdate = (uint32_t)(hrtc->Instance->TSDR & RTC_DR_RESERVED_MASK);
 435              		.loc 1 375 3 is_stmt 1 view .LVU150
 436              		.loc 1 375 38 is_stmt 0 view .LVU151
 437 000c 496B     		ldr	r1, [r1, #52]
 438              	.LVL30:
 376:Drivers/STM32F4xx_HAL_Driver/Src/stm32f4xx_hal_rtc_ex.c **** 
 377:Drivers/STM32F4xx_HAL_Driver/Src/stm32f4xx_hal_rtc_ex.c ****   /* Fill the Time structure fields with the read parameters */
 378:Drivers/STM32F4xx_HAL_Driver/Src/stm32f4xx_hal_rtc_ex.c ****   sTimeStamp->Hours      = (uint8_t)((tmptime & (RTC_TSTR_HT  | RTC_TSTR_HU))  >> RTC_TSTR_HU_Pos);
 439              		.loc 1 378 3 is_stmt 1 view .LVU152
 440              		.loc 1 378 28 is_stmt 0 view .LVU153
 441 000e C2F30540 		ubfx	r0, r2, #16, #6
 442              	.LVL31:
 443              		.loc 1 378 26 view .LVU154
 444 0012 2070     		strb	r0, [r4]
 379:Drivers/STM32F4xx_HAL_Driver/Src/stm32f4xx_hal_rtc_ex.c ****   sTimeStamp->Minutes    = (uint8_t)((tmptime & (RTC_TSTR_MNT | RTC_TSTR_MNU)) >> RTC_TSTR_MNU_Pos)
 445              		.loc 1 379 3 is_stmt 1 view .LVU155
 446              		.loc 1 379 28 is_stmt 0 view .LVU156
 447 0014 C2F30620 		ubfx	r0, r2, #8, #7
 448              		.loc 1 379 26 view .LVU157
 449 0018 6070     		strb	r0, [r4, #1]
 380:Drivers/STM32F4xx_HAL_Driver/Src/stm32f4xx_hal_rtc_ex.c ****   sTimeStamp->Seconds    = (uint8_t)((tmptime & (RTC_TSTR_ST  | RTC_TSTR_SU))  >> RTC_TSTR_SU_Pos);
 450              		.loc 1 380 3 is_stmt 1 view .LVU158
 451              		.loc 1 380 28 is_stmt 0 view .LVU159
 452 001a 02F07F00 		and	r0, r2, #127
 453              		.loc 1 380 26 view .LVU160
 454 001e A070     		strb	r0, [r4, #2]
 381:Drivers/STM32F4xx_HAL_Driver/Src/stm32f4xx_hal_rtc_ex.c ****   sTimeStamp->TimeFormat = (uint8_t)((tmptime & (RTC_TSTR_PM))                 >> RTC_TSTR_PM_Pos);
 455              		.loc 1 381 3 is_stmt 1 view .LVU161
 456              		.loc 1 381 28 is_stmt 0 view .LVU162
 457 0020 C2F38052 		ubfx	r2, r2, #22, #1
 458              	.LVL32:
 459              		.loc 1 381 26 view .LVU163
 460 0024 E270     		strb	r2, [r4, #3]
 382:Drivers/STM32F4xx_HAL_Driver/Src/stm32f4xx_hal_rtc_ex.c ****   sTimeStamp->SubSeconds = (uint32_t) hrtc->Instance->TSSSR;
 461              		.loc 1 382 3 is_stmt 1 view .LVU164
 462              		.loc 1 382 43 is_stmt 0 view .LVU165
 463 0026 3268     		ldr	r2, [r6]
 464              		.loc 1 382 53 view .LVU166
 465 0028 926B     		ldr	r2, [r2, #56]
 466              		.loc 1 382 26 view .LVU167
 467 002a 6260     		str	r2, [r4, #4]
 383:Drivers/STM32F4xx_HAL_Driver/Src/stm32f4xx_hal_rtc_ex.c **** 
 384:Drivers/STM32F4xx_HAL_Driver/Src/stm32f4xx_hal_rtc_ex.c ****   /* Fill the Date structure fields with the read parameters */
 385:Drivers/STM32F4xx_HAL_Driver/Src/stm32f4xx_hal_rtc_ex.c ****   sTimeStampDate->Year    = 0U;
 468              		.loc 1 385 3 is_stmt 1 view .LVU168
 469              		.loc 1 385 27 is_stmt 0 view .LVU169
 470 002c 0022     		movs	r2, #0
 471 002e EA70     		strb	r2, [r5, #3]
 386:Drivers/STM32F4xx_HAL_Driver/Src/stm32f4xx_hal_rtc_ex.c ****   sTimeStampDate->Month   = (uint8_t)((tmpdate & (RTC_TSDR_MT | RTC_TSDR_MU)) >> RTC_TSDR_MU_Pos);
ARM GAS  C:\Users\Administrator\AppData\Local\Temp\cczHSQjt.s 			page 16


 472              		.loc 1 386 3 is_stmt 1 view .LVU170
 473              		.loc 1 386 29 is_stmt 0 view .LVU171
 474 0030 C1F30422 		ubfx	r2, r1, #8, #5
 475              		.loc 1 386 27 view .LVU172
 476 0034 6A70     		strb	r2, [r5, #1]
 387:Drivers/STM32F4xx_HAL_Driver/Src/stm32f4xx_hal_rtc_ex.c ****   sTimeStampDate->Date    = (uint8_t)((tmpdate & (RTC_TSDR_DT | RTC_TSDR_DU)) >> RTC_TSDR_DU_Pos);
 477              		.loc 1 387 3 is_stmt 1 view .LVU173
 478              		.loc 1 387 29 is_stmt 0 view .LVU174
 479 0036 01F03F02 		and	r2, r1, #63
 480              		.loc 1 387 27 view .LVU175
 481 003a AA70     		strb	r2, [r5, #2]
 388:Drivers/STM32F4xx_HAL_Driver/Src/stm32f4xx_hal_rtc_ex.c ****   sTimeStampDate->WeekDay = (uint8_t)((tmpdate & (RTC_TSDR_WDU))              >> RTC_TSDR_WDU_Pos);
 482              		.loc 1 388 3 is_stmt 1 view .LVU176
 483              		.loc 1 388 29 is_stmt 0 view .LVU177
 484 003c C1F34231 		ubfx	r1, r1, #13, #3
 485              	.LVL33:
 486              		.loc 1 388 27 view .LVU178
 487 0040 2970     		strb	r1, [r5]
 389:Drivers/STM32F4xx_HAL_Driver/Src/stm32f4xx_hal_rtc_ex.c **** 
 390:Drivers/STM32F4xx_HAL_Driver/Src/stm32f4xx_hal_rtc_ex.c ****   /* Check the input parameters format */
 391:Drivers/STM32F4xx_HAL_Driver/Src/stm32f4xx_hal_rtc_ex.c ****   if (Format == RTC_FORMAT_BIN)
 488              		.loc 1 391 3 is_stmt 1 view .LVU179
 489              		.loc 1 391 6 is_stmt 0 view .LVU180
 490 0042 3BB1     		cbz	r3, .L23
 491              	.LVL34:
 492              	.L21:
 392:Drivers/STM32F4xx_HAL_Driver/Src/stm32f4xx_hal_rtc_ex.c ****   {
 393:Drivers/STM32F4xx_HAL_Driver/Src/stm32f4xx_hal_rtc_ex.c ****     /* Convert the Timestamp structure parameters to Binary format */
 394:Drivers/STM32F4xx_HAL_Driver/Src/stm32f4xx_hal_rtc_ex.c ****     sTimeStamp->Hours   = (uint8_t)RTC_Bcd2ToByte(sTimeStamp->Hours);
 395:Drivers/STM32F4xx_HAL_Driver/Src/stm32f4xx_hal_rtc_ex.c ****     sTimeStamp->Minutes = (uint8_t)RTC_Bcd2ToByte(sTimeStamp->Minutes);
 396:Drivers/STM32F4xx_HAL_Driver/Src/stm32f4xx_hal_rtc_ex.c ****     sTimeStamp->Seconds = (uint8_t)RTC_Bcd2ToByte(sTimeStamp->Seconds);
 397:Drivers/STM32F4xx_HAL_Driver/Src/stm32f4xx_hal_rtc_ex.c **** 
 398:Drivers/STM32F4xx_HAL_Driver/Src/stm32f4xx_hal_rtc_ex.c ****     /* Convert the DateTimeStamp structure parameters to Binary format */
 399:Drivers/STM32F4xx_HAL_Driver/Src/stm32f4xx_hal_rtc_ex.c ****     sTimeStampDate->Month   = (uint8_t)RTC_Bcd2ToByte(sTimeStampDate->Month);
 400:Drivers/STM32F4xx_HAL_Driver/Src/stm32f4xx_hal_rtc_ex.c ****     sTimeStampDate->Date    = (uint8_t)RTC_Bcd2ToByte(sTimeStampDate->Date);
 401:Drivers/STM32F4xx_HAL_Driver/Src/stm32f4xx_hal_rtc_ex.c ****     sTimeStampDate->WeekDay = (uint8_t)RTC_Bcd2ToByte(sTimeStampDate->WeekDay);
 402:Drivers/STM32F4xx_HAL_Driver/Src/stm32f4xx_hal_rtc_ex.c ****   }
 403:Drivers/STM32F4xx_HAL_Driver/Src/stm32f4xx_hal_rtc_ex.c **** 
 404:Drivers/STM32F4xx_HAL_Driver/Src/stm32f4xx_hal_rtc_ex.c ****   /* Clear the Timestamp Flag */
 405:Drivers/STM32F4xx_HAL_Driver/Src/stm32f4xx_hal_rtc_ex.c ****   __HAL_RTC_TIMESTAMP_CLEAR_FLAG(hrtc, RTC_FLAG_TSF);
 493              		.loc 1 405 3 is_stmt 1 view .LVU181
 494 0044 3268     		ldr	r2, [r6]
 495 0046 D368     		ldr	r3, [r2, #12]
 496 0048 DBB2     		uxtb	r3, r3
 497 004a 63F40863 		orn	r3, r3, #2176
 498 004e D360     		str	r3, [r2, #12]
 406:Drivers/STM32F4xx_HAL_Driver/Src/stm32f4xx_hal_rtc_ex.c **** 
 407:Drivers/STM32F4xx_HAL_Driver/Src/stm32f4xx_hal_rtc_ex.c ****   return HAL_OK;
 499              		.loc 1 407 3 view .LVU182
 408:Drivers/STM32F4xx_HAL_Driver/Src/stm32f4xx_hal_rtc_ex.c **** }
 500              		.loc 1 408 1 is_stmt 0 view .LVU183
 501 0050 0020     		movs	r0, #0
 502 0052 70BD     		pop	{r4, r5, r6, pc}
 503              	.LVL35:
 504              	.L23:
 394:Drivers/STM32F4xx_HAL_Driver/Src/stm32f4xx_hal_rtc_ex.c ****     sTimeStamp->Minutes = (uint8_t)RTC_Bcd2ToByte(sTimeStamp->Minutes);
 505              		.loc 1 394 5 is_stmt 1 view .LVU184
ARM GAS  C:\Users\Administrator\AppData\Local\Temp\cczHSQjt.s 			page 17


 394:Drivers/STM32F4xx_HAL_Driver/Src/stm32f4xx_hal_rtc_ex.c ****     sTimeStamp->Minutes = (uint8_t)RTC_Bcd2ToByte(sTimeStamp->Minutes);
 506              		.loc 1 394 36 is_stmt 0 view .LVU185
 507 0054 2078     		ldrb	r0, [r4]	@ zero_extendqisi2
 508 0056 FFF7FEFF 		bl	RTC_Bcd2ToByte
 509              	.LVL36:
 394:Drivers/STM32F4xx_HAL_Driver/Src/stm32f4xx_hal_rtc_ex.c ****     sTimeStamp->Minutes = (uint8_t)RTC_Bcd2ToByte(sTimeStamp->Minutes);
 510              		.loc 1 394 25 discriminator 1 view .LVU186
 511 005a 2070     		strb	r0, [r4]
 395:Drivers/STM32F4xx_HAL_Driver/Src/stm32f4xx_hal_rtc_ex.c ****     sTimeStamp->Seconds = (uint8_t)RTC_Bcd2ToByte(sTimeStamp->Seconds);
 512              		.loc 1 395 5 is_stmt 1 view .LVU187
 395:Drivers/STM32F4xx_HAL_Driver/Src/stm32f4xx_hal_rtc_ex.c ****     sTimeStamp->Seconds = (uint8_t)RTC_Bcd2ToByte(sTimeStamp->Seconds);
 513              		.loc 1 395 36 is_stmt 0 view .LVU188
 514 005c 6078     		ldrb	r0, [r4, #1]	@ zero_extendqisi2
 515 005e FFF7FEFF 		bl	RTC_Bcd2ToByte
 516              	.LVL37:
 395:Drivers/STM32F4xx_HAL_Driver/Src/stm32f4xx_hal_rtc_ex.c ****     sTimeStamp->Seconds = (uint8_t)RTC_Bcd2ToByte(sTimeStamp->Seconds);
 517              		.loc 1 395 25 discriminator 1 view .LVU189
 518 0062 6070     		strb	r0, [r4, #1]
 396:Drivers/STM32F4xx_HAL_Driver/Src/stm32f4xx_hal_rtc_ex.c **** 
 519              		.loc 1 396 5 is_stmt 1 view .LVU190
 396:Drivers/STM32F4xx_HAL_Driver/Src/stm32f4xx_hal_rtc_ex.c **** 
 520              		.loc 1 396 36 is_stmt 0 view .LVU191
 521 0064 A078     		ldrb	r0, [r4, #2]	@ zero_extendqisi2
 522 0066 FFF7FEFF 		bl	RTC_Bcd2ToByte
 523              	.LVL38:
 396:Drivers/STM32F4xx_HAL_Driver/Src/stm32f4xx_hal_rtc_ex.c **** 
 524              		.loc 1 396 25 discriminator 1 view .LVU192
 525 006a A070     		strb	r0, [r4, #2]
 399:Drivers/STM32F4xx_HAL_Driver/Src/stm32f4xx_hal_rtc_ex.c ****     sTimeStampDate->Date    = (uint8_t)RTC_Bcd2ToByte(sTimeStampDate->Date);
 526              		.loc 1 399 5 is_stmt 1 view .LVU193
 399:Drivers/STM32F4xx_HAL_Driver/Src/stm32f4xx_hal_rtc_ex.c ****     sTimeStampDate->Date    = (uint8_t)RTC_Bcd2ToByte(sTimeStampDate->Date);
 527              		.loc 1 399 40 is_stmt 0 view .LVU194
 528 006c 6878     		ldrb	r0, [r5, #1]	@ zero_extendqisi2
 529 006e FFF7FEFF 		bl	RTC_Bcd2ToByte
 530              	.LVL39:
 399:Drivers/STM32F4xx_HAL_Driver/Src/stm32f4xx_hal_rtc_ex.c ****     sTimeStampDate->Date    = (uint8_t)RTC_Bcd2ToByte(sTimeStampDate->Date);
 531              		.loc 1 399 29 discriminator 1 view .LVU195
 532 0072 6870     		strb	r0, [r5, #1]
 400:Drivers/STM32F4xx_HAL_Driver/Src/stm32f4xx_hal_rtc_ex.c ****     sTimeStampDate->WeekDay = (uint8_t)RTC_Bcd2ToByte(sTimeStampDate->WeekDay);
 533              		.loc 1 400 5 is_stmt 1 view .LVU196
 400:Drivers/STM32F4xx_HAL_Driver/Src/stm32f4xx_hal_rtc_ex.c ****     sTimeStampDate->WeekDay = (uint8_t)RTC_Bcd2ToByte(sTimeStampDate->WeekDay);
 534              		.loc 1 400 40 is_stmt 0 view .LVU197
 535 0074 A878     		ldrb	r0, [r5, #2]	@ zero_extendqisi2
 536 0076 FFF7FEFF 		bl	RTC_Bcd2ToByte
 537              	.LVL40:
 400:Drivers/STM32F4xx_HAL_Driver/Src/stm32f4xx_hal_rtc_ex.c ****     sTimeStampDate->WeekDay = (uint8_t)RTC_Bcd2ToByte(sTimeStampDate->WeekDay);
 538              		.loc 1 400 29 discriminator 1 view .LVU198
 539 007a A870     		strb	r0, [r5, #2]
 401:Drivers/STM32F4xx_HAL_Driver/Src/stm32f4xx_hal_rtc_ex.c ****   }
 540              		.loc 1 401 5 is_stmt 1 view .LVU199
 401:Drivers/STM32F4xx_HAL_Driver/Src/stm32f4xx_hal_rtc_ex.c ****   }
 541              		.loc 1 401 40 is_stmt 0 view .LVU200
 542 007c 2878     		ldrb	r0, [r5]	@ zero_extendqisi2
 543 007e FFF7FEFF 		bl	RTC_Bcd2ToByte
 544              	.LVL41:
 401:Drivers/STM32F4xx_HAL_Driver/Src/stm32f4xx_hal_rtc_ex.c ****   }
 545              		.loc 1 401 29 discriminator 1 view .LVU201
ARM GAS  C:\Users\Administrator\AppData\Local\Temp\cczHSQjt.s 			page 18


 546 0082 2870     		strb	r0, [r5]
 547 0084 DEE7     		b	.L21
 548              		.cfi_endproc
 549              	.LFE238:
 551              		.section	.text.HAL_RTCEx_SetTamper,"ax",%progbits
 552              		.align	1
 553              		.global	HAL_RTCEx_SetTamper
 554              		.syntax unified
 555              		.thumb
 556              		.thumb_func
 558              	HAL_RTCEx_SetTamper:
 559              	.LVL42:
 560              	.LFB239:
 409:Drivers/STM32F4xx_HAL_Driver/Src/stm32f4xx_hal_rtc_ex.c **** 
 410:Drivers/STM32F4xx_HAL_Driver/Src/stm32f4xx_hal_rtc_ex.c **** /**
 411:Drivers/STM32F4xx_HAL_Driver/Src/stm32f4xx_hal_rtc_ex.c ****   * @brief  Sets Tamper.
 412:Drivers/STM32F4xx_HAL_Driver/Src/stm32f4xx_hal_rtc_ex.c ****   * @note   By calling this API the tamper global interrupt will be disabled.
 413:Drivers/STM32F4xx_HAL_Driver/Src/stm32f4xx_hal_rtc_ex.c ****   * @param  hrtc pointer to a RTC_HandleTypeDef structure that contains
 414:Drivers/STM32F4xx_HAL_Driver/Src/stm32f4xx_hal_rtc_ex.c ****   *                the configuration information for RTC.
 415:Drivers/STM32F4xx_HAL_Driver/Src/stm32f4xx_hal_rtc_ex.c ****   * @param  sTamper Pointer to Tamper Structure.
 416:Drivers/STM32F4xx_HAL_Driver/Src/stm32f4xx_hal_rtc_ex.c ****   * @retval HAL status
 417:Drivers/STM32F4xx_HAL_Driver/Src/stm32f4xx_hal_rtc_ex.c ****   */
 418:Drivers/STM32F4xx_HAL_Driver/Src/stm32f4xx_hal_rtc_ex.c **** HAL_StatusTypeDef HAL_RTCEx_SetTamper(RTC_HandleTypeDef *hrtc, RTC_TamperTypeDef *sTamper)
 419:Drivers/STM32F4xx_HAL_Driver/Src/stm32f4xx_hal_rtc_ex.c **** {
 561              		.loc 1 419 1 is_stmt 1 view -0
 562              		.cfi_startproc
 563              		@ args = 0, pretend = 0, frame = 0
 564              		@ frame_needed = 0, uses_anonymous_args = 0
 420:Drivers/STM32F4xx_HAL_Driver/Src/stm32f4xx_hal_rtc_ex.c ****   uint32_t tmpreg = 0U;
 565              		.loc 1 420 3 view .LVU203
 421:Drivers/STM32F4xx_HAL_Driver/Src/stm32f4xx_hal_rtc_ex.c **** 
 422:Drivers/STM32F4xx_HAL_Driver/Src/stm32f4xx_hal_rtc_ex.c ****   /* Check the parameters */
 423:Drivers/STM32F4xx_HAL_Driver/Src/stm32f4xx_hal_rtc_ex.c ****   assert_param(IS_RTC_TAMPER(sTamper->Tamper));
 566              		.loc 1 423 3 view .LVU204
 424:Drivers/STM32F4xx_HAL_Driver/Src/stm32f4xx_hal_rtc_ex.c ****   assert_param(IS_RTC_TAMPER_PIN(sTamper->PinSelection));
 567              		.loc 1 424 3 view .LVU205
 425:Drivers/STM32F4xx_HAL_Driver/Src/stm32f4xx_hal_rtc_ex.c ****   assert_param(IS_RTC_TAMPER_TRIGGER(sTamper->Trigger));
 568              		.loc 1 425 3 view .LVU206
 426:Drivers/STM32F4xx_HAL_Driver/Src/stm32f4xx_hal_rtc_ex.c ****   assert_param(IS_RTC_TAMPER_FILTER(sTamper->Filter));
 569              		.loc 1 426 3 view .LVU207
 427:Drivers/STM32F4xx_HAL_Driver/Src/stm32f4xx_hal_rtc_ex.c ****   assert_param(IS_RTC_TAMPER_FILTER_CONFIG_CORRECT(sTamper->Filter, sTamper->Trigger));
 570              		.loc 1 427 3 view .LVU208
 428:Drivers/STM32F4xx_HAL_Driver/Src/stm32f4xx_hal_rtc_ex.c ****   assert_param(IS_RTC_TAMPER_SAMPLING_FREQ(sTamper->SamplingFrequency));
 571              		.loc 1 428 3 view .LVU209
 429:Drivers/STM32F4xx_HAL_Driver/Src/stm32f4xx_hal_rtc_ex.c ****   assert_param(IS_RTC_TAMPER_PRECHARGE_DURATION(sTamper->PrechargeDuration));
 572              		.loc 1 429 3 view .LVU210
 430:Drivers/STM32F4xx_HAL_Driver/Src/stm32f4xx_hal_rtc_ex.c ****   assert_param(IS_RTC_TAMPER_PULLUP_STATE(sTamper->TamperPullUp));
 573              		.loc 1 430 3 view .LVU211
 431:Drivers/STM32F4xx_HAL_Driver/Src/stm32f4xx_hal_rtc_ex.c ****   assert_param(IS_RTC_TAMPER_TIMESTAMPONTAMPER_DETECTION(sTamper->TimeStampOnTamperDetection));
 574              		.loc 1 431 3 view .LVU212
 432:Drivers/STM32F4xx_HAL_Driver/Src/stm32f4xx_hal_rtc_ex.c **** 
 433:Drivers/STM32F4xx_HAL_Driver/Src/stm32f4xx_hal_rtc_ex.c ****   /* Process Locked */
 434:Drivers/STM32F4xx_HAL_Driver/Src/stm32f4xx_hal_rtc_ex.c ****   __HAL_LOCK(hrtc);
 575              		.loc 1 434 3 view .LVU213
 576              		.loc 1 434 3 view .LVU214
 577 0000 037F     		ldrb	r3, [r0, #28]	@ zero_extendqisi2
 578 0002 012B     		cmp	r3, #1
ARM GAS  C:\Users\Administrator\AppData\Local\Temp\cczHSQjt.s 			page 19


 579 0004 2CD0     		beq	.L28
 419:Drivers/STM32F4xx_HAL_Driver/Src/stm32f4xx_hal_rtc_ex.c ****   uint32_t tmpreg = 0U;
 580              		.loc 1 419 1 is_stmt 0 view .LVU215
 581 0006 10B5     		push	{r4, lr}
 582              		.cfi_def_cfa_offset 8
 583              		.cfi_offset 4, -8
 584              		.cfi_offset 14, -4
 585 0008 0246     		mov	r2, r0
 586              		.loc 1 434 3 is_stmt 1 discriminator 2 view .LVU216
 587 000a 0123     		movs	r3, #1
 588 000c 0377     		strb	r3, [r0, #28]
 589              		.loc 1 434 3 view .LVU217
 435:Drivers/STM32F4xx_HAL_Driver/Src/stm32f4xx_hal_rtc_ex.c **** 
 436:Drivers/STM32F4xx_HAL_Driver/Src/stm32f4xx_hal_rtc_ex.c ****   hrtc->State = HAL_RTC_STATE_BUSY;
 590              		.loc 1 436 3 view .LVU218
 591              		.loc 1 436 15 is_stmt 0 view .LVU219
 592 000e 0223     		movs	r3, #2
 593 0010 4377     		strb	r3, [r0, #29]
 437:Drivers/STM32F4xx_HAL_Driver/Src/stm32f4xx_hal_rtc_ex.c **** 
 438:Drivers/STM32F4xx_HAL_Driver/Src/stm32f4xx_hal_rtc_ex.c ****   /* Copy control register into temporary variable */
 439:Drivers/STM32F4xx_HAL_Driver/Src/stm32f4xx_hal_rtc_ex.c ****   tmpreg = hrtc->Instance->TAFCR;
 594              		.loc 1 439 3 is_stmt 1 view .LVU220
 595              		.loc 1 439 16 is_stmt 0 view .LVU221
 596 0012 D0F800C0 		ldr	ip, [r0]
 597              		.loc 1 439 10 view .LVU222
 598 0016 DCF84000 		ldr	r0, [ip, #64]
 599              	.LVL43:
 440:Drivers/STM32F4xx_HAL_Driver/Src/stm32f4xx_hal_rtc_ex.c **** 
 441:Drivers/STM32F4xx_HAL_Driver/Src/stm32f4xx_hal_rtc_ex.c ****   /* Enable selected tamper */
 442:Drivers/STM32F4xx_HAL_Driver/Src/stm32f4xx_hal_rtc_ex.c ****   tmpreg |= (sTamper->Tamper);
 600              		.loc 1 442 3 is_stmt 1 view .LVU223
 601              		.loc 1 442 21 is_stmt 0 view .LVU224
 602 001a D1F800E0 		ldr	lr, [r1]
 603              		.loc 1 442 10 view .LVU225
 604 001e 4EEA0000 		orr	r0, lr, r0
 605              	.LVL44:
 443:Drivers/STM32F4xx_HAL_Driver/Src/stm32f4xx_hal_rtc_ex.c **** 
 444:Drivers/STM32F4xx_HAL_Driver/Src/stm32f4xx_hal_rtc_ex.c ****   /* Configure the tamper trigger bit (this bit is just on the right of the
 445:Drivers/STM32F4xx_HAL_Driver/Src/stm32f4xx_hal_rtc_ex.c ****        tamper enable bit, hence the one-time right shift before updating it) */
 446:Drivers/STM32F4xx_HAL_Driver/Src/stm32f4xx_hal_rtc_ex.c ****   if (sTamper->Trigger == RTC_TAMPERTRIGGER_FALLINGEDGE)
 606              		.loc 1 446 3 is_stmt 1 view .LVU226
 607              		.loc 1 446 14 is_stmt 0 view .LVU227
 608 0022 8B68     		ldr	r3, [r1, #8]
 609              		.loc 1 446 6 view .LVU228
 610 0024 022B     		cmp	r3, #2
 611 0026 18D0     		beq	.L33
 447:Drivers/STM32F4xx_HAL_Driver/Src/stm32f4xx_hal_rtc_ex.c ****   {
 448:Drivers/STM32F4xx_HAL_Driver/Src/stm32f4xx_hal_rtc_ex.c ****     /* Set the tamper trigger bit (case of falling edge or high level) */
 449:Drivers/STM32F4xx_HAL_Driver/Src/stm32f4xx_hal_rtc_ex.c ****     tmpreg |= (uint32_t)(sTamper->Tamper << 1U);
 450:Drivers/STM32F4xx_HAL_Driver/Src/stm32f4xx_hal_rtc_ex.c ****   }
 451:Drivers/STM32F4xx_HAL_Driver/Src/stm32f4xx_hal_rtc_ex.c ****   else
 452:Drivers/STM32F4xx_HAL_Driver/Src/stm32f4xx_hal_rtc_ex.c ****   {
 453:Drivers/STM32F4xx_HAL_Driver/Src/stm32f4xx_hal_rtc_ex.c ****     /* Clear the tamper trigger bit (case of rising edge or low level) */
 454:Drivers/STM32F4xx_HAL_Driver/Src/stm32f4xx_hal_rtc_ex.c ****     tmpreg &= (uint32_t)~(sTamper->Tamper << 1U);
 612              		.loc 1 454 5 is_stmt 1 view .LVU229
 613              		.loc 1 454 12 is_stmt 0 view .LVU230
 614 0028 20EA4E00 		bic	r0, r0, lr, lsl #1
ARM GAS  C:\Users\Administrator\AppData\Local\Temp\cczHSQjt.s 			page 20


 615              	.LVL45:
 616              	.L27:
 455:Drivers/STM32F4xx_HAL_Driver/Src/stm32f4xx_hal_rtc_ex.c ****   }
 456:Drivers/STM32F4xx_HAL_Driver/Src/stm32f4xx_hal_rtc_ex.c **** 
 457:Drivers/STM32F4xx_HAL_Driver/Src/stm32f4xx_hal_rtc_ex.c ****   /* Clear remaining fields before setting them */
 458:Drivers/STM32F4xx_HAL_Driver/Src/stm32f4xx_hal_rtc_ex.c ****   tmpreg &= ~(RTC_TAMPERFILTER_MASK              | \
 617              		.loc 1 458 3 is_stmt 1 view .LVU231
 618              		.loc 1 458 10 is_stmt 0 view .LVU232
 619 002c 6FF3D010 		bfc	r0, #7, #10
 620              	.LVL46:
 459:Drivers/STM32F4xx_HAL_Driver/Src/stm32f4xx_hal_rtc_ex.c ****               RTC_TAMPERSAMPLINGFREQ_RTCCLK_MASK | \
 460:Drivers/STM32F4xx_HAL_Driver/Src/stm32f4xx_hal_rtc_ex.c ****               RTC_TAMPERPRECHARGEDURATION_MASK   | \
 461:Drivers/STM32F4xx_HAL_Driver/Src/stm32f4xx_hal_rtc_ex.c ****               RTC_TAMPER_PULLUP_MASK             | \
 462:Drivers/STM32F4xx_HAL_Driver/Src/stm32f4xx_hal_rtc_ex.c ****               RTC_TAFCR_TAMP1INSEL               | \
 463:Drivers/STM32F4xx_HAL_Driver/Src/stm32f4xx_hal_rtc_ex.c ****               RTC_TIMESTAMPONTAMPERDETECTION_MASK);
 464:Drivers/STM32F4xx_HAL_Driver/Src/stm32f4xx_hal_rtc_ex.c **** 
 465:Drivers/STM32F4xx_HAL_Driver/Src/stm32f4xx_hal_rtc_ex.c ****   /* Set remaining parameters of desired configuration into temporary variable */
 466:Drivers/STM32F4xx_HAL_Driver/Src/stm32f4xx_hal_rtc_ex.c ****   tmpreg |= ((uint32_t)sTamper->Filter            | \
 621              		.loc 1 466 3 is_stmt 1 view .LVU233
 622              		.loc 1 466 31 is_stmt 0 view .LVU234
 623 0030 CB68     		ldr	r3, [r1, #12]
 624              		.loc 1 466 51 view .LVU235
 625 0032 0C69     		ldr	r4, [r1, #16]
 626 0034 2343     		orrs	r3, r3, r4
 467:Drivers/STM32F4xx_HAL_Driver/Src/stm32f4xx_hal_rtc_ex.c ****              (uint32_t)sTamper->SamplingFrequency | \
 627              		.loc 1 467 51 view .LVU236
 628 0036 4C69     		ldr	r4, [r1, #20]
 629 0038 2343     		orrs	r3, r3, r4
 468:Drivers/STM32F4xx_HAL_Driver/Src/stm32f4xx_hal_rtc_ex.c ****              (uint32_t)sTamper->PrechargeDuration | \
 630              		.loc 1 468 51 view .LVU237
 631 003a 8C69     		ldr	r4, [r1, #24]
 632 003c 2343     		orrs	r3, r3, r4
 469:Drivers/STM32F4xx_HAL_Driver/Src/stm32f4xx_hal_rtc_ex.c ****              (uint32_t)sTamper->TamperPullUp      | \
 633              		.loc 1 469 51 view .LVU238
 634 003e 4C68     		ldr	r4, [r1, #4]
 635 0040 2343     		orrs	r3, r3, r4
 470:Drivers/STM32F4xx_HAL_Driver/Src/stm32f4xx_hal_rtc_ex.c ****              (uint32_t)sTamper->PinSelection      | \
 471:Drivers/STM32F4xx_HAL_Driver/Src/stm32f4xx_hal_rtc_ex.c ****              (uint32_t)sTamper->TimeStampOnTamperDetection);
 636              		.loc 1 471 31 view .LVU239
 637 0042 C969     		ldr	r1, [r1, #28]
 638              	.LVL47:
 470:Drivers/STM32F4xx_HAL_Driver/Src/stm32f4xx_hal_rtc_ex.c ****              (uint32_t)sTamper->PinSelection      | \
 639              		.loc 1 470 51 view .LVU240
 640 0044 0B43     		orrs	r3, r3, r1
 466:Drivers/STM32F4xx_HAL_Driver/Src/stm32f4xx_hal_rtc_ex.c ****              (uint32_t)sTamper->SamplingFrequency | \
 641              		.loc 1 466 10 view .LVU241
 642 0046 0343     		orrs	r3, r3, r0
 643              	.LVL48:
 472:Drivers/STM32F4xx_HAL_Driver/Src/stm32f4xx_hal_rtc_ex.c **** 
 473:Drivers/STM32F4xx_HAL_Driver/Src/stm32f4xx_hal_rtc_ex.c ****   /* Disable tamper global interrupt in case it is enabled */
 474:Drivers/STM32F4xx_HAL_Driver/Src/stm32f4xx_hal_rtc_ex.c ****   tmpreg &= (uint32_t)~RTC_TAFCR_TAMPIE;
 644              		.loc 1 474 3 is_stmt 1 view .LVU242
 645              		.loc 1 474 10 is_stmt 0 view .LVU243
 646 0048 23F00403 		bic	r3, r3, #4
 647              	.LVL49:
 475:Drivers/STM32F4xx_HAL_Driver/Src/stm32f4xx_hal_rtc_ex.c **** 
 476:Drivers/STM32F4xx_HAL_Driver/Src/stm32f4xx_hal_rtc_ex.c ****   /* Copy desired configuration into configuration register */
ARM GAS  C:\Users\Administrator\AppData\Local\Temp\cczHSQjt.s 			page 21


 477:Drivers/STM32F4xx_HAL_Driver/Src/stm32f4xx_hal_rtc_ex.c ****   hrtc->Instance->TAFCR = tmpreg;
 648              		.loc 1 477 3 is_stmt 1 view .LVU244
 649              		.loc 1 477 25 is_stmt 0 view .LVU245
 650 004c CCF84030 		str	r3, [ip, #64]
 478:Drivers/STM32F4xx_HAL_Driver/Src/stm32f4xx_hal_rtc_ex.c **** 
 479:Drivers/STM32F4xx_HAL_Driver/Src/stm32f4xx_hal_rtc_ex.c ****   hrtc->State = HAL_RTC_STATE_READY;
 651              		.loc 1 479 3 is_stmt 1 view .LVU246
 652              		.loc 1 479 15 is_stmt 0 view .LVU247
 653 0050 0123     		movs	r3, #1
 654              	.LVL50:
 655              		.loc 1 479 15 view .LVU248
 656 0052 5377     		strb	r3, [r2, #29]
 657              	.LVL51:
 480:Drivers/STM32F4xx_HAL_Driver/Src/stm32f4xx_hal_rtc_ex.c **** 
 481:Drivers/STM32F4xx_HAL_Driver/Src/stm32f4xx_hal_rtc_ex.c ****   /* Process Unlocked */
 482:Drivers/STM32F4xx_HAL_Driver/Src/stm32f4xx_hal_rtc_ex.c ****   __HAL_UNLOCK(hrtc);
 658              		.loc 1 482 3 is_stmt 1 view .LVU249
 659              		.loc 1 482 3 view .LVU250
 660 0054 0020     		movs	r0, #0
 661 0056 1077     		strb	r0, [r2, #28]
 662              		.loc 1 482 3 view .LVU251
 483:Drivers/STM32F4xx_HAL_Driver/Src/stm32f4xx_hal_rtc_ex.c **** 
 484:Drivers/STM32F4xx_HAL_Driver/Src/stm32f4xx_hal_rtc_ex.c ****   return HAL_OK;
 663              		.loc 1 484 3 view .LVU252
 485:Drivers/STM32F4xx_HAL_Driver/Src/stm32f4xx_hal_rtc_ex.c **** }
 664              		.loc 1 485 1 is_stmt 0 view .LVU253
 665 0058 10BD     		pop	{r4, pc}
 666              	.LVL52:
 667              	.L33:
 449:Drivers/STM32F4xx_HAL_Driver/Src/stm32f4xx_hal_rtc_ex.c ****   }
 668              		.loc 1 449 5 is_stmt 1 view .LVU254
 449:Drivers/STM32F4xx_HAL_Driver/Src/stm32f4xx_hal_rtc_ex.c ****   }
 669              		.loc 1 449 12 is_stmt 0 view .LVU255
 670 005a 40EA4E00 		orr	r0, r0, lr, lsl #1
 671              	.LVL53:
 449:Drivers/STM32F4xx_HAL_Driver/Src/stm32f4xx_hal_rtc_ex.c ****   }
 672              		.loc 1 449 12 view .LVU256
 673 005e E5E7     		b	.L27
 674              	.LVL54:
 675              	.L28:
 676              		.cfi_def_cfa_offset 0
 677              		.cfi_restore 4
 678              		.cfi_restore 14
 434:Drivers/STM32F4xx_HAL_Driver/Src/stm32f4xx_hal_rtc_ex.c **** 
 679              		.loc 1 434 3 discriminator 1 view .LVU257
 680 0060 0220     		movs	r0, #2
 681              	.LVL55:
 682              		.loc 1 485 1 view .LVU258
 683 0062 7047     		bx	lr
 684              		.cfi_endproc
 685              	.LFE239:
 687              		.section	.text.HAL_RTCEx_SetTamper_IT,"ax",%progbits
 688              		.align	1
 689              		.global	HAL_RTCEx_SetTamper_IT
 690              		.syntax unified
 691              		.thumb
 692              		.thumb_func
ARM GAS  C:\Users\Administrator\AppData\Local\Temp\cczHSQjt.s 			page 22


 694              	HAL_RTCEx_SetTamper_IT:
 695              	.LVL56:
 696              	.LFB240:
 486:Drivers/STM32F4xx_HAL_Driver/Src/stm32f4xx_hal_rtc_ex.c **** 
 487:Drivers/STM32F4xx_HAL_Driver/Src/stm32f4xx_hal_rtc_ex.c **** /**
 488:Drivers/STM32F4xx_HAL_Driver/Src/stm32f4xx_hal_rtc_ex.c ****   * @brief  Sets Tamper with interrupt.
 489:Drivers/STM32F4xx_HAL_Driver/Src/stm32f4xx_hal_rtc_ex.c ****   * @note   By calling this API the tamper global interrupt will be enabled.
 490:Drivers/STM32F4xx_HAL_Driver/Src/stm32f4xx_hal_rtc_ex.c ****   * @param  hrtc pointer to a RTC_HandleTypeDef structure that contains
 491:Drivers/STM32F4xx_HAL_Driver/Src/stm32f4xx_hal_rtc_ex.c ****   *                the configuration information for RTC.
 492:Drivers/STM32F4xx_HAL_Driver/Src/stm32f4xx_hal_rtc_ex.c ****   * @param  sTamper Pointer to RTC Tamper.
 493:Drivers/STM32F4xx_HAL_Driver/Src/stm32f4xx_hal_rtc_ex.c ****   * @retval HAL status
 494:Drivers/STM32F4xx_HAL_Driver/Src/stm32f4xx_hal_rtc_ex.c ****   */
 495:Drivers/STM32F4xx_HAL_Driver/Src/stm32f4xx_hal_rtc_ex.c **** HAL_StatusTypeDef HAL_RTCEx_SetTamper_IT(RTC_HandleTypeDef *hrtc, RTC_TamperTypeDef *sTamper)
 496:Drivers/STM32F4xx_HAL_Driver/Src/stm32f4xx_hal_rtc_ex.c **** {
 697              		.loc 1 496 1 is_stmt 1 view -0
 698              		.cfi_startproc
 699              		@ args = 0, pretend = 0, frame = 0
 700              		@ frame_needed = 0, uses_anonymous_args = 0
 497:Drivers/STM32F4xx_HAL_Driver/Src/stm32f4xx_hal_rtc_ex.c ****   uint32_t tmpreg = 0U;
 701              		.loc 1 497 3 view .LVU260
 498:Drivers/STM32F4xx_HAL_Driver/Src/stm32f4xx_hal_rtc_ex.c **** 
 499:Drivers/STM32F4xx_HAL_Driver/Src/stm32f4xx_hal_rtc_ex.c ****   /* Check the parameters */
 500:Drivers/STM32F4xx_HAL_Driver/Src/stm32f4xx_hal_rtc_ex.c ****   assert_param(IS_RTC_TAMPER(sTamper->Tamper));
 702              		.loc 1 500 3 view .LVU261
 501:Drivers/STM32F4xx_HAL_Driver/Src/stm32f4xx_hal_rtc_ex.c ****   assert_param(IS_RTC_TAMPER_PIN(sTamper->PinSelection));
 703              		.loc 1 501 3 view .LVU262
 502:Drivers/STM32F4xx_HAL_Driver/Src/stm32f4xx_hal_rtc_ex.c ****   assert_param(IS_RTC_TAMPER_TRIGGER(sTamper->Trigger));
 704              		.loc 1 502 3 view .LVU263
 503:Drivers/STM32F4xx_HAL_Driver/Src/stm32f4xx_hal_rtc_ex.c ****   assert_param(IS_RTC_TAMPER_FILTER(sTamper->Filter));
 705              		.loc 1 503 3 view .LVU264
 504:Drivers/STM32F4xx_HAL_Driver/Src/stm32f4xx_hal_rtc_ex.c ****   assert_param(IS_RTC_TAMPER_FILTER_CONFIG_CORRECT(sTamper->Filter, sTamper->Trigger));
 706              		.loc 1 504 3 view .LVU265
 505:Drivers/STM32F4xx_HAL_Driver/Src/stm32f4xx_hal_rtc_ex.c ****   assert_param(IS_RTC_TAMPER_SAMPLING_FREQ(sTamper->SamplingFrequency));
 707              		.loc 1 505 3 view .LVU266
 506:Drivers/STM32F4xx_HAL_Driver/Src/stm32f4xx_hal_rtc_ex.c ****   assert_param(IS_RTC_TAMPER_PRECHARGE_DURATION(sTamper->PrechargeDuration));
 708              		.loc 1 506 3 view .LVU267
 507:Drivers/STM32F4xx_HAL_Driver/Src/stm32f4xx_hal_rtc_ex.c ****   assert_param(IS_RTC_TAMPER_PULLUP_STATE(sTamper->TamperPullUp));
 709              		.loc 1 507 3 view .LVU268
 508:Drivers/STM32F4xx_HAL_Driver/Src/stm32f4xx_hal_rtc_ex.c ****   assert_param(IS_RTC_TAMPER_TIMESTAMPONTAMPER_DETECTION(sTamper->TimeStampOnTamperDetection));
 710              		.loc 1 508 3 view .LVU269
 509:Drivers/STM32F4xx_HAL_Driver/Src/stm32f4xx_hal_rtc_ex.c **** 
 510:Drivers/STM32F4xx_HAL_Driver/Src/stm32f4xx_hal_rtc_ex.c ****   /* Process Locked */
 511:Drivers/STM32F4xx_HAL_Driver/Src/stm32f4xx_hal_rtc_ex.c ****   __HAL_LOCK(hrtc);
 711              		.loc 1 511 3 view .LVU270
 712              		.loc 1 511 3 view .LVU271
 713 0000 037F     		ldrb	r3, [r0, #28]	@ zero_extendqisi2
 714 0002 012B     		cmp	r3, #1
 715 0004 35D0     		beq	.L38
 496:Drivers/STM32F4xx_HAL_Driver/Src/stm32f4xx_hal_rtc_ex.c ****   uint32_t tmpreg = 0U;
 716              		.loc 1 496 1 is_stmt 0 view .LVU272
 717 0006 10B5     		push	{r4, lr}
 718              		.cfi_def_cfa_offset 8
 719              		.cfi_offset 4, -8
 720              		.cfi_offset 14, -4
 721 0008 0246     		mov	r2, r0
 722              		.loc 1 511 3 is_stmt 1 discriminator 2 view .LVU273
 723 000a 0123     		movs	r3, #1
ARM GAS  C:\Users\Administrator\AppData\Local\Temp\cczHSQjt.s 			page 23


 724 000c 0377     		strb	r3, [r0, #28]
 725              		.loc 1 511 3 view .LVU274
 512:Drivers/STM32F4xx_HAL_Driver/Src/stm32f4xx_hal_rtc_ex.c **** 
 513:Drivers/STM32F4xx_HAL_Driver/Src/stm32f4xx_hal_rtc_ex.c ****   hrtc->State = HAL_RTC_STATE_BUSY;
 726              		.loc 1 513 3 view .LVU275
 727              		.loc 1 513 15 is_stmt 0 view .LVU276
 728 000e 0223     		movs	r3, #2
 729 0010 4377     		strb	r3, [r0, #29]
 514:Drivers/STM32F4xx_HAL_Driver/Src/stm32f4xx_hal_rtc_ex.c **** 
 515:Drivers/STM32F4xx_HAL_Driver/Src/stm32f4xx_hal_rtc_ex.c ****   /* Copy control register into temporary variable */
 516:Drivers/STM32F4xx_HAL_Driver/Src/stm32f4xx_hal_rtc_ex.c ****   tmpreg = hrtc->Instance->TAFCR;
 730              		.loc 1 516 3 is_stmt 1 view .LVU277
 731              		.loc 1 516 16 is_stmt 0 view .LVU278
 732 0012 D0F800C0 		ldr	ip, [r0]
 733              		.loc 1 516 10 view .LVU279
 734 0016 DCF84000 		ldr	r0, [ip, #64]
 735              	.LVL57:
 517:Drivers/STM32F4xx_HAL_Driver/Src/stm32f4xx_hal_rtc_ex.c **** 
 518:Drivers/STM32F4xx_HAL_Driver/Src/stm32f4xx_hal_rtc_ex.c ****   /* Enable selected tamper */
 519:Drivers/STM32F4xx_HAL_Driver/Src/stm32f4xx_hal_rtc_ex.c ****   tmpreg |= (sTamper->Tamper);
 736              		.loc 1 519 3 is_stmt 1 view .LVU280
 737              		.loc 1 519 21 is_stmt 0 view .LVU281
 738 001a D1F800E0 		ldr	lr, [r1]
 739              		.loc 1 519 10 view .LVU282
 740 001e 4EEA0000 		orr	r0, lr, r0
 741              	.LVL58:
 520:Drivers/STM32F4xx_HAL_Driver/Src/stm32f4xx_hal_rtc_ex.c **** 
 521:Drivers/STM32F4xx_HAL_Driver/Src/stm32f4xx_hal_rtc_ex.c ****   /* Configure the tamper trigger bit (this bit is just on the right of the
 522:Drivers/STM32F4xx_HAL_Driver/Src/stm32f4xx_hal_rtc_ex.c ****        tamper enable bit, hence the one-time right shift before updating it) */
 523:Drivers/STM32F4xx_HAL_Driver/Src/stm32f4xx_hal_rtc_ex.c ****   if (sTamper->Trigger == RTC_TAMPERTRIGGER_FALLINGEDGE)
 742              		.loc 1 523 3 is_stmt 1 view .LVU283
 743              		.loc 1 523 14 is_stmt 0 view .LVU284
 744 0022 8B68     		ldr	r3, [r1, #8]
 745              		.loc 1 523 6 view .LVU285
 746 0024 022B     		cmp	r3, #2
 747 0026 21D0     		beq	.L43
 524:Drivers/STM32F4xx_HAL_Driver/Src/stm32f4xx_hal_rtc_ex.c ****   {
 525:Drivers/STM32F4xx_HAL_Driver/Src/stm32f4xx_hal_rtc_ex.c ****     /* Set the tamper trigger bit (case of falling edge or high level) */
 526:Drivers/STM32F4xx_HAL_Driver/Src/stm32f4xx_hal_rtc_ex.c ****     tmpreg |= (uint32_t)(sTamper->Tamper << 1U);
 527:Drivers/STM32F4xx_HAL_Driver/Src/stm32f4xx_hal_rtc_ex.c ****   }
 528:Drivers/STM32F4xx_HAL_Driver/Src/stm32f4xx_hal_rtc_ex.c ****   else
 529:Drivers/STM32F4xx_HAL_Driver/Src/stm32f4xx_hal_rtc_ex.c ****   {
 530:Drivers/STM32F4xx_HAL_Driver/Src/stm32f4xx_hal_rtc_ex.c ****     /* Clear the tamper trigger bit (case of rising edge or low level) */
 531:Drivers/STM32F4xx_HAL_Driver/Src/stm32f4xx_hal_rtc_ex.c ****     tmpreg &= (uint32_t)~(sTamper->Tamper << 1U);
 748              		.loc 1 531 5 is_stmt 1 view .LVU286
 749              		.loc 1 531 12 is_stmt 0 view .LVU287
 750 0028 20EA4E00 		bic	r0, r0, lr, lsl #1
 751              	.LVL59:
 752              	.L37:
 532:Drivers/STM32F4xx_HAL_Driver/Src/stm32f4xx_hal_rtc_ex.c ****   }
 533:Drivers/STM32F4xx_HAL_Driver/Src/stm32f4xx_hal_rtc_ex.c **** 
 534:Drivers/STM32F4xx_HAL_Driver/Src/stm32f4xx_hal_rtc_ex.c ****   /* Clear remaining fields before setting them */
 535:Drivers/STM32F4xx_HAL_Driver/Src/stm32f4xx_hal_rtc_ex.c ****   tmpreg &= ~(RTC_TAMPERFILTER_MASK              | \
 753              		.loc 1 535 3 is_stmt 1 view .LVU288
 754              		.loc 1 535 10 is_stmt 0 view .LVU289
 755 002c 6FF3D010 		bfc	r0, #7, #10
 756              	.LVL60:
ARM GAS  C:\Users\Administrator\AppData\Local\Temp\cczHSQjt.s 			page 24


 536:Drivers/STM32F4xx_HAL_Driver/Src/stm32f4xx_hal_rtc_ex.c ****               RTC_TAMPERSAMPLINGFREQ_RTCCLK_MASK | \
 537:Drivers/STM32F4xx_HAL_Driver/Src/stm32f4xx_hal_rtc_ex.c ****               RTC_TAMPERPRECHARGEDURATION_MASK   | \
 538:Drivers/STM32F4xx_HAL_Driver/Src/stm32f4xx_hal_rtc_ex.c ****               RTC_TAMPER_PULLUP_MASK             | \
 539:Drivers/STM32F4xx_HAL_Driver/Src/stm32f4xx_hal_rtc_ex.c ****               RTC_TAFCR_TAMP1INSEL               | \
 540:Drivers/STM32F4xx_HAL_Driver/Src/stm32f4xx_hal_rtc_ex.c ****               RTC_TIMESTAMPONTAMPERDETECTION_MASK);
 541:Drivers/STM32F4xx_HAL_Driver/Src/stm32f4xx_hal_rtc_ex.c **** 
 542:Drivers/STM32F4xx_HAL_Driver/Src/stm32f4xx_hal_rtc_ex.c ****   /* Set remaining parameters of desired configuration into temporary variable */
 543:Drivers/STM32F4xx_HAL_Driver/Src/stm32f4xx_hal_rtc_ex.c ****   tmpreg |= ((uint32_t)sTamper->Filter            | \
 757              		.loc 1 543 3 is_stmt 1 view .LVU290
 758              		.loc 1 543 31 is_stmt 0 view .LVU291
 759 0030 CB68     		ldr	r3, [r1, #12]
 760              		.loc 1 543 51 view .LVU292
 761 0032 0C69     		ldr	r4, [r1, #16]
 762 0034 2343     		orrs	r3, r3, r4
 544:Drivers/STM32F4xx_HAL_Driver/Src/stm32f4xx_hal_rtc_ex.c ****              (uint32_t)sTamper->SamplingFrequency | \
 763              		.loc 1 544 51 view .LVU293
 764 0036 4C69     		ldr	r4, [r1, #20]
 765 0038 2343     		orrs	r3, r3, r4
 545:Drivers/STM32F4xx_HAL_Driver/Src/stm32f4xx_hal_rtc_ex.c ****              (uint32_t)sTamper->PrechargeDuration | \
 766              		.loc 1 545 51 view .LVU294
 767 003a 8C69     		ldr	r4, [r1, #24]
 768 003c 2343     		orrs	r3, r3, r4
 546:Drivers/STM32F4xx_HAL_Driver/Src/stm32f4xx_hal_rtc_ex.c ****              (uint32_t)sTamper->TamperPullUp      | \
 769              		.loc 1 546 51 view .LVU295
 770 003e 4C68     		ldr	r4, [r1, #4]
 771 0040 2343     		orrs	r3, r3, r4
 547:Drivers/STM32F4xx_HAL_Driver/Src/stm32f4xx_hal_rtc_ex.c ****              (uint32_t)sTamper->PinSelection      | \
 548:Drivers/STM32F4xx_HAL_Driver/Src/stm32f4xx_hal_rtc_ex.c ****              (uint32_t)sTamper->TimeStampOnTamperDetection);
 772              		.loc 1 548 31 view .LVU296
 773 0042 C969     		ldr	r1, [r1, #28]
 774              	.LVL61:
 547:Drivers/STM32F4xx_HAL_Driver/Src/stm32f4xx_hal_rtc_ex.c ****              (uint32_t)sTamper->PinSelection      | \
 775              		.loc 1 547 51 view .LVU297
 776 0044 0B43     		orrs	r3, r3, r1
 543:Drivers/STM32F4xx_HAL_Driver/Src/stm32f4xx_hal_rtc_ex.c ****              (uint32_t)sTamper->SamplingFrequency | \
 777              		.loc 1 543 10 view .LVU298
 778 0046 0343     		orrs	r3, r3, r0
 779              	.LVL62:
 549:Drivers/STM32F4xx_HAL_Driver/Src/stm32f4xx_hal_rtc_ex.c **** 
 550:Drivers/STM32F4xx_HAL_Driver/Src/stm32f4xx_hal_rtc_ex.c ****   /* Enable global tamper interrupt */
 551:Drivers/STM32F4xx_HAL_Driver/Src/stm32f4xx_hal_rtc_ex.c ****   tmpreg |= (uint32_t)RTC_TAFCR_TAMPIE;
 780              		.loc 1 551 3 is_stmt 1 view .LVU299
 781              		.loc 1 551 10 is_stmt 0 view .LVU300
 782 0048 43F00403 		orr	r3, r3, #4
 783              	.LVL63:
 552:Drivers/STM32F4xx_HAL_Driver/Src/stm32f4xx_hal_rtc_ex.c **** 
 553:Drivers/STM32F4xx_HAL_Driver/Src/stm32f4xx_hal_rtc_ex.c ****   /* Copy desired configuration into configuration register */
 554:Drivers/STM32F4xx_HAL_Driver/Src/stm32f4xx_hal_rtc_ex.c ****   hrtc->Instance->TAFCR = tmpreg;
 784              		.loc 1 554 3 is_stmt 1 view .LVU301
 785              		.loc 1 554 25 is_stmt 0 view .LVU302
 786 004c CCF84030 		str	r3, [ip, #64]
 555:Drivers/STM32F4xx_HAL_Driver/Src/stm32f4xx_hal_rtc_ex.c **** 
 556:Drivers/STM32F4xx_HAL_Driver/Src/stm32f4xx_hal_rtc_ex.c ****   /* RTC Tamper Interrupt Configuration: EXTI configuration */
 557:Drivers/STM32F4xx_HAL_Driver/Src/stm32f4xx_hal_rtc_ex.c ****   __HAL_RTC_TAMPER_TIMESTAMP_EXTI_ENABLE_IT();
 787              		.loc 1 557 3 is_stmt 1 view .LVU303
 788 0050 094B     		ldr	r3, .L44
 789              	.LVL64:
ARM GAS  C:\Users\Administrator\AppData\Local\Temp\cczHSQjt.s 			page 25


 790              		.loc 1 557 3 is_stmt 0 view .LVU304
 791 0052 1968     		ldr	r1, [r3]
 792 0054 41F40011 		orr	r1, r1, #2097152
 793 0058 1960     		str	r1, [r3]
 794              	.LVL65:
 558:Drivers/STM32F4xx_HAL_Driver/Src/stm32f4xx_hal_rtc_ex.c ****   __HAL_RTC_TAMPER_TIMESTAMP_EXTI_ENABLE_RISING_EDGE();
 795              		.loc 1 558 3 is_stmt 1 view .LVU305
 796 005a 9968     		ldr	r1, [r3, #8]
 797 005c 41F40011 		orr	r1, r1, #2097152
 798 0060 9960     		str	r1, [r3, #8]
 559:Drivers/STM32F4xx_HAL_Driver/Src/stm32f4xx_hal_rtc_ex.c **** 
 560:Drivers/STM32F4xx_HAL_Driver/Src/stm32f4xx_hal_rtc_ex.c ****   hrtc->State = HAL_RTC_STATE_READY;
 799              		.loc 1 560 3 view .LVU306
 800              		.loc 1 560 15 is_stmt 0 view .LVU307
 801 0062 0123     		movs	r3, #1
 802 0064 5377     		strb	r3, [r2, #29]
 561:Drivers/STM32F4xx_HAL_Driver/Src/stm32f4xx_hal_rtc_ex.c **** 
 562:Drivers/STM32F4xx_HAL_Driver/Src/stm32f4xx_hal_rtc_ex.c ****   /* Process Unlocked */
 563:Drivers/STM32F4xx_HAL_Driver/Src/stm32f4xx_hal_rtc_ex.c ****   __HAL_UNLOCK(hrtc);
 803              		.loc 1 563 3 is_stmt 1 view .LVU308
 804              		.loc 1 563 3 view .LVU309
 805 0066 0020     		movs	r0, #0
 806 0068 1077     		strb	r0, [r2, #28]
 807              		.loc 1 563 3 view .LVU310
 564:Drivers/STM32F4xx_HAL_Driver/Src/stm32f4xx_hal_rtc_ex.c **** 
 565:Drivers/STM32F4xx_HAL_Driver/Src/stm32f4xx_hal_rtc_ex.c ****   return HAL_OK;
 808              		.loc 1 565 3 view .LVU311
 566:Drivers/STM32F4xx_HAL_Driver/Src/stm32f4xx_hal_rtc_ex.c **** }
 809              		.loc 1 566 1 is_stmt 0 view .LVU312
 810 006a 10BD     		pop	{r4, pc}
 811              	.LVL66:
 812              	.L43:
 526:Drivers/STM32F4xx_HAL_Driver/Src/stm32f4xx_hal_rtc_ex.c ****   }
 813              		.loc 1 526 5 is_stmt 1 view .LVU313
 526:Drivers/STM32F4xx_HAL_Driver/Src/stm32f4xx_hal_rtc_ex.c ****   }
 814              		.loc 1 526 12 is_stmt 0 view .LVU314
 815 006c 40EA4E00 		orr	r0, r0, lr, lsl #1
 816              	.LVL67:
 526:Drivers/STM32F4xx_HAL_Driver/Src/stm32f4xx_hal_rtc_ex.c ****   }
 817              		.loc 1 526 12 view .LVU315
 818 0070 DCE7     		b	.L37
 819              	.LVL68:
 820              	.L38:
 821              		.cfi_def_cfa_offset 0
 822              		.cfi_restore 4
 823              		.cfi_restore 14
 511:Drivers/STM32F4xx_HAL_Driver/Src/stm32f4xx_hal_rtc_ex.c **** 
 824              		.loc 1 511 3 discriminator 1 view .LVU316
 825 0072 0220     		movs	r0, #2
 826              	.LVL69:
 827              		.loc 1 566 1 view .LVU317
 828 0074 7047     		bx	lr
 829              	.L45:
 830 0076 00BF     		.align	2
 831              	.L44:
 832 0078 003C0140 		.word	1073822720
 833              		.cfi_endproc
ARM GAS  C:\Users\Administrator\AppData\Local\Temp\cczHSQjt.s 			page 26


 834              	.LFE240:
 836              		.section	.text.HAL_RTCEx_DeactivateTamper,"ax",%progbits
 837              		.align	1
 838              		.global	HAL_RTCEx_DeactivateTamper
 839              		.syntax unified
 840              		.thumb
 841              		.thumb_func
 843              	HAL_RTCEx_DeactivateTamper:
 844              	.LVL70:
 845              	.LFB241:
 567:Drivers/STM32F4xx_HAL_Driver/Src/stm32f4xx_hal_rtc_ex.c **** 
 568:Drivers/STM32F4xx_HAL_Driver/Src/stm32f4xx_hal_rtc_ex.c **** /**
 569:Drivers/STM32F4xx_HAL_Driver/Src/stm32f4xx_hal_rtc_ex.c ****   * @brief  Deactivates Tamper.
 570:Drivers/STM32F4xx_HAL_Driver/Src/stm32f4xx_hal_rtc_ex.c ****   * @note   The tamper global interrupt bit will remain unchanged.
 571:Drivers/STM32F4xx_HAL_Driver/Src/stm32f4xx_hal_rtc_ex.c ****   * @param  hrtc pointer to a RTC_HandleTypeDef structure that contains
 572:Drivers/STM32F4xx_HAL_Driver/Src/stm32f4xx_hal_rtc_ex.c ****   *                the configuration information for RTC.
 573:Drivers/STM32F4xx_HAL_Driver/Src/stm32f4xx_hal_rtc_ex.c ****   * @param  Tamper Selected tamper pin.
 574:Drivers/STM32F4xx_HAL_Driver/Src/stm32f4xx_hal_rtc_ex.c ****   *          This parameter can be any combination of the following values:
 575:Drivers/STM32F4xx_HAL_Driver/Src/stm32f4xx_hal_rtc_ex.c ****   *            @arg RTC_TAMPER_1:  Tamper 1
 576:Drivers/STM32F4xx_HAL_Driver/Src/stm32f4xx_hal_rtc_ex.c ****   *            @arg RTC_TAMPER_2:  Tamper 2
 577:Drivers/STM32F4xx_HAL_Driver/Src/stm32f4xx_hal_rtc_ex.c ****   * @note   RTC_TAMPER_2 is not applicable to all devices.
 578:Drivers/STM32F4xx_HAL_Driver/Src/stm32f4xx_hal_rtc_ex.c ****   * @retval HAL status
 579:Drivers/STM32F4xx_HAL_Driver/Src/stm32f4xx_hal_rtc_ex.c ****   */
 580:Drivers/STM32F4xx_HAL_Driver/Src/stm32f4xx_hal_rtc_ex.c **** HAL_StatusTypeDef HAL_RTCEx_DeactivateTamper(RTC_HandleTypeDef *hrtc, uint32_t Tamper)
 581:Drivers/STM32F4xx_HAL_Driver/Src/stm32f4xx_hal_rtc_ex.c **** {
 846              		.loc 1 581 1 is_stmt 1 view -0
 847              		.cfi_startproc
 848              		@ args = 0, pretend = 0, frame = 0
 849              		@ frame_needed = 0, uses_anonymous_args = 0
 850              		@ link register save eliminated.
 582:Drivers/STM32F4xx_HAL_Driver/Src/stm32f4xx_hal_rtc_ex.c ****   assert_param(IS_RTC_TAMPER(Tamper));
 851              		.loc 1 582 3 view .LVU319
 583:Drivers/STM32F4xx_HAL_Driver/Src/stm32f4xx_hal_rtc_ex.c **** 
 584:Drivers/STM32F4xx_HAL_Driver/Src/stm32f4xx_hal_rtc_ex.c ****   /* Process Locked */
 585:Drivers/STM32F4xx_HAL_Driver/Src/stm32f4xx_hal_rtc_ex.c ****   __HAL_LOCK(hrtc);
 852              		.loc 1 585 3 view .LVU320
 853              		.loc 1 585 3 view .LVU321
 854 0000 037F     		ldrb	r3, [r0, #28]	@ zero_extendqisi2
 855 0002 012B     		cmp	r3, #1
 856 0004 10D0     		beq	.L48
 857              		.loc 1 585 3 discriminator 2 view .LVU322
 858 0006 0122     		movs	r2, #1
 859 0008 0277     		strb	r2, [r0, #28]
 860              		.loc 1 585 3 view .LVU323
 586:Drivers/STM32F4xx_HAL_Driver/Src/stm32f4xx_hal_rtc_ex.c **** 
 587:Drivers/STM32F4xx_HAL_Driver/Src/stm32f4xx_hal_rtc_ex.c ****   hrtc->State = HAL_RTC_STATE_BUSY;
 861              		.loc 1 587 3 view .LVU324
 862              		.loc 1 587 15 is_stmt 0 view .LVU325
 863 000a 0223     		movs	r3, #2
 864 000c 4377     		strb	r3, [r0, #29]
 588:Drivers/STM32F4xx_HAL_Driver/Src/stm32f4xx_hal_rtc_ex.c **** 
 589:Drivers/STM32F4xx_HAL_Driver/Src/stm32f4xx_hal_rtc_ex.c ****   /* Disable the selected Tamper pin */
 590:Drivers/STM32F4xx_HAL_Driver/Src/stm32f4xx_hal_rtc_ex.c ****   hrtc->Instance->TAFCR &= (uint32_t)~Tamper;
 865              		.loc 1 590 3 is_stmt 1 view .LVU326
 866              		.loc 1 590 7 is_stmt 0 view .LVU327
 867 000e D0F800C0 		ldr	ip, [r0]
 868              		.loc 1 590 17 view .LVU328
ARM GAS  C:\Users\Administrator\AppData\Local\Temp\cczHSQjt.s 			page 27


 869 0012 DCF84030 		ldr	r3, [ip, #64]
 870              		.loc 1 590 25 view .LVU329
 871 0016 23EA0103 		bic	r3, r3, r1
 872 001a CCF84030 		str	r3, [ip, #64]
 591:Drivers/STM32F4xx_HAL_Driver/Src/stm32f4xx_hal_rtc_ex.c **** 
 592:Drivers/STM32F4xx_HAL_Driver/Src/stm32f4xx_hal_rtc_ex.c ****   hrtc->State = HAL_RTC_STATE_READY;
 873              		.loc 1 592 3 is_stmt 1 view .LVU330
 874              		.loc 1 592 15 is_stmt 0 view .LVU331
 875 001e 4277     		strb	r2, [r0, #29]
 593:Drivers/STM32F4xx_HAL_Driver/Src/stm32f4xx_hal_rtc_ex.c **** 
 594:Drivers/STM32F4xx_HAL_Driver/Src/stm32f4xx_hal_rtc_ex.c ****   /* Process Unlocked */
 595:Drivers/STM32F4xx_HAL_Driver/Src/stm32f4xx_hal_rtc_ex.c ****   __HAL_UNLOCK(hrtc);
 876              		.loc 1 595 3 is_stmt 1 view .LVU332
 877              		.loc 1 595 3 view .LVU333
 878 0020 0023     		movs	r3, #0
 879 0022 0377     		strb	r3, [r0, #28]
 880              		.loc 1 595 3 view .LVU334
 596:Drivers/STM32F4xx_HAL_Driver/Src/stm32f4xx_hal_rtc_ex.c **** 
 597:Drivers/STM32F4xx_HAL_Driver/Src/stm32f4xx_hal_rtc_ex.c ****   return HAL_OK;
 881              		.loc 1 597 3 view .LVU335
 882              		.loc 1 597 10 is_stmt 0 view .LVU336
 883 0024 1846     		mov	r0, r3
 884              	.LVL71:
 885              		.loc 1 597 10 view .LVU337
 886 0026 7047     		bx	lr
 887              	.LVL72:
 888              	.L48:
 585:Drivers/STM32F4xx_HAL_Driver/Src/stm32f4xx_hal_rtc_ex.c **** 
 889              		.loc 1 585 3 discriminator 1 view .LVU338
 890 0028 0220     		movs	r0, #2
 891              	.LVL73:
 598:Drivers/STM32F4xx_HAL_Driver/Src/stm32f4xx_hal_rtc_ex.c **** }
 892              		.loc 1 598 1 view .LVU339
 893 002a 7047     		bx	lr
 894              		.cfi_endproc
 895              	.LFE241:
 897              		.section	.text.HAL_RTCEx_TimeStampEventCallback,"ax",%progbits
 898              		.align	1
 899              		.weak	HAL_RTCEx_TimeStampEventCallback
 900              		.syntax unified
 901              		.thumb
 902              		.thumb_func
 904              	HAL_RTCEx_TimeStampEventCallback:
 905              	.LVL74:
 906              	.LFB243:
 599:Drivers/STM32F4xx_HAL_Driver/Src/stm32f4xx_hal_rtc_ex.c **** 
 600:Drivers/STM32F4xx_HAL_Driver/Src/stm32f4xx_hal_rtc_ex.c **** /**
 601:Drivers/STM32F4xx_HAL_Driver/Src/stm32f4xx_hal_rtc_ex.c ****   * @brief  Handles Timestamp and Tamper interrupt request.
 602:Drivers/STM32F4xx_HAL_Driver/Src/stm32f4xx_hal_rtc_ex.c ****   * @param  hrtc pointer to a RTC_HandleTypeDef structure that contains
 603:Drivers/STM32F4xx_HAL_Driver/Src/stm32f4xx_hal_rtc_ex.c ****   *                the configuration information for RTC.
 604:Drivers/STM32F4xx_HAL_Driver/Src/stm32f4xx_hal_rtc_ex.c ****   * @retval None
 605:Drivers/STM32F4xx_HAL_Driver/Src/stm32f4xx_hal_rtc_ex.c ****   */
 606:Drivers/STM32F4xx_HAL_Driver/Src/stm32f4xx_hal_rtc_ex.c **** void HAL_RTCEx_TamperTimeStampIRQHandler(RTC_HandleTypeDef *hrtc)
 607:Drivers/STM32F4xx_HAL_Driver/Src/stm32f4xx_hal_rtc_ex.c **** {
 608:Drivers/STM32F4xx_HAL_Driver/Src/stm32f4xx_hal_rtc_ex.c ****   /* Get the Timestamp interrupt source enable status */
 609:Drivers/STM32F4xx_HAL_Driver/Src/stm32f4xx_hal_rtc_ex.c ****   if (__HAL_RTC_TIMESTAMP_GET_IT_SOURCE(hrtc, RTC_IT_TS) != 0U)
 610:Drivers/STM32F4xx_HAL_Driver/Src/stm32f4xx_hal_rtc_ex.c ****   {
ARM GAS  C:\Users\Administrator\AppData\Local\Temp\cczHSQjt.s 			page 28


 611:Drivers/STM32F4xx_HAL_Driver/Src/stm32f4xx_hal_rtc_ex.c ****     /* Get the pending status of the Timestamp Interrupt */
 612:Drivers/STM32F4xx_HAL_Driver/Src/stm32f4xx_hal_rtc_ex.c ****     if (__HAL_RTC_TIMESTAMP_GET_FLAG(hrtc, RTC_FLAG_TSF) != 0U)
 613:Drivers/STM32F4xx_HAL_Driver/Src/stm32f4xx_hal_rtc_ex.c ****     {
 614:Drivers/STM32F4xx_HAL_Driver/Src/stm32f4xx_hal_rtc_ex.c ****       /* Timestamp callback */
 615:Drivers/STM32F4xx_HAL_Driver/Src/stm32f4xx_hal_rtc_ex.c **** #if (USE_HAL_RTC_REGISTER_CALLBACKS == 1)
 616:Drivers/STM32F4xx_HAL_Driver/Src/stm32f4xx_hal_rtc_ex.c ****       hrtc->TimeStampEventCallback(hrtc);
 617:Drivers/STM32F4xx_HAL_Driver/Src/stm32f4xx_hal_rtc_ex.c **** #else
 618:Drivers/STM32F4xx_HAL_Driver/Src/stm32f4xx_hal_rtc_ex.c ****       HAL_RTCEx_TimeStampEventCallback(hrtc);
 619:Drivers/STM32F4xx_HAL_Driver/Src/stm32f4xx_hal_rtc_ex.c **** #endif /* USE_HAL_RTC_REGISTER_CALLBACKS */
 620:Drivers/STM32F4xx_HAL_Driver/Src/stm32f4xx_hal_rtc_ex.c **** 
 621:Drivers/STM32F4xx_HAL_Driver/Src/stm32f4xx_hal_rtc_ex.c ****       /* Clear the Timestamp interrupt pending bit */
 622:Drivers/STM32F4xx_HAL_Driver/Src/stm32f4xx_hal_rtc_ex.c ****       __HAL_RTC_TIMESTAMP_CLEAR_FLAG(hrtc, RTC_FLAG_TSF);
 623:Drivers/STM32F4xx_HAL_Driver/Src/stm32f4xx_hal_rtc_ex.c ****     }
 624:Drivers/STM32F4xx_HAL_Driver/Src/stm32f4xx_hal_rtc_ex.c ****   }
 625:Drivers/STM32F4xx_HAL_Driver/Src/stm32f4xx_hal_rtc_ex.c **** 
 626:Drivers/STM32F4xx_HAL_Driver/Src/stm32f4xx_hal_rtc_ex.c ****   /* Get the Tamper 1 interrupt source enable status */
 627:Drivers/STM32F4xx_HAL_Driver/Src/stm32f4xx_hal_rtc_ex.c ****   if (__HAL_RTC_TAMPER_GET_IT_SOURCE(hrtc, RTC_IT_TAMP) != 0U)
 628:Drivers/STM32F4xx_HAL_Driver/Src/stm32f4xx_hal_rtc_ex.c ****   {
 629:Drivers/STM32F4xx_HAL_Driver/Src/stm32f4xx_hal_rtc_ex.c ****     /* Get the pending status of the Tamper 1 Interrupt */
 630:Drivers/STM32F4xx_HAL_Driver/Src/stm32f4xx_hal_rtc_ex.c ****     if (__HAL_RTC_TAMPER_GET_FLAG(hrtc, RTC_FLAG_TAMP1F) != 0U)
 631:Drivers/STM32F4xx_HAL_Driver/Src/stm32f4xx_hal_rtc_ex.c ****     {
 632:Drivers/STM32F4xx_HAL_Driver/Src/stm32f4xx_hal_rtc_ex.c ****       /* Tamper callback */
 633:Drivers/STM32F4xx_HAL_Driver/Src/stm32f4xx_hal_rtc_ex.c **** #if (USE_HAL_RTC_REGISTER_CALLBACKS == 1)
 634:Drivers/STM32F4xx_HAL_Driver/Src/stm32f4xx_hal_rtc_ex.c ****       hrtc->Tamper1EventCallback(hrtc);
 635:Drivers/STM32F4xx_HAL_Driver/Src/stm32f4xx_hal_rtc_ex.c **** #else
 636:Drivers/STM32F4xx_HAL_Driver/Src/stm32f4xx_hal_rtc_ex.c ****       HAL_RTCEx_Tamper1EventCallback(hrtc);
 637:Drivers/STM32F4xx_HAL_Driver/Src/stm32f4xx_hal_rtc_ex.c **** #endif /* USE_HAL_RTC_REGISTER_CALLBACKS */
 638:Drivers/STM32F4xx_HAL_Driver/Src/stm32f4xx_hal_rtc_ex.c **** 
 639:Drivers/STM32F4xx_HAL_Driver/Src/stm32f4xx_hal_rtc_ex.c ****       /* Clear the Tamper interrupt pending bit */
 640:Drivers/STM32F4xx_HAL_Driver/Src/stm32f4xx_hal_rtc_ex.c ****       __HAL_RTC_TAMPER_CLEAR_FLAG(hrtc, RTC_FLAG_TAMP1F);
 641:Drivers/STM32F4xx_HAL_Driver/Src/stm32f4xx_hal_rtc_ex.c ****     }
 642:Drivers/STM32F4xx_HAL_Driver/Src/stm32f4xx_hal_rtc_ex.c ****   }
 643:Drivers/STM32F4xx_HAL_Driver/Src/stm32f4xx_hal_rtc_ex.c **** 
 644:Drivers/STM32F4xx_HAL_Driver/Src/stm32f4xx_hal_rtc_ex.c **** #if defined(RTC_TAMPER2_SUPPORT)
 645:Drivers/STM32F4xx_HAL_Driver/Src/stm32f4xx_hal_rtc_ex.c ****   /* Get the Tamper 2 interrupt source enable status */
 646:Drivers/STM32F4xx_HAL_Driver/Src/stm32f4xx_hal_rtc_ex.c ****   if (__HAL_RTC_TAMPER_GET_IT_SOURCE(hrtc, RTC_IT_TAMP) != 0U)
 647:Drivers/STM32F4xx_HAL_Driver/Src/stm32f4xx_hal_rtc_ex.c ****   {
 648:Drivers/STM32F4xx_HAL_Driver/Src/stm32f4xx_hal_rtc_ex.c ****     /* Get the pending status of the Tamper 2 Interrupt */
 649:Drivers/STM32F4xx_HAL_Driver/Src/stm32f4xx_hal_rtc_ex.c ****     if (__HAL_RTC_TAMPER_GET_FLAG(hrtc, RTC_FLAG_TAMP2F) != 0U)
 650:Drivers/STM32F4xx_HAL_Driver/Src/stm32f4xx_hal_rtc_ex.c ****     {
 651:Drivers/STM32F4xx_HAL_Driver/Src/stm32f4xx_hal_rtc_ex.c ****       /* Tamper callback */
 652:Drivers/STM32F4xx_HAL_Driver/Src/stm32f4xx_hal_rtc_ex.c **** #if (USE_HAL_RTC_REGISTER_CALLBACKS == 1)
 653:Drivers/STM32F4xx_HAL_Driver/Src/stm32f4xx_hal_rtc_ex.c ****       hrtc->Tamper2EventCallback(hrtc);
 654:Drivers/STM32F4xx_HAL_Driver/Src/stm32f4xx_hal_rtc_ex.c **** #else
 655:Drivers/STM32F4xx_HAL_Driver/Src/stm32f4xx_hal_rtc_ex.c ****       HAL_RTCEx_Tamper2EventCallback(hrtc);
 656:Drivers/STM32F4xx_HAL_Driver/Src/stm32f4xx_hal_rtc_ex.c **** #endif /* USE_HAL_RTC_REGISTER_CALLBACKS */
 657:Drivers/STM32F4xx_HAL_Driver/Src/stm32f4xx_hal_rtc_ex.c **** 
 658:Drivers/STM32F4xx_HAL_Driver/Src/stm32f4xx_hal_rtc_ex.c ****       /* Clear the Tamper interrupt pending bit */
 659:Drivers/STM32F4xx_HAL_Driver/Src/stm32f4xx_hal_rtc_ex.c ****       __HAL_RTC_TAMPER_CLEAR_FLAG(hrtc, RTC_FLAG_TAMP2F);
 660:Drivers/STM32F4xx_HAL_Driver/Src/stm32f4xx_hal_rtc_ex.c ****     }
 661:Drivers/STM32F4xx_HAL_Driver/Src/stm32f4xx_hal_rtc_ex.c ****   }
 662:Drivers/STM32F4xx_HAL_Driver/Src/stm32f4xx_hal_rtc_ex.c **** #endif /* RTC_TAMPER2_SUPPORT */
 663:Drivers/STM32F4xx_HAL_Driver/Src/stm32f4xx_hal_rtc_ex.c **** 
 664:Drivers/STM32F4xx_HAL_Driver/Src/stm32f4xx_hal_rtc_ex.c ****   /* Clear the EXTI's Flag for RTC Timestamp and Tamper */
 665:Drivers/STM32F4xx_HAL_Driver/Src/stm32f4xx_hal_rtc_ex.c ****   __HAL_RTC_TAMPER_TIMESTAMP_EXTI_CLEAR_FLAG();
 666:Drivers/STM32F4xx_HAL_Driver/Src/stm32f4xx_hal_rtc_ex.c **** 
 667:Drivers/STM32F4xx_HAL_Driver/Src/stm32f4xx_hal_rtc_ex.c ****   /* Change RTC state */
ARM GAS  C:\Users\Administrator\AppData\Local\Temp\cczHSQjt.s 			page 29


 668:Drivers/STM32F4xx_HAL_Driver/Src/stm32f4xx_hal_rtc_ex.c ****   hrtc->State = HAL_RTC_STATE_READY;
 669:Drivers/STM32F4xx_HAL_Driver/Src/stm32f4xx_hal_rtc_ex.c **** }
 670:Drivers/STM32F4xx_HAL_Driver/Src/stm32f4xx_hal_rtc_ex.c **** 
 671:Drivers/STM32F4xx_HAL_Driver/Src/stm32f4xx_hal_rtc_ex.c **** /**
 672:Drivers/STM32F4xx_HAL_Driver/Src/stm32f4xx_hal_rtc_ex.c ****   * @brief  Timestamp callback.
 673:Drivers/STM32F4xx_HAL_Driver/Src/stm32f4xx_hal_rtc_ex.c ****   * @param  hrtc pointer to a RTC_HandleTypeDef structure that contains
 674:Drivers/STM32F4xx_HAL_Driver/Src/stm32f4xx_hal_rtc_ex.c ****   *                the configuration information for RTC.
 675:Drivers/STM32F4xx_HAL_Driver/Src/stm32f4xx_hal_rtc_ex.c ****   * @retval None
 676:Drivers/STM32F4xx_HAL_Driver/Src/stm32f4xx_hal_rtc_ex.c ****   */
 677:Drivers/STM32F4xx_HAL_Driver/Src/stm32f4xx_hal_rtc_ex.c **** __weak void HAL_RTCEx_TimeStampEventCallback(RTC_HandleTypeDef *hrtc)
 678:Drivers/STM32F4xx_HAL_Driver/Src/stm32f4xx_hal_rtc_ex.c **** {
 907              		.loc 1 678 1 is_stmt 1 view -0
 908              		.cfi_startproc
 909              		@ args = 0, pretend = 0, frame = 0
 910              		@ frame_needed = 0, uses_anonymous_args = 0
 911              		@ link register save eliminated.
 679:Drivers/STM32F4xx_HAL_Driver/Src/stm32f4xx_hal_rtc_ex.c ****   /* Prevent unused argument(s) compilation warning */
 680:Drivers/STM32F4xx_HAL_Driver/Src/stm32f4xx_hal_rtc_ex.c ****   UNUSED(hrtc);
 912              		.loc 1 680 3 view .LVU341
 681:Drivers/STM32F4xx_HAL_Driver/Src/stm32f4xx_hal_rtc_ex.c **** 
 682:Drivers/STM32F4xx_HAL_Driver/Src/stm32f4xx_hal_rtc_ex.c ****   /* NOTE: This function should not be modified, when the callback is needed,
 683:Drivers/STM32F4xx_HAL_Driver/Src/stm32f4xx_hal_rtc_ex.c ****            the HAL_RTCEx_TimeStampEventCallback could be implemented in the user file
 684:Drivers/STM32F4xx_HAL_Driver/Src/stm32f4xx_hal_rtc_ex.c ****   */
 685:Drivers/STM32F4xx_HAL_Driver/Src/stm32f4xx_hal_rtc_ex.c **** }
 913              		.loc 1 685 1 is_stmt 0 view .LVU342
 914 0000 7047     		bx	lr
 915              		.cfi_endproc
 916              	.LFE243:
 918              		.section	.text.HAL_RTCEx_Tamper1EventCallback,"ax",%progbits
 919              		.align	1
 920              		.weak	HAL_RTCEx_Tamper1EventCallback
 921              		.syntax unified
 922              		.thumb
 923              		.thumb_func
 925              	HAL_RTCEx_Tamper1EventCallback:
 926              	.LVL75:
 927              	.LFB244:
 686:Drivers/STM32F4xx_HAL_Driver/Src/stm32f4xx_hal_rtc_ex.c **** 
 687:Drivers/STM32F4xx_HAL_Driver/Src/stm32f4xx_hal_rtc_ex.c **** /**
 688:Drivers/STM32F4xx_HAL_Driver/Src/stm32f4xx_hal_rtc_ex.c ****   * @brief  Tamper 1 callback.
 689:Drivers/STM32F4xx_HAL_Driver/Src/stm32f4xx_hal_rtc_ex.c ****   * @param  hrtc pointer to a RTC_HandleTypeDef structure that contains
 690:Drivers/STM32F4xx_HAL_Driver/Src/stm32f4xx_hal_rtc_ex.c ****   *                the configuration information for RTC.
 691:Drivers/STM32F4xx_HAL_Driver/Src/stm32f4xx_hal_rtc_ex.c ****   * @retval None
 692:Drivers/STM32F4xx_HAL_Driver/Src/stm32f4xx_hal_rtc_ex.c ****   */
 693:Drivers/STM32F4xx_HAL_Driver/Src/stm32f4xx_hal_rtc_ex.c **** __weak void HAL_RTCEx_Tamper1EventCallback(RTC_HandleTypeDef *hrtc)
 694:Drivers/STM32F4xx_HAL_Driver/Src/stm32f4xx_hal_rtc_ex.c **** {
 928              		.loc 1 694 1 is_stmt 1 view -0
 929              		.cfi_startproc
 930              		@ args = 0, pretend = 0, frame = 0
 931              		@ frame_needed = 0, uses_anonymous_args = 0
 932              		@ link register save eliminated.
 695:Drivers/STM32F4xx_HAL_Driver/Src/stm32f4xx_hal_rtc_ex.c ****   /* Prevent unused argument(s) compilation warning */
 696:Drivers/STM32F4xx_HAL_Driver/Src/stm32f4xx_hal_rtc_ex.c ****   UNUSED(hrtc);
 933              		.loc 1 696 3 view .LVU344
 697:Drivers/STM32F4xx_HAL_Driver/Src/stm32f4xx_hal_rtc_ex.c **** 
 698:Drivers/STM32F4xx_HAL_Driver/Src/stm32f4xx_hal_rtc_ex.c ****   /* NOTE: This function should not be modified, when the callback is needed,
 699:Drivers/STM32F4xx_HAL_Driver/Src/stm32f4xx_hal_rtc_ex.c ****            the HAL_RTCEx_Tamper1EventCallback could be implemented in the user file
ARM GAS  C:\Users\Administrator\AppData\Local\Temp\cczHSQjt.s 			page 30


 700:Drivers/STM32F4xx_HAL_Driver/Src/stm32f4xx_hal_rtc_ex.c ****    */
 701:Drivers/STM32F4xx_HAL_Driver/Src/stm32f4xx_hal_rtc_ex.c **** }
 934              		.loc 1 701 1 is_stmt 0 view .LVU345
 935 0000 7047     		bx	lr
 936              		.cfi_endproc
 937              	.LFE244:
 939              		.section	.text.HAL_RTCEx_Tamper2EventCallback,"ax",%progbits
 940              		.align	1
 941              		.weak	HAL_RTCEx_Tamper2EventCallback
 942              		.syntax unified
 943              		.thumb
 944              		.thumb_func
 946              	HAL_RTCEx_Tamper2EventCallback:
 947              	.LVL76:
 948              	.LFB245:
 702:Drivers/STM32F4xx_HAL_Driver/Src/stm32f4xx_hal_rtc_ex.c **** 
 703:Drivers/STM32F4xx_HAL_Driver/Src/stm32f4xx_hal_rtc_ex.c **** #if defined(RTC_TAMPER2_SUPPORT)
 704:Drivers/STM32F4xx_HAL_Driver/Src/stm32f4xx_hal_rtc_ex.c **** /**
 705:Drivers/STM32F4xx_HAL_Driver/Src/stm32f4xx_hal_rtc_ex.c ****   * @brief  Tamper 2 callback.
 706:Drivers/STM32F4xx_HAL_Driver/Src/stm32f4xx_hal_rtc_ex.c ****   * @param  hrtc pointer to a RTC_HandleTypeDef structure that contains
 707:Drivers/STM32F4xx_HAL_Driver/Src/stm32f4xx_hal_rtc_ex.c ****   *                the configuration information for RTC.
 708:Drivers/STM32F4xx_HAL_Driver/Src/stm32f4xx_hal_rtc_ex.c ****   * @retval None
 709:Drivers/STM32F4xx_HAL_Driver/Src/stm32f4xx_hal_rtc_ex.c ****   */
 710:Drivers/STM32F4xx_HAL_Driver/Src/stm32f4xx_hal_rtc_ex.c **** __weak void HAL_RTCEx_Tamper2EventCallback(RTC_HandleTypeDef *hrtc)
 711:Drivers/STM32F4xx_HAL_Driver/Src/stm32f4xx_hal_rtc_ex.c **** {
 949              		.loc 1 711 1 is_stmt 1 view -0
 950              		.cfi_startproc
 951              		@ args = 0, pretend = 0, frame = 0
 952              		@ frame_needed = 0, uses_anonymous_args = 0
 953              		@ link register save eliminated.
 712:Drivers/STM32F4xx_HAL_Driver/Src/stm32f4xx_hal_rtc_ex.c ****   /* Prevent unused argument(s) compilation warning */
 713:Drivers/STM32F4xx_HAL_Driver/Src/stm32f4xx_hal_rtc_ex.c ****   UNUSED(hrtc);
 954              		.loc 1 713 3 view .LVU347
 714:Drivers/STM32F4xx_HAL_Driver/Src/stm32f4xx_hal_rtc_ex.c **** 
 715:Drivers/STM32F4xx_HAL_Driver/Src/stm32f4xx_hal_rtc_ex.c ****   /* NOTE: This function should not be modified, when the callback is needed,
 716:Drivers/STM32F4xx_HAL_Driver/Src/stm32f4xx_hal_rtc_ex.c ****            the HAL_RTCEx_Tamper2EventCallback could be implemented in the user file
 717:Drivers/STM32F4xx_HAL_Driver/Src/stm32f4xx_hal_rtc_ex.c ****    */
 718:Drivers/STM32F4xx_HAL_Driver/Src/stm32f4xx_hal_rtc_ex.c **** }
 955              		.loc 1 718 1 is_stmt 0 view .LVU348
 956 0000 7047     		bx	lr
 957              		.cfi_endproc
 958              	.LFE245:
 960              		.section	.text.HAL_RTCEx_TamperTimeStampIRQHandler,"ax",%progbits
 961              		.align	1
 962              		.global	HAL_RTCEx_TamperTimeStampIRQHandler
 963              		.syntax unified
 964              		.thumb
 965              		.thumb_func
 967              	HAL_RTCEx_TamperTimeStampIRQHandler:
 968              	.LVL77:
 969              	.LFB242:
 607:Drivers/STM32F4xx_HAL_Driver/Src/stm32f4xx_hal_rtc_ex.c ****   /* Get the Timestamp interrupt source enable status */
 970              		.loc 1 607 1 is_stmt 1 view -0
 971              		.cfi_startproc
 972              		@ args = 0, pretend = 0, frame = 0
 973              		@ frame_needed = 0, uses_anonymous_args = 0
 607:Drivers/STM32F4xx_HAL_Driver/Src/stm32f4xx_hal_rtc_ex.c ****   /* Get the Timestamp interrupt source enable status */
ARM GAS  C:\Users\Administrator\AppData\Local\Temp\cczHSQjt.s 			page 31


 974              		.loc 1 607 1 is_stmt 0 view .LVU350
 975 0000 10B5     		push	{r4, lr}
 976              		.cfi_def_cfa_offset 8
 977              		.cfi_offset 4, -8
 978              		.cfi_offset 14, -4
 979 0002 0446     		mov	r4, r0
 609:Drivers/STM32F4xx_HAL_Driver/Src/stm32f4xx_hal_rtc_ex.c ****   {
 980              		.loc 1 609 3 is_stmt 1 view .LVU351
 609:Drivers/STM32F4xx_HAL_Driver/Src/stm32f4xx_hal_rtc_ex.c ****   {
 981              		.loc 1 609 7 is_stmt 0 view .LVU352
 982 0004 0368     		ldr	r3, [r0]
 983 0006 9A68     		ldr	r2, [r3, #8]
 609:Drivers/STM32F4xx_HAL_Driver/Src/stm32f4xx_hal_rtc_ex.c ****   {
 984              		.loc 1 609 6 view .LVU353
 985 0008 12F4004F 		tst	r2, #32768
 986 000c 03D0     		beq	.L53
 612:Drivers/STM32F4xx_HAL_Driver/Src/stm32f4xx_hal_rtc_ex.c ****     {
 987              		.loc 1 612 5 is_stmt 1 view .LVU354
 612:Drivers/STM32F4xx_HAL_Driver/Src/stm32f4xx_hal_rtc_ex.c ****     {
 988              		.loc 1 612 9 is_stmt 0 view .LVU355
 989 000e DB68     		ldr	r3, [r3, #12]
 612:Drivers/STM32F4xx_HAL_Driver/Src/stm32f4xx_hal_rtc_ex.c ****     {
 990              		.loc 1 612 8 view .LVU356
 991 0010 13F4006F 		tst	r3, #2048
 992 0014 18D1     		bne	.L57
 993              	.LVL78:
 994              	.L53:
 627:Drivers/STM32F4xx_HAL_Driver/Src/stm32f4xx_hal_rtc_ex.c ****   {
 995              		.loc 1 627 3 is_stmt 1 view .LVU357
 627:Drivers/STM32F4xx_HAL_Driver/Src/stm32f4xx_hal_rtc_ex.c ****   {
 996              		.loc 1 627 7 is_stmt 0 view .LVU358
 997 0016 2368     		ldr	r3, [r4]
 998 0018 1A6C     		ldr	r2, [r3, #64]
 627:Drivers/STM32F4xx_HAL_Driver/Src/stm32f4xx_hal_rtc_ex.c ****   {
 999              		.loc 1 627 6 view .LVU359
 1000 001a 12F0040F 		tst	r2, #4
 1001 001e 03D0     		beq	.L54
 630:Drivers/STM32F4xx_HAL_Driver/Src/stm32f4xx_hal_rtc_ex.c ****     {
 1002              		.loc 1 630 5 is_stmt 1 view .LVU360
 630:Drivers/STM32F4xx_HAL_Driver/Src/stm32f4xx_hal_rtc_ex.c ****     {
 1003              		.loc 1 630 9 is_stmt 0 view .LVU361
 1004 0020 DB68     		ldr	r3, [r3, #12]
 630:Drivers/STM32F4xx_HAL_Driver/Src/stm32f4xx_hal_rtc_ex.c ****     {
 1005              		.loc 1 630 8 view .LVU362
 1006 0022 13F4005F 		tst	r3, #8192
 1007 0026 18D1     		bne	.L58
 1008              	.L54:
 646:Drivers/STM32F4xx_HAL_Driver/Src/stm32f4xx_hal_rtc_ex.c ****   {
 1009              		.loc 1 646 3 is_stmt 1 view .LVU363
 646:Drivers/STM32F4xx_HAL_Driver/Src/stm32f4xx_hal_rtc_ex.c ****   {
 1010              		.loc 1 646 7 is_stmt 0 view .LVU364
 1011 0028 2368     		ldr	r3, [r4]
 1012 002a 1A6C     		ldr	r2, [r3, #64]
 646:Drivers/STM32F4xx_HAL_Driver/Src/stm32f4xx_hal_rtc_ex.c ****   {
 1013              		.loc 1 646 6 view .LVU365
 1014 002c 12F0040F 		tst	r2, #4
 1015 0030 03D0     		beq	.L55
ARM GAS  C:\Users\Administrator\AppData\Local\Temp\cczHSQjt.s 			page 32


 649:Drivers/STM32F4xx_HAL_Driver/Src/stm32f4xx_hal_rtc_ex.c ****     {
 1016              		.loc 1 649 5 is_stmt 1 view .LVU366
 649:Drivers/STM32F4xx_HAL_Driver/Src/stm32f4xx_hal_rtc_ex.c ****     {
 1017              		.loc 1 649 9 is_stmt 0 view .LVU367
 1018 0032 DB68     		ldr	r3, [r3, #12]
 649:Drivers/STM32F4xx_HAL_Driver/Src/stm32f4xx_hal_rtc_ex.c ****     {
 1019              		.loc 1 649 8 view .LVU368
 1020 0034 13F4804F 		tst	r3, #16384
 1021 0038 19D1     		bne	.L59
 1022              	.L55:
 665:Drivers/STM32F4xx_HAL_Driver/Src/stm32f4xx_hal_rtc_ex.c **** 
 1023              		.loc 1 665 3 is_stmt 1 view .LVU369
 1024 003a 124B     		ldr	r3, .L60
 1025 003c 4FF40012 		mov	r2, #2097152
 1026 0040 5A61     		str	r2, [r3, #20]
 668:Drivers/STM32F4xx_HAL_Driver/Src/stm32f4xx_hal_rtc_ex.c **** }
 1027              		.loc 1 668 3 view .LVU370
 668:Drivers/STM32F4xx_HAL_Driver/Src/stm32f4xx_hal_rtc_ex.c **** }
 1028              		.loc 1 668 15 is_stmt 0 view .LVU371
 1029 0042 0123     		movs	r3, #1
 1030 0044 6377     		strb	r3, [r4, #29]
 669:Drivers/STM32F4xx_HAL_Driver/Src/stm32f4xx_hal_rtc_ex.c **** 
 1031              		.loc 1 669 1 view .LVU372
 1032 0046 10BD     		pop	{r4, pc}
 1033              	.LVL79:
 1034              	.L57:
 618:Drivers/STM32F4xx_HAL_Driver/Src/stm32f4xx_hal_rtc_ex.c **** #endif /* USE_HAL_RTC_REGISTER_CALLBACKS */
 1035              		.loc 1 618 7 is_stmt 1 view .LVU373
 1036 0048 FFF7FEFF 		bl	HAL_RTCEx_TimeStampEventCallback
 1037              	.LVL80:
 622:Drivers/STM32F4xx_HAL_Driver/Src/stm32f4xx_hal_rtc_ex.c ****     }
 1038              		.loc 1 622 7 view .LVU374
 1039 004c 2268     		ldr	r2, [r4]
 1040 004e D368     		ldr	r3, [r2, #12]
 1041 0050 DBB2     		uxtb	r3, r3
 1042 0052 63F40863 		orn	r3, r3, #2176
 1043 0056 D360     		str	r3, [r2, #12]
 1044 0058 DDE7     		b	.L53
 1045              	.L58:
 636:Drivers/STM32F4xx_HAL_Driver/Src/stm32f4xx_hal_rtc_ex.c **** #endif /* USE_HAL_RTC_REGISTER_CALLBACKS */
 1046              		.loc 1 636 7 view .LVU375
 1047 005a 2046     		mov	r0, r4
 1048 005c FFF7FEFF 		bl	HAL_RTCEx_Tamper1EventCallback
 1049              	.LVL81:
 640:Drivers/STM32F4xx_HAL_Driver/Src/stm32f4xx_hal_rtc_ex.c ****     }
 1050              		.loc 1 640 7 view .LVU376
 1051 0060 2268     		ldr	r2, [r4]
 1052 0062 D368     		ldr	r3, [r2, #12]
 1053 0064 DBB2     		uxtb	r3, r3
 1054 0066 63F40253 		orn	r3, r3, #8320
 1055 006a D360     		str	r3, [r2, #12]
 1056 006c DCE7     		b	.L54
 1057              	.L59:
 655:Drivers/STM32F4xx_HAL_Driver/Src/stm32f4xx_hal_rtc_ex.c **** #endif /* USE_HAL_RTC_REGISTER_CALLBACKS */
 1058              		.loc 1 655 7 view .LVU377
 1059 006e 2046     		mov	r0, r4
 1060 0070 FFF7FEFF 		bl	HAL_RTCEx_Tamper2EventCallback
ARM GAS  C:\Users\Administrator\AppData\Local\Temp\cczHSQjt.s 			page 33


 1061              	.LVL82:
 659:Drivers/STM32F4xx_HAL_Driver/Src/stm32f4xx_hal_rtc_ex.c ****     }
 1062              		.loc 1 659 7 view .LVU378
 1063 0074 2268     		ldr	r2, [r4]
 1064 0076 D368     		ldr	r3, [r2, #12]
 1065 0078 DBB2     		uxtb	r3, r3
 1066 007a 63F48143 		orn	r3, r3, #16512
 1067 007e D360     		str	r3, [r2, #12]
 1068 0080 DBE7     		b	.L55
 1069              	.L61:
 1070 0082 00BF     		.align	2
 1071              	.L60:
 1072 0084 003C0140 		.word	1073822720
 1073              		.cfi_endproc
 1074              	.LFE242:
 1076              		.section	.text.HAL_RTCEx_PollForTimeStampEvent,"ax",%progbits
 1077              		.align	1
 1078              		.global	HAL_RTCEx_PollForTimeStampEvent
 1079              		.syntax unified
 1080              		.thumb
 1081              		.thumb_func
 1083              	HAL_RTCEx_PollForTimeStampEvent:
 1084              	.LVL83:
 1085              	.LFB246:
 719:Drivers/STM32F4xx_HAL_Driver/Src/stm32f4xx_hal_rtc_ex.c **** #endif /* RTC_TAMPER2_SUPPORT */
 720:Drivers/STM32F4xx_HAL_Driver/Src/stm32f4xx_hal_rtc_ex.c **** 
 721:Drivers/STM32F4xx_HAL_Driver/Src/stm32f4xx_hal_rtc_ex.c **** /**
 722:Drivers/STM32F4xx_HAL_Driver/Src/stm32f4xx_hal_rtc_ex.c ****   * @brief  Handles Timestamp polling request.
 723:Drivers/STM32F4xx_HAL_Driver/Src/stm32f4xx_hal_rtc_ex.c ****   * @param  hrtc pointer to a RTC_HandleTypeDef structure that contains
 724:Drivers/STM32F4xx_HAL_Driver/Src/stm32f4xx_hal_rtc_ex.c ****   *                the configuration information for RTC.
 725:Drivers/STM32F4xx_HAL_Driver/Src/stm32f4xx_hal_rtc_ex.c ****   * @param  Timeout Timeout duration
 726:Drivers/STM32F4xx_HAL_Driver/Src/stm32f4xx_hal_rtc_ex.c ****   * @retval HAL status
 727:Drivers/STM32F4xx_HAL_Driver/Src/stm32f4xx_hal_rtc_ex.c ****   */
 728:Drivers/STM32F4xx_HAL_Driver/Src/stm32f4xx_hal_rtc_ex.c **** HAL_StatusTypeDef HAL_RTCEx_PollForTimeStampEvent(RTC_HandleTypeDef *hrtc, uint32_t Timeout)
 729:Drivers/STM32F4xx_HAL_Driver/Src/stm32f4xx_hal_rtc_ex.c **** {
 1086              		.loc 1 729 1 view -0
 1087              		.cfi_startproc
 1088              		@ args = 0, pretend = 0, frame = 0
 1089              		@ frame_needed = 0, uses_anonymous_args = 0
 1090              		.loc 1 729 1 is_stmt 0 view .LVU380
 1091 0000 70B5     		push	{r4, r5, r6, lr}
 1092              		.cfi_def_cfa_offset 16
 1093              		.cfi_offset 4, -16
 1094              		.cfi_offset 5, -12
 1095              		.cfi_offset 6, -8
 1096              		.cfi_offset 14, -4
 1097 0002 0546     		mov	r5, r0
 1098 0004 0C46     		mov	r4, r1
 730:Drivers/STM32F4xx_HAL_Driver/Src/stm32f4xx_hal_rtc_ex.c ****   uint32_t tickstart = 0U;
 1099              		.loc 1 730 3 is_stmt 1 view .LVU381
 1100              	.LVL84:
 731:Drivers/STM32F4xx_HAL_Driver/Src/stm32f4xx_hal_rtc_ex.c **** 
 732:Drivers/STM32F4xx_HAL_Driver/Src/stm32f4xx_hal_rtc_ex.c ****   /* Get tick */
 733:Drivers/STM32F4xx_HAL_Driver/Src/stm32f4xx_hal_rtc_ex.c ****   tickstart = HAL_GetTick();
 1101              		.loc 1 733 3 view .LVU382
 1102              		.loc 1 733 15 is_stmt 0 view .LVU383
 1103 0006 FFF7FEFF 		bl	HAL_GetTick
ARM GAS  C:\Users\Administrator\AppData\Local\Temp\cczHSQjt.s 			page 34


 1104              	.LVL85:
 1105              		.loc 1 733 15 view .LVU384
 1106 000a 0646     		mov	r6, r0
 1107              	.LVL86:
 734:Drivers/STM32F4xx_HAL_Driver/Src/stm32f4xx_hal_rtc_ex.c **** 
 735:Drivers/STM32F4xx_HAL_Driver/Src/stm32f4xx_hal_rtc_ex.c ****   while (__HAL_RTC_TIMESTAMP_GET_FLAG(hrtc, RTC_FLAG_TSF) == 0U)
 1108              		.loc 1 735 3 is_stmt 1 view .LVU385
 1109              		.loc 1 735 9 is_stmt 0 view .LVU386
 1110 000c 04E0     		b	.L63
 1111              	.LVL87:
 1112              	.L64:
 736:Drivers/STM32F4xx_HAL_Driver/Src/stm32f4xx_hal_rtc_ex.c ****   {
 737:Drivers/STM32F4xx_HAL_Driver/Src/stm32f4xx_hal_rtc_ex.c ****     if (Timeout != HAL_MAX_DELAY)
 738:Drivers/STM32F4xx_HAL_Driver/Src/stm32f4xx_hal_rtc_ex.c ****     {
 739:Drivers/STM32F4xx_HAL_Driver/Src/stm32f4xx_hal_rtc_ex.c ****       if ((Timeout == 0U) || ((HAL_GetTick() - tickstart) > Timeout))
 740:Drivers/STM32F4xx_HAL_Driver/Src/stm32f4xx_hal_rtc_ex.c ****       {
 741:Drivers/STM32F4xx_HAL_Driver/Src/stm32f4xx_hal_rtc_ex.c ****         hrtc->State = HAL_RTC_STATE_TIMEOUT;
 742:Drivers/STM32F4xx_HAL_Driver/Src/stm32f4xx_hal_rtc_ex.c ****         return HAL_TIMEOUT;
 743:Drivers/STM32F4xx_HAL_Driver/Src/stm32f4xx_hal_rtc_ex.c ****       }
 744:Drivers/STM32F4xx_HAL_Driver/Src/stm32f4xx_hal_rtc_ex.c ****     }
 745:Drivers/STM32F4xx_HAL_Driver/Src/stm32f4xx_hal_rtc_ex.c **** 
 746:Drivers/STM32F4xx_HAL_Driver/Src/stm32f4xx_hal_rtc_ex.c ****     if (__HAL_RTC_TIMESTAMP_GET_FLAG(hrtc, RTC_FLAG_TSOVF) != 0U)
 1113              		.loc 1 746 5 is_stmt 1 view .LVU387
 1114              		.loc 1 746 9 is_stmt 0 view .LVU388
 1115 000e 2B68     		ldr	r3, [r5]
 1116 0010 DA68     		ldr	r2, [r3, #12]
 1117              		.loc 1 746 8 view .LVU389
 1118 0012 12F4805F 		tst	r2, #4096
 1119 0016 10D1     		bne	.L69
 1120              	.L63:
 735:Drivers/STM32F4xx_HAL_Driver/Src/stm32f4xx_hal_rtc_ex.c ****   {
 1121              		.loc 1 735 59 is_stmt 1 view .LVU390
 735:Drivers/STM32F4xx_HAL_Driver/Src/stm32f4xx_hal_rtc_ex.c ****   {
 1122              		.loc 1 735 10 is_stmt 0 view .LVU391
 1123 0018 2B68     		ldr	r3, [r5]
 1124 001a DB68     		ldr	r3, [r3, #12]
 735:Drivers/STM32F4xx_HAL_Driver/Src/stm32f4xx_hal_rtc_ex.c ****   {
 1125              		.loc 1 735 59 view .LVU392
 1126 001c 13F4006F 		tst	r3, #2048
 1127 0020 14D1     		bne	.L70
 737:Drivers/STM32F4xx_HAL_Driver/Src/stm32f4xx_hal_rtc_ex.c ****     {
 1128              		.loc 1 737 5 is_stmt 1 view .LVU393
 737:Drivers/STM32F4xx_HAL_Driver/Src/stm32f4xx_hal_rtc_ex.c ****     {
 1129              		.loc 1 737 8 is_stmt 0 view .LVU394
 1130 0022 B4F1FF3F 		cmp	r4, #-1
 1131 0026 F2D0     		beq	.L64
 739:Drivers/STM32F4xx_HAL_Driver/Src/stm32f4xx_hal_rtc_ex.c ****       {
 1132              		.loc 1 739 7 is_stmt 1 view .LVU395
 739:Drivers/STM32F4xx_HAL_Driver/Src/stm32f4xx_hal_rtc_ex.c ****       {
 1133              		.loc 1 739 10 is_stmt 0 view .LVU396
 1134 0028 24B1     		cbz	r4, .L65
 739:Drivers/STM32F4xx_HAL_Driver/Src/stm32f4xx_hal_rtc_ex.c ****       {
 1135              		.loc 1 739 32 discriminator 1 view .LVU397
 1136 002a FFF7FEFF 		bl	HAL_GetTick
 1137              	.LVL88:
 739:Drivers/STM32F4xx_HAL_Driver/Src/stm32f4xx_hal_rtc_ex.c ****       {
 1138              		.loc 1 739 46 discriminator 2 view .LVU398
ARM GAS  C:\Users\Administrator\AppData\Local\Temp\cczHSQjt.s 			page 35


 1139 002e 831B     		subs	r3, r0, r6
 739:Drivers/STM32F4xx_HAL_Driver/Src/stm32f4xx_hal_rtc_ex.c ****       {
 1140              		.loc 1 739 27 discriminator 2 view .LVU399
 1141 0030 A342     		cmp	r3, r4
 1142 0032 ECD9     		bls	.L64
 1143              	.L65:
 741:Drivers/STM32F4xx_HAL_Driver/Src/stm32f4xx_hal_rtc_ex.c ****         return HAL_TIMEOUT;
 1144              		.loc 1 741 9 is_stmt 1 view .LVU400
 741:Drivers/STM32F4xx_HAL_Driver/Src/stm32f4xx_hal_rtc_ex.c ****         return HAL_TIMEOUT;
 1145              		.loc 1 741 21 is_stmt 0 view .LVU401
 1146 0034 0320     		movs	r0, #3
 1147 0036 6877     		strb	r0, [r5, #29]
 742:Drivers/STM32F4xx_HAL_Driver/Src/stm32f4xx_hal_rtc_ex.c ****       }
 1148              		.loc 1 742 9 is_stmt 1 view .LVU402
 1149              	.L66:
 747:Drivers/STM32F4xx_HAL_Driver/Src/stm32f4xx_hal_rtc_ex.c ****     {
 748:Drivers/STM32F4xx_HAL_Driver/Src/stm32f4xx_hal_rtc_ex.c ****       /* Clear the Timestamp Overrun Flag */
 749:Drivers/STM32F4xx_HAL_Driver/Src/stm32f4xx_hal_rtc_ex.c ****       __HAL_RTC_TIMESTAMP_CLEAR_FLAG(hrtc, RTC_FLAG_TSOVF);
 750:Drivers/STM32F4xx_HAL_Driver/Src/stm32f4xx_hal_rtc_ex.c **** 
 751:Drivers/STM32F4xx_HAL_Driver/Src/stm32f4xx_hal_rtc_ex.c ****       /* Change Timestamp state */
 752:Drivers/STM32F4xx_HAL_Driver/Src/stm32f4xx_hal_rtc_ex.c ****       hrtc->State = HAL_RTC_STATE_ERROR;
 753:Drivers/STM32F4xx_HAL_Driver/Src/stm32f4xx_hal_rtc_ex.c **** 
 754:Drivers/STM32F4xx_HAL_Driver/Src/stm32f4xx_hal_rtc_ex.c ****       return HAL_ERROR;
 755:Drivers/STM32F4xx_HAL_Driver/Src/stm32f4xx_hal_rtc_ex.c ****     }
 756:Drivers/STM32F4xx_HAL_Driver/Src/stm32f4xx_hal_rtc_ex.c ****   }
 757:Drivers/STM32F4xx_HAL_Driver/Src/stm32f4xx_hal_rtc_ex.c **** 
 758:Drivers/STM32F4xx_HAL_Driver/Src/stm32f4xx_hal_rtc_ex.c ****   /* Change RTC state */
 759:Drivers/STM32F4xx_HAL_Driver/Src/stm32f4xx_hal_rtc_ex.c ****   hrtc->State = HAL_RTC_STATE_READY;
 760:Drivers/STM32F4xx_HAL_Driver/Src/stm32f4xx_hal_rtc_ex.c **** 
 761:Drivers/STM32F4xx_HAL_Driver/Src/stm32f4xx_hal_rtc_ex.c ****   return HAL_OK;
 762:Drivers/STM32F4xx_HAL_Driver/Src/stm32f4xx_hal_rtc_ex.c **** }
 1150              		.loc 1 762 1 is_stmt 0 view .LVU403
 1151 0038 70BD     		pop	{r4, r5, r6, pc}
 1152              	.LVL89:
 1153              	.L69:
 749:Drivers/STM32F4xx_HAL_Driver/Src/stm32f4xx_hal_rtc_ex.c **** 
 1154              		.loc 1 749 7 is_stmt 1 view .LVU404
 1155 003a DA68     		ldr	r2, [r3, #12]
 1156 003c D2B2     		uxtb	r2, r2
 1157 003e 62F48452 		orn	r2, r2, #4224
 1158 0042 DA60     		str	r2, [r3, #12]
 752:Drivers/STM32F4xx_HAL_Driver/Src/stm32f4xx_hal_rtc_ex.c **** 
 1159              		.loc 1 752 7 view .LVU405
 752:Drivers/STM32F4xx_HAL_Driver/Src/stm32f4xx_hal_rtc_ex.c **** 
 1160              		.loc 1 752 19 is_stmt 0 view .LVU406
 1161 0044 0423     		movs	r3, #4
 1162 0046 6B77     		strb	r3, [r5, #29]
 754:Drivers/STM32F4xx_HAL_Driver/Src/stm32f4xx_hal_rtc_ex.c ****     }
 1163              		.loc 1 754 7 is_stmt 1 view .LVU407
 754:Drivers/STM32F4xx_HAL_Driver/Src/stm32f4xx_hal_rtc_ex.c ****     }
 1164              		.loc 1 754 14 is_stmt 0 view .LVU408
 1165 0048 0120     		movs	r0, #1
 1166 004a F5E7     		b	.L66
 1167              	.L70:
 759:Drivers/STM32F4xx_HAL_Driver/Src/stm32f4xx_hal_rtc_ex.c **** 
 1168              		.loc 1 759 3 is_stmt 1 view .LVU409
 759:Drivers/STM32F4xx_HAL_Driver/Src/stm32f4xx_hal_rtc_ex.c **** 
ARM GAS  C:\Users\Administrator\AppData\Local\Temp\cczHSQjt.s 			page 36


 1169              		.loc 1 759 15 is_stmt 0 view .LVU410
 1170 004c 0123     		movs	r3, #1
 1171 004e 6B77     		strb	r3, [r5, #29]
 761:Drivers/STM32F4xx_HAL_Driver/Src/stm32f4xx_hal_rtc_ex.c **** }
 1172              		.loc 1 761 3 is_stmt 1 view .LVU411
 761:Drivers/STM32F4xx_HAL_Driver/Src/stm32f4xx_hal_rtc_ex.c **** }
 1173              		.loc 1 761 10 is_stmt 0 view .LVU412
 1174 0050 0020     		movs	r0, #0
 1175 0052 F1E7     		b	.L66
 1176              		.cfi_endproc
 1177              	.LFE246:
 1179              		.section	.text.HAL_RTCEx_PollForTamper1Event,"ax",%progbits
 1180              		.align	1
 1181              		.global	HAL_RTCEx_PollForTamper1Event
 1182              		.syntax unified
 1183              		.thumb
 1184              		.thumb_func
 1186              	HAL_RTCEx_PollForTamper1Event:
 1187              	.LVL90:
 1188              	.LFB247:
 763:Drivers/STM32F4xx_HAL_Driver/Src/stm32f4xx_hal_rtc_ex.c **** 
 764:Drivers/STM32F4xx_HAL_Driver/Src/stm32f4xx_hal_rtc_ex.c **** /**
 765:Drivers/STM32F4xx_HAL_Driver/Src/stm32f4xx_hal_rtc_ex.c ****   * @brief  Handles Tamper 1 Polling.
 766:Drivers/STM32F4xx_HAL_Driver/Src/stm32f4xx_hal_rtc_ex.c ****   * @param  hrtc pointer to a RTC_HandleTypeDef structure that contains
 767:Drivers/STM32F4xx_HAL_Driver/Src/stm32f4xx_hal_rtc_ex.c ****   *                the configuration information for RTC.
 768:Drivers/STM32F4xx_HAL_Driver/Src/stm32f4xx_hal_rtc_ex.c ****   * @param  Timeout Timeout duration
 769:Drivers/STM32F4xx_HAL_Driver/Src/stm32f4xx_hal_rtc_ex.c ****   * @retval HAL status
 770:Drivers/STM32F4xx_HAL_Driver/Src/stm32f4xx_hal_rtc_ex.c ****   */
 771:Drivers/STM32F4xx_HAL_Driver/Src/stm32f4xx_hal_rtc_ex.c **** HAL_StatusTypeDef HAL_RTCEx_PollForTamper1Event(RTC_HandleTypeDef *hrtc, uint32_t Timeout)
 772:Drivers/STM32F4xx_HAL_Driver/Src/stm32f4xx_hal_rtc_ex.c **** {
 1189              		.loc 1 772 1 is_stmt 1 view -0
 1190              		.cfi_startproc
 1191              		@ args = 0, pretend = 0, frame = 0
 1192              		@ frame_needed = 0, uses_anonymous_args = 0
 1193              		.loc 1 772 1 is_stmt 0 view .LVU414
 1194 0000 70B5     		push	{r4, r5, r6, lr}
 1195              		.cfi_def_cfa_offset 16
 1196              		.cfi_offset 4, -16
 1197              		.cfi_offset 5, -12
 1198              		.cfi_offset 6, -8
 1199              		.cfi_offset 14, -4
 1200 0002 0446     		mov	r4, r0
 1201 0004 0D46     		mov	r5, r1
 773:Drivers/STM32F4xx_HAL_Driver/Src/stm32f4xx_hal_rtc_ex.c ****   uint32_t tickstart = 0U;
 1202              		.loc 1 773 3 is_stmt 1 view .LVU415
 1203              	.LVL91:
 774:Drivers/STM32F4xx_HAL_Driver/Src/stm32f4xx_hal_rtc_ex.c **** 
 775:Drivers/STM32F4xx_HAL_Driver/Src/stm32f4xx_hal_rtc_ex.c ****   /* Get tick */
 776:Drivers/STM32F4xx_HAL_Driver/Src/stm32f4xx_hal_rtc_ex.c ****   tickstart = HAL_GetTick();
 1204              		.loc 1 776 3 view .LVU416
 1205              		.loc 1 776 15 is_stmt 0 view .LVU417
 1206 0006 FFF7FEFF 		bl	HAL_GetTick
 1207              	.LVL92:
 1208              		.loc 1 776 15 view .LVU418
 1209 000a 0646     		mov	r6, r0
 1210              	.LVL93:
 777:Drivers/STM32F4xx_HAL_Driver/Src/stm32f4xx_hal_rtc_ex.c **** 
ARM GAS  C:\Users\Administrator\AppData\Local\Temp\cczHSQjt.s 			page 37


 778:Drivers/STM32F4xx_HAL_Driver/Src/stm32f4xx_hal_rtc_ex.c ****   /* Get the status of the Interrupt */
 779:Drivers/STM32F4xx_HAL_Driver/Src/stm32f4xx_hal_rtc_ex.c ****   while (__HAL_RTC_TAMPER_GET_FLAG(hrtc, RTC_FLAG_TAMP1F) == 0U)
 1211              		.loc 1 779 3 is_stmt 1 view .LVU419
 1212              	.L73:
 1213              		.loc 1 779 59 view .LVU420
 1214              		.loc 1 779 10 is_stmt 0 view .LVU421
 1215 000c 2368     		ldr	r3, [r4]
 1216 000e DA68     		ldr	r2, [r3, #12]
 1217              		.loc 1 779 59 view .LVU422
 1218 0010 12F4005F 		tst	r2, #8192
 1219 0014 0BD1     		bne	.L78
 780:Drivers/STM32F4xx_HAL_Driver/Src/stm32f4xx_hal_rtc_ex.c ****   {
 781:Drivers/STM32F4xx_HAL_Driver/Src/stm32f4xx_hal_rtc_ex.c ****     if (Timeout != HAL_MAX_DELAY)
 1220              		.loc 1 781 5 is_stmt 1 view .LVU423
 1221              		.loc 1 781 8 is_stmt 0 view .LVU424
 1222 0016 B5F1FF3F 		cmp	r5, #-1
 1223 001a F7D0     		beq	.L73
 782:Drivers/STM32F4xx_HAL_Driver/Src/stm32f4xx_hal_rtc_ex.c ****     {
 783:Drivers/STM32F4xx_HAL_Driver/Src/stm32f4xx_hal_rtc_ex.c ****       if ((Timeout == 0U) || ((HAL_GetTick() - tickstart) > Timeout))
 1224              		.loc 1 783 7 is_stmt 1 view .LVU425
 1225              		.loc 1 783 10 is_stmt 0 view .LVU426
 1226 001c 25B1     		cbz	r5, .L74
 1227              		.loc 1 783 32 discriminator 1 view .LVU427
 1228 001e FFF7FEFF 		bl	HAL_GetTick
 1229              	.LVL94:
 1230              		.loc 1 783 46 discriminator 2 view .LVU428
 1231 0022 801B     		subs	r0, r0, r6
 1232              		.loc 1 783 27 discriminator 2 view .LVU429
 1233 0024 A842     		cmp	r0, r5
 1234 0026 F1D9     		bls	.L73
 1235              	.L74:
 784:Drivers/STM32F4xx_HAL_Driver/Src/stm32f4xx_hal_rtc_ex.c ****       {
 785:Drivers/STM32F4xx_HAL_Driver/Src/stm32f4xx_hal_rtc_ex.c ****         hrtc->State = HAL_RTC_STATE_TIMEOUT;
 1236              		.loc 1 785 9 is_stmt 1 view .LVU430
 1237              		.loc 1 785 21 is_stmt 0 view .LVU431
 1238 0028 0320     		movs	r0, #3
 1239 002a 6077     		strb	r0, [r4, #29]
 786:Drivers/STM32F4xx_HAL_Driver/Src/stm32f4xx_hal_rtc_ex.c ****         return HAL_TIMEOUT;
 1240              		.loc 1 786 9 is_stmt 1 view .LVU432
 1241              		.loc 1 786 16 is_stmt 0 view .LVU433
 1242 002c 07E0     		b	.L75
 1243              	.L78:
 787:Drivers/STM32F4xx_HAL_Driver/Src/stm32f4xx_hal_rtc_ex.c ****       }
 788:Drivers/STM32F4xx_HAL_Driver/Src/stm32f4xx_hal_rtc_ex.c ****     }
 789:Drivers/STM32F4xx_HAL_Driver/Src/stm32f4xx_hal_rtc_ex.c ****   }
 790:Drivers/STM32F4xx_HAL_Driver/Src/stm32f4xx_hal_rtc_ex.c **** 
 791:Drivers/STM32F4xx_HAL_Driver/Src/stm32f4xx_hal_rtc_ex.c ****   /* Clear the Tamper Flag */
 792:Drivers/STM32F4xx_HAL_Driver/Src/stm32f4xx_hal_rtc_ex.c ****   __HAL_RTC_TAMPER_CLEAR_FLAG(hrtc, RTC_FLAG_TAMP1F);
 1244              		.loc 1 792 3 is_stmt 1 view .LVU434
 1245 002e DA68     		ldr	r2, [r3, #12]
 1246 0030 D2B2     		uxtb	r2, r2
 1247 0032 62F40252 		orn	r2, r2, #8320
 1248 0036 DA60     		str	r2, [r3, #12]
 793:Drivers/STM32F4xx_HAL_Driver/Src/stm32f4xx_hal_rtc_ex.c **** 
 794:Drivers/STM32F4xx_HAL_Driver/Src/stm32f4xx_hal_rtc_ex.c ****   /* Change RTC state */
 795:Drivers/STM32F4xx_HAL_Driver/Src/stm32f4xx_hal_rtc_ex.c ****   hrtc->State = HAL_RTC_STATE_READY;
 1249              		.loc 1 795 3 view .LVU435
ARM GAS  C:\Users\Administrator\AppData\Local\Temp\cczHSQjt.s 			page 38


 1250              		.loc 1 795 15 is_stmt 0 view .LVU436
 1251 0038 0123     		movs	r3, #1
 1252 003a 6377     		strb	r3, [r4, #29]
 796:Drivers/STM32F4xx_HAL_Driver/Src/stm32f4xx_hal_rtc_ex.c **** 
 797:Drivers/STM32F4xx_HAL_Driver/Src/stm32f4xx_hal_rtc_ex.c ****   return HAL_OK;
 1253              		.loc 1 797 3 is_stmt 1 view .LVU437
 1254              		.loc 1 797 10 is_stmt 0 view .LVU438
 1255 003c 0020     		movs	r0, #0
 1256              	.L75:
 798:Drivers/STM32F4xx_HAL_Driver/Src/stm32f4xx_hal_rtc_ex.c **** }
 1257              		.loc 1 798 1 view .LVU439
 1258 003e 70BD     		pop	{r4, r5, r6, pc}
 1259              		.loc 1 798 1 view .LVU440
 1260              		.cfi_endproc
 1261              	.LFE247:
 1263              		.section	.text.HAL_RTCEx_PollForTamper2Event,"ax",%progbits
 1264              		.align	1
 1265              		.global	HAL_RTCEx_PollForTamper2Event
 1266              		.syntax unified
 1267              		.thumb
 1268              		.thumb_func
 1270              	HAL_RTCEx_PollForTamper2Event:
 1271              	.LVL95:
 1272              	.LFB248:
 799:Drivers/STM32F4xx_HAL_Driver/Src/stm32f4xx_hal_rtc_ex.c **** 
 800:Drivers/STM32F4xx_HAL_Driver/Src/stm32f4xx_hal_rtc_ex.c **** #if defined(RTC_TAMPER2_SUPPORT)
 801:Drivers/STM32F4xx_HAL_Driver/Src/stm32f4xx_hal_rtc_ex.c **** /**
 802:Drivers/STM32F4xx_HAL_Driver/Src/stm32f4xx_hal_rtc_ex.c ****   * @brief  Handles Tamper 2 Polling.
 803:Drivers/STM32F4xx_HAL_Driver/Src/stm32f4xx_hal_rtc_ex.c ****   * @param  hrtc pointer to a RTC_HandleTypeDef structure that contains
 804:Drivers/STM32F4xx_HAL_Driver/Src/stm32f4xx_hal_rtc_ex.c ****   *                the configuration information for RTC.
 805:Drivers/STM32F4xx_HAL_Driver/Src/stm32f4xx_hal_rtc_ex.c ****   * @param  Timeout Timeout duration
 806:Drivers/STM32F4xx_HAL_Driver/Src/stm32f4xx_hal_rtc_ex.c ****   * @retval HAL status
 807:Drivers/STM32F4xx_HAL_Driver/Src/stm32f4xx_hal_rtc_ex.c ****   */
 808:Drivers/STM32F4xx_HAL_Driver/Src/stm32f4xx_hal_rtc_ex.c **** HAL_StatusTypeDef HAL_RTCEx_PollForTamper2Event(RTC_HandleTypeDef *hrtc, uint32_t Timeout)
 809:Drivers/STM32F4xx_HAL_Driver/Src/stm32f4xx_hal_rtc_ex.c **** {
 1273              		.loc 1 809 1 is_stmt 1 view -0
 1274              		.cfi_startproc
 1275              		@ args = 0, pretend = 0, frame = 0
 1276              		@ frame_needed = 0, uses_anonymous_args = 0
 1277              		.loc 1 809 1 is_stmt 0 view .LVU442
 1278 0000 70B5     		push	{r4, r5, r6, lr}
 1279              		.cfi_def_cfa_offset 16
 1280              		.cfi_offset 4, -16
 1281              		.cfi_offset 5, -12
 1282              		.cfi_offset 6, -8
 1283              		.cfi_offset 14, -4
 1284 0002 0446     		mov	r4, r0
 1285 0004 0D46     		mov	r5, r1
 810:Drivers/STM32F4xx_HAL_Driver/Src/stm32f4xx_hal_rtc_ex.c ****   uint32_t tickstart = 0U;
 1286              		.loc 1 810 3 is_stmt 1 view .LVU443
 1287              	.LVL96:
 811:Drivers/STM32F4xx_HAL_Driver/Src/stm32f4xx_hal_rtc_ex.c **** 
 812:Drivers/STM32F4xx_HAL_Driver/Src/stm32f4xx_hal_rtc_ex.c ****   /* Get tick */
 813:Drivers/STM32F4xx_HAL_Driver/Src/stm32f4xx_hal_rtc_ex.c ****   tickstart = HAL_GetTick();
 1288              		.loc 1 813 3 view .LVU444
 1289              		.loc 1 813 15 is_stmt 0 view .LVU445
 1290 0006 FFF7FEFF 		bl	HAL_GetTick
ARM GAS  C:\Users\Administrator\AppData\Local\Temp\cczHSQjt.s 			page 39


 1291              	.LVL97:
 1292              		.loc 1 813 15 view .LVU446
 1293 000a 0646     		mov	r6, r0
 1294              	.LVL98:
 814:Drivers/STM32F4xx_HAL_Driver/Src/stm32f4xx_hal_rtc_ex.c **** 
 815:Drivers/STM32F4xx_HAL_Driver/Src/stm32f4xx_hal_rtc_ex.c ****   /* Get the status of the Interrupt */
 816:Drivers/STM32F4xx_HAL_Driver/Src/stm32f4xx_hal_rtc_ex.c ****   while (__HAL_RTC_TAMPER_GET_FLAG(hrtc, RTC_FLAG_TAMP2F) == 0U)
 1295              		.loc 1 816 3 is_stmt 1 view .LVU447
 1296              	.L81:
 1297              		.loc 1 816 59 view .LVU448
 1298              		.loc 1 816 10 is_stmt 0 view .LVU449
 1299 000c 2368     		ldr	r3, [r4]
 1300 000e DA68     		ldr	r2, [r3, #12]
 1301              		.loc 1 816 59 view .LVU450
 1302 0010 12F4804F 		tst	r2, #16384
 1303 0014 0BD1     		bne	.L86
 817:Drivers/STM32F4xx_HAL_Driver/Src/stm32f4xx_hal_rtc_ex.c ****   {
 818:Drivers/STM32F4xx_HAL_Driver/Src/stm32f4xx_hal_rtc_ex.c ****     if (Timeout != HAL_MAX_DELAY)
 1304              		.loc 1 818 5 is_stmt 1 view .LVU451
 1305              		.loc 1 818 8 is_stmt 0 view .LVU452
 1306 0016 B5F1FF3F 		cmp	r5, #-1
 1307 001a F7D0     		beq	.L81
 819:Drivers/STM32F4xx_HAL_Driver/Src/stm32f4xx_hal_rtc_ex.c ****     {
 820:Drivers/STM32F4xx_HAL_Driver/Src/stm32f4xx_hal_rtc_ex.c ****       if ((Timeout == 0U) || ((HAL_GetTick() - tickstart) > Timeout))
 1308              		.loc 1 820 7 is_stmt 1 view .LVU453
 1309              		.loc 1 820 10 is_stmt 0 view .LVU454
 1310 001c 25B1     		cbz	r5, .L82
 1311              		.loc 1 820 32 discriminator 1 view .LVU455
 1312 001e FFF7FEFF 		bl	HAL_GetTick
 1313              	.LVL99:
 1314              		.loc 1 820 46 discriminator 2 view .LVU456
 1315 0022 801B     		subs	r0, r0, r6
 1316              		.loc 1 820 27 discriminator 2 view .LVU457
 1317 0024 A842     		cmp	r0, r5
 1318 0026 F1D9     		bls	.L81
 1319              	.L82:
 821:Drivers/STM32F4xx_HAL_Driver/Src/stm32f4xx_hal_rtc_ex.c ****       {
 822:Drivers/STM32F4xx_HAL_Driver/Src/stm32f4xx_hal_rtc_ex.c ****         hrtc->State = HAL_RTC_STATE_TIMEOUT;
 1320              		.loc 1 822 9 is_stmt 1 view .LVU458
 1321              		.loc 1 822 21 is_stmt 0 view .LVU459
 1322 0028 0320     		movs	r0, #3
 1323 002a 6077     		strb	r0, [r4, #29]
 823:Drivers/STM32F4xx_HAL_Driver/Src/stm32f4xx_hal_rtc_ex.c ****         return HAL_TIMEOUT;
 1324              		.loc 1 823 9 is_stmt 1 view .LVU460
 1325              		.loc 1 823 16 is_stmt 0 view .LVU461
 1326 002c 07E0     		b	.L83
 1327              	.L86:
 824:Drivers/STM32F4xx_HAL_Driver/Src/stm32f4xx_hal_rtc_ex.c ****       }
 825:Drivers/STM32F4xx_HAL_Driver/Src/stm32f4xx_hal_rtc_ex.c ****     }
 826:Drivers/STM32F4xx_HAL_Driver/Src/stm32f4xx_hal_rtc_ex.c ****   }
 827:Drivers/STM32F4xx_HAL_Driver/Src/stm32f4xx_hal_rtc_ex.c **** 
 828:Drivers/STM32F4xx_HAL_Driver/Src/stm32f4xx_hal_rtc_ex.c ****   /* Clear the Tamper Flag */
 829:Drivers/STM32F4xx_HAL_Driver/Src/stm32f4xx_hal_rtc_ex.c ****   __HAL_RTC_TAMPER_CLEAR_FLAG(hrtc, RTC_FLAG_TAMP2F);
 1328              		.loc 1 829 3 is_stmt 1 view .LVU462
 1329 002e DA68     		ldr	r2, [r3, #12]
 1330 0030 D2B2     		uxtb	r2, r2
 1331 0032 62F48142 		orn	r2, r2, #16512
ARM GAS  C:\Users\Administrator\AppData\Local\Temp\cczHSQjt.s 			page 40


 1332 0036 DA60     		str	r2, [r3, #12]
 830:Drivers/STM32F4xx_HAL_Driver/Src/stm32f4xx_hal_rtc_ex.c **** 
 831:Drivers/STM32F4xx_HAL_Driver/Src/stm32f4xx_hal_rtc_ex.c ****   /* Change RTC state */
 832:Drivers/STM32F4xx_HAL_Driver/Src/stm32f4xx_hal_rtc_ex.c ****   hrtc->State = HAL_RTC_STATE_READY;
 1333              		.loc 1 832 3 view .LVU463
 1334              		.loc 1 832 15 is_stmt 0 view .LVU464
 1335 0038 0123     		movs	r3, #1
 1336 003a 6377     		strb	r3, [r4, #29]
 833:Drivers/STM32F4xx_HAL_Driver/Src/stm32f4xx_hal_rtc_ex.c **** 
 834:Drivers/STM32F4xx_HAL_Driver/Src/stm32f4xx_hal_rtc_ex.c ****   return HAL_OK;
 1337              		.loc 1 834 3 is_stmt 1 view .LVU465
 1338              		.loc 1 834 10 is_stmt 0 view .LVU466
 1339 003c 0020     		movs	r0, #0
 1340              	.L83:
 835:Drivers/STM32F4xx_HAL_Driver/Src/stm32f4xx_hal_rtc_ex.c **** }
 1341              		.loc 1 835 1 view .LVU467
 1342 003e 70BD     		pop	{r4, r5, r6, pc}
 1343              		.loc 1 835 1 view .LVU468
 1344              		.cfi_endproc
 1345              	.LFE248:
 1347              		.section	.text.HAL_RTCEx_SetWakeUpTimer,"ax",%progbits
 1348              		.align	1
 1349              		.global	HAL_RTCEx_SetWakeUpTimer
 1350              		.syntax unified
 1351              		.thumb
 1352              		.thumb_func
 1354              	HAL_RTCEx_SetWakeUpTimer:
 1355              	.LVL100:
 1356              	.LFB249:
 836:Drivers/STM32F4xx_HAL_Driver/Src/stm32f4xx_hal_rtc_ex.c **** #endif /* RTC_TAMPER2_SUPPORT */
 837:Drivers/STM32F4xx_HAL_Driver/Src/stm32f4xx_hal_rtc_ex.c **** 
 838:Drivers/STM32F4xx_HAL_Driver/Src/stm32f4xx_hal_rtc_ex.c **** /**
 839:Drivers/STM32F4xx_HAL_Driver/Src/stm32f4xx_hal_rtc_ex.c ****   * @}
 840:Drivers/STM32F4xx_HAL_Driver/Src/stm32f4xx_hal_rtc_ex.c ****   */
 841:Drivers/STM32F4xx_HAL_Driver/Src/stm32f4xx_hal_rtc_ex.c **** 
 842:Drivers/STM32F4xx_HAL_Driver/Src/stm32f4xx_hal_rtc_ex.c **** /** @defgroup RTCEx_Exported_Functions_Group2 RTC Wakeup functions
 843:Drivers/STM32F4xx_HAL_Driver/Src/stm32f4xx_hal_rtc_ex.c ****   * @brief    RTC Wakeup functions
 844:Drivers/STM32F4xx_HAL_Driver/Src/stm32f4xx_hal_rtc_ex.c ****   *
 845:Drivers/STM32F4xx_HAL_Driver/Src/stm32f4xx_hal_rtc_ex.c **** @verbatim
 846:Drivers/STM32F4xx_HAL_Driver/Src/stm32f4xx_hal_rtc_ex.c ****  ===============================================================================
 847:Drivers/STM32F4xx_HAL_Driver/Src/stm32f4xx_hal_rtc_ex.c ****                         ##### RTC Wakeup functions #####
 848:Drivers/STM32F4xx_HAL_Driver/Src/stm32f4xx_hal_rtc_ex.c ****  ===============================================================================
 849:Drivers/STM32F4xx_HAL_Driver/Src/stm32f4xx_hal_rtc_ex.c **** 
 850:Drivers/STM32F4xx_HAL_Driver/Src/stm32f4xx_hal_rtc_ex.c ****  [..] This section provides functions allowing to configure Wakeup feature
 851:Drivers/STM32F4xx_HAL_Driver/Src/stm32f4xx_hal_rtc_ex.c **** 
 852:Drivers/STM32F4xx_HAL_Driver/Src/stm32f4xx_hal_rtc_ex.c **** @endverbatim
 853:Drivers/STM32F4xx_HAL_Driver/Src/stm32f4xx_hal_rtc_ex.c ****   * @{
 854:Drivers/STM32F4xx_HAL_Driver/Src/stm32f4xx_hal_rtc_ex.c ****   */
 855:Drivers/STM32F4xx_HAL_Driver/Src/stm32f4xx_hal_rtc_ex.c **** 
 856:Drivers/STM32F4xx_HAL_Driver/Src/stm32f4xx_hal_rtc_ex.c **** /**
 857:Drivers/STM32F4xx_HAL_Driver/Src/stm32f4xx_hal_rtc_ex.c ****   * @brief  Sets wakeup timer.
 858:Drivers/STM32F4xx_HAL_Driver/Src/stm32f4xx_hal_rtc_ex.c ****   * @param  hrtc pointer to a RTC_HandleTypeDef structure that contains
 859:Drivers/STM32F4xx_HAL_Driver/Src/stm32f4xx_hal_rtc_ex.c ****   *                the configuration information for RTC.
 860:Drivers/STM32F4xx_HAL_Driver/Src/stm32f4xx_hal_rtc_ex.c ****   * @param  WakeUpCounter Wakeup counter
 861:Drivers/STM32F4xx_HAL_Driver/Src/stm32f4xx_hal_rtc_ex.c ****   * @param  WakeUpClock Wakeup clock
 862:Drivers/STM32F4xx_HAL_Driver/Src/stm32f4xx_hal_rtc_ex.c ****   * @retval HAL status
 863:Drivers/STM32F4xx_HAL_Driver/Src/stm32f4xx_hal_rtc_ex.c ****   */
ARM GAS  C:\Users\Administrator\AppData\Local\Temp\cczHSQjt.s 			page 41


 864:Drivers/STM32F4xx_HAL_Driver/Src/stm32f4xx_hal_rtc_ex.c **** HAL_StatusTypeDef HAL_RTCEx_SetWakeUpTimer(RTC_HandleTypeDef *hrtc, uint32_t WakeUpCounter, uint32_
 865:Drivers/STM32F4xx_HAL_Driver/Src/stm32f4xx_hal_rtc_ex.c **** {
 1357              		.loc 1 865 1 is_stmt 1 view -0
 1358              		.cfi_startproc
 1359              		@ args = 0, pretend = 0, frame = 0
 1360              		@ frame_needed = 0, uses_anonymous_args = 0
 1361              		.loc 1 865 1 is_stmt 0 view .LVU470
 1362 0000 F8B5     		push	{r3, r4, r5, r6, r7, lr}
 1363              		.cfi_def_cfa_offset 24
 1364              		.cfi_offset 3, -24
 1365              		.cfi_offset 4, -20
 1366              		.cfi_offset 5, -16
 1367              		.cfi_offset 6, -12
 1368              		.cfi_offset 7, -8
 1369              		.cfi_offset 14, -4
 866:Drivers/STM32F4xx_HAL_Driver/Src/stm32f4xx_hal_rtc_ex.c ****   uint32_t tickstart = 0U;
 1370              		.loc 1 866 3 is_stmt 1 view .LVU471
 1371              	.LVL101:
 867:Drivers/STM32F4xx_HAL_Driver/Src/stm32f4xx_hal_rtc_ex.c **** 
 868:Drivers/STM32F4xx_HAL_Driver/Src/stm32f4xx_hal_rtc_ex.c ****   /* Check the parameters */
 869:Drivers/STM32F4xx_HAL_Driver/Src/stm32f4xx_hal_rtc_ex.c ****   assert_param(IS_RTC_WAKEUP_CLOCK(WakeUpClock));
 1372              		.loc 1 869 3 view .LVU472
 870:Drivers/STM32F4xx_HAL_Driver/Src/stm32f4xx_hal_rtc_ex.c ****   assert_param(IS_RTC_WAKEUP_COUNTER(WakeUpCounter));
 1373              		.loc 1 870 3 view .LVU473
 871:Drivers/STM32F4xx_HAL_Driver/Src/stm32f4xx_hal_rtc_ex.c **** 
 872:Drivers/STM32F4xx_HAL_Driver/Src/stm32f4xx_hal_rtc_ex.c ****   /* Process Locked */
 873:Drivers/STM32F4xx_HAL_Driver/Src/stm32f4xx_hal_rtc_ex.c ****   __HAL_LOCK(hrtc);
 1374              		.loc 1 873 3 view .LVU474
 1375              		.loc 1 873 3 view .LVU475
 1376 0002 037F     		ldrb	r3, [r0, #28]	@ zero_extendqisi2
 1377 0004 012B     		cmp	r3, #1
 1378 0006 5FD0     		beq	.L94
 1379 0008 0446     		mov	r4, r0
 1380 000a 0E46     		mov	r6, r1
 1381 000c 1746     		mov	r7, r2
 1382              		.loc 1 873 3 discriminator 2 view .LVU476
 1383 000e 0123     		movs	r3, #1
 1384 0010 0377     		strb	r3, [r0, #28]
 1385              		.loc 1 873 3 view .LVU477
 874:Drivers/STM32F4xx_HAL_Driver/Src/stm32f4xx_hal_rtc_ex.c **** 
 875:Drivers/STM32F4xx_HAL_Driver/Src/stm32f4xx_hal_rtc_ex.c ****   hrtc->State = HAL_RTC_STATE_BUSY;
 1386              		.loc 1 875 3 view .LVU478
 1387              		.loc 1 875 15 is_stmt 0 view .LVU479
 1388 0012 0223     		movs	r3, #2
 1389 0014 4377     		strb	r3, [r0, #29]
 876:Drivers/STM32F4xx_HAL_Driver/Src/stm32f4xx_hal_rtc_ex.c **** 
 877:Drivers/STM32F4xx_HAL_Driver/Src/stm32f4xx_hal_rtc_ex.c ****   /* Disable the write protection for RTC registers */
 878:Drivers/STM32F4xx_HAL_Driver/Src/stm32f4xx_hal_rtc_ex.c ****   __HAL_RTC_WRITEPROTECTION_DISABLE(hrtc);
 1390              		.loc 1 878 3 is_stmt 1 view .LVU480
 1391              		.loc 1 878 3 view .LVU481
 1392 0016 0368     		ldr	r3, [r0]
 1393 0018 CA22     		movs	r2, #202
 1394              	.LVL102:
 1395              		.loc 1 878 3 is_stmt 0 view .LVU482
 1396 001a 5A62     		str	r2, [r3, #36]
 1397              		.loc 1 878 3 is_stmt 1 view .LVU483
 1398 001c 0368     		ldr	r3, [r0]
ARM GAS  C:\Users\Administrator\AppData\Local\Temp\cczHSQjt.s 			page 42


 1399 001e 5322     		movs	r2, #83
 1400 0020 5A62     		str	r2, [r3, #36]
 1401              		.loc 1 878 3 view .LVU484
 879:Drivers/STM32F4xx_HAL_Driver/Src/stm32f4xx_hal_rtc_ex.c **** 
 880:Drivers/STM32F4xx_HAL_Driver/Src/stm32f4xx_hal_rtc_ex.c ****   /* Check RTC WUTWF flag is reset only when wakeup timer enabled*/
 881:Drivers/STM32F4xx_HAL_Driver/Src/stm32f4xx_hal_rtc_ex.c ****   if ((hrtc->Instance->CR & RTC_CR_WUTE) != 0U)
 1402              		.loc 1 881 3 view .LVU485
 1403              		.loc 1 881 12 is_stmt 0 view .LVU486
 1404 0022 0368     		ldr	r3, [r0]
 1405              		.loc 1 881 22 view .LVU487
 1406 0024 9B68     		ldr	r3, [r3, #8]
 1407              		.loc 1 881 6 view .LVU488
 1408 0026 13F4806F 		tst	r3, #1024
 1409 002a 15D0     		beq	.L89
 882:Drivers/STM32F4xx_HAL_Driver/Src/stm32f4xx_hal_rtc_ex.c ****   {
 883:Drivers/STM32F4xx_HAL_Driver/Src/stm32f4xx_hal_rtc_ex.c ****     tickstart = HAL_GetTick();
 1410              		.loc 1 883 5 is_stmt 1 view .LVU489
 1411              		.loc 1 883 17 is_stmt 0 view .LVU490
 1412 002c FFF7FEFF 		bl	HAL_GetTick
 1413              	.LVL103:
 1414              		.loc 1 883 17 view .LVU491
 1415 0030 0546     		mov	r5, r0
 1416              	.LVL104:
 884:Drivers/STM32F4xx_HAL_Driver/Src/stm32f4xx_hal_rtc_ex.c **** 
 885:Drivers/STM32F4xx_HAL_Driver/Src/stm32f4xx_hal_rtc_ex.c ****     /* Wait till RTC WUTWF flag is reset and if timeout is reached exit */
 886:Drivers/STM32F4xx_HAL_Driver/Src/stm32f4xx_hal_rtc_ex.c ****     while (__HAL_RTC_WAKEUPTIMER_GET_FLAG(hrtc, RTC_FLAG_WUTWF) != 0U)
 1417              		.loc 1 886 5 is_stmt 1 view .LVU492
 1418              	.L90:
 1419              		.loc 1 886 65 view .LVU493
 1420              		.loc 1 886 12 is_stmt 0 view .LVU494
 1421 0032 2368     		ldr	r3, [r4]
 1422 0034 DB68     		ldr	r3, [r3, #12]
 1423              		.loc 1 886 65 view .LVU495
 1424 0036 13F0040F 		tst	r3, #4
 1425 003a 0DD0     		beq	.L89
 887:Drivers/STM32F4xx_HAL_Driver/Src/stm32f4xx_hal_rtc_ex.c ****     {
 888:Drivers/STM32F4xx_HAL_Driver/Src/stm32f4xx_hal_rtc_ex.c ****       if ((HAL_GetTick() - tickstart) > RTC_TIMEOUT_VALUE)
 1426              		.loc 1 888 7 is_stmt 1 view .LVU496
 1427              		.loc 1 888 12 is_stmt 0 view .LVU497
 1428 003c FFF7FEFF 		bl	HAL_GetTick
 1429              	.LVL105:
 1430              		.loc 1 888 26 discriminator 1 view .LVU498
 1431 0040 401B     		subs	r0, r0, r5
 1432              		.loc 1 888 10 discriminator 1 view .LVU499
 1433 0042 B0F57A7F 		cmp	r0, #1000
 1434 0046 F4D9     		bls	.L90
 889:Drivers/STM32F4xx_HAL_Driver/Src/stm32f4xx_hal_rtc_ex.c ****       {
 890:Drivers/STM32F4xx_HAL_Driver/Src/stm32f4xx_hal_rtc_ex.c ****         /* Enable the write protection for RTC registers */
 891:Drivers/STM32F4xx_HAL_Driver/Src/stm32f4xx_hal_rtc_ex.c ****         __HAL_RTC_WRITEPROTECTION_ENABLE(hrtc);
 1435              		.loc 1 891 9 is_stmt 1 view .LVU500
 1436              		.loc 1 891 9 view .LVU501
 1437 0048 2368     		ldr	r3, [r4]
 1438 004a FF22     		movs	r2, #255
 1439 004c 5A62     		str	r2, [r3, #36]
 1440              		.loc 1 891 9 view .LVU502
 892:Drivers/STM32F4xx_HAL_Driver/Src/stm32f4xx_hal_rtc_ex.c **** 
 893:Drivers/STM32F4xx_HAL_Driver/Src/stm32f4xx_hal_rtc_ex.c ****         hrtc->State = HAL_RTC_STATE_TIMEOUT;
ARM GAS  C:\Users\Administrator\AppData\Local\Temp\cczHSQjt.s 			page 43


 1441              		.loc 1 893 9 view .LVU503
 1442              		.loc 1 893 21 is_stmt 0 view .LVU504
 1443 004e 0320     		movs	r0, #3
 1444 0050 6077     		strb	r0, [r4, #29]
 894:Drivers/STM32F4xx_HAL_Driver/Src/stm32f4xx_hal_rtc_ex.c **** 
 895:Drivers/STM32F4xx_HAL_Driver/Src/stm32f4xx_hal_rtc_ex.c ****         /* Process Unlocked */
 896:Drivers/STM32F4xx_HAL_Driver/Src/stm32f4xx_hal_rtc_ex.c ****         __HAL_UNLOCK(hrtc);
 1445              		.loc 1 896 9 is_stmt 1 view .LVU505
 1446              		.loc 1 896 9 view .LVU506
 1447 0052 0023     		movs	r3, #0
 1448 0054 2377     		strb	r3, [r4, #28]
 1449              		.loc 1 896 9 view .LVU507
 897:Drivers/STM32F4xx_HAL_Driver/Src/stm32f4xx_hal_rtc_ex.c **** 
 898:Drivers/STM32F4xx_HAL_Driver/Src/stm32f4xx_hal_rtc_ex.c ****         return HAL_TIMEOUT;
 1450              		.loc 1 898 9 view .LVU508
 1451              		.loc 1 898 16 is_stmt 0 view .LVU509
 1452 0056 36E0     		b	.L88
 1453              	.LVL106:
 1454              	.L89:
 899:Drivers/STM32F4xx_HAL_Driver/Src/stm32f4xx_hal_rtc_ex.c ****       }
 900:Drivers/STM32F4xx_HAL_Driver/Src/stm32f4xx_hal_rtc_ex.c ****     }
 901:Drivers/STM32F4xx_HAL_Driver/Src/stm32f4xx_hal_rtc_ex.c ****   }
 902:Drivers/STM32F4xx_HAL_Driver/Src/stm32f4xx_hal_rtc_ex.c **** 
 903:Drivers/STM32F4xx_HAL_Driver/Src/stm32f4xx_hal_rtc_ex.c ****   /* Disable the Wakeup timer */
 904:Drivers/STM32F4xx_HAL_Driver/Src/stm32f4xx_hal_rtc_ex.c ****   __HAL_RTC_WAKEUPTIMER_DISABLE(hrtc);
 1455              		.loc 1 904 3 is_stmt 1 view .LVU510
 1456 0058 2268     		ldr	r2, [r4]
 1457 005a 9368     		ldr	r3, [r2, #8]
 1458 005c 23F48063 		bic	r3, r3, #1024
 1459 0060 9360     		str	r3, [r2, #8]
 905:Drivers/STM32F4xx_HAL_Driver/Src/stm32f4xx_hal_rtc_ex.c **** 
 906:Drivers/STM32F4xx_HAL_Driver/Src/stm32f4xx_hal_rtc_ex.c ****   /* Clear the Wakeup flag */
 907:Drivers/STM32F4xx_HAL_Driver/Src/stm32f4xx_hal_rtc_ex.c ****   __HAL_RTC_WAKEUPTIMER_CLEAR_FLAG(hrtc, RTC_FLAG_WUTF);
 1460              		.loc 1 907 3 view .LVU511
 1461 0062 2268     		ldr	r2, [r4]
 1462 0064 D368     		ldr	r3, [r2, #12]
 1463 0066 DBB2     		uxtb	r3, r3
 1464 0068 63F49063 		orn	r3, r3, #1152
 1465 006c D360     		str	r3, [r2, #12]
 908:Drivers/STM32F4xx_HAL_Driver/Src/stm32f4xx_hal_rtc_ex.c **** 
 909:Drivers/STM32F4xx_HAL_Driver/Src/stm32f4xx_hal_rtc_ex.c ****   /* Get tick */
 910:Drivers/STM32F4xx_HAL_Driver/Src/stm32f4xx_hal_rtc_ex.c ****   tickstart = HAL_GetTick();
 1466              		.loc 1 910 3 view .LVU512
 1467              		.loc 1 910 15 is_stmt 0 view .LVU513
 1468 006e FFF7FEFF 		bl	HAL_GetTick
 1469              	.LVL107:
 1470 0072 0546     		mov	r5, r0
 1471              	.LVL108:
 911:Drivers/STM32F4xx_HAL_Driver/Src/stm32f4xx_hal_rtc_ex.c **** 
 912:Drivers/STM32F4xx_HAL_Driver/Src/stm32f4xx_hal_rtc_ex.c ****   /* Wait till RTC WUTWF flag is set and if timeout is reached exit */
 913:Drivers/STM32F4xx_HAL_Driver/Src/stm32f4xx_hal_rtc_ex.c ****   while (__HAL_RTC_WAKEUPTIMER_GET_FLAG(hrtc, RTC_FLAG_WUTWF) == 0U)
 1472              		.loc 1 913 3 is_stmt 1 view .LVU514
 1473              	.L92:
 1474              		.loc 1 913 63 view .LVU515
 1475              		.loc 1 913 10 is_stmt 0 view .LVU516
 1476 0074 2368     		ldr	r3, [r4]
 1477 0076 DA68     		ldr	r2, [r3, #12]
ARM GAS  C:\Users\Administrator\AppData\Local\Temp\cczHSQjt.s 			page 44


 1478              		.loc 1 913 63 view .LVU517
 1479 0078 12F0040F 		tst	r2, #4
 1480 007c 0DD1     		bne	.L96
 914:Drivers/STM32F4xx_HAL_Driver/Src/stm32f4xx_hal_rtc_ex.c ****   {
 915:Drivers/STM32F4xx_HAL_Driver/Src/stm32f4xx_hal_rtc_ex.c ****     if ((HAL_GetTick() - tickstart) > RTC_TIMEOUT_VALUE)
 1481              		.loc 1 915 5 is_stmt 1 view .LVU518
 1482              		.loc 1 915 10 is_stmt 0 view .LVU519
 1483 007e FFF7FEFF 		bl	HAL_GetTick
 1484              	.LVL109:
 1485              		.loc 1 915 24 discriminator 1 view .LVU520
 1486 0082 401B     		subs	r0, r0, r5
 1487              		.loc 1 915 8 discriminator 1 view .LVU521
 1488 0084 B0F57A7F 		cmp	r0, #1000
 1489 0088 F4D9     		bls	.L92
 916:Drivers/STM32F4xx_HAL_Driver/Src/stm32f4xx_hal_rtc_ex.c ****     {
 917:Drivers/STM32F4xx_HAL_Driver/Src/stm32f4xx_hal_rtc_ex.c ****       /* Enable the write protection for RTC registers */
 918:Drivers/STM32F4xx_HAL_Driver/Src/stm32f4xx_hal_rtc_ex.c ****       __HAL_RTC_WRITEPROTECTION_ENABLE(hrtc);
 1490              		.loc 1 918 7 is_stmt 1 view .LVU522
 1491              		.loc 1 918 7 view .LVU523
 1492 008a 2368     		ldr	r3, [r4]
 1493 008c FF22     		movs	r2, #255
 1494 008e 5A62     		str	r2, [r3, #36]
 1495              		.loc 1 918 7 view .LVU524
 919:Drivers/STM32F4xx_HAL_Driver/Src/stm32f4xx_hal_rtc_ex.c **** 
 920:Drivers/STM32F4xx_HAL_Driver/Src/stm32f4xx_hal_rtc_ex.c ****       hrtc->State = HAL_RTC_STATE_TIMEOUT;
 1496              		.loc 1 920 7 view .LVU525
 1497              		.loc 1 920 19 is_stmt 0 view .LVU526
 1498 0090 0320     		movs	r0, #3
 1499 0092 6077     		strb	r0, [r4, #29]
 921:Drivers/STM32F4xx_HAL_Driver/Src/stm32f4xx_hal_rtc_ex.c **** 
 922:Drivers/STM32F4xx_HAL_Driver/Src/stm32f4xx_hal_rtc_ex.c ****       /* Process Unlocked */
 923:Drivers/STM32F4xx_HAL_Driver/Src/stm32f4xx_hal_rtc_ex.c ****       __HAL_UNLOCK(hrtc);
 1500              		.loc 1 923 7 is_stmt 1 view .LVU527
 1501              		.loc 1 923 7 view .LVU528
 1502 0094 0023     		movs	r3, #0
 1503 0096 2377     		strb	r3, [r4, #28]
 1504              		.loc 1 923 7 view .LVU529
 924:Drivers/STM32F4xx_HAL_Driver/Src/stm32f4xx_hal_rtc_ex.c **** 
 925:Drivers/STM32F4xx_HAL_Driver/Src/stm32f4xx_hal_rtc_ex.c ****       return HAL_TIMEOUT;
 1505              		.loc 1 925 7 view .LVU530
 1506              		.loc 1 925 14 is_stmt 0 view .LVU531
 1507 0098 15E0     		b	.L88
 1508              	.L96:
 926:Drivers/STM32F4xx_HAL_Driver/Src/stm32f4xx_hal_rtc_ex.c ****     }
 927:Drivers/STM32F4xx_HAL_Driver/Src/stm32f4xx_hal_rtc_ex.c ****   }
 928:Drivers/STM32F4xx_HAL_Driver/Src/stm32f4xx_hal_rtc_ex.c **** 
 929:Drivers/STM32F4xx_HAL_Driver/Src/stm32f4xx_hal_rtc_ex.c ****   /* Clear the Wakeup Timer clock source bits in CR register */
 930:Drivers/STM32F4xx_HAL_Driver/Src/stm32f4xx_hal_rtc_ex.c ****   hrtc->Instance->CR &= (uint32_t)~RTC_CR_WUCKSEL;
 1509              		.loc 1 930 3 is_stmt 1 view .LVU532
 1510              		.loc 1 930 17 is_stmt 0 view .LVU533
 1511 009a 9A68     		ldr	r2, [r3, #8]
 1512              		.loc 1 930 22 view .LVU534
 1513 009c 22F00702 		bic	r2, r2, #7
 1514 00a0 9A60     		str	r2, [r3, #8]
 931:Drivers/STM32F4xx_HAL_Driver/Src/stm32f4xx_hal_rtc_ex.c **** 
 932:Drivers/STM32F4xx_HAL_Driver/Src/stm32f4xx_hal_rtc_ex.c ****   /* Configure the clock source */
 933:Drivers/STM32F4xx_HAL_Driver/Src/stm32f4xx_hal_rtc_ex.c ****   hrtc->Instance->CR |= (uint32_t)WakeUpClock;
ARM GAS  C:\Users\Administrator\AppData\Local\Temp\cczHSQjt.s 			page 45


 1515              		.loc 1 933 3 is_stmt 1 view .LVU535
 1516              		.loc 1 933 7 is_stmt 0 view .LVU536
 1517 00a2 2268     		ldr	r2, [r4]
 1518              		.loc 1 933 17 view .LVU537
 1519 00a4 9368     		ldr	r3, [r2, #8]
 1520              		.loc 1 933 22 view .LVU538
 1521 00a6 3B43     		orrs	r3, r3, r7
 1522 00a8 9360     		str	r3, [r2, #8]
 934:Drivers/STM32F4xx_HAL_Driver/Src/stm32f4xx_hal_rtc_ex.c **** 
 935:Drivers/STM32F4xx_HAL_Driver/Src/stm32f4xx_hal_rtc_ex.c ****   /* Configure the Wakeup Timer counter */
 936:Drivers/STM32F4xx_HAL_Driver/Src/stm32f4xx_hal_rtc_ex.c ****   hrtc->Instance->WUTR = (uint32_t)WakeUpCounter;
 1523              		.loc 1 936 3 is_stmt 1 view .LVU539
 1524              		.loc 1 936 7 is_stmt 0 view .LVU540
 1525 00aa 2368     		ldr	r3, [r4]
 1526              		.loc 1 936 24 view .LVU541
 1527 00ac 5E61     		str	r6, [r3, #20]
 937:Drivers/STM32F4xx_HAL_Driver/Src/stm32f4xx_hal_rtc_ex.c **** 
 938:Drivers/STM32F4xx_HAL_Driver/Src/stm32f4xx_hal_rtc_ex.c ****   /* Enable the Wakeup Timer */
 939:Drivers/STM32F4xx_HAL_Driver/Src/stm32f4xx_hal_rtc_ex.c ****   __HAL_RTC_WAKEUPTIMER_ENABLE(hrtc);
 1528              		.loc 1 939 3 is_stmt 1 view .LVU542
 1529 00ae 2268     		ldr	r2, [r4]
 1530 00b0 9368     		ldr	r3, [r2, #8]
 1531 00b2 43F48063 		orr	r3, r3, #1024
 1532 00b6 9360     		str	r3, [r2, #8]
 940:Drivers/STM32F4xx_HAL_Driver/Src/stm32f4xx_hal_rtc_ex.c **** 
 941:Drivers/STM32F4xx_HAL_Driver/Src/stm32f4xx_hal_rtc_ex.c ****   /* Enable the write protection for RTC registers */
 942:Drivers/STM32F4xx_HAL_Driver/Src/stm32f4xx_hal_rtc_ex.c ****   __HAL_RTC_WRITEPROTECTION_ENABLE(hrtc);
 1533              		.loc 1 942 3 view .LVU543
 1534              		.loc 1 942 3 view .LVU544
 1535 00b8 2368     		ldr	r3, [r4]
 1536 00ba FF22     		movs	r2, #255
 1537 00bc 5A62     		str	r2, [r3, #36]
 1538              		.loc 1 942 3 view .LVU545
 943:Drivers/STM32F4xx_HAL_Driver/Src/stm32f4xx_hal_rtc_ex.c **** 
 944:Drivers/STM32F4xx_HAL_Driver/Src/stm32f4xx_hal_rtc_ex.c ****   hrtc->State = HAL_RTC_STATE_READY;
 1539              		.loc 1 944 3 view .LVU546
 1540              		.loc 1 944 15 is_stmt 0 view .LVU547
 1541 00be 0123     		movs	r3, #1
 1542 00c0 6377     		strb	r3, [r4, #29]
 945:Drivers/STM32F4xx_HAL_Driver/Src/stm32f4xx_hal_rtc_ex.c **** 
 946:Drivers/STM32F4xx_HAL_Driver/Src/stm32f4xx_hal_rtc_ex.c ****   /* Process Unlocked */
 947:Drivers/STM32F4xx_HAL_Driver/Src/stm32f4xx_hal_rtc_ex.c ****   __HAL_UNLOCK(hrtc);
 1543              		.loc 1 947 3 is_stmt 1 view .LVU548
 1544              		.loc 1 947 3 view .LVU549
 1545 00c2 0020     		movs	r0, #0
 1546 00c4 2077     		strb	r0, [r4, #28]
 1547              		.loc 1 947 3 view .LVU550
 948:Drivers/STM32F4xx_HAL_Driver/Src/stm32f4xx_hal_rtc_ex.c **** 
 949:Drivers/STM32F4xx_HAL_Driver/Src/stm32f4xx_hal_rtc_ex.c ****   return HAL_OK;
 1548              		.loc 1 949 3 view .LVU551
 1549              	.LVL110:
 1550              	.L88:
 950:Drivers/STM32F4xx_HAL_Driver/Src/stm32f4xx_hal_rtc_ex.c **** }
 1551              		.loc 1 950 1 is_stmt 0 view .LVU552
 1552 00c6 F8BD     		pop	{r3, r4, r5, r6, r7, pc}
 1553              	.LVL111:
 1554              	.L94:
ARM GAS  C:\Users\Administrator\AppData\Local\Temp\cczHSQjt.s 			page 46


 873:Drivers/STM32F4xx_HAL_Driver/Src/stm32f4xx_hal_rtc_ex.c **** 
 1555              		.loc 1 873 3 discriminator 1 view .LVU553
 1556 00c8 0220     		movs	r0, #2
 1557              	.LVL112:
 873:Drivers/STM32F4xx_HAL_Driver/Src/stm32f4xx_hal_rtc_ex.c **** 
 1558              		.loc 1 873 3 discriminator 1 view .LVU554
 1559 00ca FCE7     		b	.L88
 1560              		.cfi_endproc
 1561              	.LFE249:
 1563              		.section	.text.HAL_RTCEx_SetWakeUpTimer_IT,"ax",%progbits
 1564              		.align	1
 1565              		.global	HAL_RTCEx_SetWakeUpTimer_IT
 1566              		.syntax unified
 1567              		.thumb
 1568              		.thumb_func
 1570              	HAL_RTCEx_SetWakeUpTimer_IT:
 1571              	.LVL113:
 1572              	.LFB250:
 951:Drivers/STM32F4xx_HAL_Driver/Src/stm32f4xx_hal_rtc_ex.c **** 
 952:Drivers/STM32F4xx_HAL_Driver/Src/stm32f4xx_hal_rtc_ex.c **** /**
 953:Drivers/STM32F4xx_HAL_Driver/Src/stm32f4xx_hal_rtc_ex.c ****   * @brief  Sets wakeup timer with interrupt.
 954:Drivers/STM32F4xx_HAL_Driver/Src/stm32f4xx_hal_rtc_ex.c ****   * @param  hrtc pointer to a RTC_HandleTypeDef structure that contains
 955:Drivers/STM32F4xx_HAL_Driver/Src/stm32f4xx_hal_rtc_ex.c ****   *                the configuration information for RTC.
 956:Drivers/STM32F4xx_HAL_Driver/Src/stm32f4xx_hal_rtc_ex.c ****   * @param  WakeUpCounter Wakeup counter
 957:Drivers/STM32F4xx_HAL_Driver/Src/stm32f4xx_hal_rtc_ex.c ****   * @param  WakeUpClock Wakeup clock
 958:Drivers/STM32F4xx_HAL_Driver/Src/stm32f4xx_hal_rtc_ex.c ****   * @retval HAL status
 959:Drivers/STM32F4xx_HAL_Driver/Src/stm32f4xx_hal_rtc_ex.c ****   */
 960:Drivers/STM32F4xx_HAL_Driver/Src/stm32f4xx_hal_rtc_ex.c **** HAL_StatusTypeDef HAL_RTCEx_SetWakeUpTimer_IT(RTC_HandleTypeDef *hrtc, uint32_t WakeUpCounter, uint
 961:Drivers/STM32F4xx_HAL_Driver/Src/stm32f4xx_hal_rtc_ex.c **** {
 1573              		.loc 1 961 1 is_stmt 1 view -0
 1574              		.cfi_startproc
 1575              		@ args = 0, pretend = 0, frame = 8
 1576              		@ frame_needed = 0, uses_anonymous_args = 0
 1577              		.loc 1 961 1 is_stmt 0 view .LVU556
 1578 0000 10B5     		push	{r4, lr}
 1579              		.cfi_def_cfa_offset 8
 1580              		.cfi_offset 4, -8
 1581              		.cfi_offset 14, -4
 1582 0002 82B0     		sub	sp, sp, #8
 1583              		.cfi_def_cfa_offset 16
 1584 0004 0346     		mov	r3, r0
 1585 0006 0C46     		mov	r4, r1
 1586 0008 9646     		mov	lr, r2
 962:Drivers/STM32F4xx_HAL_Driver/Src/stm32f4xx_hal_rtc_ex.c ****   __IO uint32_t count  = RTC_TIMEOUT_VALUE * (SystemCoreClock / 32U / 1000U);
 1587              		.loc 1 962 3 is_stmt 1 view .LVU557
 1588              		.loc 1 962 69 is_stmt 0 view .LVU558
 1589 000a 3C4A     		ldr	r2, .L108
 1590              	.LVL114:
 1591              		.loc 1 962 69 view .LVU559
 1592 000c 1068     		ldr	r0, [r2]
 1593              	.LVL115:
 1594              		.loc 1 962 69 view .LVU560
 1595 000e 3C4A     		ldr	r2, .L108+4
 1596 0010 A2FB0020 		umull	r2, r0, r2, r0
 1597 0014 C00A     		lsrs	r0, r0, #11
 1598              		.loc 1 962 44 view .LVU561
 1599 0016 4FF47A72 		mov	r2, #1000
ARM GAS  C:\Users\Administrator\AppData\Local\Temp\cczHSQjt.s 			page 47


 1600 001a 00FB02F2 		mul	r2, r0, r2
 1601              		.loc 1 962 17 view .LVU562
 1602 001e 0192     		str	r2, [sp, #4]
 963:Drivers/STM32F4xx_HAL_Driver/Src/stm32f4xx_hal_rtc_ex.c **** 
 964:Drivers/STM32F4xx_HAL_Driver/Src/stm32f4xx_hal_rtc_ex.c ****   /* Check the parameters */
 965:Drivers/STM32F4xx_HAL_Driver/Src/stm32f4xx_hal_rtc_ex.c ****   assert_param(IS_RTC_WAKEUP_CLOCK(WakeUpClock));
 1603              		.loc 1 965 3 is_stmt 1 view .LVU563
 966:Drivers/STM32F4xx_HAL_Driver/Src/stm32f4xx_hal_rtc_ex.c ****   assert_param(IS_RTC_WAKEUP_COUNTER(WakeUpCounter));
 1604              		.loc 1 966 3 view .LVU564
 967:Drivers/STM32F4xx_HAL_Driver/Src/stm32f4xx_hal_rtc_ex.c **** 
 968:Drivers/STM32F4xx_HAL_Driver/Src/stm32f4xx_hal_rtc_ex.c ****   /* Process Locked */
 969:Drivers/STM32F4xx_HAL_Driver/Src/stm32f4xx_hal_rtc_ex.c ****   __HAL_LOCK(hrtc);
 1605              		.loc 1 969 3 view .LVU565
 1606              		.loc 1 969 3 view .LVU566
 1607 0020 197F     		ldrb	r1, [r3, #28]	@ zero_extendqisi2
 1608              	.LVL116:
 1609              		.loc 1 969 3 is_stmt 0 view .LVU567
 1610 0022 0129     		cmp	r1, #1
 1611 0024 68D0     		beq	.L104
 1612              		.loc 1 969 3 is_stmt 1 discriminator 2 view .LVU568
 1613 0026 0121     		movs	r1, #1
 1614 0028 1977     		strb	r1, [r3, #28]
 1615              		.loc 1 969 3 view .LVU569
 970:Drivers/STM32F4xx_HAL_Driver/Src/stm32f4xx_hal_rtc_ex.c **** 
 971:Drivers/STM32F4xx_HAL_Driver/Src/stm32f4xx_hal_rtc_ex.c ****   hrtc->State = HAL_RTC_STATE_BUSY;
 1616              		.loc 1 971 3 view .LVU570
 1617              		.loc 1 971 15 is_stmt 0 view .LVU571
 1618 002a 0221     		movs	r1, #2
 1619 002c 5977     		strb	r1, [r3, #29]
 972:Drivers/STM32F4xx_HAL_Driver/Src/stm32f4xx_hal_rtc_ex.c **** 
 973:Drivers/STM32F4xx_HAL_Driver/Src/stm32f4xx_hal_rtc_ex.c ****   /* Disable the write protection for RTC registers */
 974:Drivers/STM32F4xx_HAL_Driver/Src/stm32f4xx_hal_rtc_ex.c ****   __HAL_RTC_WRITEPROTECTION_DISABLE(hrtc);
 1620              		.loc 1 974 3 is_stmt 1 view .LVU572
 1621              		.loc 1 974 3 view .LVU573
 1622 002e 1968     		ldr	r1, [r3]
 1623 0030 CA20     		movs	r0, #202
 1624 0032 4862     		str	r0, [r1, #36]
 1625              		.loc 1 974 3 view .LVU574
 1626 0034 1968     		ldr	r1, [r3]
 1627 0036 5320     		movs	r0, #83
 1628 0038 4862     		str	r0, [r1, #36]
 1629              		.loc 1 974 3 view .LVU575
 975:Drivers/STM32F4xx_HAL_Driver/Src/stm32f4xx_hal_rtc_ex.c **** 
 976:Drivers/STM32F4xx_HAL_Driver/Src/stm32f4xx_hal_rtc_ex.c ****   /* Check RTC WUTWF flag is reset only when wakeup timer enabled */
 977:Drivers/STM32F4xx_HAL_Driver/Src/stm32f4xx_hal_rtc_ex.c ****   if ((hrtc->Instance->CR & RTC_CR_WUTE) != 0U)
 1630              		.loc 1 977 3 view .LVU576
 1631              		.loc 1 977 12 is_stmt 0 view .LVU577
 1632 003a D3F800C0 		ldr	ip, [r3]
 1633              		.loc 1 977 22 view .LVU578
 1634 003e DCF80810 		ldr	r1, [ip, #8]
 1635              		.loc 1 977 6 view .LVU579
 1636 0042 11F4806F 		tst	r1, #1024
 1637 0046 09D0     		beq	.L99
 1638              	.L101:
 978:Drivers/STM32F4xx_HAL_Driver/Src/stm32f4xx_hal_rtc_ex.c ****   {
 979:Drivers/STM32F4xx_HAL_Driver/Src/stm32f4xx_hal_rtc_ex.c ****     /* Wait till RTC WUTWF flag is reset and if timeout is reached exit */
 980:Drivers/STM32F4xx_HAL_Driver/Src/stm32f4xx_hal_rtc_ex.c ****     do
ARM GAS  C:\Users\Administrator\AppData\Local\Temp\cczHSQjt.s 			page 48


 1639              		.loc 1 980 5 is_stmt 1 view .LVU580
 981:Drivers/STM32F4xx_HAL_Driver/Src/stm32f4xx_hal_rtc_ex.c ****     {
 982:Drivers/STM32F4xx_HAL_Driver/Src/stm32f4xx_hal_rtc_ex.c ****       if (count-- == 0U)
 1640              		.loc 1 982 7 view .LVU581
 1641              		.loc 1 982 16 is_stmt 0 view .LVU582
 1642 0048 0198     		ldr	r0, [sp, #4]
 1643 004a 411E     		subs	r1, r0, #1
 1644 004c 0191     		str	r1, [sp, #4]
 1645              		.loc 1 982 10 view .LVU583
 1646 004e 0028     		cmp	r0, #0
 1647 0050 41D0     		beq	.L106
 983:Drivers/STM32F4xx_HAL_Driver/Src/stm32f4xx_hal_rtc_ex.c ****       {
 984:Drivers/STM32F4xx_HAL_Driver/Src/stm32f4xx_hal_rtc_ex.c ****         /* Enable the write protection for RTC registers */
 985:Drivers/STM32F4xx_HAL_Driver/Src/stm32f4xx_hal_rtc_ex.c ****         __HAL_RTC_WRITEPROTECTION_ENABLE(hrtc);
 986:Drivers/STM32F4xx_HAL_Driver/Src/stm32f4xx_hal_rtc_ex.c **** 
 987:Drivers/STM32F4xx_HAL_Driver/Src/stm32f4xx_hal_rtc_ex.c ****         hrtc->State = HAL_RTC_STATE_TIMEOUT;
 988:Drivers/STM32F4xx_HAL_Driver/Src/stm32f4xx_hal_rtc_ex.c **** 
 989:Drivers/STM32F4xx_HAL_Driver/Src/stm32f4xx_hal_rtc_ex.c ****         /* Process Unlocked */
 990:Drivers/STM32F4xx_HAL_Driver/Src/stm32f4xx_hal_rtc_ex.c ****         __HAL_UNLOCK(hrtc);
 991:Drivers/STM32F4xx_HAL_Driver/Src/stm32f4xx_hal_rtc_ex.c **** 
 992:Drivers/STM32F4xx_HAL_Driver/Src/stm32f4xx_hal_rtc_ex.c ****         return HAL_TIMEOUT;
 993:Drivers/STM32F4xx_HAL_Driver/Src/stm32f4xx_hal_rtc_ex.c ****       }
 994:Drivers/STM32F4xx_HAL_Driver/Src/stm32f4xx_hal_rtc_ex.c ****     } while (__HAL_RTC_WAKEUPTIMER_GET_FLAG(hrtc, RTC_FLAG_WUTWF) != 0U);
 1648              		.loc 1 994 67 is_stmt 1 view .LVU584
 1649              		.loc 1 994 14 is_stmt 0 view .LVU585
 1650 0052 DCF80C00 		ldr	r0, [ip, #12]
 1651              		.loc 1 994 67 view .LVU586
 1652 0056 10F0040F 		tst	r0, #4
 1653 005a F5D1     		bne	.L101
 1654              	.L99:
 995:Drivers/STM32F4xx_HAL_Driver/Src/stm32f4xx_hal_rtc_ex.c ****   }
 996:Drivers/STM32F4xx_HAL_Driver/Src/stm32f4xx_hal_rtc_ex.c **** 
 997:Drivers/STM32F4xx_HAL_Driver/Src/stm32f4xx_hal_rtc_ex.c ****   /* Disable the Wakeup timer */
 998:Drivers/STM32F4xx_HAL_Driver/Src/stm32f4xx_hal_rtc_ex.c ****   __HAL_RTC_WAKEUPTIMER_DISABLE(hrtc);
 1655              		.loc 1 998 3 is_stmt 1 view .LVU587
 1656 005c DCF80810 		ldr	r1, [ip, #8]
 1657 0060 21F48061 		bic	r1, r1, #1024
 1658 0064 CCF80810 		str	r1, [ip, #8]
 999:Drivers/STM32F4xx_HAL_Driver/Src/stm32f4xx_hal_rtc_ex.c **** 
1000:Drivers/STM32F4xx_HAL_Driver/Src/stm32f4xx_hal_rtc_ex.c ****   /* Clear the Wakeup flag */
1001:Drivers/STM32F4xx_HAL_Driver/Src/stm32f4xx_hal_rtc_ex.c ****   __HAL_RTC_WAKEUPTIMER_CLEAR_FLAG(hrtc, RTC_FLAG_WUTF);
 1659              		.loc 1 1001 3 view .LVU588
 1660 0068 1868     		ldr	r0, [r3]
 1661 006a C168     		ldr	r1, [r0, #12]
 1662 006c C9B2     		uxtb	r1, r1
 1663 006e 61F49061 		orn	r1, r1, #1152
 1664 0072 C160     		str	r1, [r0, #12]
1002:Drivers/STM32F4xx_HAL_Driver/Src/stm32f4xx_hal_rtc_ex.c **** 
1003:Drivers/STM32F4xx_HAL_Driver/Src/stm32f4xx_hal_rtc_ex.c ****   /* Reload the counter */
1004:Drivers/STM32F4xx_HAL_Driver/Src/stm32f4xx_hal_rtc_ex.c ****   count = RTC_TIMEOUT_VALUE * (SystemCoreClock / 32U / 1000U);
 1665              		.loc 1 1004 3 view .LVU589
 1666              		.loc 1 1004 9 is_stmt 0 view .LVU590
 1667 0074 0192     		str	r2, [sp, #4]
 1668              	.L103:
1005:Drivers/STM32F4xx_HAL_Driver/Src/stm32f4xx_hal_rtc_ex.c **** 
1006:Drivers/STM32F4xx_HAL_Driver/Src/stm32f4xx_hal_rtc_ex.c ****   /* Wait till RTC WUTWF flag is set and if timeout is reached exit */
1007:Drivers/STM32F4xx_HAL_Driver/Src/stm32f4xx_hal_rtc_ex.c ****   do
ARM GAS  C:\Users\Administrator\AppData\Local\Temp\cczHSQjt.s 			page 49


 1669              		.loc 1 1007 3 is_stmt 1 view .LVU591
1008:Drivers/STM32F4xx_HAL_Driver/Src/stm32f4xx_hal_rtc_ex.c ****   {
1009:Drivers/STM32F4xx_HAL_Driver/Src/stm32f4xx_hal_rtc_ex.c ****     if (count-- == 0U)
 1670              		.loc 1 1009 5 view .LVU592
 1671              		.loc 1 1009 14 is_stmt 0 view .LVU593
 1672 0076 0198     		ldr	r0, [sp, #4]
 1673 0078 421E     		subs	r2, r0, #1
 1674 007a 0192     		str	r2, [sp, #4]
 1675              		.loc 1 1009 8 view .LVU594
 1676 007c 0028     		cmp	r0, #0
 1677 007e 32D0     		beq	.L107
1010:Drivers/STM32F4xx_HAL_Driver/Src/stm32f4xx_hal_rtc_ex.c ****     {
1011:Drivers/STM32F4xx_HAL_Driver/Src/stm32f4xx_hal_rtc_ex.c ****       /* Enable the write protection for RTC registers */
1012:Drivers/STM32F4xx_HAL_Driver/Src/stm32f4xx_hal_rtc_ex.c ****       __HAL_RTC_WRITEPROTECTION_ENABLE(hrtc);
1013:Drivers/STM32F4xx_HAL_Driver/Src/stm32f4xx_hal_rtc_ex.c **** 
1014:Drivers/STM32F4xx_HAL_Driver/Src/stm32f4xx_hal_rtc_ex.c ****       hrtc->State = HAL_RTC_STATE_TIMEOUT;
1015:Drivers/STM32F4xx_HAL_Driver/Src/stm32f4xx_hal_rtc_ex.c **** 
1016:Drivers/STM32F4xx_HAL_Driver/Src/stm32f4xx_hal_rtc_ex.c ****       /* Process Unlocked */
1017:Drivers/STM32F4xx_HAL_Driver/Src/stm32f4xx_hal_rtc_ex.c ****       __HAL_UNLOCK(hrtc);
1018:Drivers/STM32F4xx_HAL_Driver/Src/stm32f4xx_hal_rtc_ex.c **** 
1019:Drivers/STM32F4xx_HAL_Driver/Src/stm32f4xx_hal_rtc_ex.c ****       return HAL_TIMEOUT;
1020:Drivers/STM32F4xx_HAL_Driver/Src/stm32f4xx_hal_rtc_ex.c ****     }
1021:Drivers/STM32F4xx_HAL_Driver/Src/stm32f4xx_hal_rtc_ex.c ****   } while (__HAL_RTC_WAKEUPTIMER_GET_FLAG(hrtc, RTC_FLAG_WUTWF) == 0U);
 1678              		.loc 1 1021 65 is_stmt 1 view .LVU595
 1679              		.loc 1 1021 12 is_stmt 0 view .LVU596
 1680 0080 1868     		ldr	r0, [r3]
 1681 0082 C268     		ldr	r2, [r0, #12]
 1682              		.loc 1 1021 65 view .LVU597
 1683 0084 12F0040F 		tst	r2, #4
 1684 0088 F5D0     		beq	.L103
1022:Drivers/STM32F4xx_HAL_Driver/Src/stm32f4xx_hal_rtc_ex.c **** 
1023:Drivers/STM32F4xx_HAL_Driver/Src/stm32f4xx_hal_rtc_ex.c ****   /* Clear the Wakeup Timer clock source bits in CR register */
1024:Drivers/STM32F4xx_HAL_Driver/Src/stm32f4xx_hal_rtc_ex.c ****   hrtc->Instance->CR &= (uint32_t)~RTC_CR_WUCKSEL;
 1685              		.loc 1 1024 3 is_stmt 1 view .LVU598
 1686              		.loc 1 1024 17 is_stmt 0 view .LVU599
 1687 008a 8268     		ldr	r2, [r0, #8]
 1688              		.loc 1 1024 22 view .LVU600
 1689 008c 22F00702 		bic	r2, r2, #7
 1690 0090 8260     		str	r2, [r0, #8]
1025:Drivers/STM32F4xx_HAL_Driver/Src/stm32f4xx_hal_rtc_ex.c **** 
1026:Drivers/STM32F4xx_HAL_Driver/Src/stm32f4xx_hal_rtc_ex.c ****   /* Configure the clock source */
1027:Drivers/STM32F4xx_HAL_Driver/Src/stm32f4xx_hal_rtc_ex.c ****   hrtc->Instance->CR |= (uint32_t)WakeUpClock;
 1691              		.loc 1 1027 3 is_stmt 1 view .LVU601
 1692              		.loc 1 1027 7 is_stmt 0 view .LVU602
 1693 0092 1968     		ldr	r1, [r3]
 1694              		.loc 1 1027 17 view .LVU603
 1695 0094 8A68     		ldr	r2, [r1, #8]
 1696              		.loc 1 1027 22 view .LVU604
 1697 0096 42EA0E02 		orr	r2, r2, lr
 1698 009a 8A60     		str	r2, [r1, #8]
1028:Drivers/STM32F4xx_HAL_Driver/Src/stm32f4xx_hal_rtc_ex.c **** 
1029:Drivers/STM32F4xx_HAL_Driver/Src/stm32f4xx_hal_rtc_ex.c ****   /* Configure the Wakeup Timer counter */
1030:Drivers/STM32F4xx_HAL_Driver/Src/stm32f4xx_hal_rtc_ex.c ****   hrtc->Instance->WUTR = (uint32_t)WakeUpCounter;
 1699              		.loc 1 1030 3 is_stmt 1 view .LVU605
 1700              		.loc 1 1030 7 is_stmt 0 view .LVU606
 1701 009c 1A68     		ldr	r2, [r3]
 1702              		.loc 1 1030 24 view .LVU607
ARM GAS  C:\Users\Administrator\AppData\Local\Temp\cczHSQjt.s 			page 50


 1703 009e 5461     		str	r4, [r2, #20]
1031:Drivers/STM32F4xx_HAL_Driver/Src/stm32f4xx_hal_rtc_ex.c **** 
1032:Drivers/STM32F4xx_HAL_Driver/Src/stm32f4xx_hal_rtc_ex.c ****   /* RTC wakeup timer Interrupt Configuration: EXTI configuration */
1033:Drivers/STM32F4xx_HAL_Driver/Src/stm32f4xx_hal_rtc_ex.c ****   __HAL_RTC_WAKEUPTIMER_EXTI_ENABLE_IT();
 1704              		.loc 1 1033 3 is_stmt 1 view .LVU608
 1705 00a0 184A     		ldr	r2, .L108+8
 1706 00a2 1168     		ldr	r1, [r2]
 1707 00a4 41F48001 		orr	r1, r1, #4194304
 1708 00a8 1160     		str	r1, [r2]
1034:Drivers/STM32F4xx_HAL_Driver/Src/stm32f4xx_hal_rtc_ex.c ****   __HAL_RTC_WAKEUPTIMER_EXTI_ENABLE_RISING_EDGE();
 1709              		.loc 1 1034 3 view .LVU609
 1710 00aa 9168     		ldr	r1, [r2, #8]
 1711 00ac 41F48001 		orr	r1, r1, #4194304
 1712 00b0 9160     		str	r1, [r2, #8]
1035:Drivers/STM32F4xx_HAL_Driver/Src/stm32f4xx_hal_rtc_ex.c **** 
1036:Drivers/STM32F4xx_HAL_Driver/Src/stm32f4xx_hal_rtc_ex.c ****   /* Configure the interrupt in the RTC_CR register */
1037:Drivers/STM32F4xx_HAL_Driver/Src/stm32f4xx_hal_rtc_ex.c ****   __HAL_RTC_WAKEUPTIMER_ENABLE_IT(hrtc, RTC_IT_WUT);
 1713              		.loc 1 1037 3 view .LVU610
 1714 00b2 1968     		ldr	r1, [r3]
 1715 00b4 8A68     		ldr	r2, [r1, #8]
 1716 00b6 42F48042 		orr	r2, r2, #16384
 1717 00ba 8A60     		str	r2, [r1, #8]
1038:Drivers/STM32F4xx_HAL_Driver/Src/stm32f4xx_hal_rtc_ex.c **** 
1039:Drivers/STM32F4xx_HAL_Driver/Src/stm32f4xx_hal_rtc_ex.c ****   /* Enable the Wakeup Timer */
1040:Drivers/STM32F4xx_HAL_Driver/Src/stm32f4xx_hal_rtc_ex.c ****   __HAL_RTC_WAKEUPTIMER_ENABLE(hrtc);
 1718              		.loc 1 1040 3 view .LVU611
 1719 00bc 1968     		ldr	r1, [r3]
 1720 00be 8A68     		ldr	r2, [r1, #8]
 1721 00c0 42F48062 		orr	r2, r2, #1024
 1722 00c4 8A60     		str	r2, [r1, #8]
1041:Drivers/STM32F4xx_HAL_Driver/Src/stm32f4xx_hal_rtc_ex.c **** 
1042:Drivers/STM32F4xx_HAL_Driver/Src/stm32f4xx_hal_rtc_ex.c ****   /* Enable the write protection for RTC registers */
1043:Drivers/STM32F4xx_HAL_Driver/Src/stm32f4xx_hal_rtc_ex.c ****   __HAL_RTC_WRITEPROTECTION_ENABLE(hrtc);
 1723              		.loc 1 1043 3 view .LVU612
 1724              		.loc 1 1043 3 view .LVU613
 1725 00c6 1A68     		ldr	r2, [r3]
 1726 00c8 FF21     		movs	r1, #255
 1727 00ca 5162     		str	r1, [r2, #36]
 1728              		.loc 1 1043 3 view .LVU614
1044:Drivers/STM32F4xx_HAL_Driver/Src/stm32f4xx_hal_rtc_ex.c **** 
1045:Drivers/STM32F4xx_HAL_Driver/Src/stm32f4xx_hal_rtc_ex.c ****   hrtc->State = HAL_RTC_STATE_READY;
 1729              		.loc 1 1045 3 view .LVU615
 1730              		.loc 1 1045 15 is_stmt 0 view .LVU616
 1731 00cc 0122     		movs	r2, #1
 1732 00ce 5A77     		strb	r2, [r3, #29]
1046:Drivers/STM32F4xx_HAL_Driver/Src/stm32f4xx_hal_rtc_ex.c **** 
1047:Drivers/STM32F4xx_HAL_Driver/Src/stm32f4xx_hal_rtc_ex.c ****   /* Process Unlocked */
1048:Drivers/STM32F4xx_HAL_Driver/Src/stm32f4xx_hal_rtc_ex.c ****   __HAL_UNLOCK(hrtc);
 1733              		.loc 1 1048 3 is_stmt 1 view .LVU617
 1734              		.loc 1 1048 3 view .LVU618
 1735 00d0 0020     		movs	r0, #0
 1736 00d2 1877     		strb	r0, [r3, #28]
 1737              		.loc 1 1048 3 view .LVU619
1049:Drivers/STM32F4xx_HAL_Driver/Src/stm32f4xx_hal_rtc_ex.c **** 
1050:Drivers/STM32F4xx_HAL_Driver/Src/stm32f4xx_hal_rtc_ex.c ****   return HAL_OK;
 1738              		.loc 1 1050 3 view .LVU620
 1739              		.loc 1 1050 10 is_stmt 0 view .LVU621
ARM GAS  C:\Users\Administrator\AppData\Local\Temp\cczHSQjt.s 			page 51


 1740 00d4 0EE0     		b	.L98
 1741              	.L106:
 985:Drivers/STM32F4xx_HAL_Driver/Src/stm32f4xx_hal_rtc_ex.c **** 
 1742              		.loc 1 985 9 is_stmt 1 view .LVU622
 985:Drivers/STM32F4xx_HAL_Driver/Src/stm32f4xx_hal_rtc_ex.c **** 
 1743              		.loc 1 985 9 view .LVU623
 1744 00d6 FF22     		movs	r2, #255
 1745 00d8 CCF82420 		str	r2, [ip, #36]
 985:Drivers/STM32F4xx_HAL_Driver/Src/stm32f4xx_hal_rtc_ex.c **** 
 1746              		.loc 1 985 9 view .LVU624
 987:Drivers/STM32F4xx_HAL_Driver/Src/stm32f4xx_hal_rtc_ex.c **** 
 1747              		.loc 1 987 9 view .LVU625
 987:Drivers/STM32F4xx_HAL_Driver/Src/stm32f4xx_hal_rtc_ex.c **** 
 1748              		.loc 1 987 21 is_stmt 0 view .LVU626
 1749 00dc 0320     		movs	r0, #3
 1750 00de 5877     		strb	r0, [r3, #29]
 990:Drivers/STM32F4xx_HAL_Driver/Src/stm32f4xx_hal_rtc_ex.c **** 
 1751              		.loc 1 990 9 is_stmt 1 view .LVU627
 990:Drivers/STM32F4xx_HAL_Driver/Src/stm32f4xx_hal_rtc_ex.c **** 
 1752              		.loc 1 990 9 view .LVU628
 1753 00e0 0022     		movs	r2, #0
 1754 00e2 1A77     		strb	r2, [r3, #28]
 990:Drivers/STM32F4xx_HAL_Driver/Src/stm32f4xx_hal_rtc_ex.c **** 
 1755              		.loc 1 990 9 view .LVU629
 992:Drivers/STM32F4xx_HAL_Driver/Src/stm32f4xx_hal_rtc_ex.c ****       }
 1756              		.loc 1 992 9 view .LVU630
 992:Drivers/STM32F4xx_HAL_Driver/Src/stm32f4xx_hal_rtc_ex.c ****       }
 1757              		.loc 1 992 16 is_stmt 0 view .LVU631
 1758 00e4 06E0     		b	.L98
 1759              	.L107:
1012:Drivers/STM32F4xx_HAL_Driver/Src/stm32f4xx_hal_rtc_ex.c **** 
 1760              		.loc 1 1012 7 is_stmt 1 view .LVU632
1012:Drivers/STM32F4xx_HAL_Driver/Src/stm32f4xx_hal_rtc_ex.c **** 
 1761              		.loc 1 1012 7 view .LVU633
 1762 00e6 1A68     		ldr	r2, [r3]
 1763 00e8 FF21     		movs	r1, #255
 1764 00ea 5162     		str	r1, [r2, #36]
1012:Drivers/STM32F4xx_HAL_Driver/Src/stm32f4xx_hal_rtc_ex.c **** 
 1765              		.loc 1 1012 7 view .LVU634
1014:Drivers/STM32F4xx_HAL_Driver/Src/stm32f4xx_hal_rtc_ex.c **** 
 1766              		.loc 1 1014 7 view .LVU635
1014:Drivers/STM32F4xx_HAL_Driver/Src/stm32f4xx_hal_rtc_ex.c **** 
 1767              		.loc 1 1014 19 is_stmt 0 view .LVU636
 1768 00ec 0320     		movs	r0, #3
 1769 00ee 5877     		strb	r0, [r3, #29]
1017:Drivers/STM32F4xx_HAL_Driver/Src/stm32f4xx_hal_rtc_ex.c **** 
 1770              		.loc 1 1017 7 is_stmt 1 view .LVU637
1017:Drivers/STM32F4xx_HAL_Driver/Src/stm32f4xx_hal_rtc_ex.c **** 
 1771              		.loc 1 1017 7 view .LVU638
 1772 00f0 0022     		movs	r2, #0
 1773 00f2 1A77     		strb	r2, [r3, #28]
1017:Drivers/STM32F4xx_HAL_Driver/Src/stm32f4xx_hal_rtc_ex.c **** 
 1774              		.loc 1 1017 7 view .LVU639
1019:Drivers/STM32F4xx_HAL_Driver/Src/stm32f4xx_hal_rtc_ex.c ****     }
 1775              		.loc 1 1019 7 view .LVU640
 1776              	.L98:
1051:Drivers/STM32F4xx_HAL_Driver/Src/stm32f4xx_hal_rtc_ex.c **** }
ARM GAS  C:\Users\Administrator\AppData\Local\Temp\cczHSQjt.s 			page 52


 1777              		.loc 1 1051 1 is_stmt 0 view .LVU641
 1778 00f4 02B0     		add	sp, sp, #8
 1779              		.cfi_remember_state
 1780              		.cfi_def_cfa_offset 8
 1781              		@ sp needed
 1782 00f6 10BD     		pop	{r4, pc}
 1783              	.LVL117:
 1784              	.L104:
 1785              		.cfi_restore_state
 969:Drivers/STM32F4xx_HAL_Driver/Src/stm32f4xx_hal_rtc_ex.c **** 
 1786              		.loc 1 969 3 discriminator 1 view .LVU642
 1787 00f8 0220     		movs	r0, #2
 1788 00fa FBE7     		b	.L98
 1789              	.L109:
 1790              		.align	2
 1791              	.L108:
 1792 00fc 00000000 		.word	SystemCoreClock
 1793 0100 D34D6210 		.word	274877907
 1794 0104 003C0140 		.word	1073822720
 1795              		.cfi_endproc
 1796              	.LFE250:
 1798              		.section	.text.HAL_RTCEx_DeactivateWakeUpTimer,"ax",%progbits
 1799              		.align	1
 1800              		.global	HAL_RTCEx_DeactivateWakeUpTimer
 1801              		.syntax unified
 1802              		.thumb
 1803              		.thumb_func
 1805              	HAL_RTCEx_DeactivateWakeUpTimer:
 1806              	.LVL118:
 1807              	.LFB251:
1052:Drivers/STM32F4xx_HAL_Driver/Src/stm32f4xx_hal_rtc_ex.c **** 
1053:Drivers/STM32F4xx_HAL_Driver/Src/stm32f4xx_hal_rtc_ex.c **** /**
1054:Drivers/STM32F4xx_HAL_Driver/Src/stm32f4xx_hal_rtc_ex.c ****   * @brief  Deactivates wakeup timer counter.
1055:Drivers/STM32F4xx_HAL_Driver/Src/stm32f4xx_hal_rtc_ex.c ****   * @param  hrtc pointer to a RTC_HandleTypeDef structure that contains
1056:Drivers/STM32F4xx_HAL_Driver/Src/stm32f4xx_hal_rtc_ex.c ****   *                the configuration information for RTC.
1057:Drivers/STM32F4xx_HAL_Driver/Src/stm32f4xx_hal_rtc_ex.c ****   * @retval HAL status
1058:Drivers/STM32F4xx_HAL_Driver/Src/stm32f4xx_hal_rtc_ex.c ****   */
1059:Drivers/STM32F4xx_HAL_Driver/Src/stm32f4xx_hal_rtc_ex.c **** HAL_StatusTypeDef HAL_RTCEx_DeactivateWakeUpTimer(RTC_HandleTypeDef *hrtc)
1060:Drivers/STM32F4xx_HAL_Driver/Src/stm32f4xx_hal_rtc_ex.c **** {
 1808              		.loc 1 1060 1 is_stmt 1 view -0
 1809              		.cfi_startproc
 1810              		@ args = 0, pretend = 0, frame = 0
 1811              		@ frame_needed = 0, uses_anonymous_args = 0
 1812              		.loc 1 1060 1 is_stmt 0 view .LVU644
 1813 0000 38B5     		push	{r3, r4, r5, lr}
 1814              		.cfi_def_cfa_offset 16
 1815              		.cfi_offset 3, -16
 1816              		.cfi_offset 4, -12
 1817              		.cfi_offset 5, -8
 1818              		.cfi_offset 14, -4
1061:Drivers/STM32F4xx_HAL_Driver/Src/stm32f4xx_hal_rtc_ex.c ****   uint32_t tickstart = 0U;
 1819              		.loc 1 1061 3 is_stmt 1 view .LVU645
 1820              	.LVL119:
1062:Drivers/STM32F4xx_HAL_Driver/Src/stm32f4xx_hal_rtc_ex.c **** 
1063:Drivers/STM32F4xx_HAL_Driver/Src/stm32f4xx_hal_rtc_ex.c ****   /* Process Locked */
1064:Drivers/STM32F4xx_HAL_Driver/Src/stm32f4xx_hal_rtc_ex.c ****   __HAL_LOCK(hrtc);
 1821              		.loc 1 1064 3 view .LVU646
ARM GAS  C:\Users\Administrator\AppData\Local\Temp\cczHSQjt.s 			page 53


 1822              		.loc 1 1064 3 view .LVU647
 1823 0002 037F     		ldrb	r3, [r0, #28]	@ zero_extendqisi2
 1824 0004 012B     		cmp	r3, #1
 1825 0006 31D0     		beq	.L114
 1826 0008 0446     		mov	r4, r0
 1827              		.loc 1 1064 3 discriminator 2 view .LVU648
 1828 000a 0123     		movs	r3, #1
 1829 000c 0377     		strb	r3, [r0, #28]
 1830              		.loc 1 1064 3 view .LVU649
1065:Drivers/STM32F4xx_HAL_Driver/Src/stm32f4xx_hal_rtc_ex.c **** 
1066:Drivers/STM32F4xx_HAL_Driver/Src/stm32f4xx_hal_rtc_ex.c ****   hrtc->State = HAL_RTC_STATE_BUSY;
 1831              		.loc 1 1066 3 view .LVU650
 1832              		.loc 1 1066 15 is_stmt 0 view .LVU651
 1833 000e 0223     		movs	r3, #2
 1834 0010 4377     		strb	r3, [r0, #29]
1067:Drivers/STM32F4xx_HAL_Driver/Src/stm32f4xx_hal_rtc_ex.c **** 
1068:Drivers/STM32F4xx_HAL_Driver/Src/stm32f4xx_hal_rtc_ex.c ****   /* Disable the write protection for RTC registers */
1069:Drivers/STM32F4xx_HAL_Driver/Src/stm32f4xx_hal_rtc_ex.c ****   __HAL_RTC_WRITEPROTECTION_DISABLE(hrtc);
 1835              		.loc 1 1069 3 is_stmt 1 view .LVU652
 1836              		.loc 1 1069 3 view .LVU653
 1837 0012 0368     		ldr	r3, [r0]
 1838 0014 CA22     		movs	r2, #202
 1839 0016 5A62     		str	r2, [r3, #36]
 1840              		.loc 1 1069 3 view .LVU654
 1841 0018 0368     		ldr	r3, [r0]
 1842 001a 5322     		movs	r2, #83
 1843 001c 5A62     		str	r2, [r3, #36]
 1844              		.loc 1 1069 3 view .LVU655
1070:Drivers/STM32F4xx_HAL_Driver/Src/stm32f4xx_hal_rtc_ex.c **** 
1071:Drivers/STM32F4xx_HAL_Driver/Src/stm32f4xx_hal_rtc_ex.c ****   /* Disable the Wakeup Timer */
1072:Drivers/STM32F4xx_HAL_Driver/Src/stm32f4xx_hal_rtc_ex.c ****   __HAL_RTC_WAKEUPTIMER_DISABLE(hrtc);
 1845              		.loc 1 1072 3 view .LVU656
 1846 001e 0268     		ldr	r2, [r0]
 1847 0020 9368     		ldr	r3, [r2, #8]
 1848 0022 23F48063 		bic	r3, r3, #1024
 1849 0026 9360     		str	r3, [r2, #8]
1073:Drivers/STM32F4xx_HAL_Driver/Src/stm32f4xx_hal_rtc_ex.c **** 
1074:Drivers/STM32F4xx_HAL_Driver/Src/stm32f4xx_hal_rtc_ex.c ****   /* In case of interrupt mode is used, the interrupt source must disabled */
1075:Drivers/STM32F4xx_HAL_Driver/Src/stm32f4xx_hal_rtc_ex.c ****   __HAL_RTC_WAKEUPTIMER_DISABLE_IT(hrtc, RTC_IT_WUT);
 1850              		.loc 1 1075 3 view .LVU657
 1851 0028 0268     		ldr	r2, [r0]
 1852 002a 9368     		ldr	r3, [r2, #8]
 1853 002c 23F48043 		bic	r3, r3, #16384
 1854 0030 9360     		str	r3, [r2, #8]
1076:Drivers/STM32F4xx_HAL_Driver/Src/stm32f4xx_hal_rtc_ex.c **** 
1077:Drivers/STM32F4xx_HAL_Driver/Src/stm32f4xx_hal_rtc_ex.c ****   /* Get tick */
1078:Drivers/STM32F4xx_HAL_Driver/Src/stm32f4xx_hal_rtc_ex.c ****   tickstart = HAL_GetTick();
 1855              		.loc 1 1078 3 view .LVU658
 1856              		.loc 1 1078 15 is_stmt 0 view .LVU659
 1857 0032 FFF7FEFF 		bl	HAL_GetTick
 1858              	.LVL120:
 1859              		.loc 1 1078 15 view .LVU660
 1860 0036 0546     		mov	r5, r0
 1861              	.LVL121:
1079:Drivers/STM32F4xx_HAL_Driver/Src/stm32f4xx_hal_rtc_ex.c **** 
1080:Drivers/STM32F4xx_HAL_Driver/Src/stm32f4xx_hal_rtc_ex.c ****   /* Wait till RTC WUTWF flag is set and if timeout is reached exit */
1081:Drivers/STM32F4xx_HAL_Driver/Src/stm32f4xx_hal_rtc_ex.c ****   while (__HAL_RTC_WAKEUPTIMER_GET_FLAG(hrtc, RTC_FLAG_WUTWF) == 0U)
ARM GAS  C:\Users\Administrator\AppData\Local\Temp\cczHSQjt.s 			page 54


 1862              		.loc 1 1081 3 is_stmt 1 view .LVU661
 1863              	.L112:
 1864              		.loc 1 1081 63 view .LVU662
 1865              		.loc 1 1081 10 is_stmt 0 view .LVU663
 1866 0038 2368     		ldr	r3, [r4]
 1867 003a DA68     		ldr	r2, [r3, #12]
 1868              		.loc 1 1081 63 view .LVU664
 1869 003c 12F0040F 		tst	r2, #4
 1870 0040 0DD1     		bne	.L116
1082:Drivers/STM32F4xx_HAL_Driver/Src/stm32f4xx_hal_rtc_ex.c ****   {
1083:Drivers/STM32F4xx_HAL_Driver/Src/stm32f4xx_hal_rtc_ex.c ****     if ((HAL_GetTick() - tickstart) > RTC_TIMEOUT_VALUE)
 1871              		.loc 1 1083 5 is_stmt 1 view .LVU665
 1872              		.loc 1 1083 10 is_stmt 0 view .LVU666
 1873 0042 FFF7FEFF 		bl	HAL_GetTick
 1874              	.LVL122:
 1875              		.loc 1 1083 24 discriminator 1 view .LVU667
 1876 0046 431B     		subs	r3, r0, r5
 1877              		.loc 1 1083 8 discriminator 1 view .LVU668
 1878 0048 B3F57A7F 		cmp	r3, #1000
 1879 004c F4D9     		bls	.L112
1084:Drivers/STM32F4xx_HAL_Driver/Src/stm32f4xx_hal_rtc_ex.c ****     {
1085:Drivers/STM32F4xx_HAL_Driver/Src/stm32f4xx_hal_rtc_ex.c ****       /* Enable the write protection for RTC registers */
1086:Drivers/STM32F4xx_HAL_Driver/Src/stm32f4xx_hal_rtc_ex.c ****       __HAL_RTC_WRITEPROTECTION_ENABLE(hrtc);
 1880              		.loc 1 1086 7 is_stmt 1 view .LVU669
 1881              		.loc 1 1086 7 view .LVU670
 1882 004e 2368     		ldr	r3, [r4]
 1883 0050 FF22     		movs	r2, #255
 1884 0052 5A62     		str	r2, [r3, #36]
 1885              		.loc 1 1086 7 view .LVU671
1087:Drivers/STM32F4xx_HAL_Driver/Src/stm32f4xx_hal_rtc_ex.c **** 
1088:Drivers/STM32F4xx_HAL_Driver/Src/stm32f4xx_hal_rtc_ex.c ****       hrtc->State = HAL_RTC_STATE_TIMEOUT;
 1886              		.loc 1 1088 7 view .LVU672
 1887              		.loc 1 1088 19 is_stmt 0 view .LVU673
 1888 0054 0320     		movs	r0, #3
 1889 0056 6077     		strb	r0, [r4, #29]
1089:Drivers/STM32F4xx_HAL_Driver/Src/stm32f4xx_hal_rtc_ex.c **** 
1090:Drivers/STM32F4xx_HAL_Driver/Src/stm32f4xx_hal_rtc_ex.c ****       /* Process Unlocked */
1091:Drivers/STM32F4xx_HAL_Driver/Src/stm32f4xx_hal_rtc_ex.c ****       __HAL_UNLOCK(hrtc);
 1890              		.loc 1 1091 7 is_stmt 1 view .LVU674
 1891              		.loc 1 1091 7 view .LVU675
 1892 0058 0023     		movs	r3, #0
 1893 005a 2377     		strb	r3, [r4, #28]
 1894              		.loc 1 1091 7 view .LVU676
1092:Drivers/STM32F4xx_HAL_Driver/Src/stm32f4xx_hal_rtc_ex.c **** 
1093:Drivers/STM32F4xx_HAL_Driver/Src/stm32f4xx_hal_rtc_ex.c ****       return HAL_TIMEOUT;
 1895              		.loc 1 1093 7 view .LVU677
 1896              		.loc 1 1093 14 is_stmt 0 view .LVU678
 1897 005c 05E0     		b	.L111
 1898              	.L116:
1094:Drivers/STM32F4xx_HAL_Driver/Src/stm32f4xx_hal_rtc_ex.c ****     }
1095:Drivers/STM32F4xx_HAL_Driver/Src/stm32f4xx_hal_rtc_ex.c ****   }
1096:Drivers/STM32F4xx_HAL_Driver/Src/stm32f4xx_hal_rtc_ex.c **** 
1097:Drivers/STM32F4xx_HAL_Driver/Src/stm32f4xx_hal_rtc_ex.c ****   /* Enable the write protection for RTC registers */
1098:Drivers/STM32F4xx_HAL_Driver/Src/stm32f4xx_hal_rtc_ex.c ****   __HAL_RTC_WRITEPROTECTION_ENABLE(hrtc);
 1899              		.loc 1 1098 3 is_stmt 1 view .LVU679
 1900              		.loc 1 1098 3 view .LVU680
 1901 005e FF22     		movs	r2, #255
ARM GAS  C:\Users\Administrator\AppData\Local\Temp\cczHSQjt.s 			page 55


 1902 0060 5A62     		str	r2, [r3, #36]
 1903              		.loc 1 1098 3 view .LVU681
1099:Drivers/STM32F4xx_HAL_Driver/Src/stm32f4xx_hal_rtc_ex.c **** 
1100:Drivers/STM32F4xx_HAL_Driver/Src/stm32f4xx_hal_rtc_ex.c ****   hrtc->State = HAL_RTC_STATE_READY;
 1904              		.loc 1 1100 3 view .LVU682
 1905              		.loc 1 1100 15 is_stmt 0 view .LVU683
 1906 0062 0123     		movs	r3, #1
 1907 0064 6377     		strb	r3, [r4, #29]
1101:Drivers/STM32F4xx_HAL_Driver/Src/stm32f4xx_hal_rtc_ex.c **** 
1102:Drivers/STM32F4xx_HAL_Driver/Src/stm32f4xx_hal_rtc_ex.c ****   /* Process Unlocked */
1103:Drivers/STM32F4xx_HAL_Driver/Src/stm32f4xx_hal_rtc_ex.c ****   __HAL_UNLOCK(hrtc);
 1908              		.loc 1 1103 3 is_stmt 1 view .LVU684
 1909              		.loc 1 1103 3 view .LVU685
 1910 0066 0020     		movs	r0, #0
 1911 0068 2077     		strb	r0, [r4, #28]
 1912              		.loc 1 1103 3 view .LVU686
1104:Drivers/STM32F4xx_HAL_Driver/Src/stm32f4xx_hal_rtc_ex.c **** 
1105:Drivers/STM32F4xx_HAL_Driver/Src/stm32f4xx_hal_rtc_ex.c ****   return HAL_OK;
 1913              		.loc 1 1105 3 view .LVU687
 1914              	.LVL123:
 1915              	.L111:
1106:Drivers/STM32F4xx_HAL_Driver/Src/stm32f4xx_hal_rtc_ex.c **** }
 1916              		.loc 1 1106 1 is_stmt 0 view .LVU688
 1917 006a 38BD     		pop	{r3, r4, r5, pc}
 1918              	.LVL124:
 1919              	.L114:
1064:Drivers/STM32F4xx_HAL_Driver/Src/stm32f4xx_hal_rtc_ex.c **** 
 1920              		.loc 1 1064 3 discriminator 1 view .LVU689
 1921 006c 0220     		movs	r0, #2
 1922              	.LVL125:
1064:Drivers/STM32F4xx_HAL_Driver/Src/stm32f4xx_hal_rtc_ex.c **** 
 1923              		.loc 1 1064 3 discriminator 1 view .LVU690
 1924 006e FCE7     		b	.L111
 1925              		.cfi_endproc
 1926              	.LFE251:
 1928              		.section	.text.HAL_RTCEx_GetWakeUpTimer,"ax",%progbits
 1929              		.align	1
 1930              		.global	HAL_RTCEx_GetWakeUpTimer
 1931              		.syntax unified
 1932              		.thumb
 1933              		.thumb_func
 1935              	HAL_RTCEx_GetWakeUpTimer:
 1936              	.LVL126:
 1937              	.LFB252:
1107:Drivers/STM32F4xx_HAL_Driver/Src/stm32f4xx_hal_rtc_ex.c **** 
1108:Drivers/STM32F4xx_HAL_Driver/Src/stm32f4xx_hal_rtc_ex.c **** /**
1109:Drivers/STM32F4xx_HAL_Driver/Src/stm32f4xx_hal_rtc_ex.c ****   * @brief  Gets wakeup timer counter.
1110:Drivers/STM32F4xx_HAL_Driver/Src/stm32f4xx_hal_rtc_ex.c ****   * @param  hrtc pointer to a RTC_HandleTypeDef structure that contains
1111:Drivers/STM32F4xx_HAL_Driver/Src/stm32f4xx_hal_rtc_ex.c ****   *                the configuration information for RTC.
1112:Drivers/STM32F4xx_HAL_Driver/Src/stm32f4xx_hal_rtc_ex.c ****   * @retval Counter value
1113:Drivers/STM32F4xx_HAL_Driver/Src/stm32f4xx_hal_rtc_ex.c ****   */
1114:Drivers/STM32F4xx_HAL_Driver/Src/stm32f4xx_hal_rtc_ex.c **** uint32_t HAL_RTCEx_GetWakeUpTimer(RTC_HandleTypeDef *hrtc)
1115:Drivers/STM32F4xx_HAL_Driver/Src/stm32f4xx_hal_rtc_ex.c **** {
 1938              		.loc 1 1115 1 is_stmt 1 view -0
 1939              		.cfi_startproc
 1940              		@ args = 0, pretend = 0, frame = 0
 1941              		@ frame_needed = 0, uses_anonymous_args = 0
ARM GAS  C:\Users\Administrator\AppData\Local\Temp\cczHSQjt.s 			page 56


 1942              		@ link register save eliminated.
1116:Drivers/STM32F4xx_HAL_Driver/Src/stm32f4xx_hal_rtc_ex.c ****   /* Get the counter value */
1117:Drivers/STM32F4xx_HAL_Driver/Src/stm32f4xx_hal_rtc_ex.c ****   return ((uint32_t)(hrtc->Instance->WUTR & RTC_WUTR_WUT));
 1943              		.loc 1 1117 3 view .LVU692
 1944              		.loc 1 1117 26 is_stmt 0 view .LVU693
 1945 0000 0368     		ldr	r3, [r0]
 1946              		.loc 1 1117 36 view .LVU694
 1947 0002 5869     		ldr	r0, [r3, #20]
 1948              	.LVL127:
1118:Drivers/STM32F4xx_HAL_Driver/Src/stm32f4xx_hal_rtc_ex.c **** }
 1949              		.loc 1 1118 1 view .LVU695
 1950 0004 80B2     		uxth	r0, r0
 1951 0006 7047     		bx	lr
 1952              		.cfi_endproc
 1953              	.LFE252:
 1955              		.section	.text.HAL_RTCEx_WakeUpTimerEventCallback,"ax",%progbits
 1956              		.align	1
 1957              		.weak	HAL_RTCEx_WakeUpTimerEventCallback
 1958              		.syntax unified
 1959              		.thumb
 1960              		.thumb_func
 1962              	HAL_RTCEx_WakeUpTimerEventCallback:
 1963              	.LVL128:
 1964              	.LFB254:
1119:Drivers/STM32F4xx_HAL_Driver/Src/stm32f4xx_hal_rtc_ex.c **** 
1120:Drivers/STM32F4xx_HAL_Driver/Src/stm32f4xx_hal_rtc_ex.c **** /**
1121:Drivers/STM32F4xx_HAL_Driver/Src/stm32f4xx_hal_rtc_ex.c ****   * @brief  Handles Wakeup Timer interrupt request.
1122:Drivers/STM32F4xx_HAL_Driver/Src/stm32f4xx_hal_rtc_ex.c ****   * @note   Unlike alarm interrupt line (shared by Alarms A and B) or tamper
1123:Drivers/STM32F4xx_HAL_Driver/Src/stm32f4xx_hal_rtc_ex.c ****   *         interrupt line (shared by timestamp and tampers) wakeup timer
1124:Drivers/STM32F4xx_HAL_Driver/Src/stm32f4xx_hal_rtc_ex.c ****   *         interrupt line is exclusive to the wakeup timer.
1125:Drivers/STM32F4xx_HAL_Driver/Src/stm32f4xx_hal_rtc_ex.c ****   *         There is no need in this case to check on the interrupt enable
1126:Drivers/STM32F4xx_HAL_Driver/Src/stm32f4xx_hal_rtc_ex.c ****   *         status via __HAL_RTC_WAKEUPTIMER_GET_IT_SOURCE().
1127:Drivers/STM32F4xx_HAL_Driver/Src/stm32f4xx_hal_rtc_ex.c ****   * @param  hrtc pointer to a RTC_HandleTypeDef structure that contains
1128:Drivers/STM32F4xx_HAL_Driver/Src/stm32f4xx_hal_rtc_ex.c ****   *                the configuration information for RTC.
1129:Drivers/STM32F4xx_HAL_Driver/Src/stm32f4xx_hal_rtc_ex.c ****   * @retval None
1130:Drivers/STM32F4xx_HAL_Driver/Src/stm32f4xx_hal_rtc_ex.c ****   */
1131:Drivers/STM32F4xx_HAL_Driver/Src/stm32f4xx_hal_rtc_ex.c **** void HAL_RTCEx_WakeUpTimerIRQHandler(RTC_HandleTypeDef *hrtc)
1132:Drivers/STM32F4xx_HAL_Driver/Src/stm32f4xx_hal_rtc_ex.c **** {
1133:Drivers/STM32F4xx_HAL_Driver/Src/stm32f4xx_hal_rtc_ex.c ****   /* Get the pending status of the Wakeup timer Interrupt */
1134:Drivers/STM32F4xx_HAL_Driver/Src/stm32f4xx_hal_rtc_ex.c ****   if (__HAL_RTC_WAKEUPTIMER_GET_FLAG(hrtc, RTC_FLAG_WUTF) != 0U)
1135:Drivers/STM32F4xx_HAL_Driver/Src/stm32f4xx_hal_rtc_ex.c ****   {
1136:Drivers/STM32F4xx_HAL_Driver/Src/stm32f4xx_hal_rtc_ex.c ****     /* Wakeup timer callback */
1137:Drivers/STM32F4xx_HAL_Driver/Src/stm32f4xx_hal_rtc_ex.c **** #if (USE_HAL_RTC_REGISTER_CALLBACKS == 1)
1138:Drivers/STM32F4xx_HAL_Driver/Src/stm32f4xx_hal_rtc_ex.c ****     hrtc->WakeUpTimerEventCallback(hrtc);
1139:Drivers/STM32F4xx_HAL_Driver/Src/stm32f4xx_hal_rtc_ex.c **** #else
1140:Drivers/STM32F4xx_HAL_Driver/Src/stm32f4xx_hal_rtc_ex.c ****     HAL_RTCEx_WakeUpTimerEventCallback(hrtc);
1141:Drivers/STM32F4xx_HAL_Driver/Src/stm32f4xx_hal_rtc_ex.c **** #endif /* USE_HAL_RTC_REGISTER_CALLBACKS */
1142:Drivers/STM32F4xx_HAL_Driver/Src/stm32f4xx_hal_rtc_ex.c **** 
1143:Drivers/STM32F4xx_HAL_Driver/Src/stm32f4xx_hal_rtc_ex.c ****     /* Clear the Wakeup timer interrupt pending bit */
1144:Drivers/STM32F4xx_HAL_Driver/Src/stm32f4xx_hal_rtc_ex.c ****     __HAL_RTC_WAKEUPTIMER_CLEAR_FLAG(hrtc, RTC_FLAG_WUTF);
1145:Drivers/STM32F4xx_HAL_Driver/Src/stm32f4xx_hal_rtc_ex.c ****   }
1146:Drivers/STM32F4xx_HAL_Driver/Src/stm32f4xx_hal_rtc_ex.c **** 
1147:Drivers/STM32F4xx_HAL_Driver/Src/stm32f4xx_hal_rtc_ex.c ****   /* Clear the EXTI's line Flag for RTC WakeUpTimer */
1148:Drivers/STM32F4xx_HAL_Driver/Src/stm32f4xx_hal_rtc_ex.c ****   __HAL_RTC_WAKEUPTIMER_EXTI_CLEAR_FLAG();
1149:Drivers/STM32F4xx_HAL_Driver/Src/stm32f4xx_hal_rtc_ex.c **** 
1150:Drivers/STM32F4xx_HAL_Driver/Src/stm32f4xx_hal_rtc_ex.c ****   /* Change RTC state */
1151:Drivers/STM32F4xx_HAL_Driver/Src/stm32f4xx_hal_rtc_ex.c ****   hrtc->State = HAL_RTC_STATE_READY;
ARM GAS  C:\Users\Administrator\AppData\Local\Temp\cczHSQjt.s 			page 57


1152:Drivers/STM32F4xx_HAL_Driver/Src/stm32f4xx_hal_rtc_ex.c **** }
1153:Drivers/STM32F4xx_HAL_Driver/Src/stm32f4xx_hal_rtc_ex.c **** 
1154:Drivers/STM32F4xx_HAL_Driver/Src/stm32f4xx_hal_rtc_ex.c **** /**
1155:Drivers/STM32F4xx_HAL_Driver/Src/stm32f4xx_hal_rtc_ex.c ****   * @brief  Wakeup Timer callback.
1156:Drivers/STM32F4xx_HAL_Driver/Src/stm32f4xx_hal_rtc_ex.c ****   * @param  hrtc pointer to a RTC_HandleTypeDef structure that contains
1157:Drivers/STM32F4xx_HAL_Driver/Src/stm32f4xx_hal_rtc_ex.c ****   *                the configuration information for RTC.
1158:Drivers/STM32F4xx_HAL_Driver/Src/stm32f4xx_hal_rtc_ex.c ****   * @retval None
1159:Drivers/STM32F4xx_HAL_Driver/Src/stm32f4xx_hal_rtc_ex.c ****   */
1160:Drivers/STM32F4xx_HAL_Driver/Src/stm32f4xx_hal_rtc_ex.c **** __weak void HAL_RTCEx_WakeUpTimerEventCallback(RTC_HandleTypeDef *hrtc)
1161:Drivers/STM32F4xx_HAL_Driver/Src/stm32f4xx_hal_rtc_ex.c **** {
 1965              		.loc 1 1161 1 is_stmt 1 view -0
 1966              		.cfi_startproc
 1967              		@ args = 0, pretend = 0, frame = 0
 1968              		@ frame_needed = 0, uses_anonymous_args = 0
 1969              		@ link register save eliminated.
1162:Drivers/STM32F4xx_HAL_Driver/Src/stm32f4xx_hal_rtc_ex.c ****   /* Prevent unused argument(s) compilation warning */
1163:Drivers/STM32F4xx_HAL_Driver/Src/stm32f4xx_hal_rtc_ex.c ****   UNUSED(hrtc);
 1970              		.loc 1 1163 3 view .LVU697
1164:Drivers/STM32F4xx_HAL_Driver/Src/stm32f4xx_hal_rtc_ex.c **** 
1165:Drivers/STM32F4xx_HAL_Driver/Src/stm32f4xx_hal_rtc_ex.c ****   /* NOTE: This function should not be modified, when the callback is needed,
1166:Drivers/STM32F4xx_HAL_Driver/Src/stm32f4xx_hal_rtc_ex.c ****            the HAL_RTCEx_WakeUpTimerEventCallback could be implemented in the user file
1167:Drivers/STM32F4xx_HAL_Driver/Src/stm32f4xx_hal_rtc_ex.c ****    */
1168:Drivers/STM32F4xx_HAL_Driver/Src/stm32f4xx_hal_rtc_ex.c **** }
 1971              		.loc 1 1168 1 is_stmt 0 view .LVU698
 1972 0000 7047     		bx	lr
 1973              		.cfi_endproc
 1974              	.LFE254:
 1976              		.section	.text.HAL_RTCEx_WakeUpTimerIRQHandler,"ax",%progbits
 1977              		.align	1
 1978              		.global	HAL_RTCEx_WakeUpTimerIRQHandler
 1979              		.syntax unified
 1980              		.thumb
 1981              		.thumb_func
 1983              	HAL_RTCEx_WakeUpTimerIRQHandler:
 1984              	.LVL129:
 1985              	.LFB253:
1132:Drivers/STM32F4xx_HAL_Driver/Src/stm32f4xx_hal_rtc_ex.c ****   /* Get the pending status of the Wakeup timer Interrupt */
 1986              		.loc 1 1132 1 is_stmt 1 view -0
 1987              		.cfi_startproc
 1988              		@ args = 0, pretend = 0, frame = 0
 1989              		@ frame_needed = 0, uses_anonymous_args = 0
1132:Drivers/STM32F4xx_HAL_Driver/Src/stm32f4xx_hal_rtc_ex.c ****   /* Get the pending status of the Wakeup timer Interrupt */
 1990              		.loc 1 1132 1 is_stmt 0 view .LVU700
 1991 0000 10B5     		push	{r4, lr}
 1992              		.cfi_def_cfa_offset 8
 1993              		.cfi_offset 4, -8
 1994              		.cfi_offset 14, -4
 1995 0002 0446     		mov	r4, r0
1134:Drivers/STM32F4xx_HAL_Driver/Src/stm32f4xx_hal_rtc_ex.c ****   {
 1996              		.loc 1 1134 3 is_stmt 1 view .LVU701
1134:Drivers/STM32F4xx_HAL_Driver/Src/stm32f4xx_hal_rtc_ex.c ****   {
 1997              		.loc 1 1134 7 is_stmt 0 view .LVU702
 1998 0004 0368     		ldr	r3, [r0]
 1999 0006 DB68     		ldr	r3, [r3, #12]
1134:Drivers/STM32F4xx_HAL_Driver/Src/stm32f4xx_hal_rtc_ex.c ****   {
 2000              		.loc 1 1134 6 view .LVU703
 2001 0008 13F4806F 		tst	r3, #1024
ARM GAS  C:\Users\Administrator\AppData\Local\Temp\cczHSQjt.s 			page 58


 2002 000c 06D1     		bne	.L122
 2003              	.LVL130:
 2004              	.L120:
1148:Drivers/STM32F4xx_HAL_Driver/Src/stm32f4xx_hal_rtc_ex.c **** 
 2005              		.loc 1 1148 3 is_stmt 1 view .LVU704
 2006 000e 084B     		ldr	r3, .L123
 2007 0010 4FF48002 		mov	r2, #4194304
 2008 0014 5A61     		str	r2, [r3, #20]
1151:Drivers/STM32F4xx_HAL_Driver/Src/stm32f4xx_hal_rtc_ex.c **** }
 2009              		.loc 1 1151 3 view .LVU705
1151:Drivers/STM32F4xx_HAL_Driver/Src/stm32f4xx_hal_rtc_ex.c **** }
 2010              		.loc 1 1151 15 is_stmt 0 view .LVU706
 2011 0016 0123     		movs	r3, #1
 2012 0018 6377     		strb	r3, [r4, #29]
1152:Drivers/STM32F4xx_HAL_Driver/Src/stm32f4xx_hal_rtc_ex.c **** 
 2013              		.loc 1 1152 1 view .LVU707
 2014 001a 10BD     		pop	{r4, pc}
 2015              	.LVL131:
 2016              	.L122:
1140:Drivers/STM32F4xx_HAL_Driver/Src/stm32f4xx_hal_rtc_ex.c **** #endif /* USE_HAL_RTC_REGISTER_CALLBACKS */
 2017              		.loc 1 1140 5 is_stmt 1 view .LVU708
 2018 001c FFF7FEFF 		bl	HAL_RTCEx_WakeUpTimerEventCallback
 2019              	.LVL132:
1144:Drivers/STM32F4xx_HAL_Driver/Src/stm32f4xx_hal_rtc_ex.c ****   }
 2020              		.loc 1 1144 5 view .LVU709
 2021 0020 2268     		ldr	r2, [r4]
 2022 0022 D368     		ldr	r3, [r2, #12]
 2023 0024 DBB2     		uxtb	r3, r3
 2024 0026 63F49063 		orn	r3, r3, #1152
 2025 002a D360     		str	r3, [r2, #12]
 2026 002c EFE7     		b	.L120
 2027              	.L124:
 2028 002e 00BF     		.align	2
 2029              	.L123:
 2030 0030 003C0140 		.word	1073822720
 2031              		.cfi_endproc
 2032              	.LFE253:
 2034              		.section	.text.HAL_RTCEx_PollForWakeUpTimerEvent,"ax",%progbits
 2035              		.align	1
 2036              		.global	HAL_RTCEx_PollForWakeUpTimerEvent
 2037              		.syntax unified
 2038              		.thumb
 2039              		.thumb_func
 2041              	HAL_RTCEx_PollForWakeUpTimerEvent:
 2042              	.LVL133:
 2043              	.LFB255:
1169:Drivers/STM32F4xx_HAL_Driver/Src/stm32f4xx_hal_rtc_ex.c **** 
1170:Drivers/STM32F4xx_HAL_Driver/Src/stm32f4xx_hal_rtc_ex.c **** /**
1171:Drivers/STM32F4xx_HAL_Driver/Src/stm32f4xx_hal_rtc_ex.c ****   * @brief  Handles Wakeup Timer Polling.
1172:Drivers/STM32F4xx_HAL_Driver/Src/stm32f4xx_hal_rtc_ex.c ****   * @param  hrtc pointer to a RTC_HandleTypeDef structure that contains
1173:Drivers/STM32F4xx_HAL_Driver/Src/stm32f4xx_hal_rtc_ex.c ****   *                the configuration information for RTC.
1174:Drivers/STM32F4xx_HAL_Driver/Src/stm32f4xx_hal_rtc_ex.c ****   * @param  Timeout Timeout duration
1175:Drivers/STM32F4xx_HAL_Driver/Src/stm32f4xx_hal_rtc_ex.c ****   * @retval HAL status
1176:Drivers/STM32F4xx_HAL_Driver/Src/stm32f4xx_hal_rtc_ex.c ****   */
1177:Drivers/STM32F4xx_HAL_Driver/Src/stm32f4xx_hal_rtc_ex.c **** HAL_StatusTypeDef HAL_RTCEx_PollForWakeUpTimerEvent(RTC_HandleTypeDef *hrtc, uint32_t Timeout)
1178:Drivers/STM32F4xx_HAL_Driver/Src/stm32f4xx_hal_rtc_ex.c **** {
 2044              		.loc 1 1178 1 view -0
ARM GAS  C:\Users\Administrator\AppData\Local\Temp\cczHSQjt.s 			page 59


 2045              		.cfi_startproc
 2046              		@ args = 0, pretend = 0, frame = 0
 2047              		@ frame_needed = 0, uses_anonymous_args = 0
 2048              		.loc 1 1178 1 is_stmt 0 view .LVU711
 2049 0000 70B5     		push	{r4, r5, r6, lr}
 2050              		.cfi_def_cfa_offset 16
 2051              		.cfi_offset 4, -16
 2052              		.cfi_offset 5, -12
 2053              		.cfi_offset 6, -8
 2054              		.cfi_offset 14, -4
 2055 0002 0446     		mov	r4, r0
 2056 0004 0D46     		mov	r5, r1
1179:Drivers/STM32F4xx_HAL_Driver/Src/stm32f4xx_hal_rtc_ex.c ****   uint32_t tickstart = 0U;
 2057              		.loc 1 1179 3 is_stmt 1 view .LVU712
 2058              	.LVL134:
1180:Drivers/STM32F4xx_HAL_Driver/Src/stm32f4xx_hal_rtc_ex.c **** 
1181:Drivers/STM32F4xx_HAL_Driver/Src/stm32f4xx_hal_rtc_ex.c ****   /* Get tick */
1182:Drivers/STM32F4xx_HAL_Driver/Src/stm32f4xx_hal_rtc_ex.c ****   tickstart = HAL_GetTick();
 2059              		.loc 1 1182 3 view .LVU713
 2060              		.loc 1 1182 15 is_stmt 0 view .LVU714
 2061 0006 FFF7FEFF 		bl	HAL_GetTick
 2062              	.LVL135:
 2063              		.loc 1 1182 15 view .LVU715
 2064 000a 0646     		mov	r6, r0
 2065              	.LVL136:
1183:Drivers/STM32F4xx_HAL_Driver/Src/stm32f4xx_hal_rtc_ex.c **** 
1184:Drivers/STM32F4xx_HAL_Driver/Src/stm32f4xx_hal_rtc_ex.c ****   while (__HAL_RTC_WAKEUPTIMER_GET_FLAG(hrtc, RTC_FLAG_WUTF) == 0U)
 2066              		.loc 1 1184 3 is_stmt 1 view .LVU716
 2067              	.L127:
 2068              		.loc 1 1184 62 view .LVU717
 2069              		.loc 1 1184 10 is_stmt 0 view .LVU718
 2070 000c 2368     		ldr	r3, [r4]
 2071 000e DA68     		ldr	r2, [r3, #12]
 2072              		.loc 1 1184 62 view .LVU719
 2073 0010 12F4806F 		tst	r2, #1024
 2074 0014 0BD1     		bne	.L132
1185:Drivers/STM32F4xx_HAL_Driver/Src/stm32f4xx_hal_rtc_ex.c ****   {
1186:Drivers/STM32F4xx_HAL_Driver/Src/stm32f4xx_hal_rtc_ex.c ****     if (Timeout != HAL_MAX_DELAY)
 2075              		.loc 1 1186 5 is_stmt 1 view .LVU720
 2076              		.loc 1 1186 8 is_stmt 0 view .LVU721
 2077 0016 B5F1FF3F 		cmp	r5, #-1
 2078 001a F7D0     		beq	.L127
1187:Drivers/STM32F4xx_HAL_Driver/Src/stm32f4xx_hal_rtc_ex.c ****     {
1188:Drivers/STM32F4xx_HAL_Driver/Src/stm32f4xx_hal_rtc_ex.c ****       if ((Timeout == 0U) || ((HAL_GetTick() - tickstart) > Timeout))
 2079              		.loc 1 1188 7 is_stmt 1 view .LVU722
 2080              		.loc 1 1188 10 is_stmt 0 view .LVU723
 2081 001c 25B1     		cbz	r5, .L128
 2082              		.loc 1 1188 32 discriminator 1 view .LVU724
 2083 001e FFF7FEFF 		bl	HAL_GetTick
 2084              	.LVL137:
 2085              		.loc 1 1188 46 discriminator 2 view .LVU725
 2086 0022 801B     		subs	r0, r0, r6
 2087              		.loc 1 1188 27 discriminator 2 view .LVU726
 2088 0024 A842     		cmp	r0, r5
 2089 0026 F1D9     		bls	.L127
 2090              	.L128:
1189:Drivers/STM32F4xx_HAL_Driver/Src/stm32f4xx_hal_rtc_ex.c ****       {
ARM GAS  C:\Users\Administrator\AppData\Local\Temp\cczHSQjt.s 			page 60


1190:Drivers/STM32F4xx_HAL_Driver/Src/stm32f4xx_hal_rtc_ex.c ****         hrtc->State = HAL_RTC_STATE_TIMEOUT;
 2091              		.loc 1 1190 9 is_stmt 1 view .LVU727
 2092              		.loc 1 1190 21 is_stmt 0 view .LVU728
 2093 0028 0320     		movs	r0, #3
 2094 002a 6077     		strb	r0, [r4, #29]
1191:Drivers/STM32F4xx_HAL_Driver/Src/stm32f4xx_hal_rtc_ex.c ****         return HAL_TIMEOUT;
 2095              		.loc 1 1191 9 is_stmt 1 view .LVU729
 2096              		.loc 1 1191 16 is_stmt 0 view .LVU730
 2097 002c 07E0     		b	.L129
 2098              	.L132:
1192:Drivers/STM32F4xx_HAL_Driver/Src/stm32f4xx_hal_rtc_ex.c ****       }
1193:Drivers/STM32F4xx_HAL_Driver/Src/stm32f4xx_hal_rtc_ex.c ****     }
1194:Drivers/STM32F4xx_HAL_Driver/Src/stm32f4xx_hal_rtc_ex.c ****   }
1195:Drivers/STM32F4xx_HAL_Driver/Src/stm32f4xx_hal_rtc_ex.c **** 
1196:Drivers/STM32F4xx_HAL_Driver/Src/stm32f4xx_hal_rtc_ex.c ****   /* Clear the Wakeup timer Flag */
1197:Drivers/STM32F4xx_HAL_Driver/Src/stm32f4xx_hal_rtc_ex.c ****   __HAL_RTC_WAKEUPTIMER_CLEAR_FLAG(hrtc, RTC_FLAG_WUTF);
 2099              		.loc 1 1197 3 is_stmt 1 view .LVU731
 2100 002e DA68     		ldr	r2, [r3, #12]
 2101 0030 D2B2     		uxtb	r2, r2
 2102 0032 62F49062 		orn	r2, r2, #1152
 2103 0036 DA60     		str	r2, [r3, #12]
1198:Drivers/STM32F4xx_HAL_Driver/Src/stm32f4xx_hal_rtc_ex.c **** 
1199:Drivers/STM32F4xx_HAL_Driver/Src/stm32f4xx_hal_rtc_ex.c ****   /* Change RTC state */
1200:Drivers/STM32F4xx_HAL_Driver/Src/stm32f4xx_hal_rtc_ex.c ****   hrtc->State = HAL_RTC_STATE_READY;
 2104              		.loc 1 1200 3 view .LVU732
 2105              		.loc 1 1200 15 is_stmt 0 view .LVU733
 2106 0038 0123     		movs	r3, #1
 2107 003a 6377     		strb	r3, [r4, #29]
1201:Drivers/STM32F4xx_HAL_Driver/Src/stm32f4xx_hal_rtc_ex.c **** 
1202:Drivers/STM32F4xx_HAL_Driver/Src/stm32f4xx_hal_rtc_ex.c ****   return HAL_OK;
 2108              		.loc 1 1202 3 is_stmt 1 view .LVU734
 2109              		.loc 1 1202 10 is_stmt 0 view .LVU735
 2110 003c 0020     		movs	r0, #0
 2111              	.L129:
1203:Drivers/STM32F4xx_HAL_Driver/Src/stm32f4xx_hal_rtc_ex.c **** }
 2112              		.loc 1 1203 1 view .LVU736
 2113 003e 70BD     		pop	{r4, r5, r6, pc}
 2114              		.loc 1 1203 1 view .LVU737
 2115              		.cfi_endproc
 2116              	.LFE255:
 2118              		.section	.text.HAL_RTCEx_BKUPWrite,"ax",%progbits
 2119              		.align	1
 2120              		.global	HAL_RTCEx_BKUPWrite
 2121              		.syntax unified
 2122              		.thumb
 2123              		.thumb_func
 2125              	HAL_RTCEx_BKUPWrite:
 2126              	.LVL138:
 2127              	.LFB256:
1204:Drivers/STM32F4xx_HAL_Driver/Src/stm32f4xx_hal_rtc_ex.c **** 
1205:Drivers/STM32F4xx_HAL_Driver/Src/stm32f4xx_hal_rtc_ex.c **** /**
1206:Drivers/STM32F4xx_HAL_Driver/Src/stm32f4xx_hal_rtc_ex.c ****   * @}
1207:Drivers/STM32F4xx_HAL_Driver/Src/stm32f4xx_hal_rtc_ex.c ****   */
1208:Drivers/STM32F4xx_HAL_Driver/Src/stm32f4xx_hal_rtc_ex.c **** 
1209:Drivers/STM32F4xx_HAL_Driver/Src/stm32f4xx_hal_rtc_ex.c **** /** @defgroup RTCEx_Exported_Functions_Group3 Extended Peripheral Control functions
1210:Drivers/STM32F4xx_HAL_Driver/Src/stm32f4xx_hal_rtc_ex.c ****   * @brief    Extended Peripheral Control functions
1211:Drivers/STM32F4xx_HAL_Driver/Src/stm32f4xx_hal_rtc_ex.c ****   *
ARM GAS  C:\Users\Administrator\AppData\Local\Temp\cczHSQjt.s 			page 61


1212:Drivers/STM32F4xx_HAL_Driver/Src/stm32f4xx_hal_rtc_ex.c **** @verbatim
1213:Drivers/STM32F4xx_HAL_Driver/Src/stm32f4xx_hal_rtc_ex.c ****  ===============================================================================
1214:Drivers/STM32F4xx_HAL_Driver/Src/stm32f4xx_hal_rtc_ex.c ****               ##### Extended Peripheral Control functions #####
1215:Drivers/STM32F4xx_HAL_Driver/Src/stm32f4xx_hal_rtc_ex.c ****  ===============================================================================
1216:Drivers/STM32F4xx_HAL_Driver/Src/stm32f4xx_hal_rtc_ex.c ****     [..]
1217:Drivers/STM32F4xx_HAL_Driver/Src/stm32f4xx_hal_rtc_ex.c ****     This subsection provides functions allowing to
1218:Drivers/STM32F4xx_HAL_Driver/Src/stm32f4xx_hal_rtc_ex.c ****       (+) Write a data in a specified RTC Backup data register
1219:Drivers/STM32F4xx_HAL_Driver/Src/stm32f4xx_hal_rtc_ex.c ****       (+) Read a data in a specified RTC Backup data register
1220:Drivers/STM32F4xx_HAL_Driver/Src/stm32f4xx_hal_rtc_ex.c ****       (+) Set the Coarse calibration parameters.
1221:Drivers/STM32F4xx_HAL_Driver/Src/stm32f4xx_hal_rtc_ex.c ****       (+) Deactivate the Coarse calibration parameters
1222:Drivers/STM32F4xx_HAL_Driver/Src/stm32f4xx_hal_rtc_ex.c ****       (+) Set the Smooth calibration parameters.
1223:Drivers/STM32F4xx_HAL_Driver/Src/stm32f4xx_hal_rtc_ex.c ****       (+) Configure the Synchronization Shift Control Settings.
1224:Drivers/STM32F4xx_HAL_Driver/Src/stm32f4xx_hal_rtc_ex.c ****       (+) Configure the Calibration Pinout (RTC_CALIB) Selection (1Hz or 512Hz).
1225:Drivers/STM32F4xx_HAL_Driver/Src/stm32f4xx_hal_rtc_ex.c ****       (+) Deactivate the Calibration Pinout (RTC_CALIB) Selection (1Hz or 512Hz).
1226:Drivers/STM32F4xx_HAL_Driver/Src/stm32f4xx_hal_rtc_ex.c ****       (+) Enable the RTC reference clock detection.
1227:Drivers/STM32F4xx_HAL_Driver/Src/stm32f4xx_hal_rtc_ex.c ****       (+) Disable the RTC reference clock detection.
1228:Drivers/STM32F4xx_HAL_Driver/Src/stm32f4xx_hal_rtc_ex.c ****       (+) Enable the Bypass Shadow feature.
1229:Drivers/STM32F4xx_HAL_Driver/Src/stm32f4xx_hal_rtc_ex.c ****       (+) Disable the Bypass Shadow feature.
1230:Drivers/STM32F4xx_HAL_Driver/Src/stm32f4xx_hal_rtc_ex.c **** 
1231:Drivers/STM32F4xx_HAL_Driver/Src/stm32f4xx_hal_rtc_ex.c **** @endverbatim
1232:Drivers/STM32F4xx_HAL_Driver/Src/stm32f4xx_hal_rtc_ex.c ****   * @{
1233:Drivers/STM32F4xx_HAL_Driver/Src/stm32f4xx_hal_rtc_ex.c ****   */
1234:Drivers/STM32F4xx_HAL_Driver/Src/stm32f4xx_hal_rtc_ex.c **** 
1235:Drivers/STM32F4xx_HAL_Driver/Src/stm32f4xx_hal_rtc_ex.c **** /**
1236:Drivers/STM32F4xx_HAL_Driver/Src/stm32f4xx_hal_rtc_ex.c ****   * @brief  Writes a data in a specified RTC Backup data register.
1237:Drivers/STM32F4xx_HAL_Driver/Src/stm32f4xx_hal_rtc_ex.c ****   * @param  hrtc pointer to a RTC_HandleTypeDef structure that contains
1238:Drivers/STM32F4xx_HAL_Driver/Src/stm32f4xx_hal_rtc_ex.c ****   *                the configuration information for RTC.
1239:Drivers/STM32F4xx_HAL_Driver/Src/stm32f4xx_hal_rtc_ex.c ****   * @param  BackupRegister RTC Backup data Register number.
1240:Drivers/STM32F4xx_HAL_Driver/Src/stm32f4xx_hal_rtc_ex.c ****   *          This parameter can be: RTC_BKP_DRx (where x can be from 0 to 19)
1241:Drivers/STM32F4xx_HAL_Driver/Src/stm32f4xx_hal_rtc_ex.c ****   *                                 to specify the register.
1242:Drivers/STM32F4xx_HAL_Driver/Src/stm32f4xx_hal_rtc_ex.c ****   * @param  Data Data to be written in the specified RTC Backup data register.
1243:Drivers/STM32F4xx_HAL_Driver/Src/stm32f4xx_hal_rtc_ex.c ****   * @retval None
1244:Drivers/STM32F4xx_HAL_Driver/Src/stm32f4xx_hal_rtc_ex.c ****   */
1245:Drivers/STM32F4xx_HAL_Driver/Src/stm32f4xx_hal_rtc_ex.c **** void HAL_RTCEx_BKUPWrite(RTC_HandleTypeDef *hrtc, uint32_t BackupRegister, uint32_t Data)
1246:Drivers/STM32F4xx_HAL_Driver/Src/stm32f4xx_hal_rtc_ex.c **** {
 2128              		.loc 1 1246 1 is_stmt 1 view -0
 2129              		.cfi_startproc
 2130              		@ args = 0, pretend = 0, frame = 0
 2131              		@ frame_needed = 0, uses_anonymous_args = 0
 2132              		@ link register save eliminated.
1247:Drivers/STM32F4xx_HAL_Driver/Src/stm32f4xx_hal_rtc_ex.c ****   uint32_t tmp = 0U;
 2133              		.loc 1 1247 3 view .LVU739
1248:Drivers/STM32F4xx_HAL_Driver/Src/stm32f4xx_hal_rtc_ex.c **** 
1249:Drivers/STM32F4xx_HAL_Driver/Src/stm32f4xx_hal_rtc_ex.c ****   /* Check the parameters */
1250:Drivers/STM32F4xx_HAL_Driver/Src/stm32f4xx_hal_rtc_ex.c ****   assert_param(IS_RTC_BKP(BackupRegister));
 2134              		.loc 1 1250 3 view .LVU740
1251:Drivers/STM32F4xx_HAL_Driver/Src/stm32f4xx_hal_rtc_ex.c **** 
1252:Drivers/STM32F4xx_HAL_Driver/Src/stm32f4xx_hal_rtc_ex.c ****   tmp = (uint32_t) & (hrtc->Instance->BKP0R);
 2135              		.loc 1 1252 3 view .LVU741
 2136              		.loc 1 1252 27 is_stmt 0 view .LVU742
 2137 0000 0368     		ldr	r3, [r0]
 2138              		.loc 1 1252 20 view .LVU743
 2139 0002 5033     		adds	r3, r3, #80
 2140              	.LVL139:
1253:Drivers/STM32F4xx_HAL_Driver/Src/stm32f4xx_hal_rtc_ex.c ****   tmp += (BackupRegister * 4U);
 2141              		.loc 1 1253 3 is_stmt 1 view .LVU744
1254:Drivers/STM32F4xx_HAL_Driver/Src/stm32f4xx_hal_rtc_ex.c **** 
ARM GAS  C:\Users\Administrator\AppData\Local\Temp\cczHSQjt.s 			page 62


1255:Drivers/STM32F4xx_HAL_Driver/Src/stm32f4xx_hal_rtc_ex.c ****   /* Write the specified register */
1256:Drivers/STM32F4xx_HAL_Driver/Src/stm32f4xx_hal_rtc_ex.c ****   *(__IO uint32_t *)tmp = (uint32_t)Data;
 2142              		.loc 1 1256 3 view .LVU745
 2143              		.loc 1 1256 25 is_stmt 0 view .LVU746
 2144 0004 43F82120 		str	r2, [r3, r1, lsl #2]
1257:Drivers/STM32F4xx_HAL_Driver/Src/stm32f4xx_hal_rtc_ex.c **** }
 2145              		.loc 1 1257 1 view .LVU747
 2146 0008 7047     		bx	lr
 2147              		.cfi_endproc
 2148              	.LFE256:
 2150              		.section	.text.HAL_RTCEx_BKUPRead,"ax",%progbits
 2151              		.align	1
 2152              		.global	HAL_RTCEx_BKUPRead
 2153              		.syntax unified
 2154              		.thumb
 2155              		.thumb_func
 2157              	HAL_RTCEx_BKUPRead:
 2158              	.LVL140:
 2159              	.LFB257:
1258:Drivers/STM32F4xx_HAL_Driver/Src/stm32f4xx_hal_rtc_ex.c **** 
1259:Drivers/STM32F4xx_HAL_Driver/Src/stm32f4xx_hal_rtc_ex.c **** /**
1260:Drivers/STM32F4xx_HAL_Driver/Src/stm32f4xx_hal_rtc_ex.c ****   * @brief  Reads data from the specified RTC Backup data Register.
1261:Drivers/STM32F4xx_HAL_Driver/Src/stm32f4xx_hal_rtc_ex.c ****   * @param  hrtc pointer to a RTC_HandleTypeDef structure that contains
1262:Drivers/STM32F4xx_HAL_Driver/Src/stm32f4xx_hal_rtc_ex.c ****   *                the configuration information for RTC.
1263:Drivers/STM32F4xx_HAL_Driver/Src/stm32f4xx_hal_rtc_ex.c ****   * @param  BackupRegister RTC Backup data Register number.
1264:Drivers/STM32F4xx_HAL_Driver/Src/stm32f4xx_hal_rtc_ex.c ****   *          This parameter can be: RTC_BKP_DRx (where x can be from 0 to 19)
1265:Drivers/STM32F4xx_HAL_Driver/Src/stm32f4xx_hal_rtc_ex.c ****   *                                 to specify the register.
1266:Drivers/STM32F4xx_HAL_Driver/Src/stm32f4xx_hal_rtc_ex.c ****   * @retval Read value
1267:Drivers/STM32F4xx_HAL_Driver/Src/stm32f4xx_hal_rtc_ex.c ****   */
1268:Drivers/STM32F4xx_HAL_Driver/Src/stm32f4xx_hal_rtc_ex.c **** uint32_t HAL_RTCEx_BKUPRead(RTC_HandleTypeDef *hrtc, uint32_t BackupRegister)
1269:Drivers/STM32F4xx_HAL_Driver/Src/stm32f4xx_hal_rtc_ex.c **** {
 2160              		.loc 1 1269 1 is_stmt 1 view -0
 2161              		.cfi_startproc
 2162              		@ args = 0, pretend = 0, frame = 0
 2163              		@ frame_needed = 0, uses_anonymous_args = 0
 2164              		@ link register save eliminated.
1270:Drivers/STM32F4xx_HAL_Driver/Src/stm32f4xx_hal_rtc_ex.c ****   uint32_t tmp = 0U;
 2165              		.loc 1 1270 3 view .LVU749
1271:Drivers/STM32F4xx_HAL_Driver/Src/stm32f4xx_hal_rtc_ex.c **** 
1272:Drivers/STM32F4xx_HAL_Driver/Src/stm32f4xx_hal_rtc_ex.c ****   /* Check the parameters */
1273:Drivers/STM32F4xx_HAL_Driver/Src/stm32f4xx_hal_rtc_ex.c ****   assert_param(IS_RTC_BKP(BackupRegister));
 2166              		.loc 1 1273 3 view .LVU750
1274:Drivers/STM32F4xx_HAL_Driver/Src/stm32f4xx_hal_rtc_ex.c **** 
1275:Drivers/STM32F4xx_HAL_Driver/Src/stm32f4xx_hal_rtc_ex.c ****   tmp = (uint32_t) & (hrtc->Instance->BKP0R);
 2167              		.loc 1 1275 3 view .LVU751
 2168              		.loc 1 1275 27 is_stmt 0 view .LVU752
 2169 0000 0368     		ldr	r3, [r0]
 2170              		.loc 1 1275 20 view .LVU753
 2171 0002 5033     		adds	r3, r3, #80
 2172              	.LVL141:
1276:Drivers/STM32F4xx_HAL_Driver/Src/stm32f4xx_hal_rtc_ex.c ****   tmp += (BackupRegister * 4U);
 2173              		.loc 1 1276 3 is_stmt 1 view .LVU754
1277:Drivers/STM32F4xx_HAL_Driver/Src/stm32f4xx_hal_rtc_ex.c **** 
1278:Drivers/STM32F4xx_HAL_Driver/Src/stm32f4xx_hal_rtc_ex.c ****   /* Read the specified register */
1279:Drivers/STM32F4xx_HAL_Driver/Src/stm32f4xx_hal_rtc_ex.c ****   return (*(__IO uint32_t *)tmp);
 2174              		.loc 1 1279 3 view .LVU755
 2175              		.loc 1 1279 11 is_stmt 0 view .LVU756
ARM GAS  C:\Users\Administrator\AppData\Local\Temp\cczHSQjt.s 			page 63


 2176 0004 53F82100 		ldr	r0, [r3, r1, lsl #2]
 2177              	.LVL142:
1280:Drivers/STM32F4xx_HAL_Driver/Src/stm32f4xx_hal_rtc_ex.c **** }
 2178              		.loc 1 1280 1 view .LVU757
 2179 0008 7047     		bx	lr
 2180              		.cfi_endproc
 2181              	.LFE257:
 2183              		.section	.text.HAL_RTCEx_SetCoarseCalib,"ax",%progbits
 2184              		.align	1
 2185              		.global	HAL_RTCEx_SetCoarseCalib
 2186              		.syntax unified
 2187              		.thumb
 2188              		.thumb_func
 2190              	HAL_RTCEx_SetCoarseCalib:
 2191              	.LVL143:
 2192              	.LFB258:
1281:Drivers/STM32F4xx_HAL_Driver/Src/stm32f4xx_hal_rtc_ex.c **** 
1282:Drivers/STM32F4xx_HAL_Driver/Src/stm32f4xx_hal_rtc_ex.c **** /**
1283:Drivers/STM32F4xx_HAL_Driver/Src/stm32f4xx_hal_rtc_ex.c ****   * @brief  Sets the Coarse calibration parameters.
1284:Drivers/STM32F4xx_HAL_Driver/Src/stm32f4xx_hal_rtc_ex.c ****   * @param  hrtc pointer to a RTC_HandleTypeDef structure that contains
1285:Drivers/STM32F4xx_HAL_Driver/Src/stm32f4xx_hal_rtc_ex.c ****   *                the configuration information for RTC.
1286:Drivers/STM32F4xx_HAL_Driver/Src/stm32f4xx_hal_rtc_ex.c ****   * @param  CalibSign Specifies the sign of the coarse calibration value.
1287:Drivers/STM32F4xx_HAL_Driver/Src/stm32f4xx_hal_rtc_ex.c ****   *          This parameter can be  one of the following values:
1288:Drivers/STM32F4xx_HAL_Driver/Src/stm32f4xx_hal_rtc_ex.c ****   *             @arg RTC_CALIBSIGN_POSITIVE: The value sign is positive
1289:Drivers/STM32F4xx_HAL_Driver/Src/stm32f4xx_hal_rtc_ex.c ****   *             @arg RTC_CALIBSIGN_NEGATIVE: The value sign is negative
1290:Drivers/STM32F4xx_HAL_Driver/Src/stm32f4xx_hal_rtc_ex.c ****   * @param  Value value of coarse calibration expressed in ppm (coded on 5 bits).
1291:Drivers/STM32F4xx_HAL_Driver/Src/stm32f4xx_hal_rtc_ex.c ****   *
1292:Drivers/STM32F4xx_HAL_Driver/Src/stm32f4xx_hal_rtc_ex.c ****   * @note   This Calibration value should be between 0 and 63 when using negative
1293:Drivers/STM32F4xx_HAL_Driver/Src/stm32f4xx_hal_rtc_ex.c ****   *         sign with a 2-ppm step.
1294:Drivers/STM32F4xx_HAL_Driver/Src/stm32f4xx_hal_rtc_ex.c ****   *
1295:Drivers/STM32F4xx_HAL_Driver/Src/stm32f4xx_hal_rtc_ex.c ****   * @note   This Calibration value should be between 0 and 126 when using positive
1296:Drivers/STM32F4xx_HAL_Driver/Src/stm32f4xx_hal_rtc_ex.c ****   *         sign with a 4-ppm step.
1297:Drivers/STM32F4xx_HAL_Driver/Src/stm32f4xx_hal_rtc_ex.c ****   * @retval HAL status
1298:Drivers/STM32F4xx_HAL_Driver/Src/stm32f4xx_hal_rtc_ex.c ****   */
1299:Drivers/STM32F4xx_HAL_Driver/Src/stm32f4xx_hal_rtc_ex.c **** HAL_StatusTypeDef HAL_RTCEx_SetCoarseCalib(RTC_HandleTypeDef *hrtc, uint32_t CalibSign, uint32_t Va
1300:Drivers/STM32F4xx_HAL_Driver/Src/stm32f4xx_hal_rtc_ex.c **** {
 2193              		.loc 1 1300 1 is_stmt 1 view -0
 2194              		.cfi_startproc
 2195              		@ args = 0, pretend = 0, frame = 0
 2196              		@ frame_needed = 0, uses_anonymous_args = 0
1301:Drivers/STM32F4xx_HAL_Driver/Src/stm32f4xx_hal_rtc_ex.c ****   HAL_StatusTypeDef status;
 2197              		.loc 1 1301 3 view .LVU759
1302:Drivers/STM32F4xx_HAL_Driver/Src/stm32f4xx_hal_rtc_ex.c **** 
1303:Drivers/STM32F4xx_HAL_Driver/Src/stm32f4xx_hal_rtc_ex.c ****   /* Check the parameters */
1304:Drivers/STM32F4xx_HAL_Driver/Src/stm32f4xx_hal_rtc_ex.c ****   assert_param(IS_RTC_CALIB_SIGN(CalibSign));
 2198              		.loc 1 1304 3 view .LVU760
1305:Drivers/STM32F4xx_HAL_Driver/Src/stm32f4xx_hal_rtc_ex.c ****   assert_param(IS_RTC_CALIB_VALUE(Value));
 2199              		.loc 1 1305 3 view .LVU761
1306:Drivers/STM32F4xx_HAL_Driver/Src/stm32f4xx_hal_rtc_ex.c **** 
1307:Drivers/STM32F4xx_HAL_Driver/Src/stm32f4xx_hal_rtc_ex.c ****   /* Process Locked */
1308:Drivers/STM32F4xx_HAL_Driver/Src/stm32f4xx_hal_rtc_ex.c ****   __HAL_LOCK(hrtc);
 2200              		.loc 1 1308 3 view .LVU762
 2201              		.loc 1 1308 3 view .LVU763
 2202 0000 037F     		ldrb	r3, [r0, #28]	@ zero_extendqisi2
 2203 0002 012B     		cmp	r3, #1
 2204 0004 27D0     		beq	.L138
1300:Drivers/STM32F4xx_HAL_Driver/Src/stm32f4xx_hal_rtc_ex.c ****   HAL_StatusTypeDef status;
ARM GAS  C:\Users\Administrator\AppData\Local\Temp\cczHSQjt.s 			page 64


 2205              		.loc 1 1300 1 is_stmt 0 view .LVU764
 2206 0006 70B5     		push	{r4, r5, r6, lr}
 2207              		.cfi_def_cfa_offset 16
 2208              		.cfi_offset 4, -16
 2209              		.cfi_offset 5, -12
 2210              		.cfi_offset 6, -8
 2211              		.cfi_offset 14, -4
 2212 0008 0446     		mov	r4, r0
 2213 000a 0D46     		mov	r5, r1
 2214 000c 1646     		mov	r6, r2
 2215              		.loc 1 1308 3 is_stmt 1 discriminator 2 view .LVU765
 2216 000e 0123     		movs	r3, #1
 2217 0010 0377     		strb	r3, [r0, #28]
 2218              		.loc 1 1308 3 view .LVU766
1309:Drivers/STM32F4xx_HAL_Driver/Src/stm32f4xx_hal_rtc_ex.c **** 
1310:Drivers/STM32F4xx_HAL_Driver/Src/stm32f4xx_hal_rtc_ex.c ****   hrtc->State = HAL_RTC_STATE_BUSY;
 2219              		.loc 1 1310 3 view .LVU767
 2220              		.loc 1 1310 15 is_stmt 0 view .LVU768
 2221 0012 0223     		movs	r3, #2
 2222 0014 4377     		strb	r3, [r0, #29]
1311:Drivers/STM32F4xx_HAL_Driver/Src/stm32f4xx_hal_rtc_ex.c **** 
1312:Drivers/STM32F4xx_HAL_Driver/Src/stm32f4xx_hal_rtc_ex.c ****   /* Disable the write protection for RTC registers */
1313:Drivers/STM32F4xx_HAL_Driver/Src/stm32f4xx_hal_rtc_ex.c ****   __HAL_RTC_WRITEPROTECTION_DISABLE(hrtc);
 2223              		.loc 1 1313 3 is_stmt 1 view .LVU769
 2224              		.loc 1 1313 3 view .LVU770
 2225 0016 0368     		ldr	r3, [r0]
 2226 0018 CA22     		movs	r2, #202
 2227              	.LVL144:
 2228              		.loc 1 1313 3 is_stmt 0 view .LVU771
 2229 001a 5A62     		str	r2, [r3, #36]
 2230              		.loc 1 1313 3 is_stmt 1 view .LVU772
 2231 001c 0368     		ldr	r3, [r0]
 2232 001e 5322     		movs	r2, #83
 2233 0020 5A62     		str	r2, [r3, #36]
 2234              		.loc 1 1313 3 view .LVU773
1314:Drivers/STM32F4xx_HAL_Driver/Src/stm32f4xx_hal_rtc_ex.c **** 
1315:Drivers/STM32F4xx_HAL_Driver/Src/stm32f4xx_hal_rtc_ex.c ****   /* Enter Initialization mode */
1316:Drivers/STM32F4xx_HAL_Driver/Src/stm32f4xx_hal_rtc_ex.c ****   status = RTC_EnterInitMode(hrtc);
 2235              		.loc 1 1316 3 view .LVU774
 2236              		.loc 1 1316 12 is_stmt 0 view .LVU775
 2237 0022 FFF7FEFF 		bl	RTC_EnterInitMode
 2238              	.LVL145:
1317:Drivers/STM32F4xx_HAL_Driver/Src/stm32f4xx_hal_rtc_ex.c **** 
1318:Drivers/STM32F4xx_HAL_Driver/Src/stm32f4xx_hal_rtc_ex.c ****   if (status == HAL_OK)
 2239              		.loc 1 1318 3 is_stmt 1 view .LVU776
 2240              		.loc 1 1318 6 is_stmt 0 view .LVU777
 2241 0026 28B1     		cbz	r0, .L143
 2242              	.L137:
 2243              	.LVL146:
1319:Drivers/STM32F4xx_HAL_Driver/Src/stm32f4xx_hal_rtc_ex.c ****   {
1320:Drivers/STM32F4xx_HAL_Driver/Src/stm32f4xx_hal_rtc_ex.c ****     /* Enable the Coarse Calibration */
1321:Drivers/STM32F4xx_HAL_Driver/Src/stm32f4xx_hal_rtc_ex.c ****     __HAL_RTC_COARSE_CALIB_ENABLE(hrtc);
1322:Drivers/STM32F4xx_HAL_Driver/Src/stm32f4xx_hal_rtc_ex.c **** 
1323:Drivers/STM32F4xx_HAL_Driver/Src/stm32f4xx_hal_rtc_ex.c ****     /* Set the coarse calibration value */
1324:Drivers/STM32F4xx_HAL_Driver/Src/stm32f4xx_hal_rtc_ex.c ****     hrtc->Instance->CALIBR = (uint32_t)(CalibSign | Value);
1325:Drivers/STM32F4xx_HAL_Driver/Src/stm32f4xx_hal_rtc_ex.c **** 
1326:Drivers/STM32F4xx_HAL_Driver/Src/stm32f4xx_hal_rtc_ex.c ****     /* Exit Initialization mode */
ARM GAS  C:\Users\Administrator\AppData\Local\Temp\cczHSQjt.s 			page 65


1327:Drivers/STM32F4xx_HAL_Driver/Src/stm32f4xx_hal_rtc_ex.c ****     status = RTC_ExitInitMode(hrtc);
1328:Drivers/STM32F4xx_HAL_Driver/Src/stm32f4xx_hal_rtc_ex.c ****   }
1329:Drivers/STM32F4xx_HAL_Driver/Src/stm32f4xx_hal_rtc_ex.c **** 
1330:Drivers/STM32F4xx_HAL_Driver/Src/stm32f4xx_hal_rtc_ex.c ****   if (status == HAL_OK)
1331:Drivers/STM32F4xx_HAL_Driver/Src/stm32f4xx_hal_rtc_ex.c ****   {
1332:Drivers/STM32F4xx_HAL_Driver/Src/stm32f4xx_hal_rtc_ex.c ****     hrtc->State = HAL_RTC_STATE_READY;
1333:Drivers/STM32F4xx_HAL_Driver/Src/stm32f4xx_hal_rtc_ex.c ****   }
1334:Drivers/STM32F4xx_HAL_Driver/Src/stm32f4xx_hal_rtc_ex.c **** 
1335:Drivers/STM32F4xx_HAL_Driver/Src/stm32f4xx_hal_rtc_ex.c ****   /* Enable the write protection for RTC registers */
1336:Drivers/STM32F4xx_HAL_Driver/Src/stm32f4xx_hal_rtc_ex.c ****   __HAL_RTC_WRITEPROTECTION_ENABLE(hrtc);
 2244              		.loc 1 1336 3 is_stmt 1 view .LVU778
 2245              		.loc 1 1336 3 view .LVU779
 2246 0028 2368     		ldr	r3, [r4]
 2247 002a FF22     		movs	r2, #255
 2248 002c 5A62     		str	r2, [r3, #36]
 2249              		.loc 1 1336 3 view .LVU780
1337:Drivers/STM32F4xx_HAL_Driver/Src/stm32f4xx_hal_rtc_ex.c **** 
1338:Drivers/STM32F4xx_HAL_Driver/Src/stm32f4xx_hal_rtc_ex.c ****   /* Process Unlocked */
1339:Drivers/STM32F4xx_HAL_Driver/Src/stm32f4xx_hal_rtc_ex.c ****   __HAL_UNLOCK(hrtc);
 2250              		.loc 1 1339 3 view .LVU781
 2251              		.loc 1 1339 3 view .LVU782
 2252 002e 0023     		movs	r3, #0
 2253 0030 2377     		strb	r3, [r4, #28]
 2254              		.loc 1 1339 3 view .LVU783
1340:Drivers/STM32F4xx_HAL_Driver/Src/stm32f4xx_hal_rtc_ex.c **** 
1341:Drivers/STM32F4xx_HAL_Driver/Src/stm32f4xx_hal_rtc_ex.c ****   return status;
 2255              		.loc 1 1341 3 view .LVU784
1342:Drivers/STM32F4xx_HAL_Driver/Src/stm32f4xx_hal_rtc_ex.c **** }
 2256              		.loc 1 1342 1 is_stmt 0 view .LVU785
 2257 0032 70BD     		pop	{r4, r5, r6, pc}
 2258              	.LVL147:
 2259              	.L143:
1321:Drivers/STM32F4xx_HAL_Driver/Src/stm32f4xx_hal_rtc_ex.c **** 
 2260              		.loc 1 1321 5 is_stmt 1 view .LVU786
 2261 0034 2268     		ldr	r2, [r4]
 2262 0036 9368     		ldr	r3, [r2, #8]
 2263 0038 43F08003 		orr	r3, r3, #128
 2264 003c 9360     		str	r3, [r2, #8]
1324:Drivers/STM32F4xx_HAL_Driver/Src/stm32f4xx_hal_rtc_ex.c **** 
 2265              		.loc 1 1324 5 view .LVU787
1324:Drivers/STM32F4xx_HAL_Driver/Src/stm32f4xx_hal_rtc_ex.c **** 
 2266              		.loc 1 1324 9 is_stmt 0 view .LVU788
 2267 003e 2368     		ldr	r3, [r4]
1324:Drivers/STM32F4xx_HAL_Driver/Src/stm32f4xx_hal_rtc_ex.c **** 
 2268              		.loc 1 1324 51 view .LVU789
 2269 0040 2946     		mov	r1, r5
 2270 0042 3143     		orrs	r1, r1, r6
1324:Drivers/STM32F4xx_HAL_Driver/Src/stm32f4xx_hal_rtc_ex.c **** 
 2271              		.loc 1 1324 28 view .LVU790
 2272 0044 9961     		str	r1, [r3, #24]
1327:Drivers/STM32F4xx_HAL_Driver/Src/stm32f4xx_hal_rtc_ex.c ****   }
 2273              		.loc 1 1327 5 is_stmt 1 view .LVU791
1327:Drivers/STM32F4xx_HAL_Driver/Src/stm32f4xx_hal_rtc_ex.c ****   }
 2274              		.loc 1 1327 14 is_stmt 0 view .LVU792
 2275 0046 2046     		mov	r0, r4
 2276              	.LVL148:
1327:Drivers/STM32F4xx_HAL_Driver/Src/stm32f4xx_hal_rtc_ex.c ****   }
ARM GAS  C:\Users\Administrator\AppData\Local\Temp\cczHSQjt.s 			page 66


 2277              		.loc 1 1327 14 view .LVU793
 2278 0048 FFF7FEFF 		bl	RTC_ExitInitMode
 2279              	.LVL149:
1330:Drivers/STM32F4xx_HAL_Driver/Src/stm32f4xx_hal_rtc_ex.c ****   {
 2280              		.loc 1 1330 3 is_stmt 1 view .LVU794
1330:Drivers/STM32F4xx_HAL_Driver/Src/stm32f4xx_hal_rtc_ex.c ****   {
 2281              		.loc 1 1330 6 is_stmt 0 view .LVU795
 2282 004c 0028     		cmp	r0, #0
 2283 004e EBD1     		bne	.L137
1332:Drivers/STM32F4xx_HAL_Driver/Src/stm32f4xx_hal_rtc_ex.c ****   }
 2284              		.loc 1 1332 5 is_stmt 1 view .LVU796
1332:Drivers/STM32F4xx_HAL_Driver/Src/stm32f4xx_hal_rtc_ex.c ****   }
 2285              		.loc 1 1332 17 is_stmt 0 view .LVU797
 2286 0050 0123     		movs	r3, #1
 2287 0052 6377     		strb	r3, [r4, #29]
 2288 0054 E8E7     		b	.L137
 2289              	.LVL150:
 2290              	.L138:
 2291              		.cfi_def_cfa_offset 0
 2292              		.cfi_restore 4
 2293              		.cfi_restore 5
 2294              		.cfi_restore 6
 2295              		.cfi_restore 14
1308:Drivers/STM32F4xx_HAL_Driver/Src/stm32f4xx_hal_rtc_ex.c **** 
 2296              		.loc 1 1308 3 discriminator 1 view .LVU798
 2297 0056 0220     		movs	r0, #2
 2298              	.LVL151:
 2299              		.loc 1 1342 1 view .LVU799
 2300 0058 7047     		bx	lr
 2301              		.cfi_endproc
 2302              	.LFE258:
 2304              		.section	.text.HAL_RTCEx_DeactivateCoarseCalib,"ax",%progbits
 2305              		.align	1
 2306              		.global	HAL_RTCEx_DeactivateCoarseCalib
 2307              		.syntax unified
 2308              		.thumb
 2309              		.thumb_func
 2311              	HAL_RTCEx_DeactivateCoarseCalib:
 2312              	.LVL152:
 2313              	.LFB259:
1343:Drivers/STM32F4xx_HAL_Driver/Src/stm32f4xx_hal_rtc_ex.c **** 
1344:Drivers/STM32F4xx_HAL_Driver/Src/stm32f4xx_hal_rtc_ex.c **** /**
1345:Drivers/STM32F4xx_HAL_Driver/Src/stm32f4xx_hal_rtc_ex.c ****   * @brief  Deactivates the Coarse calibration parameters.
1346:Drivers/STM32F4xx_HAL_Driver/Src/stm32f4xx_hal_rtc_ex.c ****   * @param  hrtc pointer to a RTC_HandleTypeDef structure that contains
1347:Drivers/STM32F4xx_HAL_Driver/Src/stm32f4xx_hal_rtc_ex.c ****   *                the configuration information for RTC.
1348:Drivers/STM32F4xx_HAL_Driver/Src/stm32f4xx_hal_rtc_ex.c ****   * @retval HAL status
1349:Drivers/STM32F4xx_HAL_Driver/Src/stm32f4xx_hal_rtc_ex.c ****   */
1350:Drivers/STM32F4xx_HAL_Driver/Src/stm32f4xx_hal_rtc_ex.c **** HAL_StatusTypeDef HAL_RTCEx_DeactivateCoarseCalib(RTC_HandleTypeDef *hrtc)
1351:Drivers/STM32F4xx_HAL_Driver/Src/stm32f4xx_hal_rtc_ex.c **** {
 2314              		.loc 1 1351 1 is_stmt 1 view -0
 2315              		.cfi_startproc
 2316              		@ args = 0, pretend = 0, frame = 0
 2317              		@ frame_needed = 0, uses_anonymous_args = 0
1352:Drivers/STM32F4xx_HAL_Driver/Src/stm32f4xx_hal_rtc_ex.c ****   HAL_StatusTypeDef status;
 2318              		.loc 1 1352 3 view .LVU801
1353:Drivers/STM32F4xx_HAL_Driver/Src/stm32f4xx_hal_rtc_ex.c **** 
1354:Drivers/STM32F4xx_HAL_Driver/Src/stm32f4xx_hal_rtc_ex.c ****   /* Process Locked */
ARM GAS  C:\Users\Administrator\AppData\Local\Temp\cczHSQjt.s 			page 67


1355:Drivers/STM32F4xx_HAL_Driver/Src/stm32f4xx_hal_rtc_ex.c ****   __HAL_LOCK(hrtc);
 2319              		.loc 1 1355 3 view .LVU802
 2320              		.loc 1 1355 3 view .LVU803
 2321 0000 037F     		ldrb	r3, [r0, #28]	@ zero_extendqisi2
 2322 0002 012B     		cmp	r3, #1
 2323 0004 21D0     		beq	.L147
1351:Drivers/STM32F4xx_HAL_Driver/Src/stm32f4xx_hal_rtc_ex.c ****   HAL_StatusTypeDef status;
 2324              		.loc 1 1351 1 is_stmt 0 view .LVU804
 2325 0006 10B5     		push	{r4, lr}
 2326              		.cfi_def_cfa_offset 8
 2327              		.cfi_offset 4, -8
 2328              		.cfi_offset 14, -4
 2329 0008 0446     		mov	r4, r0
 2330              		.loc 1 1355 3 is_stmt 1 discriminator 2 view .LVU805
 2331 000a 0123     		movs	r3, #1
 2332 000c 0377     		strb	r3, [r0, #28]
 2333              		.loc 1 1355 3 view .LVU806
1356:Drivers/STM32F4xx_HAL_Driver/Src/stm32f4xx_hal_rtc_ex.c **** 
1357:Drivers/STM32F4xx_HAL_Driver/Src/stm32f4xx_hal_rtc_ex.c ****   hrtc->State = HAL_RTC_STATE_BUSY;
 2334              		.loc 1 1357 3 view .LVU807
 2335              		.loc 1 1357 15 is_stmt 0 view .LVU808
 2336 000e 0223     		movs	r3, #2
 2337 0010 4377     		strb	r3, [r0, #29]
1358:Drivers/STM32F4xx_HAL_Driver/Src/stm32f4xx_hal_rtc_ex.c **** 
1359:Drivers/STM32F4xx_HAL_Driver/Src/stm32f4xx_hal_rtc_ex.c ****   /* Disable the write protection for RTC registers */
1360:Drivers/STM32F4xx_HAL_Driver/Src/stm32f4xx_hal_rtc_ex.c ****   __HAL_RTC_WRITEPROTECTION_DISABLE(hrtc);
 2338              		.loc 1 1360 3 is_stmt 1 view .LVU809
 2339              		.loc 1 1360 3 view .LVU810
 2340 0012 0368     		ldr	r3, [r0]
 2341 0014 CA22     		movs	r2, #202
 2342 0016 5A62     		str	r2, [r3, #36]
 2343              		.loc 1 1360 3 view .LVU811
 2344 0018 0368     		ldr	r3, [r0]
 2345 001a 5322     		movs	r2, #83
 2346 001c 5A62     		str	r2, [r3, #36]
 2347              		.loc 1 1360 3 view .LVU812
1361:Drivers/STM32F4xx_HAL_Driver/Src/stm32f4xx_hal_rtc_ex.c **** 
