ARM GAS  C:\Users\Administrator\AppData\Local\Temp\ccoSvxLl.s 			page 1


   1              		.cpu cortex-m4
   2              		.arch armv7e-m
   3              		.fpu fpv4-sp-d16
   4              		.eabi_attribute 27, 1
   5              		.eabi_attribute 28, 1
   6              		.eabi_attribute 20, 1
   7              		.eabi_attribute 21, 1
   8              		.eabi_attribute 23, 3
   9              		.eabi_attribute 24, 1
  10              		.eabi_attribute 25, 1
  11              		.eabi_attribute 26, 1
  12              		.eabi_attribute 30, 1
  13              		.eabi_attribute 34, 1
  14              		.eabi_attribute 18, 4
  15              		.file	"stm32f4xx_hal_crc.c"
  16              		.text
  17              	.Ltext0:
  18              		.cfi_sections	.debug_frame
  19              		.file 1 "Drivers/STM32F4xx_HAL_Driver/Src/stm32f4xx_hal_crc.c"
  20              		.section	.text.HAL_CRC_MspInit,"ax",%progbits
  21              		.align	1
  22              		.weak	HAL_CRC_MspInit
  23              		.syntax unified
  24              		.thumb
  25              		.thumb_func
  27              	HAL_CRC_MspInit:
  28              	.LVL0:
  29              	.LFB237:
   1:Drivers/STM32F4xx_HAL_Driver/Src/stm32f4xx_hal_crc.c **** /**
   2:Drivers/STM32F4xx_HAL_Driver/Src/stm32f4xx_hal_crc.c ****   ******************************************************************************
   3:Drivers/STM32F4xx_HAL_Driver/Src/stm32f4xx_hal_crc.c ****   * @file    stm32f4xx_hal_crc.c
   4:Drivers/STM32F4xx_HAL_Driver/Src/stm32f4xx_hal_crc.c ****   * @author  MCD Application Team
   5:Drivers/STM32F4xx_HAL_Driver/Src/stm32f4xx_hal_crc.c ****   * @brief   CRC HAL module driver.
   6:Drivers/STM32F4xx_HAL_Driver/Src/stm32f4xx_hal_crc.c ****   *          This file provides firmware functions to manage the following
   7:Drivers/STM32F4xx_HAL_Driver/Src/stm32f4xx_hal_crc.c ****   *          functionalities of the Cyclic Redundancy Check (CRC) peripheral:
   8:Drivers/STM32F4xx_HAL_Driver/Src/stm32f4xx_hal_crc.c ****   *           + Initialization and de-initialization functions
   9:Drivers/STM32F4xx_HAL_Driver/Src/stm32f4xx_hal_crc.c ****   *           + Peripheral Control functions
  10:Drivers/STM32F4xx_HAL_Driver/Src/stm32f4xx_hal_crc.c ****   *           + Peripheral State functions
  11:Drivers/STM32F4xx_HAL_Driver/Src/stm32f4xx_hal_crc.c ****   *
  12:Drivers/STM32F4xx_HAL_Driver/Src/stm32f4xx_hal_crc.c ****   ******************************************************************************
  13:Drivers/STM32F4xx_HAL_Driver/Src/stm32f4xx_hal_crc.c ****   * @attention
  14:Drivers/STM32F4xx_HAL_Driver/Src/stm32f4xx_hal_crc.c ****   *
  15:Drivers/STM32F4xx_HAL_Driver/Src/stm32f4xx_hal_crc.c ****   * Copyright (c) 2016 STMicroelectronics.
  16:Drivers/STM32F4xx_HAL_Driver/Src/stm32f4xx_hal_crc.c ****   * All rights reserved.
  17:Drivers/STM32F4xx_HAL_Driver/Src/stm32f4xx_hal_crc.c ****   *
  18:Drivers/STM32F4xx_HAL_Driver/Src/stm32f4xx_hal_crc.c ****   * This software is licensed under terms that can be found in the LICENSE file
  19:Drivers/STM32F4xx_HAL_Driver/Src/stm32f4xx_hal_crc.c ****   * in the root directory of this software component.
  20:Drivers/STM32F4xx_HAL_Driver/Src/stm32f4xx_hal_crc.c ****   * If no LICENSE file comes with this software, it is provided AS-IS.
  21:Drivers/STM32F4xx_HAL_Driver/Src/stm32f4xx_hal_crc.c ****   *
  22:Drivers/STM32F4xx_HAL_Driver/Src/stm32f4xx_hal_crc.c ****   ******************************************************************************
  23:Drivers/STM32F4xx_HAL_Driver/Src/stm32f4xx_hal_crc.c ****   @verbatim
  24:Drivers/STM32F4xx_HAL_Driver/Src/stm32f4xx_hal_crc.c ****  ===============================================================================
  25:Drivers/STM32F4xx_HAL_Driver/Src/stm32f4xx_hal_crc.c ****                      ##### How to use this driver #####
  26:Drivers/STM32F4xx_HAL_Driver/Src/stm32f4xx_hal_crc.c ****  ===============================================================================
  27:Drivers/STM32F4xx_HAL_Driver/Src/stm32f4xx_hal_crc.c ****     [..]
  28:Drivers/STM32F4xx_HAL_Driver/Src/stm32f4xx_hal_crc.c ****          (+) Enable CRC AHB clock using __HAL_RCC_CRC_CLK_ENABLE();
  29:Drivers/STM32F4xx_HAL_Driver/Src/stm32f4xx_hal_crc.c ****          (+) Initialize CRC calculator
ARM GAS  C:\Users\Administrator\AppData\Local\Temp\ccoSvxLl.s 			page 2


  30:Drivers/STM32F4xx_HAL_Driver/Src/stm32f4xx_hal_crc.c ****              (++) specify generating polynomial (peripheral default or non-default one)
  31:Drivers/STM32F4xx_HAL_Driver/Src/stm32f4xx_hal_crc.c ****              (++) specify initialization value (peripheral default or non-default one)
  32:Drivers/STM32F4xx_HAL_Driver/Src/stm32f4xx_hal_crc.c ****              (++) specify input data format
  33:Drivers/STM32F4xx_HAL_Driver/Src/stm32f4xx_hal_crc.c ****              (++) specify input or output data inversion mode if any
  34:Drivers/STM32F4xx_HAL_Driver/Src/stm32f4xx_hal_crc.c ****          (+) Use HAL_CRC_Accumulate() function to compute the CRC value of the
  35:Drivers/STM32F4xx_HAL_Driver/Src/stm32f4xx_hal_crc.c ****              input data buffer starting with the previously computed CRC as
  36:Drivers/STM32F4xx_HAL_Driver/Src/stm32f4xx_hal_crc.c ****              initialization value
  37:Drivers/STM32F4xx_HAL_Driver/Src/stm32f4xx_hal_crc.c ****          (+) Use HAL_CRC_Calculate() function to compute the CRC value of the
  38:Drivers/STM32F4xx_HAL_Driver/Src/stm32f4xx_hal_crc.c ****              input data buffer starting with the defined initialization value
  39:Drivers/STM32F4xx_HAL_Driver/Src/stm32f4xx_hal_crc.c ****              (default or non-default) to initiate CRC calculation
  40:Drivers/STM32F4xx_HAL_Driver/Src/stm32f4xx_hal_crc.c **** 
  41:Drivers/STM32F4xx_HAL_Driver/Src/stm32f4xx_hal_crc.c ****   @endverbatim
  42:Drivers/STM32F4xx_HAL_Driver/Src/stm32f4xx_hal_crc.c ****   ******************************************************************************
  43:Drivers/STM32F4xx_HAL_Driver/Src/stm32f4xx_hal_crc.c ****   */
  44:Drivers/STM32F4xx_HAL_Driver/Src/stm32f4xx_hal_crc.c **** 
  45:Drivers/STM32F4xx_HAL_Driver/Src/stm32f4xx_hal_crc.c **** /* Includes ------------------------------------------------------------------*/
  46:Drivers/STM32F4xx_HAL_Driver/Src/stm32f4xx_hal_crc.c **** #include "stm32f4xx_hal.h"
  47:Drivers/STM32F4xx_HAL_Driver/Src/stm32f4xx_hal_crc.c **** 
  48:Drivers/STM32F4xx_HAL_Driver/Src/stm32f4xx_hal_crc.c **** /** @addtogroup STM32F4xx_HAL_Driver
  49:Drivers/STM32F4xx_HAL_Driver/Src/stm32f4xx_hal_crc.c ****   * @{
  50:Drivers/STM32F4xx_HAL_Driver/Src/stm32f4xx_hal_crc.c ****   */
  51:Drivers/STM32F4xx_HAL_Driver/Src/stm32f4xx_hal_crc.c **** 
  52:Drivers/STM32F4xx_HAL_Driver/Src/stm32f4xx_hal_crc.c **** /** @defgroup CRC CRC
  53:Drivers/STM32F4xx_HAL_Driver/Src/stm32f4xx_hal_crc.c ****   * @brief CRC HAL module driver.
  54:Drivers/STM32F4xx_HAL_Driver/Src/stm32f4xx_hal_crc.c ****   * @{
  55:Drivers/STM32F4xx_HAL_Driver/Src/stm32f4xx_hal_crc.c ****   */
  56:Drivers/STM32F4xx_HAL_Driver/Src/stm32f4xx_hal_crc.c **** 
  57:Drivers/STM32F4xx_HAL_Driver/Src/stm32f4xx_hal_crc.c **** #ifdef HAL_CRC_MODULE_ENABLED
  58:Drivers/STM32F4xx_HAL_Driver/Src/stm32f4xx_hal_crc.c **** 
  59:Drivers/STM32F4xx_HAL_Driver/Src/stm32f4xx_hal_crc.c **** /* Private typedef -----------------------------------------------------------*/
  60:Drivers/STM32F4xx_HAL_Driver/Src/stm32f4xx_hal_crc.c **** /* Private define ------------------------------------------------------------*/
  61:Drivers/STM32F4xx_HAL_Driver/Src/stm32f4xx_hal_crc.c **** /* Private macro -------------------------------------------------------------*/
  62:Drivers/STM32F4xx_HAL_Driver/Src/stm32f4xx_hal_crc.c **** /* Private variables ---------------------------------------------------------*/
  63:Drivers/STM32F4xx_HAL_Driver/Src/stm32f4xx_hal_crc.c **** /* Private function prototypes -----------------------------------------------*/
  64:Drivers/STM32F4xx_HAL_Driver/Src/stm32f4xx_hal_crc.c **** 
  65:Drivers/STM32F4xx_HAL_Driver/Src/stm32f4xx_hal_crc.c **** /* Exported functions --------------------------------------------------------*/
  66:Drivers/STM32F4xx_HAL_Driver/Src/stm32f4xx_hal_crc.c **** 
  67:Drivers/STM32F4xx_HAL_Driver/Src/stm32f4xx_hal_crc.c **** /** @defgroup CRC_Exported_Functions CRC Exported Functions
  68:Drivers/STM32F4xx_HAL_Driver/Src/stm32f4xx_hal_crc.c ****   * @{
  69:Drivers/STM32F4xx_HAL_Driver/Src/stm32f4xx_hal_crc.c ****   */
  70:Drivers/STM32F4xx_HAL_Driver/Src/stm32f4xx_hal_crc.c **** 
  71:Drivers/STM32F4xx_HAL_Driver/Src/stm32f4xx_hal_crc.c **** /** @defgroup CRC_Exported_Functions_Group1 Initialization and de-initialization functions
  72:Drivers/STM32F4xx_HAL_Driver/Src/stm32f4xx_hal_crc.c ****   *  @brief    Initialization and Configuration functions.
  73:Drivers/STM32F4xx_HAL_Driver/Src/stm32f4xx_hal_crc.c ****   *
  74:Drivers/STM32F4xx_HAL_Driver/Src/stm32f4xx_hal_crc.c **** @verbatim
  75:Drivers/STM32F4xx_HAL_Driver/Src/stm32f4xx_hal_crc.c ****  ===============================================================================
  76:Drivers/STM32F4xx_HAL_Driver/Src/stm32f4xx_hal_crc.c ****             ##### Initialization and de-initialization functions #####
  77:Drivers/STM32F4xx_HAL_Driver/Src/stm32f4xx_hal_crc.c ****  ===============================================================================
  78:Drivers/STM32F4xx_HAL_Driver/Src/stm32f4xx_hal_crc.c ****     [..]  This section provides functions allowing to:
  79:Drivers/STM32F4xx_HAL_Driver/Src/stm32f4xx_hal_crc.c ****       (+) Initialize the CRC according to the specified parameters
  80:Drivers/STM32F4xx_HAL_Driver/Src/stm32f4xx_hal_crc.c ****           in the CRC_InitTypeDef and create the associated handle
  81:Drivers/STM32F4xx_HAL_Driver/Src/stm32f4xx_hal_crc.c ****       (+) DeInitialize the CRC peripheral
  82:Drivers/STM32F4xx_HAL_Driver/Src/stm32f4xx_hal_crc.c ****       (+) Initialize the CRC MSP (MCU Specific Package)
  83:Drivers/STM32F4xx_HAL_Driver/Src/stm32f4xx_hal_crc.c ****       (+) DeInitialize the CRC MSP
  84:Drivers/STM32F4xx_HAL_Driver/Src/stm32f4xx_hal_crc.c **** 
  85:Drivers/STM32F4xx_HAL_Driver/Src/stm32f4xx_hal_crc.c **** @endverbatim
  86:Drivers/STM32F4xx_HAL_Driver/Src/stm32f4xx_hal_crc.c ****   * @{
ARM GAS  C:\Users\Administrator\AppData\Local\Temp\ccoSvxLl.s 			page 3


  87:Drivers/STM32F4xx_HAL_Driver/Src/stm32f4xx_hal_crc.c ****   */
  88:Drivers/STM32F4xx_HAL_Driver/Src/stm32f4xx_hal_crc.c **** 
  89:Drivers/STM32F4xx_HAL_Driver/Src/stm32f4xx_hal_crc.c **** /**
  90:Drivers/STM32F4xx_HAL_Driver/Src/stm32f4xx_hal_crc.c ****   * @brief  Initialize the CRC according to the specified
  91:Drivers/STM32F4xx_HAL_Driver/Src/stm32f4xx_hal_crc.c ****   *         parameters in the CRC_InitTypeDef and create the associated handle.
  92:Drivers/STM32F4xx_HAL_Driver/Src/stm32f4xx_hal_crc.c ****   * @param  hcrc CRC handle
  93:Drivers/STM32F4xx_HAL_Driver/Src/stm32f4xx_hal_crc.c ****   * @retval HAL status
  94:Drivers/STM32F4xx_HAL_Driver/Src/stm32f4xx_hal_crc.c ****   */
  95:Drivers/STM32F4xx_HAL_Driver/Src/stm32f4xx_hal_crc.c **** HAL_StatusTypeDef HAL_CRC_Init(CRC_HandleTypeDef *hcrc)
  96:Drivers/STM32F4xx_HAL_Driver/Src/stm32f4xx_hal_crc.c **** {
  97:Drivers/STM32F4xx_HAL_Driver/Src/stm32f4xx_hal_crc.c ****   /* Check the CRC handle allocation */
  98:Drivers/STM32F4xx_HAL_Driver/Src/stm32f4xx_hal_crc.c ****   if (hcrc == NULL)
  99:Drivers/STM32F4xx_HAL_Driver/Src/stm32f4xx_hal_crc.c ****   {
 100:Drivers/STM32F4xx_HAL_Driver/Src/stm32f4xx_hal_crc.c ****     return HAL_ERROR;
 101:Drivers/STM32F4xx_HAL_Driver/Src/stm32f4xx_hal_crc.c ****   }
 102:Drivers/STM32F4xx_HAL_Driver/Src/stm32f4xx_hal_crc.c **** 
 103:Drivers/STM32F4xx_HAL_Driver/Src/stm32f4xx_hal_crc.c ****   /* Check the parameters */
 104:Drivers/STM32F4xx_HAL_Driver/Src/stm32f4xx_hal_crc.c ****   assert_param(IS_CRC_ALL_INSTANCE(hcrc->Instance));
 105:Drivers/STM32F4xx_HAL_Driver/Src/stm32f4xx_hal_crc.c **** 
 106:Drivers/STM32F4xx_HAL_Driver/Src/stm32f4xx_hal_crc.c ****   if (hcrc->State == HAL_CRC_STATE_RESET)
 107:Drivers/STM32F4xx_HAL_Driver/Src/stm32f4xx_hal_crc.c ****   {
 108:Drivers/STM32F4xx_HAL_Driver/Src/stm32f4xx_hal_crc.c ****     /* Allocate lock resource and initialize it */
 109:Drivers/STM32F4xx_HAL_Driver/Src/stm32f4xx_hal_crc.c ****     hcrc->Lock = HAL_UNLOCKED;
 110:Drivers/STM32F4xx_HAL_Driver/Src/stm32f4xx_hal_crc.c ****     /* Init the low level hardware */
 111:Drivers/STM32F4xx_HAL_Driver/Src/stm32f4xx_hal_crc.c ****     HAL_CRC_MspInit(hcrc);
 112:Drivers/STM32F4xx_HAL_Driver/Src/stm32f4xx_hal_crc.c ****   }
 113:Drivers/STM32F4xx_HAL_Driver/Src/stm32f4xx_hal_crc.c **** 
 114:Drivers/STM32F4xx_HAL_Driver/Src/stm32f4xx_hal_crc.c ****   /* Change CRC peripheral state */
 115:Drivers/STM32F4xx_HAL_Driver/Src/stm32f4xx_hal_crc.c ****   hcrc->State = HAL_CRC_STATE_READY;
 116:Drivers/STM32F4xx_HAL_Driver/Src/stm32f4xx_hal_crc.c **** 
 117:Drivers/STM32F4xx_HAL_Driver/Src/stm32f4xx_hal_crc.c ****   /* Return function status */
 118:Drivers/STM32F4xx_HAL_Driver/Src/stm32f4xx_hal_crc.c ****   return HAL_OK;
 119:Drivers/STM32F4xx_HAL_Driver/Src/stm32f4xx_hal_crc.c **** }
 120:Drivers/STM32F4xx_HAL_Driver/Src/stm32f4xx_hal_crc.c **** 
 121:Drivers/STM32F4xx_HAL_Driver/Src/stm32f4xx_hal_crc.c **** /**
 122:Drivers/STM32F4xx_HAL_Driver/Src/stm32f4xx_hal_crc.c ****   * @brief  DeInitialize the CRC peripheral.
 123:Drivers/STM32F4xx_HAL_Driver/Src/stm32f4xx_hal_crc.c ****   * @param  hcrc CRC handle
 124:Drivers/STM32F4xx_HAL_Driver/Src/stm32f4xx_hal_crc.c ****   * @retval HAL status
 125:Drivers/STM32F4xx_HAL_Driver/Src/stm32f4xx_hal_crc.c ****   */
 126:Drivers/STM32F4xx_HAL_Driver/Src/stm32f4xx_hal_crc.c **** HAL_StatusTypeDef HAL_CRC_DeInit(CRC_HandleTypeDef *hcrc)
 127:Drivers/STM32F4xx_HAL_Driver/Src/stm32f4xx_hal_crc.c **** {
 128:Drivers/STM32F4xx_HAL_Driver/Src/stm32f4xx_hal_crc.c ****   /* Check the CRC handle allocation */
 129:Drivers/STM32F4xx_HAL_Driver/Src/stm32f4xx_hal_crc.c ****   if (hcrc == NULL)
 130:Drivers/STM32F4xx_HAL_Driver/Src/stm32f4xx_hal_crc.c ****   {
 131:Drivers/STM32F4xx_HAL_Driver/Src/stm32f4xx_hal_crc.c ****     return HAL_ERROR;
 132:Drivers/STM32F4xx_HAL_Driver/Src/stm32f4xx_hal_crc.c ****   }
 133:Drivers/STM32F4xx_HAL_Driver/Src/stm32f4xx_hal_crc.c **** 
 134:Drivers/STM32F4xx_HAL_Driver/Src/stm32f4xx_hal_crc.c ****   /* Check the parameters */
 135:Drivers/STM32F4xx_HAL_Driver/Src/stm32f4xx_hal_crc.c ****   assert_param(IS_CRC_ALL_INSTANCE(hcrc->Instance));
 136:Drivers/STM32F4xx_HAL_Driver/Src/stm32f4xx_hal_crc.c **** 
 137:Drivers/STM32F4xx_HAL_Driver/Src/stm32f4xx_hal_crc.c ****   /* Check the CRC peripheral state */
 138:Drivers/STM32F4xx_HAL_Driver/Src/stm32f4xx_hal_crc.c ****   if (hcrc->State == HAL_CRC_STATE_BUSY)
 139:Drivers/STM32F4xx_HAL_Driver/Src/stm32f4xx_hal_crc.c ****   {
 140:Drivers/STM32F4xx_HAL_Driver/Src/stm32f4xx_hal_crc.c ****     return HAL_BUSY;
 141:Drivers/STM32F4xx_HAL_Driver/Src/stm32f4xx_hal_crc.c ****   }
 142:Drivers/STM32F4xx_HAL_Driver/Src/stm32f4xx_hal_crc.c **** 
 143:Drivers/STM32F4xx_HAL_Driver/Src/stm32f4xx_hal_crc.c ****   /* Change CRC peripheral state */
ARM GAS  C:\Users\Administrator\AppData\Local\Temp\ccoSvxLl.s 			page 4


 144:Drivers/STM32F4xx_HAL_Driver/Src/stm32f4xx_hal_crc.c ****   hcrc->State = HAL_CRC_STATE_BUSY;
 145:Drivers/STM32F4xx_HAL_Driver/Src/stm32f4xx_hal_crc.c **** 
 146:Drivers/STM32F4xx_HAL_Driver/Src/stm32f4xx_hal_crc.c ****   /* Reset CRC calculation unit */
 147:Drivers/STM32F4xx_HAL_Driver/Src/stm32f4xx_hal_crc.c ****   __HAL_CRC_DR_RESET(hcrc);
 148:Drivers/STM32F4xx_HAL_Driver/Src/stm32f4xx_hal_crc.c **** 
 149:Drivers/STM32F4xx_HAL_Driver/Src/stm32f4xx_hal_crc.c ****   /* Reset IDR register content */
 150:Drivers/STM32F4xx_HAL_Driver/Src/stm32f4xx_hal_crc.c ****   CLEAR_BIT(hcrc->Instance->IDR, CRC_IDR_IDR);
 151:Drivers/STM32F4xx_HAL_Driver/Src/stm32f4xx_hal_crc.c **** 
 152:Drivers/STM32F4xx_HAL_Driver/Src/stm32f4xx_hal_crc.c ****   /* DeInit the low level hardware */
 153:Drivers/STM32F4xx_HAL_Driver/Src/stm32f4xx_hal_crc.c ****   HAL_CRC_MspDeInit(hcrc);
 154:Drivers/STM32F4xx_HAL_Driver/Src/stm32f4xx_hal_crc.c **** 
 155:Drivers/STM32F4xx_HAL_Driver/Src/stm32f4xx_hal_crc.c ****   /* Change CRC peripheral state */
 156:Drivers/STM32F4xx_HAL_Driver/Src/stm32f4xx_hal_crc.c ****   hcrc->State = HAL_CRC_STATE_RESET;
 157:Drivers/STM32F4xx_HAL_Driver/Src/stm32f4xx_hal_crc.c **** 
 158:Drivers/STM32F4xx_HAL_Driver/Src/stm32f4xx_hal_crc.c ****   /* Process unlocked */
 159:Drivers/STM32F4xx_HAL_Driver/Src/stm32f4xx_hal_crc.c ****   __HAL_UNLOCK(hcrc);
 160:Drivers/STM32F4xx_HAL_Driver/Src/stm32f4xx_hal_crc.c **** 
 161:Drivers/STM32F4xx_HAL_Driver/Src/stm32f4xx_hal_crc.c ****   /* Return function status */
 162:Drivers/STM32F4xx_HAL_Driver/Src/stm32f4xx_hal_crc.c ****   return HAL_OK;
 163:Drivers/STM32F4xx_HAL_Driver/Src/stm32f4xx_hal_crc.c **** }
 164:Drivers/STM32F4xx_HAL_Driver/Src/stm32f4xx_hal_crc.c **** 
 165:Drivers/STM32F4xx_HAL_Driver/Src/stm32f4xx_hal_crc.c **** /**
 166:Drivers/STM32F4xx_HAL_Driver/Src/stm32f4xx_hal_crc.c ****   * @brief  Initializes the CRC MSP.
 167:Drivers/STM32F4xx_HAL_Driver/Src/stm32f4xx_hal_crc.c ****   * @param  hcrc CRC handle
 168:Drivers/STM32F4xx_HAL_Driver/Src/stm32f4xx_hal_crc.c ****   * @retval None
 169:Drivers/STM32F4xx_HAL_Driver/Src/stm32f4xx_hal_crc.c ****   */
 170:Drivers/STM32F4xx_HAL_Driver/Src/stm32f4xx_hal_crc.c **** __weak void HAL_CRC_MspInit(CRC_HandleTypeDef *hcrc)
 171:Drivers/STM32F4xx_HAL_Driver/Src/stm32f4xx_hal_crc.c **** {
  30              		.loc 1 171 1 view -0
  31              		.cfi_startproc
  32              		@ args = 0, pretend = 0, frame = 0
  33              		@ frame_needed = 0, uses_anonymous_args = 0
  34              		@ link register save eliminated.
 172:Drivers/STM32F4xx_HAL_Driver/Src/stm32f4xx_hal_crc.c ****   /* Prevent unused argument(s) compilation warning */
 173:Drivers/STM32F4xx_HAL_Driver/Src/stm32f4xx_hal_crc.c ****   UNUSED(hcrc);
  35              		.loc 1 173 3 view .LVU1
 174:Drivers/STM32F4xx_HAL_Driver/Src/stm32f4xx_hal_crc.c **** 
 175:Drivers/STM32F4xx_HAL_Driver/Src/stm32f4xx_hal_crc.c ****   /* NOTE : This function should not be modified, when the callback is needed,
 176:Drivers/STM32F4xx_HAL_Driver/Src/stm32f4xx_hal_crc.c ****             the HAL_CRC_MspInit can be implemented in the user file
 177:Drivers/STM32F4xx_HAL_Driver/Src/stm32f4xx_hal_crc.c ****    */
 178:Drivers/STM32F4xx_HAL_Driver/Src/stm32f4xx_hal_crc.c **** }
  36              		.loc 1 178 1 is_stmt 0 view .LVU2
  37 0000 7047     		bx	lr
  38              		.cfi_endproc
  39              	.LFE237:
  41              		.section	.text.HAL_CRC_Init,"ax",%progbits
  42              		.align	1
  43              		.global	HAL_CRC_Init
  44              		.syntax unified
  45              		.thumb
  46              		.thumb_func
  48              	HAL_CRC_Init:
  49              	.LVL1:
  50              	.LFB235:
  96:Drivers/STM32F4xx_HAL_Driver/Src/stm32f4xx_hal_crc.c ****   /* Check the CRC handle allocation */
  51              		.loc 1 96 1 is_stmt 1 view -0
  52              		.cfi_startproc
ARM GAS  C:\Users\Administrator\AppData\Local\Temp\ccoSvxLl.s 			page 5


  53              		@ args = 0, pretend = 0, frame = 0
  54              		@ frame_needed = 0, uses_anonymous_args = 0
  98:Drivers/STM32F4xx_HAL_Driver/Src/stm32f4xx_hal_crc.c ****   {
  55              		.loc 1 98 3 view .LVU4
  98:Drivers/STM32F4xx_HAL_Driver/Src/stm32f4xx_hal_crc.c ****   {
  56              		.loc 1 98 6 is_stmt 0 view .LVU5
  57 0000 58B1     		cbz	r0, .L5
  96:Drivers/STM32F4xx_HAL_Driver/Src/stm32f4xx_hal_crc.c ****   /* Check the CRC handle allocation */
  58              		.loc 1 96 1 view .LVU6
  59 0002 10B5     		push	{r4, lr}
  60              		.cfi_def_cfa_offset 8
  61              		.cfi_offset 4, -8
  62              		.cfi_offset 14, -4
  63 0004 0446     		mov	r4, r0
 104:Drivers/STM32F4xx_HAL_Driver/Src/stm32f4xx_hal_crc.c **** 
  64              		.loc 1 104 3 is_stmt 1 view .LVU7
 106:Drivers/STM32F4xx_HAL_Driver/Src/stm32f4xx_hal_crc.c ****   {
  65              		.loc 1 106 3 view .LVU8
 106:Drivers/STM32F4xx_HAL_Driver/Src/stm32f4xx_hal_crc.c ****   {
  66              		.loc 1 106 11 is_stmt 0 view .LVU9
  67 0006 4379     		ldrb	r3, [r0, #5]	@ zero_extendqisi2
 106:Drivers/STM32F4xx_HAL_Driver/Src/stm32f4xx_hal_crc.c ****   {
  68              		.loc 1 106 6 view .LVU10
  69 0008 1BB1     		cbz	r3, .L10
  70              	.LVL2:
  71              	.L4:
 115:Drivers/STM32F4xx_HAL_Driver/Src/stm32f4xx_hal_crc.c **** 
  72              		.loc 1 115 3 is_stmt 1 view .LVU11
 115:Drivers/STM32F4xx_HAL_Driver/Src/stm32f4xx_hal_crc.c **** 
  73              		.loc 1 115 15 is_stmt 0 view .LVU12
  74 000a 0123     		movs	r3, #1
  75 000c 6371     		strb	r3, [r4, #5]
 118:Drivers/STM32F4xx_HAL_Driver/Src/stm32f4xx_hal_crc.c **** }
  76              		.loc 1 118 3 is_stmt 1 view .LVU13
 118:Drivers/STM32F4xx_HAL_Driver/Src/stm32f4xx_hal_crc.c **** }
  77              		.loc 1 118 10 is_stmt 0 view .LVU14
  78 000e 0020     		movs	r0, #0
 119:Drivers/STM32F4xx_HAL_Driver/Src/stm32f4xx_hal_crc.c **** 
  79              		.loc 1 119 1 view .LVU15
  80 0010 10BD     		pop	{r4, pc}
  81              	.LVL3:
  82              	.L10:
 109:Drivers/STM32F4xx_HAL_Driver/Src/stm32f4xx_hal_crc.c ****     /* Init the low level hardware */
  83              		.loc 1 109 5 is_stmt 1 view .LVU16
 109:Drivers/STM32F4xx_HAL_Driver/Src/stm32f4xx_hal_crc.c ****     /* Init the low level hardware */
  84              		.loc 1 109 16 is_stmt 0 view .LVU17
  85 0012 0371     		strb	r3, [r0, #4]
 111:Drivers/STM32F4xx_HAL_Driver/Src/stm32f4xx_hal_crc.c ****   }
  86              		.loc 1 111 5 is_stmt 1 view .LVU18
  87 0014 FFF7FEFF 		bl	HAL_CRC_MspInit
  88              	.LVL4:
 111:Drivers/STM32F4xx_HAL_Driver/Src/stm32f4xx_hal_crc.c ****   }
  89              		.loc 1 111 5 is_stmt 0 view .LVU19
  90 0018 F7E7     		b	.L4
  91              	.LVL5:
  92              	.L5:
  93              		.cfi_def_cfa_offset 0
ARM GAS  C:\Users\Administrator\AppData\Local\Temp\ccoSvxLl.s 			page 6


  94              		.cfi_restore 4
  95              		.cfi_restore 14
 100:Drivers/STM32F4xx_HAL_Driver/Src/stm32f4xx_hal_crc.c ****   }
  96              		.loc 1 100 12 view .LVU20
  97 001a 0120     		movs	r0, #1
  98              	.LVL6:
 119:Drivers/STM32F4xx_HAL_Driver/Src/stm32f4xx_hal_crc.c **** 
  99              		.loc 1 119 1 view .LVU21
 100 001c 7047     		bx	lr
 101              		.cfi_endproc
 102              	.LFE235:
 104              		.section	.text.HAL_CRC_MspDeInit,"ax",%progbits
 105              		.align	1
 106              		.weak	HAL_CRC_MspDeInit
 107              		.syntax unified
 108              		.thumb
 109              		.thumb_func
 111              	HAL_CRC_MspDeInit:
 112              	.LVL7:
 113              	.LFB238:
 179:Drivers/STM32F4xx_HAL_Driver/Src/stm32f4xx_hal_crc.c **** 
 180:Drivers/STM32F4xx_HAL_Driver/Src/stm32f4xx_hal_crc.c **** /**
 181:Drivers/STM32F4xx_HAL_Driver/Src/stm32f4xx_hal_crc.c ****   * @brief  DeInitialize the CRC MSP.
 182:Drivers/STM32F4xx_HAL_Driver/Src/stm32f4xx_hal_crc.c ****   * @param  hcrc CRC handle
 183:Drivers/STM32F4xx_HAL_Driver/Src/stm32f4xx_hal_crc.c ****   * @retval None
 184:Drivers/STM32F4xx_HAL_Driver/Src/stm32f4xx_hal_crc.c ****   */
 185:Drivers/STM32F4xx_HAL_Driver/Src/stm32f4xx_hal_crc.c **** __weak void HAL_CRC_MspDeInit(CRC_HandleTypeDef *hcrc)
 186:Drivers/STM32F4xx_HAL_Driver/Src/stm32f4xx_hal_crc.c **** {
 114              		.loc 1 186 1 is_stmt 1 view -0
 115              		.cfi_startproc
 116              		@ args = 0, pretend = 0, frame = 0
 117              		@ frame_needed = 0, uses_anonymous_args = 0
 118              		@ link register save eliminated.
 187:Drivers/STM32F4xx_HAL_Driver/Src/stm32f4xx_hal_crc.c ****   /* Prevent unused argument(s) compilation warning */
 188:Drivers/STM32F4xx_HAL_Driver/Src/stm32f4xx_hal_crc.c ****   UNUSED(hcrc);
 119              		.loc 1 188 3 view .LVU23
 189:Drivers/STM32F4xx_HAL_Driver/Src/stm32f4xx_hal_crc.c **** 
 190:Drivers/STM32F4xx_HAL_Driver/Src/stm32f4xx_hal_crc.c ****   /* NOTE : This function should not be modified, when the callback is needed,
 191:Drivers/STM32F4xx_HAL_Driver/Src/stm32f4xx_hal_crc.c ****             the HAL_CRC_MspDeInit can be implemented in the user file
 192:Drivers/STM32F4xx_HAL_Driver/Src/stm32f4xx_hal_crc.c ****    */
 193:Drivers/STM32F4xx_HAL_Driver/Src/stm32f4xx_hal_crc.c **** }
 120              		.loc 1 193 1 is_stmt 0 view .LVU24
 121 0000 7047     		bx	lr
 122              		.cfi_endproc
 123              	.LFE238:
 125              		.section	.text.HAL_CRC_DeInit,"ax",%progbits
 126              		.align	1
 127              		.global	HAL_CRC_DeInit
 128              		.syntax unified
 129              		.thumb
 130              		.thumb_func
 132              	HAL_CRC_DeInit:
 133              	.LVL8:
 134              	.LFB236:
 127:Drivers/STM32F4xx_HAL_Driver/Src/stm32f4xx_hal_crc.c ****   /* Check the CRC handle allocation */
 135              		.loc 1 127 1 is_stmt 1 view -0
 136              		.cfi_startproc
ARM GAS  C:\Users\Administrator\AppData\Local\Temp\ccoSvxLl.s 			page 7


 137              		@ args = 0, pretend = 0, frame = 0
 138              		@ frame_needed = 0, uses_anonymous_args = 0
 129:Drivers/STM32F4xx_HAL_Driver/Src/stm32f4xx_hal_crc.c ****   {
 139              		.loc 1 129 3 view .LVU26
 129:Drivers/STM32F4xx_HAL_Driver/Src/stm32f4xx_hal_crc.c ****   {
 140              		.loc 1 129 6 is_stmt 0 view .LVU27
 141 0000 B8B1     		cbz	r0, .L14
 127:Drivers/STM32F4xx_HAL_Driver/Src/stm32f4xx_hal_crc.c ****   /* Check the CRC handle allocation */
 142              		.loc 1 127 1 view .LVU28
 143 0002 38B5     		push	{r3, r4, r5, lr}
 144              		.cfi_def_cfa_offset 16
 145              		.cfi_offset 3, -16
 146              		.cfi_offset 4, -12
 147              		.cfi_offset 5, -8
 148              		.cfi_offset 14, -4
 149 0004 0546     		mov	r5, r0
 135:Drivers/STM32F4xx_HAL_Driver/Src/stm32f4xx_hal_crc.c **** 
 150              		.loc 1 135 3 is_stmt 1 view .LVU29
 138:Drivers/STM32F4xx_HAL_Driver/Src/stm32f4xx_hal_crc.c ****   {
 151              		.loc 1 138 3 view .LVU30
 138:Drivers/STM32F4xx_HAL_Driver/Src/stm32f4xx_hal_crc.c ****   {
 152              		.loc 1 138 11 is_stmt 0 view .LVU31
 153 0006 4379     		ldrb	r3, [r0, #5]	@ zero_extendqisi2
 154 0008 D8B2     		uxtb	r0, r3
 155              	.LVL9:
 138:Drivers/STM32F4xx_HAL_Driver/Src/stm32f4xx_hal_crc.c ****   {
 156              		.loc 1 138 6 view .LVU32
 157 000a 022B     		cmp	r3, #2
 158 000c 10D0     		beq	.L13
 144:Drivers/STM32F4xx_HAL_Driver/Src/stm32f4xx_hal_crc.c **** 
 159              		.loc 1 144 3 is_stmt 1 view .LVU33
 144:Drivers/STM32F4xx_HAL_Driver/Src/stm32f4xx_hal_crc.c **** 
 160              		.loc 1 144 15 is_stmt 0 view .LVU34
 161 000e 0223     		movs	r3, #2
 162 0010 6B71     		strb	r3, [r5, #5]
 147:Drivers/STM32F4xx_HAL_Driver/Src/stm32f4xx_hal_crc.c **** 
 163              		.loc 1 147 3 is_stmt 1 view .LVU35
 164 0012 2A68     		ldr	r2, [r5]
 165 0014 9368     		ldr	r3, [r2, #8]
 166 0016 43F00103 		orr	r3, r3, #1
 167 001a 9360     		str	r3, [r2, #8]
 150:Drivers/STM32F4xx_HAL_Driver/Src/stm32f4xx_hal_crc.c **** 
 168              		.loc 1 150 3 view .LVU36
 169 001c 2B68     		ldr	r3, [r5]
 170 001e 1A79     		ldrb	r2, [r3, #4]	@ zero_extendqisi2
 171 0020 0024     		movs	r4, #0
 172 0022 1C71     		strb	r4, [r3, #4]
 153:Drivers/STM32F4xx_HAL_Driver/Src/stm32f4xx_hal_crc.c **** 
 173              		.loc 1 153 3 view .LVU37
 174 0024 2846     		mov	r0, r5
 175 0026 FFF7FEFF 		bl	HAL_CRC_MspDeInit
 176              	.LVL10:
 156:Drivers/STM32F4xx_HAL_Driver/Src/stm32f4xx_hal_crc.c **** 
 177              		.loc 1 156 3 view .LVU38
 156:Drivers/STM32F4xx_HAL_Driver/Src/stm32f4xx_hal_crc.c **** 
 178              		.loc 1 156 15 is_stmt 0 view .LVU39
 179 002a 6C71     		strb	r4, [r5, #5]
ARM GAS  C:\Users\Administrator\AppData\Local\Temp\ccoSvxLl.s 			page 8


 159:Drivers/STM32F4xx_HAL_Driver/Src/stm32f4xx_hal_crc.c **** 
 180              		.loc 1 159 3 is_stmt 1 view .LVU40
 159:Drivers/STM32F4xx_HAL_Driver/Src/stm32f4xx_hal_crc.c **** 
 181              		.loc 1 159 3 view .LVU41
 182 002c 2C71     		strb	r4, [r5, #4]
 159:Drivers/STM32F4xx_HAL_Driver/Src/stm32f4xx_hal_crc.c **** 
 183              		.loc 1 159 3 view .LVU42
 162:Drivers/STM32F4xx_HAL_Driver/Src/stm32f4xx_hal_crc.c **** }
 184              		.loc 1 162 3 view .LVU43
 162:Drivers/STM32F4xx_HAL_Driver/Src/stm32f4xx_hal_crc.c **** }
 185              		.loc 1 162 10 is_stmt 0 view .LVU44
 186 002e 2046     		mov	r0, r4
 187              	.L13:
 163:Drivers/STM32F4xx_HAL_Driver/Src/stm32f4xx_hal_crc.c **** 
 188              		.loc 1 163 1 view .LVU45
 189 0030 38BD     		pop	{r3, r4, r5, pc}
 190              	.LVL11:
 191              	.L14:
 192              		.cfi_def_cfa_offset 0
 193              		.cfi_restore 3
 194              		.cfi_restore 4
 195              		.cfi_restore 5
 196              		.cfi_restore 14
 131:Drivers/STM32F4xx_HAL_Driver/Src/stm32f4xx_hal_crc.c ****   }
 197              		.loc 1 131 12 view .LVU46
 198 0032 0120     		movs	r0, #1
 199              	.LVL12:
 163:Drivers/STM32F4xx_HAL_Driver/Src/stm32f4xx_hal_crc.c **** 
 200              		.loc 1 163 1 view .LVU47
 201 0034 7047     		bx	lr
 202              		.cfi_endproc
 203              	.LFE236:
 205              		.section	.text.HAL_CRC_Accumulate,"ax",%progbits
 206              		.align	1
 207              		.global	HAL_CRC_Accumulate
 208              		.syntax unified
 209              		.thumb
 210              		.thumb_func
 212              	HAL_CRC_Accumulate:
 213              	.LVL13:
 214              	.LFB239:
 194:Drivers/STM32F4xx_HAL_Driver/Src/stm32f4xx_hal_crc.c **** 
 195:Drivers/STM32F4xx_HAL_Driver/Src/stm32f4xx_hal_crc.c **** /**
 196:Drivers/STM32F4xx_HAL_Driver/Src/stm32f4xx_hal_crc.c ****   * @}
 197:Drivers/STM32F4xx_HAL_Driver/Src/stm32f4xx_hal_crc.c ****   */
 198:Drivers/STM32F4xx_HAL_Driver/Src/stm32f4xx_hal_crc.c **** 
 199:Drivers/STM32F4xx_HAL_Driver/Src/stm32f4xx_hal_crc.c **** /** @defgroup CRC_Exported_Functions_Group2 Peripheral Control functions
 200:Drivers/STM32F4xx_HAL_Driver/Src/stm32f4xx_hal_crc.c ****   *  @brief    management functions.
 201:Drivers/STM32F4xx_HAL_Driver/Src/stm32f4xx_hal_crc.c ****   *
 202:Drivers/STM32F4xx_HAL_Driver/Src/stm32f4xx_hal_crc.c **** @verbatim
 203:Drivers/STM32F4xx_HAL_Driver/Src/stm32f4xx_hal_crc.c ****  ===============================================================================
 204:Drivers/STM32F4xx_HAL_Driver/Src/stm32f4xx_hal_crc.c ****                       ##### Peripheral Control functions #####
 205:Drivers/STM32F4xx_HAL_Driver/Src/stm32f4xx_hal_crc.c ****  ===============================================================================
 206:Drivers/STM32F4xx_HAL_Driver/Src/stm32f4xx_hal_crc.c ****     [..]  This section provides functions allowing to:
 207:Drivers/STM32F4xx_HAL_Driver/Src/stm32f4xx_hal_crc.c ****       (+) compute the 32-bit CRC value of a 32-bit data buffer
 208:Drivers/STM32F4xx_HAL_Driver/Src/stm32f4xx_hal_crc.c ****           using combination of the previous CRC value and the new one.
 209:Drivers/STM32F4xx_HAL_Driver/Src/stm32f4xx_hal_crc.c **** 
ARM GAS  C:\Users\Administrator\AppData\Local\Temp\ccoSvxLl.s 			page 9


 210:Drivers/STM32F4xx_HAL_Driver/Src/stm32f4xx_hal_crc.c ****        [..]  or
 211:Drivers/STM32F4xx_HAL_Driver/Src/stm32f4xx_hal_crc.c **** 
 212:Drivers/STM32F4xx_HAL_Driver/Src/stm32f4xx_hal_crc.c ****       (+) compute the 32-bit CRC value of a 32-bit data buffer
 213:Drivers/STM32F4xx_HAL_Driver/Src/stm32f4xx_hal_crc.c ****           independently of the previous CRC value.
 214:Drivers/STM32F4xx_HAL_Driver/Src/stm32f4xx_hal_crc.c **** 
 215:Drivers/STM32F4xx_HAL_Driver/Src/stm32f4xx_hal_crc.c **** @endverbatim
 216:Drivers/STM32F4xx_HAL_Driver/Src/stm32f4xx_hal_crc.c ****   * @{
 217:Drivers/STM32F4xx_HAL_Driver/Src/stm32f4xx_hal_crc.c ****   */
 218:Drivers/STM32F4xx_HAL_Driver/Src/stm32f4xx_hal_crc.c **** 
 219:Drivers/STM32F4xx_HAL_Driver/Src/stm32f4xx_hal_crc.c **** /**
 220:Drivers/STM32F4xx_HAL_Driver/Src/stm32f4xx_hal_crc.c ****   * @brief  Compute the 32-bit CRC value of a 32-bit data buffer
 221:Drivers/STM32F4xx_HAL_Driver/Src/stm32f4xx_hal_crc.c ****   *         starting with the previously computed CRC as initialization value.
 222:Drivers/STM32F4xx_HAL_Driver/Src/stm32f4xx_hal_crc.c ****   * @param  hcrc CRC handle
 223:Drivers/STM32F4xx_HAL_Driver/Src/stm32f4xx_hal_crc.c ****   * @param  pBuffer pointer to the input data buffer.
 224:Drivers/STM32F4xx_HAL_Driver/Src/stm32f4xx_hal_crc.c ****   * @param  BufferLength input data buffer length (number of uint32_t words).
 225:Drivers/STM32F4xx_HAL_Driver/Src/stm32f4xx_hal_crc.c ****   * @retval uint32_t CRC (returned value LSBs for CRC shorter than 32 bits)
 226:Drivers/STM32F4xx_HAL_Driver/Src/stm32f4xx_hal_crc.c ****   */
 227:Drivers/STM32F4xx_HAL_Driver/Src/stm32f4xx_hal_crc.c **** uint32_t HAL_CRC_Accumulate(CRC_HandleTypeDef *hcrc, uint32_t pBuffer[], uint32_t BufferLength)
 228:Drivers/STM32F4xx_HAL_Driver/Src/stm32f4xx_hal_crc.c **** {
 215              		.loc 1 228 1 is_stmt 1 view -0
 216              		.cfi_startproc
 217              		@ args = 0, pretend = 0, frame = 0
 218              		@ frame_needed = 0, uses_anonymous_args = 0
 219              		@ link register save eliminated.
 220              		.loc 1 228 1 is_stmt 0 view .LVU49
 221 0000 8446     		mov	ip, r0
 229:Drivers/STM32F4xx_HAL_Driver/Src/stm32f4xx_hal_crc.c ****   uint32_t index;      /* CRC input data buffer index */
 222              		.loc 1 229 3 is_stmt 1 view .LVU50
 230:Drivers/STM32F4xx_HAL_Driver/Src/stm32f4xx_hal_crc.c ****   uint32_t temp = 0U;  /* CRC output (read from hcrc->Instance->DR register) */
 223              		.loc 1 230 3 view .LVU51
 224              	.LVL14:
 231:Drivers/STM32F4xx_HAL_Driver/Src/stm32f4xx_hal_crc.c **** 
 232:Drivers/STM32F4xx_HAL_Driver/Src/stm32f4xx_hal_crc.c ****   /* Change CRC peripheral state */
 233:Drivers/STM32F4xx_HAL_Driver/Src/stm32f4xx_hal_crc.c ****   hcrc->State = HAL_CRC_STATE_BUSY;
 225              		.loc 1 233 3 view .LVU52
 226              		.loc 1 233 15 is_stmt 0 view .LVU53
 227 0002 0223     		movs	r3, #2
 228 0004 4371     		strb	r3, [r0, #5]
 234:Drivers/STM32F4xx_HAL_Driver/Src/stm32f4xx_hal_crc.c **** 
 235:Drivers/STM32F4xx_HAL_Driver/Src/stm32f4xx_hal_crc.c ****   /* Enter Data to the CRC calculator */
 236:Drivers/STM32F4xx_HAL_Driver/Src/stm32f4xx_hal_crc.c ****   for (index = 0U; index < BufferLength; index++)
 229              		.loc 1 236 3 is_stmt 1 view .LVU54
 230              	.LVL15:
 231              		.loc 1 236 14 is_stmt 0 view .LVU55
 232 0006 0023     		movs	r3, #0
 233              	.LVL16:
 234              		.loc 1 236 26 is_stmt 1 discriminator 1 view .LVU56
 235 0008 9342     		cmp	r3, r2
 236 000a 10D2     		bcs	.L26
 228:Drivers/STM32F4xx_HAL_Driver/Src/stm32f4xx_hal_crc.c ****   uint32_t index;      /* CRC input data buffer index */
 237              		.loc 1 228 1 is_stmt 0 view .LVU57
 238 000c 10B4     		push	{r4}
 239              		.cfi_def_cfa_offset 4
 240              		.cfi_offset 4, -4
 241              	.LVL17:
 242              	.L21:
 237:Drivers/STM32F4xx_HAL_Driver/Src/stm32f4xx_hal_crc.c ****   {
ARM GAS  C:\Users\Administrator\AppData\Local\Temp\ccoSvxLl.s 			page 10


 238:Drivers/STM32F4xx_HAL_Driver/Src/stm32f4xx_hal_crc.c ****     hcrc->Instance->DR = pBuffer[index];
 243              		.loc 1 238 5 is_stmt 1 view .LVU58
 244              		.loc 1 238 24 is_stmt 0 view .LVU59
 245 000e DCF80000 		ldr	r0, [ip]
 246 0012 51F82340 		ldr	r4, [r1, r3, lsl #2]
 247 0016 0460     		str	r4, [r0]
 236:Drivers/STM32F4xx_HAL_Driver/Src/stm32f4xx_hal_crc.c ****   {
 248              		.loc 1 236 47 is_stmt 1 discriminator 3 view .LVU60
 249 0018 0133     		adds	r3, r3, #1
 250              	.LVL18:
 236:Drivers/STM32F4xx_HAL_Driver/Src/stm32f4xx_hal_crc.c ****   {
 251              		.loc 1 236 26 discriminator 1 view .LVU61
 252 001a 9342     		cmp	r3, r2
 253 001c F7D3     		bcc	.L21
 239:Drivers/STM32F4xx_HAL_Driver/Src/stm32f4xx_hal_crc.c ****   }
 240:Drivers/STM32F4xx_HAL_Driver/Src/stm32f4xx_hal_crc.c ****   temp = hcrc->Instance->DR;
 254              		.loc 1 240 3 view .LVU62
 255              		.loc 1 240 14 is_stmt 0 view .LVU63
 256 001e DCF80030 		ldr	r3, [ip]
 257              	.LVL19:
 258              		.loc 1 240 8 view .LVU64
 259 0022 1868     		ldr	r0, [r3]
 260              	.LVL20:
 241:Drivers/STM32F4xx_HAL_Driver/Src/stm32f4xx_hal_crc.c **** 
 242:Drivers/STM32F4xx_HAL_Driver/Src/stm32f4xx_hal_crc.c ****   /* Change CRC peripheral state */
 243:Drivers/STM32F4xx_HAL_Driver/Src/stm32f4xx_hal_crc.c ****   hcrc->State = HAL_CRC_STATE_READY;
 261              		.loc 1 243 3 is_stmt 1 view .LVU65
 262              		.loc 1 243 15 is_stmt 0 view .LVU66
 263 0024 0123     		movs	r3, #1
 264 0026 8CF80530 		strb	r3, [ip, #5]
 244:Drivers/STM32F4xx_HAL_Driver/Src/stm32f4xx_hal_crc.c **** 
 245:Drivers/STM32F4xx_HAL_Driver/Src/stm32f4xx_hal_crc.c ****   /* Return the CRC computed value */
 246:Drivers/STM32F4xx_HAL_Driver/Src/stm32f4xx_hal_crc.c ****   return temp;
 265              		.loc 1 246 3 is_stmt 1 view .LVU67
 247:Drivers/STM32F4xx_HAL_Driver/Src/stm32f4xx_hal_crc.c **** }
 266              		.loc 1 247 1 is_stmt 0 view .LVU68
 267 002a 10BC     		pop	{r4}
 268              		.cfi_restore 4
 269              		.cfi_def_cfa_offset 0
 270 002c 7047     		bx	lr
 271              	.LVL21:
 272              	.L26:
 240:Drivers/STM32F4xx_HAL_Driver/Src/stm32f4xx_hal_crc.c **** 
 273              		.loc 1 240 3 is_stmt 1 view .LVU69
 240:Drivers/STM32F4xx_HAL_Driver/Src/stm32f4xx_hal_crc.c **** 
 274              		.loc 1 240 14 is_stmt 0 view .LVU70
 275 002e 0368     		ldr	r3, [r0]
 276              	.LVL22:
 240:Drivers/STM32F4xx_HAL_Driver/Src/stm32f4xx_hal_crc.c **** 
 277              		.loc 1 240 8 view .LVU71
 278 0030 1868     		ldr	r0, [r3]
 279              	.LVL23:
 243:Drivers/STM32F4xx_HAL_Driver/Src/stm32f4xx_hal_crc.c **** 
 280              		.loc 1 243 3 is_stmt 1 view .LVU72
 243:Drivers/STM32F4xx_HAL_Driver/Src/stm32f4xx_hal_crc.c **** 
 281              		.loc 1 243 15 is_stmt 0 view .LVU73
 282 0032 0123     		movs	r3, #1
ARM GAS  C:\Users\Administrator\AppData\Local\Temp\ccoSvxLl.s 			page 11


 283 0034 8CF80530 		strb	r3, [ip, #5]
 246:Drivers/STM32F4xx_HAL_Driver/Src/stm32f4xx_hal_crc.c **** }
 284              		.loc 1 246 3 is_stmt 1 view .LVU74
 285              		.loc 1 247 1 is_stmt 0 view .LVU75
 286 0038 7047     		bx	lr
 287              		.cfi_endproc
 288              	.LFE239:
 290              		.section	.text.HAL_CRC_Calculate,"ax",%progbits
 291              		.align	1
 292              		.global	HAL_CRC_Calculate
 293              		.syntax unified
 294              		.thumb
 295              		.thumb_func
 297              	HAL_CRC_Calculate:
 298              	.LVL24:
 299              	.LFB240:
 248:Drivers/STM32F4xx_HAL_Driver/Src/stm32f4xx_hal_crc.c **** 
 249:Drivers/STM32F4xx_HAL_Driver/Src/stm32f4xx_hal_crc.c **** /**
 250:Drivers/STM32F4xx_HAL_Driver/Src/stm32f4xx_hal_crc.c ****   * @brief  Compute the 32-bit CRC value of a 32-bit data buffer
 251:Drivers/STM32F4xx_HAL_Driver/Src/stm32f4xx_hal_crc.c ****   *         starting with hcrc->Instance->INIT as initialization value.
 252:Drivers/STM32F4xx_HAL_Driver/Src/stm32f4xx_hal_crc.c ****   * @param  hcrc CRC handle
 253:Drivers/STM32F4xx_HAL_Driver/Src/stm32f4xx_hal_crc.c ****   * @param  pBuffer pointer to the input data buffer.
 254:Drivers/STM32F4xx_HAL_Driver/Src/stm32f4xx_hal_crc.c ****   * @param  BufferLength input data buffer length (number of uint32_t words).
 255:Drivers/STM32F4xx_HAL_Driver/Src/stm32f4xx_hal_crc.c ****   * @retval uint32_t CRC (returned value LSBs for CRC shorter than 32 bits)
 256:Drivers/STM32F4xx_HAL_Driver/Src/stm32f4xx_hal_crc.c ****   */
 257:Drivers/STM32F4xx_HAL_Driver/Src/stm32f4xx_hal_crc.c **** uint32_t HAL_CRC_Calculate(CRC_HandleTypeDef *hcrc, uint32_t pBuffer[], uint32_t BufferLength)
 258:Drivers/STM32F4xx_HAL_Driver/Src/stm32f4xx_hal_crc.c **** {
 300              		.loc 1 258 1 is_stmt 1 view -0
 301              		.cfi_startproc
 302              		@ args = 0, pretend = 0, frame = 0
 303              		@ frame_needed = 0, uses_anonymous_args = 0
 304              		@ link register save eliminated.
 305              		.loc 1 258 1 is_stmt 0 view .LVU77
 306 0000 8446     		mov	ip, r0
 259:Drivers/STM32F4xx_HAL_Driver/Src/stm32f4xx_hal_crc.c ****   uint32_t index;      /* CRC input data buffer index */
 307              		.loc 1 259 3 is_stmt 1 view .LVU78
 260:Drivers/STM32F4xx_HAL_Driver/Src/stm32f4xx_hal_crc.c ****   uint32_t temp = 0U;  /* CRC output (read from hcrc->Instance->DR register) */
 308              		.loc 1 260 3 view .LVU79
 309              	.LVL25:
 261:Drivers/STM32F4xx_HAL_Driver/Src/stm32f4xx_hal_crc.c **** 
 262:Drivers/STM32F4xx_HAL_Driver/Src/stm32f4xx_hal_crc.c ****   /* Change CRC peripheral state */
 263:Drivers/STM32F4xx_HAL_Driver/Src/stm32f4xx_hal_crc.c ****   hcrc->State = HAL_CRC_STATE_BUSY;
 310              		.loc 1 263 3 view .LVU80
 311              		.loc 1 263 15 is_stmt 0 view .LVU81
 312 0002 0223     		movs	r3, #2
 313 0004 4371     		strb	r3, [r0, #5]
 264:Drivers/STM32F4xx_HAL_Driver/Src/stm32f4xx_hal_crc.c **** 
 265:Drivers/STM32F4xx_HAL_Driver/Src/stm32f4xx_hal_crc.c ****   /* Reset CRC Calculation Unit (hcrc->Instance->INIT is
 266:Drivers/STM32F4xx_HAL_Driver/Src/stm32f4xx_hal_crc.c ****   *  written in hcrc->Instance->DR) */
 267:Drivers/STM32F4xx_HAL_Driver/Src/stm32f4xx_hal_crc.c ****   __HAL_CRC_DR_RESET(hcrc);
 314              		.loc 1 267 3 is_stmt 1 view .LVU82
 315 0006 0068     		ldr	r0, [r0]
 316              	.LVL26:
 317              		.loc 1 267 3 is_stmt 0 view .LVU83
 318 0008 8368     		ldr	r3, [r0, #8]
 319 000a 43F00103 		orr	r3, r3, #1
 320 000e 8360     		str	r3, [r0, #8]
ARM GAS  C:\Users\Administrator\AppData\Local\Temp\ccoSvxLl.s 			page 12


 268:Drivers/STM32F4xx_HAL_Driver/Src/stm32f4xx_hal_crc.c **** 
 269:Drivers/STM32F4xx_HAL_Driver/Src/stm32f4xx_hal_crc.c ****   /* Enter 32-bit input data to the CRC calculator */
 270:Drivers/STM32F4xx_HAL_Driver/Src/stm32f4xx_hal_crc.c ****   for (index = 0U; index < BufferLength; index++)
 321              		.loc 1 270 3 is_stmt 1 view .LVU84
 322              	.LVL27:
 323              		.loc 1 270 14 is_stmt 0 view .LVU85
 324 0010 0023     		movs	r3, #0
 325              	.LVL28:
 326              		.loc 1 270 26 is_stmt 1 discriminator 1 view .LVU86
 327 0012 9342     		cmp	r3, r2
 328 0014 10D2     		bcs	.L34
 258:Drivers/STM32F4xx_HAL_Driver/Src/stm32f4xx_hal_crc.c ****   uint32_t index;      /* CRC input data buffer index */
 329              		.loc 1 258 1 is_stmt 0 view .LVU87
 330 0016 10B4     		push	{r4}
 331              		.cfi_def_cfa_offset 4
 332              		.cfi_offset 4, -4
 333              	.L29:
 271:Drivers/STM32F4xx_HAL_Driver/Src/stm32f4xx_hal_crc.c ****   {
 272:Drivers/STM32F4xx_HAL_Driver/Src/stm32f4xx_hal_crc.c ****     hcrc->Instance->DR = pBuffer[index];
 334              		.loc 1 272 5 is_stmt 1 view .LVU88
 335              		.loc 1 272 24 is_stmt 0 view .LVU89
 336 0018 DCF80000 		ldr	r0, [ip]
 337 001c 51F82340 		ldr	r4, [r1, r3, lsl #2]
 338 0020 0460     		str	r4, [r0]
 270:Drivers/STM32F4xx_HAL_Driver/Src/stm32f4xx_hal_crc.c ****   {
 339              		.loc 1 270 47 is_stmt 1 discriminator 3 view .LVU90
 340 0022 0133     		adds	r3, r3, #1
 341              	.LVL29:
 270:Drivers/STM32F4xx_HAL_Driver/Src/stm32f4xx_hal_crc.c ****   {
 342              		.loc 1 270 26 discriminator 1 view .LVU91
 343 0024 9342     		cmp	r3, r2
 344 0026 F7D3     		bcc	.L29
 273:Drivers/STM32F4xx_HAL_Driver/Src/stm32f4xx_hal_crc.c ****   }
 274:Drivers/STM32F4xx_HAL_Driver/Src/stm32f4xx_hal_crc.c ****   temp = hcrc->Instance->DR;
 345              		.loc 1 274 3 view .LVU92
 346              		.loc 1 274 14 is_stmt 0 view .LVU93
 347 0028 DCF80030 		ldr	r3, [ip]
 348              	.LVL30:
 349              		.loc 1 274 8 view .LVU94
 350 002c 1868     		ldr	r0, [r3]
 351              	.LVL31:
 275:Drivers/STM32F4xx_HAL_Driver/Src/stm32f4xx_hal_crc.c **** 
 276:Drivers/STM32F4xx_HAL_Driver/Src/stm32f4xx_hal_crc.c ****   /* Change CRC peripheral state */
 277:Drivers/STM32F4xx_HAL_Driver/Src/stm32f4xx_hal_crc.c ****   hcrc->State = HAL_CRC_STATE_READY;
 352              		.loc 1 277 3 is_stmt 1 view .LVU95
 353              		.loc 1 277 15 is_stmt 0 view .LVU96
 354 002e 0123     		movs	r3, #1
 355 0030 8CF80530 		strb	r3, [ip, #5]
 278:Drivers/STM32F4xx_HAL_Driver/Src/stm32f4xx_hal_crc.c **** 
 279:Drivers/STM32F4xx_HAL_Driver/Src/stm32f4xx_hal_crc.c ****   /* Return the CRC computed value */
 280:Drivers/STM32F4xx_HAL_Driver/Src/stm32f4xx_hal_crc.c ****   return temp;
 356              		.loc 1 280 3 is_stmt 1 view .LVU97
 281:Drivers/STM32F4xx_HAL_Driver/Src/stm32f4xx_hal_crc.c **** }
 357              		.loc 1 281 1 is_stmt 0 view .LVU98
 358 0034 10BC     		pop	{r4}
 359              		.cfi_restore 4
 360              		.cfi_def_cfa_offset 0
ARM GAS  C:\Users\Administrator\AppData\Local\Temp\ccoSvxLl.s 			page 13


 361 0036 7047     		bx	lr
 362              	.LVL32:
 363              	.L34:
 274:Drivers/STM32F4xx_HAL_Driver/Src/stm32f4xx_hal_crc.c **** 
 364              		.loc 1 274 3 is_stmt 1 view .LVU99
 274:Drivers/STM32F4xx_HAL_Driver/Src/stm32f4xx_hal_crc.c **** 
 365              		.loc 1 274 14 is_stmt 0 view .LVU100
 366 0038 DCF80030 		ldr	r3, [ip]
 367              	.LVL33:
 274:Drivers/STM32F4xx_HAL_Driver/Src/stm32f4xx_hal_crc.c **** 
 368              		.loc 1 274 8 view .LVU101
 369 003c 1868     		ldr	r0, [r3]
 370              	.LVL34:
 277:Drivers/STM32F4xx_HAL_Driver/Src/stm32f4xx_hal_crc.c **** 
 371              		.loc 1 277 3 is_stmt 1 view .LVU102
 277:Drivers/STM32F4xx_HAL_Driver/Src/stm32f4xx_hal_crc.c **** 
 372              		.loc 1 277 15 is_stmt 0 view .LVU103
 373 003e 0123     		movs	r3, #1
 374 0040 8CF80530 		strb	r3, [ip, #5]
 280:Drivers/STM32F4xx_HAL_Driver/Src/stm32f4xx_hal_crc.c **** }
 375              		.loc 1 280 3 is_stmt 1 view .LVU104
 376              		.loc 1 281 1 is_stmt 0 view .LVU105
 377 0044 7047     		bx	lr
 378              		.cfi_endproc
 379              	.LFE240:
 381              		.section	.text.HAL_CRC_GetState,"ax",%progbits
 382              		.align	1
 383              		.global	HAL_CRC_GetState
 384              		.syntax unified
 385              		.thumb
 386              		.thumb_func
 388              	HAL_CRC_GetState:
 389              	.LVL35:
 390              	.LFB241:
 282:Drivers/STM32F4xx_HAL_Driver/Src/stm32f4xx_hal_crc.c **** 
 283:Drivers/STM32F4xx_HAL_Driver/Src/stm32f4xx_hal_crc.c **** /**
 284:Drivers/STM32F4xx_HAL_Driver/Src/stm32f4xx_hal_crc.c ****   * @}
 285:Drivers/STM32F4xx_HAL_Driver/Src/stm32f4xx_hal_crc.c ****   */
 286:Drivers/STM32F4xx_HAL_Driver/Src/stm32f4xx_hal_crc.c **** 
 287:Drivers/STM32F4xx_HAL_Driver/Src/stm32f4xx_hal_crc.c **** /** @defgroup CRC_Exported_Functions_Group3 Peripheral State functions
 288:Drivers/STM32F4xx_HAL_Driver/Src/stm32f4xx_hal_crc.c ****   *  @brief    Peripheral State functions.
 289:Drivers/STM32F4xx_HAL_Driver/Src/stm32f4xx_hal_crc.c ****   *
 290:Drivers/STM32F4xx_HAL_Driver/Src/stm32f4xx_hal_crc.c **** @verbatim
 291:Drivers/STM32F4xx_HAL_Driver/Src/stm32f4xx_hal_crc.c ****  ===============================================================================
 292:Drivers/STM32F4xx_HAL_Driver/Src/stm32f4xx_hal_crc.c ****                       ##### Peripheral State functions #####
 293:Drivers/STM32F4xx_HAL_Driver/Src/stm32f4xx_hal_crc.c ****  ===============================================================================
 294:Drivers/STM32F4xx_HAL_Driver/Src/stm32f4xx_hal_crc.c ****     [..]
 295:Drivers/STM32F4xx_HAL_Driver/Src/stm32f4xx_hal_crc.c ****     This subsection permits to get in run-time the status of the peripheral.
 296:Drivers/STM32F4xx_HAL_Driver/Src/stm32f4xx_hal_crc.c **** 
 297:Drivers/STM32F4xx_HAL_Driver/Src/stm32f4xx_hal_crc.c **** @endverbatim
 298:Drivers/STM32F4xx_HAL_Driver/Src/stm32f4xx_hal_crc.c ****   * @{
 299:Drivers/STM32F4xx_HAL_Driver/Src/stm32f4xx_hal_crc.c ****   */
 300:Drivers/STM32F4xx_HAL_Driver/Src/stm32f4xx_hal_crc.c **** 
 301:Drivers/STM32F4xx_HAL_Driver/Src/stm32f4xx_hal_crc.c **** /**
 302:Drivers/STM32F4xx_HAL_Driver/Src/stm32f4xx_hal_crc.c ****   * @brief  Return the CRC handle state.
 303:Drivers/STM32F4xx_HAL_Driver/Src/stm32f4xx_hal_crc.c ****   * @param  hcrc CRC handle
 304:Drivers/STM32F4xx_HAL_Driver/Src/stm32f4xx_hal_crc.c ****   * @retval HAL state
ARM GAS  C:\Users\Administrator\AppData\Local\Temp\ccoSvxLl.s 			page 14


 305:Drivers/STM32F4xx_HAL_Driver/Src/stm32f4xx_hal_crc.c ****   */
 306:Drivers/STM32F4xx_HAL_Driver/Src/stm32f4xx_hal_crc.c **** HAL_CRC_StateTypeDef HAL_CRC_GetState(CRC_HandleTypeDef *hcrc)
 307:Drivers/STM32F4xx_HAL_Driver/Src/stm32f4xx_hal_crc.c **** {
 391              		.loc 1 307 1 is_stmt 1 view -0
 392              		.cfi_startproc
 393              		@ args = 0, pretend = 0, frame = 0
 394              		@ frame_needed = 0, uses_anonymous_args = 0
 395              		@ link register save eliminated.
 308:Drivers/STM32F4xx_HAL_Driver/Src/stm32f4xx_hal_crc.c ****   /* Return CRC handle state */
 309:Drivers/STM32F4xx_HAL_Driver/Src/stm32f4xx_hal_crc.c ****   return hcrc->State;
 396              		.loc 1 309 3 view .LVU107
 397              		.loc 1 309 14 is_stmt 0 view .LVU108
 398 0000 4079     		ldrb	r0, [r0, #5]	@ zero_extendqisi2
 399              	.LVL36:
 310:Drivers/STM32F4xx_HAL_Driver/Src/stm32f4xx_hal_crc.c **** }
 400              		.loc 1 310 1 view .LVU109
 401 0002 7047     		bx	lr
 402              		.cfi_endproc
 403              	.LFE241:
 405              		.text
 406              	.Letext0:
 407              		.file 2 "C:/Users/Administrator/AppData/Roaming/Code/User/globalStorage/bmd.stm32-for-vscode/@xpac
 408              		.file 3 "C:/Users/Administrator/AppData/Roaming/Code/User/globalStorage/bmd.stm32-for-vscode/@xpac
 409              		.file 4 "Drivers/CMSIS/Device/ST/STM32F4xx/Include/stm32f407xx.h"
 410              		.file 5 "Drivers/STM32F4xx_HAL_Driver/Inc/stm32f4xx_hal_def.h"
 411              		.file 6 "Drivers/STM32F4xx_HAL_Driver/Inc/stm32f4xx_hal_crc.h"
ARM GAS  C:\Users\Administrator\AppData\Local\Temp\ccoSvxLl.s 			page 15

