ARM GAS  C:\Users\Administrator\AppData\Local\Temp\ccUDcii1.s 			page 1


   1              		.cpu cortex-m4
   2              		.arch armv7e-m
   3              		.fpu fpv4-sp-d16
   4              		.eabi_attribute 27, 1
   5              		.eabi_attribute 28, 1
   6              		.eabi_attribute 20, 1
   7              		.eabi_attribute 21, 1
   8              		.eabi_attribute 23, 3
   9              		.eabi_attribute 24, 1
  10              		.eabi_attribute 25, 1
  11              		.eabi_attribute 26, 1
  12              		.eabi_attribute 30, 1
  13              		.eabi_attribute 34, 1
  14              		.eabi_attribute 18, 4
  15              		.file	"usbd_desc.c"
  16              		.text
  17              	.Ltext0:
  18              		.cfi_sections	.debug_frame
  19              		.file 1 "Src/usbd_desc.c"
  20              		.section	.text.USBD_FS_DeviceDescriptor,"ax",%progbits
  21              		.align	1
  22              		.global	USBD_FS_DeviceDescriptor
  23              		.syntax unified
  24              		.thumb
  25              		.thumb_func
  27              	USBD_FS_DeviceDescriptor:
  28              	.LVL0:
  29              	.LFB239:
   1:Src/usbd_desc.c **** /* USER CODE BEGIN Header */
   2:Src/usbd_desc.c **** /**
   3:Src/usbd_desc.c ****   ******************************************************************************
   4:Src/usbd_desc.c ****   * @file           : usbd_desc.c
   5:Src/usbd_desc.c ****   * @version        : v1.0_Cube
   6:Src/usbd_desc.c ****   * @brief          : This file implements the USB device descriptors.
   7:Src/usbd_desc.c ****   ******************************************************************************
   8:Src/usbd_desc.c ****   * @attention
   9:Src/usbd_desc.c ****   *
  10:Src/usbd_desc.c ****   * Copyright (c) 2023 STMicroelectronics.
  11:Src/usbd_desc.c ****   * All rights reserved.
  12:Src/usbd_desc.c ****   *
  13:Src/usbd_desc.c ****   * This software is licensed under terms that can be found in the LICENSE file
  14:Src/usbd_desc.c ****   * in the root directory of this software component.
  15:Src/usbd_desc.c ****   * If no LICENSE file comes with this software, it is provided AS-IS.
  16:Src/usbd_desc.c ****   *
  17:Src/usbd_desc.c ****   ******************************************************************************
  18:Src/usbd_desc.c ****   */
  19:Src/usbd_desc.c **** /* USER CODE END Header */
  20:Src/usbd_desc.c **** 
  21:Src/usbd_desc.c **** /* Includes ------------------------------------------------------------------*/
  22:Src/usbd_desc.c **** #include "usbd_core.h"
  23:Src/usbd_desc.c **** #include "usbd_desc.h"
  24:Src/usbd_desc.c **** #include "usbd_conf.h"
  25:Src/usbd_desc.c **** 
  26:Src/usbd_desc.c **** /* USER CODE BEGIN INCLUDE */
  27:Src/usbd_desc.c **** 
  28:Src/usbd_desc.c **** /* USER CODE END INCLUDE */
  29:Src/usbd_desc.c **** 
ARM GAS  C:\Users\Administrator\AppData\Local\Temp\ccUDcii1.s 			page 2


  30:Src/usbd_desc.c **** /* Private typedef -----------------------------------------------------------*/
  31:Src/usbd_desc.c **** /* Private define ------------------------------------------------------------*/
  32:Src/usbd_desc.c **** /* Private macro -------------------------------------------------------------*/
  33:Src/usbd_desc.c **** 
  34:Src/usbd_desc.c **** /* USER CODE BEGIN PV */
  35:Src/usbd_desc.c **** /* Private variables ---------------------------------------------------------*/
  36:Src/usbd_desc.c **** 
  37:Src/usbd_desc.c **** /* USER CODE END PV */
  38:Src/usbd_desc.c **** 
  39:Src/usbd_desc.c **** /** @addtogroup STM32_USB_OTG_DEVICE_LIBRARY
  40:Src/usbd_desc.c ****   * @{
  41:Src/usbd_desc.c ****   */
  42:Src/usbd_desc.c **** 
  43:Src/usbd_desc.c **** /** @addtogroup USBD_DESC
  44:Src/usbd_desc.c ****   * @{
  45:Src/usbd_desc.c ****   */
  46:Src/usbd_desc.c **** 
  47:Src/usbd_desc.c **** /** @defgroup USBD_DESC_Private_TypesDefinitions USBD_DESC_Private_TypesDefinitions
  48:Src/usbd_desc.c ****   * @brief Private types.
  49:Src/usbd_desc.c ****   * @{
  50:Src/usbd_desc.c ****   */
  51:Src/usbd_desc.c **** 
  52:Src/usbd_desc.c **** /* USER CODE BEGIN PRIVATE_TYPES */
  53:Src/usbd_desc.c **** 
  54:Src/usbd_desc.c **** /* USER CODE END PRIVATE_TYPES */
  55:Src/usbd_desc.c **** 
  56:Src/usbd_desc.c **** /**
  57:Src/usbd_desc.c ****   * @}
  58:Src/usbd_desc.c ****   */
  59:Src/usbd_desc.c **** 
  60:Src/usbd_desc.c **** /** @defgroup USBD_DESC_Private_Defines USBD_DESC_Private_Defines
  61:Src/usbd_desc.c ****   * @brief Private defines.
  62:Src/usbd_desc.c ****   * @{
  63:Src/usbd_desc.c ****   */
  64:Src/usbd_desc.c **** 
  65:Src/usbd_desc.c **** #define USBD_VID     1155
  66:Src/usbd_desc.c **** #define USBD_LANGID_STRING     1033
  67:Src/usbd_desc.c **** #define USBD_MANUFACTURER_STRING     "YueLuEmbedded"
  68:Src/usbd_desc.c **** #define USBD_PID_FS     202
  69:Src/usbd_desc.c **** #define USBD_PRODUCT_STRING_FS     "Vision Comm port"
  70:Src/usbd_desc.c **** #define USBD_CONFIGURATION_STRING_FS     "CDC Config"
  71:Src/usbd_desc.c **** #define USBD_INTERFACE_STRING_FS     "CDC Interface"
  72:Src/usbd_desc.c **** 
  73:Src/usbd_desc.c **** #define USB_SIZ_BOS_DESC            0x0C
  74:Src/usbd_desc.c **** 
  75:Src/usbd_desc.c **** /* USER CODE BEGIN PRIVATE_DEFINES */
  76:Src/usbd_desc.c **** 
  77:Src/usbd_desc.c **** /* USER CODE END PRIVATE_DEFINES */
  78:Src/usbd_desc.c **** 
  79:Src/usbd_desc.c **** /**
  80:Src/usbd_desc.c ****   * @}
  81:Src/usbd_desc.c ****   */
  82:Src/usbd_desc.c **** 
  83:Src/usbd_desc.c **** /* USER CODE BEGIN 0 */
  84:Src/usbd_desc.c **** 
  85:Src/usbd_desc.c **** /* USER CODE END 0 */
  86:Src/usbd_desc.c **** 
ARM GAS  C:\Users\Administrator\AppData\Local\Temp\ccUDcii1.s 			page 3


  87:Src/usbd_desc.c **** /** @defgroup USBD_DESC_Private_Macros USBD_DESC_Private_Macros
  88:Src/usbd_desc.c ****   * @brief Private macros.
  89:Src/usbd_desc.c ****   * @{
  90:Src/usbd_desc.c ****   */
  91:Src/usbd_desc.c **** 
  92:Src/usbd_desc.c **** /* USER CODE BEGIN PRIVATE_MACRO */
  93:Src/usbd_desc.c **** 
  94:Src/usbd_desc.c **** /* USER CODE END PRIVATE_MACRO */
  95:Src/usbd_desc.c **** 
  96:Src/usbd_desc.c **** /**
  97:Src/usbd_desc.c ****   * @}
  98:Src/usbd_desc.c ****   */
  99:Src/usbd_desc.c **** 
 100:Src/usbd_desc.c **** /** @defgroup USBD_DESC_Private_FunctionPrototypes USBD_DESC_Private_FunctionPrototypes
 101:Src/usbd_desc.c ****   * @brief Private functions declaration.
 102:Src/usbd_desc.c ****   * @{
 103:Src/usbd_desc.c ****   */
 104:Src/usbd_desc.c **** 
 105:Src/usbd_desc.c **** static void Get_SerialNum(void);
 106:Src/usbd_desc.c **** static void IntToUnicode(uint32_t value, uint8_t * pbuf, uint8_t len);
 107:Src/usbd_desc.c **** 
 108:Src/usbd_desc.c **** /**
 109:Src/usbd_desc.c ****   * @}
 110:Src/usbd_desc.c ****   */
 111:Src/usbd_desc.c **** 
 112:Src/usbd_desc.c **** /** @defgroup USBD_DESC_Private_FunctionPrototypes USBD_DESC_Private_FunctionPrototypes
 113:Src/usbd_desc.c ****   * @brief Private functions declaration for FS.
 114:Src/usbd_desc.c ****   * @{
 115:Src/usbd_desc.c ****   */
 116:Src/usbd_desc.c **** 
 117:Src/usbd_desc.c **** uint8_t * USBD_FS_DeviceDescriptor(USBD_SpeedTypeDef speed, uint16_t *length);
 118:Src/usbd_desc.c **** uint8_t * USBD_FS_LangIDStrDescriptor(USBD_SpeedTypeDef speed, uint16_t *length);
 119:Src/usbd_desc.c **** uint8_t * USBD_FS_ManufacturerStrDescriptor(USBD_SpeedTypeDef speed, uint16_t *length);
 120:Src/usbd_desc.c **** uint8_t * USBD_FS_ProductStrDescriptor(USBD_SpeedTypeDef speed, uint16_t *length);
 121:Src/usbd_desc.c **** uint8_t * USBD_FS_SerialStrDescriptor(USBD_SpeedTypeDef speed, uint16_t *length);
 122:Src/usbd_desc.c **** uint8_t * USBD_FS_ConfigStrDescriptor(USBD_SpeedTypeDef speed, uint16_t *length);
 123:Src/usbd_desc.c **** uint8_t * USBD_FS_InterfaceStrDescriptor(USBD_SpeedTypeDef speed, uint16_t *length);
 124:Src/usbd_desc.c **** #if (USBD_LPM_ENABLED == 1)
 125:Src/usbd_desc.c **** uint8_t * USBD_FS_USR_BOSDescriptor(USBD_SpeedTypeDef speed, uint16_t *length);
 126:Src/usbd_desc.c **** #endif /* (USBD_LPM_ENABLED == 1) */
 127:Src/usbd_desc.c **** 
 128:Src/usbd_desc.c **** /**
 129:Src/usbd_desc.c ****   * @}
 130:Src/usbd_desc.c ****   */
 131:Src/usbd_desc.c **** 
 132:Src/usbd_desc.c **** /** @defgroup USBD_DESC_Private_Variables USBD_DESC_Private_Variables
 133:Src/usbd_desc.c ****   * @brief Private variables.
 134:Src/usbd_desc.c ****   * @{
 135:Src/usbd_desc.c ****   */
 136:Src/usbd_desc.c **** 
 137:Src/usbd_desc.c **** USBD_DescriptorsTypeDef FS_Desc =
 138:Src/usbd_desc.c **** {
 139:Src/usbd_desc.c ****   USBD_FS_DeviceDescriptor
 140:Src/usbd_desc.c **** , USBD_FS_LangIDStrDescriptor
 141:Src/usbd_desc.c **** , USBD_FS_ManufacturerStrDescriptor
 142:Src/usbd_desc.c **** , USBD_FS_ProductStrDescriptor
 143:Src/usbd_desc.c **** , USBD_FS_SerialStrDescriptor
ARM GAS  C:\Users\Administrator\AppData\Local\Temp\ccUDcii1.s 			page 4


 144:Src/usbd_desc.c **** , USBD_FS_ConfigStrDescriptor
 145:Src/usbd_desc.c **** , USBD_FS_InterfaceStrDescriptor
 146:Src/usbd_desc.c **** #if (USBD_LPM_ENABLED == 1)
 147:Src/usbd_desc.c **** , USBD_FS_USR_BOSDescriptor
 148:Src/usbd_desc.c **** #endif /* (USBD_LPM_ENABLED == 1) */
 149:Src/usbd_desc.c **** };
 150:Src/usbd_desc.c **** 
 151:Src/usbd_desc.c **** #if defined ( __ICCARM__ ) /* IAR Compiler */
 152:Src/usbd_desc.c ****   #pragma data_alignment=4
 153:Src/usbd_desc.c **** #endif /* defined ( __ICCARM__ ) */
 154:Src/usbd_desc.c **** /** USB standard device descriptor. */
 155:Src/usbd_desc.c **** __ALIGN_BEGIN uint8_t USBD_FS_DeviceDesc[USB_LEN_DEV_DESC] __ALIGN_END =
 156:Src/usbd_desc.c **** {
 157:Src/usbd_desc.c ****   0x12,                       /*bLength */
 158:Src/usbd_desc.c ****   USB_DESC_TYPE_DEVICE,       /*bDescriptorType*/
 159:Src/usbd_desc.c **** #if (USBD_LPM_ENABLED == 1)
 160:Src/usbd_desc.c ****   0x01,                       /*bcdUSB */ /* changed to USB version 2.01
 161:Src/usbd_desc.c ****                                              in order to support LPM L1 suspend
 162:Src/usbd_desc.c ****                                              resume test of USBCV3.0*/
 163:Src/usbd_desc.c **** #else
 164:Src/usbd_desc.c ****   0x00,                       /*bcdUSB */
 165:Src/usbd_desc.c **** #endif /* (USBD_LPM_ENABLED == 1) */
 166:Src/usbd_desc.c ****   0x02,
 167:Src/usbd_desc.c ****   0x02,                       /*bDeviceClass*/
 168:Src/usbd_desc.c ****   0x02,                       /*bDeviceSubClass*/
 169:Src/usbd_desc.c ****   0x00,                       /*bDeviceProtocol*/
 170:Src/usbd_desc.c ****   USB_MAX_EP0_SIZE,           /*bMaxPacketSize*/
 171:Src/usbd_desc.c ****   LOBYTE(USBD_VID),           /*idVendor*/
 172:Src/usbd_desc.c ****   HIBYTE(USBD_VID),           /*idVendor*/
 173:Src/usbd_desc.c ****   LOBYTE(USBD_PID_FS),        /*idProduct*/
 174:Src/usbd_desc.c ****   HIBYTE(USBD_PID_FS),        /*idProduct*/
 175:Src/usbd_desc.c ****   0x00,                       /*bcdDevice rel. 2.00*/
 176:Src/usbd_desc.c ****   0x02,
 177:Src/usbd_desc.c ****   USBD_IDX_MFC_STR,           /*Index of manufacturer  string*/
 178:Src/usbd_desc.c ****   USBD_IDX_PRODUCT_STR,       /*Index of product string*/
 179:Src/usbd_desc.c ****   USBD_IDX_SERIAL_STR,        /*Index of serial number string*/
 180:Src/usbd_desc.c ****   USBD_MAX_NUM_CONFIGURATION  /*bNumConfigurations*/
 181:Src/usbd_desc.c **** };
 182:Src/usbd_desc.c **** 
 183:Src/usbd_desc.c **** /* USB_DeviceDescriptor */
 184:Src/usbd_desc.c **** /** BOS descriptor. */
 185:Src/usbd_desc.c **** #if (USBD_LPM_ENABLED == 1)
 186:Src/usbd_desc.c **** #if defined ( __ICCARM__ ) /* IAR Compiler */
 187:Src/usbd_desc.c ****   #pragma data_alignment=4
 188:Src/usbd_desc.c **** #endif /* defined ( __ICCARM__ ) */
 189:Src/usbd_desc.c **** __ALIGN_BEGIN uint8_t USBD_FS_BOSDesc[USB_SIZ_BOS_DESC] __ALIGN_END =
 190:Src/usbd_desc.c **** {
 191:Src/usbd_desc.c ****   0x5,
 192:Src/usbd_desc.c ****   USB_DESC_TYPE_BOS,
 193:Src/usbd_desc.c ****   0xC,
 194:Src/usbd_desc.c ****   0x0,
 195:Src/usbd_desc.c ****   0x1,  /* 1 device capability*/
 196:Src/usbd_desc.c ****         /* device capability*/
 197:Src/usbd_desc.c ****   0x7,
 198:Src/usbd_desc.c ****   USB_DEVICE_CAPABITY_TYPE,
 199:Src/usbd_desc.c ****   0x2,
 200:Src/usbd_desc.c ****   0x2,  /* LPM capability bit set*/
ARM GAS  C:\Users\Administrator\AppData\Local\Temp\ccUDcii1.s 			page 5


 201:Src/usbd_desc.c ****   0x0,
 202:Src/usbd_desc.c ****   0x0,
 203:Src/usbd_desc.c ****   0x0
 204:Src/usbd_desc.c **** };
 205:Src/usbd_desc.c **** #endif /* (USBD_LPM_ENABLED == 1) */
 206:Src/usbd_desc.c **** 
 207:Src/usbd_desc.c **** /**
 208:Src/usbd_desc.c ****   * @}
 209:Src/usbd_desc.c ****   */
 210:Src/usbd_desc.c **** 
 211:Src/usbd_desc.c **** /** @defgroup USBD_DESC_Private_Variables USBD_DESC_Private_Variables
 212:Src/usbd_desc.c ****   * @brief Private variables.
 213:Src/usbd_desc.c ****   * @{
 214:Src/usbd_desc.c ****   */
 215:Src/usbd_desc.c **** 
 216:Src/usbd_desc.c **** #if defined ( __ICCARM__ ) /* IAR Compiler */
 217:Src/usbd_desc.c ****   #pragma data_alignment=4
 218:Src/usbd_desc.c **** #endif /* defined ( __ICCARM__ ) */
 219:Src/usbd_desc.c **** 
 220:Src/usbd_desc.c **** /** USB lang identifier descriptor. */
 221:Src/usbd_desc.c **** __ALIGN_BEGIN uint8_t USBD_LangIDDesc[USB_LEN_LANGID_STR_DESC] __ALIGN_END =
 222:Src/usbd_desc.c **** {
 223:Src/usbd_desc.c ****      USB_LEN_LANGID_STR_DESC,
 224:Src/usbd_desc.c ****      USB_DESC_TYPE_STRING,
 225:Src/usbd_desc.c ****      LOBYTE(USBD_LANGID_STRING),
 226:Src/usbd_desc.c ****      HIBYTE(USBD_LANGID_STRING)
 227:Src/usbd_desc.c **** };
 228:Src/usbd_desc.c **** 
 229:Src/usbd_desc.c **** #if defined ( __ICCARM__ ) /* IAR Compiler */
 230:Src/usbd_desc.c ****   #pragma data_alignment=4
 231:Src/usbd_desc.c **** #endif /* defined ( __ICCARM__ ) */
 232:Src/usbd_desc.c **** /* Internal string descriptor. */
 233:Src/usbd_desc.c **** __ALIGN_BEGIN uint8_t USBD_StrDesc[USBD_MAX_STR_DESC_SIZ] __ALIGN_END;
 234:Src/usbd_desc.c **** 
 235:Src/usbd_desc.c **** #if defined ( __ICCARM__ ) /*!< IAR Compiler */
 236:Src/usbd_desc.c ****   #pragma data_alignment=4
 237:Src/usbd_desc.c **** #endif
 238:Src/usbd_desc.c **** __ALIGN_BEGIN uint8_t USBD_StringSerial[USB_SIZ_STRING_SERIAL] __ALIGN_END = {
 239:Src/usbd_desc.c ****   USB_SIZ_STRING_SERIAL,
 240:Src/usbd_desc.c ****   USB_DESC_TYPE_STRING,
 241:Src/usbd_desc.c **** };
 242:Src/usbd_desc.c **** 
 243:Src/usbd_desc.c **** /**
 244:Src/usbd_desc.c ****   * @}
 245:Src/usbd_desc.c ****   */
 246:Src/usbd_desc.c **** 
 247:Src/usbd_desc.c **** /** @defgroup USBD_DESC_Private_Functions USBD_DESC_Private_Functions
 248:Src/usbd_desc.c ****   * @brief Private functions.
 249:Src/usbd_desc.c ****   * @{
 250:Src/usbd_desc.c ****   */
 251:Src/usbd_desc.c **** 
 252:Src/usbd_desc.c **** /**
 253:Src/usbd_desc.c ****   * @brief  Return the device descriptor
 254:Src/usbd_desc.c ****   * @param  speed : Current device speed
 255:Src/usbd_desc.c ****   * @param  length : Pointer to data length variable
 256:Src/usbd_desc.c ****   * @retval Pointer to descriptor buffer
 257:Src/usbd_desc.c ****   */
ARM GAS  C:\Users\Administrator\AppData\Local\Temp\ccUDcii1.s 			page 6


 258:Src/usbd_desc.c **** uint8_t * USBD_FS_DeviceDescriptor(USBD_SpeedTypeDef speed, uint16_t *length)
 259:Src/usbd_desc.c **** {
  30              		.loc 1 259 1 view -0
  31              		.cfi_startproc
  32              		@ args = 0, pretend = 0, frame = 0
  33              		@ frame_needed = 0, uses_anonymous_args = 0
  34              		@ link register save eliminated.
 260:Src/usbd_desc.c ****   UNUSED(speed);
  35              		.loc 1 260 3 view .LVU1
 261:Src/usbd_desc.c ****   *length = sizeof(USBD_FS_DeviceDesc);
  36              		.loc 1 261 3 view .LVU2
  37              		.loc 1 261 11 is_stmt 0 view .LVU3
  38 0000 1223     		movs	r3, #18
  39 0002 0B80     		strh	r3, [r1]	@ movhi
 262:Src/usbd_desc.c ****   return USBD_FS_DeviceDesc;
  40              		.loc 1 262 3 is_stmt 1 view .LVU4
 263:Src/usbd_desc.c **** }
  41              		.loc 1 263 1 is_stmt 0 view .LVU5
  42 0004 0048     		ldr	r0, .L2
  43              	.LVL1:
  44              		.loc 1 263 1 view .LVU6
  45 0006 7047     		bx	lr
  46              	.L3:
  47              		.align	2
  48              	.L2:
  49 0008 00000000 		.word	USBD_FS_DeviceDesc
  50              		.cfi_endproc
  51              	.LFE239:
  53              		.section	.text.USBD_FS_LangIDStrDescriptor,"ax",%progbits
  54              		.align	1
  55              		.global	USBD_FS_LangIDStrDescriptor
  56              		.syntax unified
  57              		.thumb
  58              		.thumb_func
  60              	USBD_FS_LangIDStrDescriptor:
  61              	.LVL2:
  62              	.LFB240:
 264:Src/usbd_desc.c **** 
 265:Src/usbd_desc.c **** /**
 266:Src/usbd_desc.c ****   * @brief  Return the LangID string descriptor
 267:Src/usbd_desc.c ****   * @param  speed : Current device speed
 268:Src/usbd_desc.c ****   * @param  length : Pointer to data length variable
 269:Src/usbd_desc.c ****   * @retval Pointer to descriptor buffer
 270:Src/usbd_desc.c ****   */
 271:Src/usbd_desc.c **** uint8_t * USBD_FS_LangIDStrDescriptor(USBD_SpeedTypeDef speed, uint16_t *length)
 272:Src/usbd_desc.c **** {
  63              		.loc 1 272 1 is_stmt 1 view -0
  64              		.cfi_startproc
  65              		@ args = 0, pretend = 0, frame = 0
  66              		@ frame_needed = 0, uses_anonymous_args = 0
  67              		@ link register save eliminated.
 273:Src/usbd_desc.c ****   UNUSED(speed);
  68              		.loc 1 273 3 view .LVU8
 274:Src/usbd_desc.c ****   *length = sizeof(USBD_LangIDDesc);
  69              		.loc 1 274 3 view .LVU9
  70              		.loc 1 274 11 is_stmt 0 view .LVU10
  71 0000 0423     		movs	r3, #4
ARM GAS  C:\Users\Administrator\AppData\Local\Temp\ccUDcii1.s 			page 7


  72 0002 0B80     		strh	r3, [r1]	@ movhi
 275:Src/usbd_desc.c ****   return USBD_LangIDDesc;
  73              		.loc 1 275 3 is_stmt 1 view .LVU11
 276:Src/usbd_desc.c **** }
  74              		.loc 1 276 1 is_stmt 0 view .LVU12
  75 0004 0048     		ldr	r0, .L5
  76              	.LVL3:
  77              		.loc 1 276 1 view .LVU13
  78 0006 7047     		bx	lr
  79              	.L6:
  80              		.align	2
  81              	.L5:
  82 0008 00000000 		.word	USBD_LangIDDesc
  83              		.cfi_endproc
  84              	.LFE240:
  86              		.section	.text.IntToUnicode,"ax",%progbits
  87              		.align	1
  88              		.syntax unified
  89              		.thumb
  90              		.thumb_func
  92              	IntToUnicode:
  93              	.LVL4:
  94              	.LFB247:
 277:Src/usbd_desc.c **** 
 278:Src/usbd_desc.c **** /**
 279:Src/usbd_desc.c ****   * @brief  Return the product string descriptor
 280:Src/usbd_desc.c ****   * @param  speed : Current device speed
 281:Src/usbd_desc.c ****   * @param  length : Pointer to data length variable
 282:Src/usbd_desc.c ****   * @retval Pointer to descriptor buffer
 283:Src/usbd_desc.c ****   */
 284:Src/usbd_desc.c **** uint8_t * USBD_FS_ProductStrDescriptor(USBD_SpeedTypeDef speed, uint16_t *length)
 285:Src/usbd_desc.c **** {
 286:Src/usbd_desc.c ****   if(speed == 0)
 287:Src/usbd_desc.c ****   {
 288:Src/usbd_desc.c ****     USBD_GetString((uint8_t *)USBD_PRODUCT_STRING_FS, USBD_StrDesc, length);
 289:Src/usbd_desc.c ****   }
 290:Src/usbd_desc.c ****   else
 291:Src/usbd_desc.c ****   {
 292:Src/usbd_desc.c ****     USBD_GetString((uint8_t *)USBD_PRODUCT_STRING_FS, USBD_StrDesc, length);
 293:Src/usbd_desc.c ****   }
 294:Src/usbd_desc.c ****   return USBD_StrDesc;
 295:Src/usbd_desc.c **** }
 296:Src/usbd_desc.c **** 
 297:Src/usbd_desc.c **** /**
 298:Src/usbd_desc.c ****   * @brief  Return the manufacturer string descriptor
 299:Src/usbd_desc.c ****   * @param  speed : Current device speed
 300:Src/usbd_desc.c ****   * @param  length : Pointer to data length variable
 301:Src/usbd_desc.c ****   * @retval Pointer to descriptor buffer
 302:Src/usbd_desc.c ****   */
 303:Src/usbd_desc.c **** uint8_t * USBD_FS_ManufacturerStrDescriptor(USBD_SpeedTypeDef speed, uint16_t *length)
 304:Src/usbd_desc.c **** {
 305:Src/usbd_desc.c ****   UNUSED(speed);
 306:Src/usbd_desc.c ****   USBD_GetString((uint8_t *)USBD_MANUFACTURER_STRING, USBD_StrDesc, length);
 307:Src/usbd_desc.c ****   return USBD_StrDesc;
 308:Src/usbd_desc.c **** }
 309:Src/usbd_desc.c **** 
 310:Src/usbd_desc.c **** /**
ARM GAS  C:\Users\Administrator\AppData\Local\Temp\ccUDcii1.s 			page 8


 311:Src/usbd_desc.c ****   * @brief  Return the serial number string descriptor
 312:Src/usbd_desc.c ****   * @param  speed : Current device speed
 313:Src/usbd_desc.c ****   * @param  length : Pointer to data length variable
 314:Src/usbd_desc.c ****   * @retval Pointer to descriptor buffer
 315:Src/usbd_desc.c ****   */
 316:Src/usbd_desc.c **** uint8_t * USBD_FS_SerialStrDescriptor(USBD_SpeedTypeDef speed, uint16_t *length)
 317:Src/usbd_desc.c **** {
 318:Src/usbd_desc.c ****   UNUSED(speed);
 319:Src/usbd_desc.c ****   *length = USB_SIZ_STRING_SERIAL;
 320:Src/usbd_desc.c **** 
 321:Src/usbd_desc.c ****   /* Update the serial number string descriptor with the data from the unique
 322:Src/usbd_desc.c ****    * ID */
 323:Src/usbd_desc.c ****   Get_SerialNum();
 324:Src/usbd_desc.c ****   /* USER CODE BEGIN USBD_FS_SerialStrDescriptor */
 325:Src/usbd_desc.c **** 
 326:Src/usbd_desc.c ****   /* USER CODE END USBD_FS_SerialStrDescriptor */
 327:Src/usbd_desc.c ****   return (uint8_t *) USBD_StringSerial;
 328:Src/usbd_desc.c **** }
 329:Src/usbd_desc.c **** 
 330:Src/usbd_desc.c **** /**
 331:Src/usbd_desc.c ****   * @brief  Return the configuration string descriptor
 332:Src/usbd_desc.c ****   * @param  speed : Current device speed
 333:Src/usbd_desc.c ****   * @param  length : Pointer to data length variable
 334:Src/usbd_desc.c ****   * @retval Pointer to descriptor buffer
 335:Src/usbd_desc.c ****   */
 336:Src/usbd_desc.c **** uint8_t * USBD_FS_ConfigStrDescriptor(USBD_SpeedTypeDef speed, uint16_t *length)
 337:Src/usbd_desc.c **** {
 338:Src/usbd_desc.c ****   if(speed == USBD_SPEED_HIGH)
 339:Src/usbd_desc.c ****   {
 340:Src/usbd_desc.c ****     USBD_GetString((uint8_t *)USBD_CONFIGURATION_STRING_FS, USBD_StrDesc, length);
 341:Src/usbd_desc.c ****   }
 342:Src/usbd_desc.c ****   else
 343:Src/usbd_desc.c ****   {
 344:Src/usbd_desc.c ****     USBD_GetString((uint8_t *)USBD_CONFIGURATION_STRING_FS, USBD_StrDesc, length);
 345:Src/usbd_desc.c ****   }
 346:Src/usbd_desc.c ****   return USBD_StrDesc;
 347:Src/usbd_desc.c **** }
 348:Src/usbd_desc.c **** 
 349:Src/usbd_desc.c **** /**
 350:Src/usbd_desc.c ****   * @brief  Return the interface string descriptor
 351:Src/usbd_desc.c ****   * @param  speed : Current device speed
 352:Src/usbd_desc.c ****   * @param  length : Pointer to data length variable
 353:Src/usbd_desc.c ****   * @retval Pointer to descriptor buffer
 354:Src/usbd_desc.c ****   */
 355:Src/usbd_desc.c **** uint8_t * USBD_FS_InterfaceStrDescriptor(USBD_SpeedTypeDef speed, uint16_t *length)
 356:Src/usbd_desc.c **** {
 357:Src/usbd_desc.c ****   if(speed == 0)
 358:Src/usbd_desc.c ****   {
 359:Src/usbd_desc.c ****     USBD_GetString((uint8_t *)USBD_INTERFACE_STRING_FS, USBD_StrDesc, length);
 360:Src/usbd_desc.c ****   }
 361:Src/usbd_desc.c ****   else
 362:Src/usbd_desc.c ****   {
 363:Src/usbd_desc.c ****     USBD_GetString((uint8_t *)USBD_INTERFACE_STRING_FS, USBD_StrDesc, length);
 364:Src/usbd_desc.c ****   }
 365:Src/usbd_desc.c ****   return USBD_StrDesc;
 366:Src/usbd_desc.c **** }
 367:Src/usbd_desc.c **** 
ARM GAS  C:\Users\Administrator\AppData\Local\Temp\ccUDcii1.s 			page 9


 368:Src/usbd_desc.c **** #if (USBD_LPM_ENABLED == 1)
 369:Src/usbd_desc.c **** /**
 370:Src/usbd_desc.c ****   * @brief  Return the BOS descriptor
 371:Src/usbd_desc.c ****   * @param  speed : Current device speed
 372:Src/usbd_desc.c ****   * @param  length : Pointer to data length variable
 373:Src/usbd_desc.c ****   * @retval Pointer to descriptor buffer
 374:Src/usbd_desc.c ****   */
 375:Src/usbd_desc.c **** uint8_t * USBD_FS_USR_BOSDescriptor(USBD_SpeedTypeDef speed, uint16_t *length)
 376:Src/usbd_desc.c **** {
 377:Src/usbd_desc.c ****   UNUSED(speed);
 378:Src/usbd_desc.c ****   *length = sizeof(USBD_FS_BOSDesc);
 379:Src/usbd_desc.c ****   return (uint8_t*)USBD_FS_BOSDesc;
 380:Src/usbd_desc.c **** }
 381:Src/usbd_desc.c **** #endif /* (USBD_LPM_ENABLED == 1) */
 382:Src/usbd_desc.c **** 
 383:Src/usbd_desc.c **** /**
 384:Src/usbd_desc.c ****   * @brief  Create the serial number string descriptor
 385:Src/usbd_desc.c ****   * @param  None
 386:Src/usbd_desc.c ****   * @retval None
 387:Src/usbd_desc.c ****   */
 388:Src/usbd_desc.c **** static void Get_SerialNum(void)
 389:Src/usbd_desc.c **** {
 390:Src/usbd_desc.c ****   uint32_t deviceserial0;
 391:Src/usbd_desc.c ****   uint32_t deviceserial1;
 392:Src/usbd_desc.c ****   uint32_t deviceserial2;
 393:Src/usbd_desc.c **** 
 394:Src/usbd_desc.c ****   deviceserial0 = *(uint32_t *) DEVICE_ID1;
 395:Src/usbd_desc.c ****   deviceserial1 = *(uint32_t *) DEVICE_ID2;
 396:Src/usbd_desc.c ****   deviceserial2 = *(uint32_t *) DEVICE_ID3;
 397:Src/usbd_desc.c **** 
 398:Src/usbd_desc.c ****   deviceserial0 += deviceserial2;
 399:Src/usbd_desc.c **** 
 400:Src/usbd_desc.c ****   if (deviceserial0 != 0)
 401:Src/usbd_desc.c ****   {
 402:Src/usbd_desc.c ****     IntToUnicode(deviceserial0, &USBD_StringSerial[2], 8);
 403:Src/usbd_desc.c ****     IntToUnicode(deviceserial1, &USBD_StringSerial[18], 4);
 404:Src/usbd_desc.c ****   }
 405:Src/usbd_desc.c **** }
 406:Src/usbd_desc.c **** 
 407:Src/usbd_desc.c **** /**
 408:Src/usbd_desc.c ****   * @brief  Convert Hex 32Bits value into char
 409:Src/usbd_desc.c ****   * @param  value: value to convert
 410:Src/usbd_desc.c ****   * @param  pbuf: pointer to the buffer
 411:Src/usbd_desc.c ****   * @param  len: buffer length
 412:Src/usbd_desc.c ****   * @retval None
 413:Src/usbd_desc.c ****   */
 414:Src/usbd_desc.c **** static void IntToUnicode(uint32_t value, uint8_t * pbuf, uint8_t len)
 415:Src/usbd_desc.c **** {
  95              		.loc 1 415 1 is_stmt 1 view -0
  96              		.cfi_startproc
  97              		@ args = 0, pretend = 0, frame = 0
  98              		@ frame_needed = 0, uses_anonymous_args = 0
 416:Src/usbd_desc.c ****   uint8_t idx = 0;
  99              		.loc 1 416 3 view .LVU15
 417:Src/usbd_desc.c **** 
 418:Src/usbd_desc.c ****   for (idx = 0; idx < len; idx++)
 100              		.loc 1 418 3 view .LVU16
ARM GAS  C:\Users\Administrator\AppData\Local\Temp\ccUDcii1.s 			page 10


 101              		.loc 1 418 12 is_stmt 0 view .LVU17
 102 0000 0023     		movs	r3, #0
 103              	.LVL5:
 104              		.loc 1 418 21 is_stmt 1 discriminator 1 view .LVU18
 105 0002 9342     		cmp	r3, r2
 106 0004 1DD2     		bcs	.L15
 415:Src/usbd_desc.c ****   uint8_t idx = 0;
 107              		.loc 1 415 1 is_stmt 0 view .LVU19
 108 0006 00B5     		push	{lr}
 109              		.cfi_def_cfa_offset 4
 110              		.cfi_offset 14, -4
 111 0008 10E0     		b	.L11
 112              	.L9:
 419:Src/usbd_desc.c ****   {
 420:Src/usbd_desc.c ****     if (((value >> 28)) < 0xA)
 421:Src/usbd_desc.c ****     {
 422:Src/usbd_desc.c ****       pbuf[2 * idx] = (value >> 28) + '0';
 423:Src/usbd_desc.c ****     }
 424:Src/usbd_desc.c ****     else
 425:Src/usbd_desc.c ****     {
 426:Src/usbd_desc.c ****       pbuf[2 * idx] = (value >> 28) + 'A' - 10;
 113              		.loc 1 426 7 is_stmt 1 view .LVU20
 114              		.loc 1 426 43 is_stmt 0 view .LVU21
 115 000a 0CF1370C 		add	ip, ip, #55
 116              		.loc 1 426 21 view .LVU22
 117 000e 01F813C0 		strb	ip, [r1, r3, lsl #1]
 118              	.L10:
 427:Src/usbd_desc.c ****     }
 428:Src/usbd_desc.c **** 
 429:Src/usbd_desc.c ****     value = value << 4;
 119              		.loc 1 429 5 is_stmt 1 view .LVU23
 120              		.loc 1 429 11 is_stmt 0 view .LVU24
 121 0012 0001     		lsls	r0, r0, #4
 122              	.LVL6:
 430:Src/usbd_desc.c **** 
 431:Src/usbd_desc.c ****     pbuf[2 * idx + 1] = 0;
 123              		.loc 1 431 5 is_stmt 1 view .LVU25
 124              		.loc 1 431 12 is_stmt 0 view .LVU26
 125 0014 4FEA430C 		lsl	ip, r3, #1
 126              		.loc 1 431 18 view .LVU27
 127 0018 0CF1010C 		add	ip, ip, #1
 128              		.loc 1 431 23 view .LVU28
 129 001c 4FF0000E 		mov	lr, #0
 130 0020 01F80CE0 		strb	lr, [r1, ip]
 418:Src/usbd_desc.c ****   {
 131              		.loc 1 418 31 is_stmt 1 discriminator 2 view .LVU29
 132 0024 0133     		adds	r3, r3, #1
 133              	.LVL7:
 418:Src/usbd_desc.c ****   {
 134              		.loc 1 418 31 is_stmt 0 discriminator 2 view .LVU30
 135 0026 DBB2     		uxtb	r3, r3
 136              	.LVL8:
 418:Src/usbd_desc.c ****   {
 137              		.loc 1 418 21 is_stmt 1 discriminator 1 view .LVU31
 138 0028 9342     		cmp	r3, r2
 139 002a 09D2     		bcs	.L16
 140              	.L11:
ARM GAS  C:\Users\Administrator\AppData\Local\Temp\ccUDcii1.s 			page 11


 420:Src/usbd_desc.c ****     {
 141              		.loc 1 420 5 view .LVU32
 420:Src/usbd_desc.c ****     {
 142              		.loc 1 420 17 is_stmt 0 view .LVU33
 143 002c 4FEA107C 		lsr	ip, r0, #28
 420:Src/usbd_desc.c ****     {
 144              		.loc 1 420 8 view .LVU34
 145 0030 B0F1204F 		cmp	r0, #-1610612736
 146 0034 E9D2     		bcs	.L9
 422:Src/usbd_desc.c ****     }
 147              		.loc 1 422 7 is_stmt 1 view .LVU35
 422:Src/usbd_desc.c ****     }
 148              		.loc 1 422 37 is_stmt 0 view .LVU36
 149 0036 0CF1300C 		add	ip, ip, #48
 422:Src/usbd_desc.c ****     }
 150              		.loc 1 422 21 view .LVU37
 151 003a 01F813C0 		strb	ip, [r1, r3, lsl #1]
 152 003e E8E7     		b	.L10
 153              	.L16:
 432:Src/usbd_desc.c ****   }
 433:Src/usbd_desc.c **** }
 154              		.loc 1 433 1 view .LVU38
 155 0040 00BD     		pop	{pc}
 156              	.L15:
 157              		.cfi_def_cfa_offset 0
 158              		.cfi_restore 14
 159              		.loc 1 433 1 view .LVU39
 160 0042 7047     		bx	lr
 161              		.cfi_endproc
 162              	.LFE247:
 164              		.section	.text.Get_SerialNum,"ax",%progbits
 165              		.align	1
 166              		.syntax unified
 167              		.thumb
 168              		.thumb_func
 170              	Get_SerialNum:
 171              	.LFB246:
 389:Src/usbd_desc.c ****   uint32_t deviceserial0;
 172              		.loc 1 389 1 is_stmt 1 view -0
 173              		.cfi_startproc
 174              		@ args = 0, pretend = 0, frame = 0
 175              		@ frame_needed = 0, uses_anonymous_args = 0
 390:Src/usbd_desc.c ****   uint32_t deviceserial1;
 176              		.loc 1 390 3 view .LVU41
 391:Src/usbd_desc.c ****   uint32_t deviceserial2;
 177              		.loc 1 391 3 view .LVU42
 392:Src/usbd_desc.c **** 
 178              		.loc 1 392 3 view .LVU43
 394:Src/usbd_desc.c ****   deviceserial1 = *(uint32_t *) DEVICE_ID2;
 179              		.loc 1 394 3 view .LVU44
 394:Src/usbd_desc.c ****   deviceserial1 = *(uint32_t *) DEVICE_ID2;
 180              		.loc 1 394 17 is_stmt 0 view .LVU45
 181 0000 0B4B     		ldr	r3, .L24
 182 0002 D3F8100A 		ldr	r0, [r3, #2576]
 183              	.LVL9:
 395:Src/usbd_desc.c ****   deviceserial2 = *(uint32_t *) DEVICE_ID3;
 184              		.loc 1 395 3 is_stmt 1 view .LVU46
ARM GAS  C:\Users\Administrator\AppData\Local\Temp\ccUDcii1.s 			page 12


 395:Src/usbd_desc.c ****   deviceserial2 = *(uint32_t *) DEVICE_ID3;
 185              		.loc 1 395 17 is_stmt 0 view .LVU47
 186 0006 D3F8142A 		ldr	r2, [r3, #2580]
 187              	.LVL10:
 396:Src/usbd_desc.c **** 
 188              		.loc 1 396 3 is_stmt 1 view .LVU48
 396:Src/usbd_desc.c **** 
 189              		.loc 1 396 17 is_stmt 0 view .LVU49
 190 000a D3F8183A 		ldr	r3, [r3, #2584]
 191              	.LVL11:
 398:Src/usbd_desc.c **** 
 192              		.loc 1 398 3 is_stmt 1 view .LVU50
 400:Src/usbd_desc.c ****   {
 193              		.loc 1 400 3 view .LVU51
 400:Src/usbd_desc.c ****   {
 194              		.loc 1 400 6 is_stmt 0 view .LVU52
 195 000e C018     		adds	r0, r0, r3
 196              	.LVL12:
 400:Src/usbd_desc.c ****   {
 197              		.loc 1 400 6 view .LVU53
 198 0010 00D1     		bne	.L23
 199 0012 7047     		bx	lr
 200              	.L23:
 389:Src/usbd_desc.c ****   uint32_t deviceserial0;
 201              		.loc 1 389 1 view .LVU54
 202 0014 10B5     		push	{r4, lr}
 203              		.cfi_def_cfa_offset 8
 204              		.cfi_offset 4, -8
 205              		.cfi_offset 14, -4
 206 0016 1446     		mov	r4, r2
 402:Src/usbd_desc.c ****     IntToUnicode(deviceserial1, &USBD_StringSerial[18], 4);
 207              		.loc 1 402 5 is_stmt 1 view .LVU55
 208 0018 0822     		movs	r2, #8
 209              	.LVL13:
 402:Src/usbd_desc.c ****     IntToUnicode(deviceserial1, &USBD_StringSerial[18], 4);
 210              		.loc 1 402 5 is_stmt 0 view .LVU56
 211 001a 0649     		ldr	r1, .L24+4
 212 001c FFF7FEFF 		bl	IntToUnicode
 213              	.LVL14:
 403:Src/usbd_desc.c ****   }
 214              		.loc 1 403 5 is_stmt 1 view .LVU57
 215 0020 0422     		movs	r2, #4
 216 0022 044B     		ldr	r3, .L24+4
 217 0024 03F11001 		add	r1, r3, #16
 218 0028 2046     		mov	r0, r4
 219 002a FFF7FEFF 		bl	IntToUnicode
 220              	.LVL15:
 405:Src/usbd_desc.c **** 
 221              		.loc 1 405 1 is_stmt 0 view .LVU58
 222 002e 10BD     		pop	{r4, pc}
 223              	.LVL16:
 224              	.L25:
 405:Src/usbd_desc.c **** 
 225              		.loc 1 405 1 view .LVU59
 226              		.align	2
 227              	.L24:
 228 0030 0070FF1F 		.word	536834048
ARM GAS  C:\Users\Administrator\AppData\Local\Temp\ccUDcii1.s 			page 13


 229 0034 02000000 		.word	USBD_StringSerial+2
 230              		.cfi_endproc
 231              	.LFE246:
 233              		.section	.text.USBD_FS_SerialStrDescriptor,"ax",%progbits
 234              		.align	1
 235              		.global	USBD_FS_SerialStrDescriptor
 236              		.syntax unified
 237              		.thumb
 238              		.thumb_func
 240              	USBD_FS_SerialStrDescriptor:
 241              	.LVL17:
 242              	.LFB243:
 317:Src/usbd_desc.c ****   UNUSED(speed);
 243              		.loc 1 317 1 is_stmt 1 view -0
 244              		.cfi_startproc
 245              		@ args = 0, pretend = 0, frame = 0
 246              		@ frame_needed = 0, uses_anonymous_args = 0
 317:Src/usbd_desc.c ****   UNUSED(speed);
 247              		.loc 1 317 1 is_stmt 0 view .LVU61
 248 0000 08B5     		push	{r3, lr}
 249              		.cfi_def_cfa_offset 8
 250              		.cfi_offset 3, -8
 251              		.cfi_offset 14, -4
 318:Src/usbd_desc.c ****   *length = USB_SIZ_STRING_SERIAL;
 252              		.loc 1 318 3 is_stmt 1 view .LVU62
 319:Src/usbd_desc.c **** 
 253              		.loc 1 319 3 view .LVU63
 319:Src/usbd_desc.c **** 
 254              		.loc 1 319 11 is_stmt 0 view .LVU64
 255 0002 1A23     		movs	r3, #26
 256 0004 0B80     		strh	r3, [r1]	@ movhi
 323:Src/usbd_desc.c ****   /* USER CODE BEGIN USBD_FS_SerialStrDescriptor */
 257              		.loc 1 323 3 is_stmt 1 view .LVU65
 258 0006 FFF7FEFF 		bl	Get_SerialNum
 259              	.LVL18:
 327:Src/usbd_desc.c **** }
 260              		.loc 1 327 3 view .LVU66
 328:Src/usbd_desc.c **** 
 261              		.loc 1 328 1 is_stmt 0 view .LVU67
 262 000a 0148     		ldr	r0, .L28
 263 000c 08BD     		pop	{r3, pc}
 264              	.L29:
 265 000e 00BF     		.align	2
 266              	.L28:
 267 0010 00000000 		.word	USBD_StringSerial
 268              		.cfi_endproc
 269              	.LFE243:
 271              		.section	.rodata.USBD_FS_ProductStrDescriptor.str1.4,"aMS",%progbits,1
 272              		.align	2
 273              	.LC0:
 274 0000 56697369 		.ascii	"Vision Comm port\000"
 274      6F6E2043 
 274      6F6D6D20 
 274      706F7274 
 274      00
 275              		.section	.text.USBD_FS_ProductStrDescriptor,"ax",%progbits
 276              		.align	1
ARM GAS  C:\Users\Administrator\AppData\Local\Temp\ccUDcii1.s 			page 14


 277              		.global	USBD_FS_ProductStrDescriptor
 278              		.syntax unified
 279              		.thumb
 280              		.thumb_func
 282              	USBD_FS_ProductStrDescriptor:
 283              	.LVL19:
 284              	.LFB241:
 285:Src/usbd_desc.c ****   if(speed == 0)
 285              		.loc 1 285 1 is_stmt 1 view -0
 286              		.cfi_startproc
 287              		@ args = 0, pretend = 0, frame = 0
 288              		@ frame_needed = 0, uses_anonymous_args = 0
 285:Src/usbd_desc.c ****   if(speed == 0)
 289              		.loc 1 285 1 is_stmt 0 view .LVU69
 290 0000 08B5     		push	{r3, lr}
 291              		.cfi_def_cfa_offset 8
 292              		.cfi_offset 3, -8
 293              		.cfi_offset 14, -4
 294 0002 0A46     		mov	r2, r1
 286:Src/usbd_desc.c ****   {
 295              		.loc 1 286 3 is_stmt 1 view .LVU70
 286:Src/usbd_desc.c ****   {
 296              		.loc 1 286 5 is_stmt 0 view .LVU71
 297 0004 28B9     		cbnz	r0, .L31
 288:Src/usbd_desc.c ****   }
 298              		.loc 1 288 5 is_stmt 1 view .LVU72
 299 0006 0549     		ldr	r1, .L34
 300              	.LVL20:
 288:Src/usbd_desc.c ****   }
 301              		.loc 1 288 5 is_stmt 0 view .LVU73
 302 0008 0548     		ldr	r0, .L34+4
 303              	.LVL21:
 288:Src/usbd_desc.c ****   }
 304              		.loc 1 288 5 view .LVU74
 305 000a FFF7FEFF 		bl	USBD_GetString
 306              	.LVL22:
 307              	.L32:
 294:Src/usbd_desc.c **** }
 308              		.loc 1 294 3 is_stmt 1 view .LVU75
 295:Src/usbd_desc.c **** 
 309              		.loc 1 295 1 is_stmt 0 view .LVU76
 310 000e 0348     		ldr	r0, .L34
 311 0010 08BD     		pop	{r3, pc}
 312              	.LVL23:
 313              	.L31:
 292:Src/usbd_desc.c ****   }
 314              		.loc 1 292 5 is_stmt 1 view .LVU77
 315 0012 0249     		ldr	r1, .L34
 316              	.LVL24:
 292:Src/usbd_desc.c ****   }
 317              		.loc 1 292 5 is_stmt 0 view .LVU78
 318 0014 0248     		ldr	r0, .L34+4
 319              	.LVL25:
 292:Src/usbd_desc.c ****   }
 320              		.loc 1 292 5 view .LVU79
 321 0016 FFF7FEFF 		bl	USBD_GetString
 322              	.LVL26:
ARM GAS  C:\Users\Administrator\AppData\Local\Temp\ccUDcii1.s 			page 15


 292:Src/usbd_desc.c ****   }
 323              		.loc 1 292 5 view .LVU80
 324 001a F8E7     		b	.L32
 325              	.L35:
 326              		.align	2
 327              	.L34:
 328 001c 00000000 		.word	USBD_StrDesc
 329 0020 00000000 		.word	.LC0
 330              		.cfi_endproc
 331              	.LFE241:
 333              		.section	.rodata.USBD_FS_ManufacturerStrDescriptor.str1.4,"aMS",%progbits,1
 334              		.align	2
 335              	.LC1:
 336 0000 5975654C 		.ascii	"YueLuEmbedded\000"
 336      75456D62 
 336      65646465 
 336      6400
 337              		.section	.text.USBD_FS_ManufacturerStrDescriptor,"ax",%progbits
 338              		.align	1
 339              		.global	USBD_FS_ManufacturerStrDescriptor
 340              		.syntax unified
 341              		.thumb
 342              		.thumb_func
 344              	USBD_FS_ManufacturerStrDescriptor:
 345              	.LVL27:
 346              	.LFB242:
 304:Src/usbd_desc.c ****   UNUSED(speed);
 347              		.loc 1 304 1 is_stmt 1 view -0
 348              		.cfi_startproc
 349              		@ args = 0, pretend = 0, frame = 0
 350              		@ frame_needed = 0, uses_anonymous_args = 0
 304:Src/usbd_desc.c ****   UNUSED(speed);
 351              		.loc 1 304 1 is_stmt 0 view .LVU82
 352 0000 10B5     		push	{r4, lr}
 353              		.cfi_def_cfa_offset 8
 354              		.cfi_offset 4, -8
 355              		.cfi_offset 14, -4
 356 0002 0A46     		mov	r2, r1
 305:Src/usbd_desc.c ****   USBD_GetString((uint8_t *)USBD_MANUFACTURER_STRING, USBD_StrDesc, length);
 357              		.loc 1 305 3 is_stmt 1 view .LVU83
 306:Src/usbd_desc.c ****   return USBD_StrDesc;
 358              		.loc 1 306 3 view .LVU84
 359 0004 034C     		ldr	r4, .L38
 360 0006 2146     		mov	r1, r4
 361              	.LVL28:
 306:Src/usbd_desc.c ****   return USBD_StrDesc;
 362              		.loc 1 306 3 is_stmt 0 view .LVU85
 363 0008 0348     		ldr	r0, .L38+4
 364              	.LVL29:
 306:Src/usbd_desc.c ****   return USBD_StrDesc;
 365              		.loc 1 306 3 view .LVU86
 366 000a FFF7FEFF 		bl	USBD_GetString
 367              	.LVL30:
 307:Src/usbd_desc.c **** }
 368              		.loc 1 307 3 is_stmt 1 view .LVU87
 308:Src/usbd_desc.c **** 
 369              		.loc 1 308 1 is_stmt 0 view .LVU88
ARM GAS  C:\Users\Administrator\AppData\Local\Temp\ccUDcii1.s 			page 16


 370 000e 2046     		mov	r0, r4
 371 0010 10BD     		pop	{r4, pc}
 372              	.L39:
 373 0012 00BF     		.align	2
 374              	.L38:
 375 0014 00000000 		.word	USBD_StrDesc
 376 0018 00000000 		.word	.LC1
 377              		.cfi_endproc
 378              	.LFE242:
 380              		.section	.rodata.USBD_FS_ConfigStrDescriptor.str1.4,"aMS",%progbits,1
 381              		.align	2
 382              	.LC2:
 383 0000 43444320 		.ascii	"CDC Config\000"
 383      436F6E66 
 383      696700
 384              		.section	.text.USBD_FS_ConfigStrDescriptor,"ax",%progbits
 385              		.align	1
 386              		.global	USBD_FS_ConfigStrDescriptor
 387              		.syntax unified
 388              		.thumb
 389              		.thumb_func
 391              	USBD_FS_ConfigStrDescriptor:
 392              	.LVL31:
 393              	.LFB244:
 337:Src/usbd_desc.c ****   if(speed == USBD_SPEED_HIGH)
 394              		.loc 1 337 1 is_stmt 1 view -0
 395              		.cfi_startproc
 396              		@ args = 0, pretend = 0, frame = 0
 397              		@ frame_needed = 0, uses_anonymous_args = 0
 337:Src/usbd_desc.c ****   if(speed == USBD_SPEED_HIGH)
 398              		.loc 1 337 1 is_stmt 0 view .LVU90
 399 0000 08B5     		push	{r3, lr}
 400              		.cfi_def_cfa_offset 8
 401              		.cfi_offset 3, -8
 402              		.cfi_offset 14, -4
 403 0002 0A46     		mov	r2, r1
 338:Src/usbd_desc.c ****   {
 404              		.loc 1 338 3 is_stmt 1 view .LVU91
 338:Src/usbd_desc.c ****   {
 405              		.loc 1 338 5 is_stmt 0 view .LVU92
 406 0004 28B9     		cbnz	r0, .L41
 340:Src/usbd_desc.c ****   }
 407              		.loc 1 340 5 is_stmt 1 view .LVU93
 408 0006 0549     		ldr	r1, .L44
 409              	.LVL32:
 340:Src/usbd_desc.c ****   }
 410              		.loc 1 340 5 is_stmt 0 view .LVU94
 411 0008 0548     		ldr	r0, .L44+4
 412              	.LVL33:
 340:Src/usbd_desc.c ****   }
 413              		.loc 1 340 5 view .LVU95
 414 000a FFF7FEFF 		bl	USBD_GetString
 415              	.LVL34:
 416              	.L42:
 346:Src/usbd_desc.c **** }
 417              		.loc 1 346 3 is_stmt 1 view .LVU96
 347:Src/usbd_desc.c **** 
ARM GAS  C:\Users\Administrator\AppData\Local\Temp\ccUDcii1.s 			page 17


 418              		.loc 1 347 1 is_stmt 0 view .LVU97
 419 000e 0348     		ldr	r0, .L44
 420 0010 08BD     		pop	{r3, pc}
 421              	.LVL35:
 422              	.L41:
 344:Src/usbd_desc.c ****   }
 423              		.loc 1 344 5 is_stmt 1 view .LVU98
 424 0012 0249     		ldr	r1, .L44
 425              	.LVL36:
 344:Src/usbd_desc.c ****   }
 426              		.loc 1 344 5 is_stmt 0 view .LVU99
 427 0014 0248     		ldr	r0, .L44+4
 428              	.LVL37:
 344:Src/usbd_desc.c ****   }
 429              		.loc 1 344 5 view .LVU100
 430 0016 FFF7FEFF 		bl	USBD_GetString
 431              	.LVL38:
 344:Src/usbd_desc.c ****   }
 432              		.loc 1 344 5 view .LVU101
 433 001a F8E7     		b	.L42
 434              	.L45:
 435              		.align	2
 436              	.L44:
 437 001c 00000000 		.word	USBD_StrDesc
 438 0020 00000000 		.word	.LC2
 439              		.cfi_endproc
 440              	.LFE244:
 442              		.section	.rodata.USBD_FS_InterfaceStrDescriptor.str1.4,"aMS",%progbits,1
 443              		.align	2
 444              	.LC3:
 445 0000 43444320 		.ascii	"CDC Interface\000"
 445      496E7465 
 445      72666163 
 445      6500
 446              		.section	.text.USBD_FS_InterfaceStrDescriptor,"ax",%progbits
 447              		.align	1
 448              		.global	USBD_FS_InterfaceStrDescriptor
 449              		.syntax unified
 450              		.thumb
 451              		.thumb_func
 453              	USBD_FS_InterfaceStrDescriptor:
 454              	.LVL39:
 455              	.LFB245:
 356:Src/usbd_desc.c ****   if(speed == 0)
 456              		.loc 1 356 1 is_stmt 1 view -0
 457              		.cfi_startproc
 458              		@ args = 0, pretend = 0, frame = 0
 459              		@ frame_needed = 0, uses_anonymous_args = 0
 356:Src/usbd_desc.c ****   if(speed == 0)
 460              		.loc 1 356 1 is_stmt 0 view .LVU103
 461 0000 08B5     		push	{r3, lr}
 462              		.cfi_def_cfa_offset 8
 463              		.cfi_offset 3, -8
 464              		.cfi_offset 14, -4
 465 0002 0A46     		mov	r2, r1
 357:Src/usbd_desc.c ****   {
 466              		.loc 1 357 3 is_stmt 1 view .LVU104
ARM GAS  C:\Users\Administrator\AppData\Local\Temp\ccUDcii1.s 			page 18


 357:Src/usbd_desc.c ****   {
 467              		.loc 1 357 5 is_stmt 0 view .LVU105
 468 0004 28B9     		cbnz	r0, .L47
 359:Src/usbd_desc.c ****   }
 469              		.loc 1 359 5 is_stmt 1 view .LVU106
 470 0006 0549     		ldr	r1, .L50
 471              	.LVL40:
 359:Src/usbd_desc.c ****   }
 472              		.loc 1 359 5 is_stmt 0 view .LVU107
 473 0008 0548     		ldr	r0, .L50+4
 474              	.LVL41:
 359:Src/usbd_desc.c ****   }
 475              		.loc 1 359 5 view .LVU108
 476 000a FFF7FEFF 		bl	USBD_GetString
 477              	.LVL42:
 478              	.L48:
 365:Src/usbd_desc.c **** }
 479              		.loc 1 365 3 is_stmt 1 view .LVU109
 366:Src/usbd_desc.c **** 
 480              		.loc 1 366 1 is_stmt 0 view .LVU110
 481 000e 0348     		ldr	r0, .L50
 482 0010 08BD     		pop	{r3, pc}
 483              	.LVL43:
 484              	.L47:
 363:Src/usbd_desc.c ****   }
 485              		.loc 1 363 5 is_stmt 1 view .LVU111
 486 0012 0249     		ldr	r1, .L50
 487              	.LVL44:
 363:Src/usbd_desc.c ****   }
 488              		.loc 1 363 5 is_stmt 0 view .LVU112
 489 0014 0248     		ldr	r0, .L50+4
 490              	.LVL45:
 363:Src/usbd_desc.c ****   }
 491              		.loc 1 363 5 view .LVU113
 492 0016 FFF7FEFF 		bl	USBD_GetString
 493              	.LVL46:
 363:Src/usbd_desc.c ****   }
 494              		.loc 1 363 5 view .LVU114
 495 001a F8E7     		b	.L48
 496              	.L51:
 497              		.align	2
 498              	.L50:
 499 001c 00000000 		.word	USBD_StrDesc
 500 0020 00000000 		.word	.LC3
 501              		.cfi_endproc
 502              	.LFE245:
 504              		.global	USBD_StringSerial
 505              		.section	.data.USBD_StringSerial,"aw"
 506              		.align	2
 509              	USBD_StringSerial:
 510 0000 1A0300   		.ascii	"\032\003\000"
 511 0003 00000000 		.space	23
 511      00000000 
 511      00000000 
 511      00000000 
 511      00000000 
 512              		.global	USBD_StrDesc
ARM GAS  C:\Users\Administrator\AppData\Local\Temp\ccUDcii1.s 			page 19


 513              		.section	.bss.USBD_StrDesc,"aw",%nobits
 514              		.align	2
 517              	USBD_StrDesc:
 518 0000 00000000 		.space	512
 518      00000000 
 518      00000000 
 518      00000000 
 518      00000000 
 519              		.global	USBD_LangIDDesc
 520              		.section	.data.USBD_LangIDDesc,"aw"
 521              		.align	2
 524              	USBD_LangIDDesc:
 525 0000 04030904 		.ascii	"\004\003\011\004"
 526              		.global	USBD_FS_DeviceDesc
 527              		.section	.data.USBD_FS_DeviceDesc,"aw"
 528              		.align	2
 531              	USBD_FS_DeviceDesc:
 532 0000 12010002 		.ascii	"\022\001\000\002\002\002\000@\203\004\312\000\000\002"
 532      02020040 
 532      8304CA00 
 532      0002
 533 000e 01020301 		.ascii	"\001\002\003\001"
 534              		.global	FS_Desc
 535              		.section	.data.FS_Desc,"aw"
 536              		.align	2
 539              	FS_Desc:
 540 0000 00000000 		.word	USBD_FS_DeviceDescriptor
 541 0004 00000000 		.word	USBD_FS_LangIDStrDescriptor
 542 0008 00000000 		.word	USBD_FS_ManufacturerStrDescriptor
 543 000c 00000000 		.word	USBD_FS_ProductStrDescriptor
 544 0010 00000000 		.word	USBD_FS_SerialStrDescriptor
 545 0014 00000000 		.word	USBD_FS_ConfigStrDescriptor
 546 0018 00000000 		.word	USBD_FS_InterfaceStrDescriptor
 547              		.text
 548              	.Letext0:
 549              		.file 2 "C:/Users/Administrator/AppData/Roaming/Code/User/globalStorage/bmd.stm32-for-vscode/@xpac
 550              		.file 3 "C:/Users/Administrator/AppData/Roaming/Code/User/globalStorage/bmd.stm32-for-vscode/@xpac
 551              		.file 4 "Middlewares/ST/STM32_USB_Device_Library/Core/Inc/usbd_def.h"
 552              		.file 5 "Inc/usbd_desc.h"
 553              		.file 6 "Middlewares/ST/STM32_USB_Device_Library/Core/Inc/usbd_ctlreq.h"
ARM GAS  C:\Users\Administrator\AppData\Local\Temp\ccUDcii1.s 			page 20

