ARM GAS  C:\Users\Administrator\AppData\Local\Temp\ccKqB6nl.s 			page 1


   1              		.cpu cortex-m4
   2              		.arch armv7e-m
   3              		.fpu fpv4-sp-d16
   4              		.eabi_attribute 27, 1
   5              		.eabi_attribute 28, 1
   6              		.eabi_attribute 20, 1
   7              		.eabi_attribute 21, 1
   8              		.eabi_attribute 23, 3
   9              		.eabi_attribute 24, 1
  10              		.eabi_attribute 25, 1
  11              		.eabi_attribute 26, 1
  12              		.eabi_attribute 30, 1
  13              		.eabi_attribute 34, 1
  14              		.eabi_attribute 18, 4
  15              		.file	"bsp_flash.c"
  16              		.text
  17              		.section	.text.ger_sector,"ax",%progbits
  18              		.align	1
  19              		.syntax unified
  20              		.thumb
  21              		.thumb_func
  23              	ger_sector:
  24              		@ args = 0, pretend = 0, frame = 0
  25              		@ frame_needed = 0, uses_anonymous_args = 0
  26              		@ link register save eliminated.
  27 0000 00F17843 		add	r3, r0, #-134217728
  28 0004 B3F5804F 		cmp	r3, #16384
  29 0008 45D3     		bcc	.L3
  30 000a A3F58043 		sub	r3, r3, #16384
  31 000e B3F5804F 		cmp	r3, #16384
  32 0012 42D3     		bcc	.L4
  33 0014 00F17843 		add	r3, r0, #-134217728
  34 0018 A3F50043 		sub	r3, r3, #32768
  35 001c B3F5804F 		cmp	r3, #16384
  36 0020 3DD3     		bcc	.L5
  37 0022 00F17843 		add	r3, r0, #-134217728
  38 0026 A3F54043 		sub	r3, r3, #49152
  39 002a B3F5804F 		cmp	r3, #16384
  40 002e 38D3     		bcc	.L6
  41 0030 00F17743 		add	r3, r0, #-150994944
  42 0034 03F57F03 		add	r3, r3, #16711680
  43 0038 B3F5803F 		cmp	r3, #65536
  44 003c 33D3     		bcc	.L7
  45 003e 00F17743 		add	r3, r0, #-150994944
  46 0042 03F57E03 		add	r3, r3, #16646144
  47 0046 B3F5003F 		cmp	r3, #131072
  48 004a 2ED3     		bcc	.L8
  49 004c 00F17743 		add	r3, r0, #-150994944
  50 0050 03F57C03 		add	r3, r3, #16515072
  51 0054 B3F5003F 		cmp	r3, #131072
  52 0058 29D3     		bcc	.L9
  53 005a 00F17743 		add	r3, r0, #-150994944
  54 005e 03F57A03 		add	r3, r3, #16384000
  55 0062 B3F5003F 		cmp	r3, #131072
  56 0066 24D3     		bcc	.L10
  57 0068 00F17743 		add	r3, r0, #-150994944
  58 006c 03F57803 		add	r3, r3, #16252928
ARM GAS  C:\Users\Administrator\AppData\Local\Temp\ccKqB6nl.s 			page 2


  59 0070 B3F5003F 		cmp	r3, #131072
  60 0074 1FD3     		bcc	.L11
  61 0076 00F17743 		add	r3, r0, #-150994944
  62 007a 03F57603 		add	r3, r3, #16121856
  63 007e B3F5003F 		cmp	r3, #131072
  64 0082 1AD3     		bcc	.L12
  65 0084 00F17740 		add	r0, r0, #-150994944
  66 0088 00F57400 		add	r0, r0, #15990784
  67 008c B0F5003F 		cmp	r0, #131072
  68 0090 15D2     		bcs	.L13
  69 0092 0A20     		movs	r0, #10
  70 0094 7047     		bx	lr
  71              	.L3:
  72 0096 0020     		movs	r0, #0
  73 0098 7047     		bx	lr
  74              	.L4:
  75 009a 0120     		movs	r0, #1
  76 009c 7047     		bx	lr
  77              	.L5:
  78 009e 0220     		movs	r0, #2
  79 00a0 7047     		bx	lr
  80              	.L6:
  81 00a2 0320     		movs	r0, #3
  82 00a4 7047     		bx	lr
  83              	.L7:
  84 00a6 0420     		movs	r0, #4
  85 00a8 7047     		bx	lr
  86              	.L8:
  87 00aa 0520     		movs	r0, #5
  88 00ac 7047     		bx	lr
  89              	.L9:
  90 00ae 0620     		movs	r0, #6
  91 00b0 7047     		bx	lr
  92              	.L10:
  93 00b2 0720     		movs	r0, #7
  94 00b4 7047     		bx	lr
  95              	.L11:
  96 00b6 0820     		movs	r0, #8
  97 00b8 7047     		bx	lr
  98              	.L12:
  99 00ba 0920     		movs	r0, #9
 100 00bc 7047     		bx	lr
 101              	.L13:
 102 00be 0B20     		movs	r0, #11
 103 00c0 7047     		bx	lr
 105              		.section	.text.flash_erase_address,"ax",%progbits
 106              		.align	1
 107              		.global	flash_erase_address
 108              		.syntax unified
 109              		.thumb
 110              		.thumb_func
 112              	flash_erase_address:
 113              		@ args = 0, pretend = 0, frame = 24
 114              		@ frame_needed = 0, uses_anonymous_args = 0
 115 0000 10B5     		push	{r4, lr}
 116 0002 86B0     		sub	sp, sp, #24
 117 0004 0C46     		mov	r4, r1
ARM GAS  C:\Users\Administrator\AppData\Local\Temp\ccKqB6nl.s 			page 3


 118 0006 FFF7FEFF 		bl	ger_sector
 119 000a 0390     		str	r0, [sp, #12]
 120 000c 0023     		movs	r3, #0
 121 000e 0193     		str	r3, [sp, #4]
 122 0010 0223     		movs	r3, #2
 123 0012 0593     		str	r3, [sp, #20]
 124 0014 0494     		str	r4, [sp, #16]
 125 0016 FFF7FEFF 		bl	HAL_FLASH_Unlock
 126 001a 6946     		mov	r1, sp
 127 001c 01A8     		add	r0, sp, #4
 128 001e FFF7FEFF 		bl	HAL_FLASHEx_Erase
 129 0022 FFF7FEFF 		bl	HAL_FLASH_Lock
 130 0026 06B0     		add	sp, sp, #24
 131              		@ sp needed
 132 0028 10BD     		pop	{r4, pc}
 134              		.section	.text.flash_write_muli_address,"ax",%progbits
 135              		.align	1
 136              		.global	flash_write_muli_address
 137              		.syntax unified
 138              		.thumb
 139              		.thumb_func
 141              	flash_write_muli_address:
 142              		@ args = 0, pretend = 0, frame = 0
 143              		@ frame_needed = 0, uses_anonymous_args = 0
 144 0000 2DE9F041 		push	{r4, r5, r6, r7, r8, lr}
 145 0004 0446     		mov	r4, r0
 146 0006 0F46     		mov	r7, r1
 147 0008 1546     		mov	r5, r2
 148 000a 9846     		mov	r8, r3
 149 000c FFF7FEFF 		bl	HAL_FLASH_Unlock
 150 0010 0026     		movs	r6, #0
 151              	.L17:
 152 0012 BC42     		cmp	r4, r7
 153 0014 0BD8     		bhi	.L19
 154 0016 2A68     		ldr	r2, [r5]
 155 0018 0023     		movs	r3, #0
 156 001a 2146     		mov	r1, r4
 157 001c 0220     		movs	r0, #2
 158 001e FFF7FEFF 		bl	HAL_FLASH_Program
 159 0022 48B9     		cbnz	r0, .L18
 160 0024 0434     		adds	r4, r4, #4
 161 0026 0435     		adds	r5, r5, #4
 162 0028 0136     		adds	r6, r6, #1
 163 002a 4645     		cmp	r6, r8
 164 002c F1D1     		bne	.L17
 165              	.L19:
 166 002e FFF7FEFF 		bl	HAL_FLASH_Lock
 167 0032 0020     		movs	r0, #0
 168              	.L20:
 169 0034 BDE8F081 		pop	{r4, r5, r6, r7, r8, pc}
 170              	.L18:
 171 0038 FFF7FEFF 		bl	HAL_FLASH_Lock
 172 003c 4FF0FF30 		mov	r0, #-1
 173 0040 F8E7     		b	.L20
 175              		.section	.text.flash_read,"ax",%progbits
 176              		.align	1
 177              		.global	flash_read
ARM GAS  C:\Users\Administrator\AppData\Local\Temp\ccKqB6nl.s 			page 4


 178              		.syntax unified
 179              		.thumb
 180              		.thumb_func
 182              	flash_read:
 183              		@ args = 0, pretend = 0, frame = 0
 184              		@ frame_needed = 0, uses_anonymous_args = 0
 185 0000 08B5     		push	{r3, lr}
 186 0002 0B46     		mov	r3, r1
 187 0004 9200     		lsls	r2, r2, #2
 188 0006 0146     		mov	r1, r0
 189 0008 1846     		mov	r0, r3
 190 000a FFF7FEFF 		bl	memcpy
 191 000e 08BD     		pop	{r3, pc}
 193              		.section	.text.get_next_flash_address,"ax",%progbits
 194              		.align	1
 195              		.global	get_next_flash_address
 196              		.syntax unified
 197              		.thumb
 198              		.thumb_func
 200              	get_next_flash_address:
 201              		@ args = 0, pretend = 0, frame = 0
 202              		@ frame_needed = 0, uses_anonymous_args = 0
 203              		@ link register save eliminated.
 204 0000 00F17843 		add	r3, r0, #-134217728
 205 0004 B3F5804F 		cmp	r3, #16384
 206 0008 45D3     		bcc	.L27
 207 000a A3F58043 		sub	r3, r3, #16384
 208 000e B3F5804F 		cmp	r3, #16384
 209 0012 42D3     		bcc	.L28
 210 0014 00F17843 		add	r3, r0, #-134217728
 211 0018 A3F50043 		sub	r3, r3, #32768
 212 001c B3F5804F 		cmp	r3, #16384
 213 0020 3DD3     		bcc	.L29
 214 0022 00F17843 		add	r3, r0, #-134217728
 215 0026 A3F54043 		sub	r3, r3, #49152
 216 002a B3F5804F 		cmp	r3, #16384
 217 002e 38D3     		bcc	.L30
 218 0030 00F17743 		add	r3, r0, #-150994944
 219 0034 03F57F03 		add	r3, r3, #16711680
 220 0038 B3F5803F 		cmp	r3, #65536
 221 003c 33D3     		bcc	.L31
 222 003e 00F17743 		add	r3, r0, #-150994944
 223 0042 03F57E03 		add	r3, r3, #16646144
 224 0046 B3F5003F 		cmp	r3, #131072
 225 004a 2ED3     		bcc	.L32
 226 004c 00F17743 		add	r3, r0, #-150994944
 227 0050 03F57C03 		add	r3, r3, #16515072
 228 0054 B3F5003F 		cmp	r3, #131072
 229 0058 29D3     		bcc	.L33
 230 005a 00F17743 		add	r3, r0, #-150994944
 231 005e 03F57A03 		add	r3, r3, #16384000
 232 0062 B3F5003F 		cmp	r3, #131072
 233 0066 24D3     		bcc	.L34
 234 0068 00F17743 		add	r3, r0, #-150994944
 235 006c 03F57803 		add	r3, r3, #16252928
 236 0070 B3F5003F 		cmp	r3, #131072
 237 0074 1FD3     		bcc	.L35
ARM GAS  C:\Users\Administrator\AppData\Local\Temp\ccKqB6nl.s 			page 5


 238 0076 00F17743 		add	r3, r0, #-150994944
 239 007a 03F57603 		add	r3, r3, #16121856
 240 007e B3F5003F 		cmp	r3, #131072
 241 0082 1AD3     		bcc	.L36
 242 0084 00F17740 		add	r0, r0, #-150994944
 243 0088 00F57400 		add	r0, r0, #15990784
 244 008c B0F5003F 		cmp	r0, #131072
 245 0090 15D2     		bcs	.L37
 246 0092 0C48     		ldr	r0, .L38
 247 0094 7047     		bx	lr
 248              	.L27:
 249 0096 0C48     		ldr	r0, .L38+4
 250 0098 7047     		bx	lr
 251              	.L28:
 252 009a 0C48     		ldr	r0, .L38+8
 253 009c 7047     		bx	lr
 254              	.L29:
 255 009e 0C48     		ldr	r0, .L38+12
 256 00a0 7047     		bx	lr
 257              	.L30:
 258 00a2 0C48     		ldr	r0, .L38+16
 259 00a4 7047     		bx	lr
 260              	.L31:
 261 00a6 0C48     		ldr	r0, .L38+20
 262 00a8 7047     		bx	lr
 263              	.L32:
 264 00aa 0C48     		ldr	r0, .L38+24
 265 00ac 7047     		bx	lr
 266              	.L33:
 267 00ae 0C48     		ldr	r0, .L38+28
 268 00b0 7047     		bx	lr
 269              	.L34:
 270 00b2 0C48     		ldr	r0, .L38+32
 271 00b4 7047     		bx	lr
 272              	.L35:
 273 00b6 0C48     		ldr	r0, .L38+36
 274 00b8 7047     		bx	lr
 275              	.L36:
 276 00ba 0C48     		ldr	r0, .L38+40
 277 00bc 7047     		bx	lr
 278              	.L37:
 279 00be 4FF00160 		mov	r0, #135266304
 280 00c2 7047     		bx	lr
 281              	.L39:
 282              		.align	2
 283              	.L38:
 284 00c4 00000E08 		.word	135135232
 285 00c8 00400008 		.word	134234112
 286 00cc 00800008 		.word	134250496
 287 00d0 00C00008 		.word	134266880
 288 00d4 00000108 		.word	134283264
 289 00d8 00000208 		.word	134348800
 290 00dc 00000408 		.word	134479872
 291 00e0 00000608 		.word	134610944
 292 00e4 00000808 		.word	134742016
 293 00e8 00000A08 		.word	134873088
 294 00ec 00000C08 		.word	135004160
ARM GAS  C:\Users\Administrator\AppData\Local\Temp\ccKqB6nl.s 			page 6


 296              		.section	.text.flash_write_single_address,"ax",%progbits
 297              		.align	1
 298              		.global	flash_write_single_address
 299              		.syntax unified
 300              		.thumb
 301              		.thumb_func
 303              	flash_write_single_address:
 304              		@ args = 0, pretend = 0, frame = 0
 305              		@ frame_needed = 0, uses_anonymous_args = 0
 306 0000 70B5     		push	{r4, r5, r6, lr}
 307 0002 0546     		mov	r5, r0
 308 0004 0E46     		mov	r6, r1
 309 0006 1446     		mov	r4, r2
 310 0008 FFF7FEFF 		bl	HAL_FLASH_Unlock
 311 000c 184B     		ldr	r3, .L47
 312 000e 1D60     		str	r5, [r3]
 313 0010 2846     		mov	r0, r5
 314 0012 FFF7FEFF 		bl	get_next_flash_address
 315 0016 174B     		ldr	r3, .L47+4
 316 0018 1860     		str	r0, [r3]
 317 001a 174B     		ldr	r3, .L47+8
 318 001c 1E60     		str	r6, [r3]
 319 001e 174B     		ldr	r3, .L47+12
 320 0020 0022     		movs	r2, #0
 321 0022 1A60     		str	r2, [r3]
 322              	.L41:
 323 0024 124B     		ldr	r3, .L47
 324 0026 1968     		ldr	r1, [r3]
 325 0028 124B     		ldr	r3, .L47+4
 326 002a 1B68     		ldr	r3, [r3]
 327 002c 9942     		cmp	r1, r3
 328 002e 15D8     		bhi	.L43
 329 0030 114B     		ldr	r3, .L47+8
 330 0032 1B68     		ldr	r3, [r3]
 331 0034 1A68     		ldr	r2, [r3]
 332 0036 0023     		movs	r3, #0
 333 0038 0220     		movs	r0, #2
 334 003a FFF7FEFF 		bl	HAL_FLASH_Program
 335 003e 88B9     		cbnz	r0, .L42
 336 0040 0B4A     		ldr	r2, .L47
 337 0042 1368     		ldr	r3, [r2]
 338 0044 0433     		adds	r3, r3, #4
 339 0046 1360     		str	r3, [r2]
 340 0048 0B4A     		ldr	r2, .L47+8
 341 004a 1368     		ldr	r3, [r2]
 342 004c 0433     		adds	r3, r3, #4
 343 004e 1360     		str	r3, [r2]
 344 0050 0A4A     		ldr	r2, .L47+12
 345 0052 1368     		ldr	r3, [r2]
 346 0054 0133     		adds	r3, r3, #1
 347 0056 1360     		str	r3, [r2]
 348 0058 A342     		cmp	r3, r4
 349 005a E3D1     		bne	.L41
 350              	.L43:
 351 005c FFF7FEFF 		bl	HAL_FLASH_Lock
 352 0060 0020     		movs	r0, #0
 353              	.L44:
ARM GAS  C:\Users\Administrator\AppData\Local\Temp\ccKqB6nl.s 			page 7


 354 0062 70BD     		pop	{r4, r5, r6, pc}
 355              	.L42:
 356 0064 FFF7FEFF 		bl	HAL_FLASH_Lock
 357 0068 4FF0FF30 		mov	r0, #-1
 358 006c F9E7     		b	.L44
 359              	.L48:
 360 006e 00BF     		.align	2
 361              	.L47:
 362 0070 00000000 		.word	uw_address.3
 363 0074 00000000 		.word	end_address.2
 364 0078 00000000 		.word	data_buf.1
 365 007c 00000000 		.word	data_len.0
 367              		.section	.bss.data_len.0,"aw",%nobits
 368              		.align	2
 371              	data_len.0:
 372 0000 00000000 		.space	4
 373              		.section	.bss.data_buf.1,"aw",%nobits
 374              		.align	2
 377              	data_buf.1:
 378 0000 00000000 		.space	4
 379              		.section	.bss.end_address.2,"aw",%nobits
 380              		.align	2
 383              	end_address.2:
 384 0000 00000000 		.space	4
 385              		.section	.bss.uw_address.3,"aw",%nobits
 386              		.align	2
 389              	uw_address.3:
 390 0000 00000000 		.space	4
 391              		.ident	"GCC: (xPack GNU Arm Embedded GCC x86_64) 15.2.1 20251203"
ARM GAS  C:\Users\Administrator\AppData\Local\Temp\ccKqB6nl.s 			page 8

