ARM GAS  C:\Users\Administrator\AppData\Local\Temp\ccayghoV.s 			page 1


   1              		.cpu cortex-m4
   2              		.arch armv7e-m
   3              		.fpu fpv4-sp-d16
   4              		.eabi_attribute 27, 1
   5              		.eabi_attribute 28, 1
   6              		.eabi_attribute 20, 1
   7              		.eabi_attribute 21, 1
   8              		.eabi_attribute 23, 3
   9              		.eabi_attribute 24, 1
  10              		.eabi_attribute 25, 1
  11              		.eabi_attribute 26, 1
  12              		.eabi_attribute 30, 1
  13              		.eabi_attribute 34, 1
  14              		.eabi_attribute 18, 4
  15              		.file	"can.c"
  16              		.text
  17              		.section	.text.MX_CAN1_Init,"ax",%progbits
  18              		.align	1
  19              		.global	MX_CAN1_Init
  20              		.syntax unified
  21              		.thumb
  22              		.thumb_func
  24              	MX_CAN1_Init:
  25              		@ args = 0, pretend = 0, frame = 0
  26              		@ frame_needed = 0, uses_anonymous_args = 0
  27 0000 08B5     		push	{r3, lr}
  28 0002 0E48     		ldr	r0, .L5
  29 0004 0E4B     		ldr	r3, .L5+4
  30 0006 0360     		str	r3, [r0]
  31 0008 0323     		movs	r3, #3
  32 000a 4360     		str	r3, [r0, #4]
  33 000c 0023     		movs	r3, #0
  34 000e 8360     		str	r3, [r0, #8]
  35 0010 C360     		str	r3, [r0, #12]
  36 0012 4FF41022 		mov	r2, #589824
  37 0016 0261     		str	r2, [r0, #16]
  38 0018 4FF40012 		mov	r2, #2097152
  39 001c 4261     		str	r2, [r0, #20]
  40 001e 0376     		strb	r3, [r0, #24]
  41 0020 0122     		movs	r2, #1
  42 0022 4276     		strb	r2, [r0, #25]
  43 0024 8376     		strb	r3, [r0, #26]
  44 0026 C276     		strb	r2, [r0, #27]
  45 0028 0377     		strb	r3, [r0, #28]
  46 002a 4277     		strb	r2, [r0, #29]
  47 002c FFF7FEFF 		bl	HAL_CAN_Init
  48 0030 00B9     		cbnz	r0, .L4
  49              	.L1:
  50 0032 08BD     		pop	{r3, pc}
  51              	.L4:
  52 0034 FFF7FEFF 		bl	Error_Handler
  53 0038 FBE7     		b	.L1
  54              	.L6:
  55 003a 00BF     		.align	2
  56              	.L5:
  57 003c 00000000 		.word	hcan1
  58 0040 00640040 		.word	1073767424
ARM GAS  C:\Users\Administrator\AppData\Local\Temp\ccayghoV.s 			page 2


  60              		.section	.text.MX_CAN2_Init,"ax",%progbits
  61              		.align	1
  62              		.global	MX_CAN2_Init
  63              		.syntax unified
  64              		.thumb
  65              		.thumb_func
  67              	MX_CAN2_Init:
  68              		@ args = 0, pretend = 0, frame = 0
  69              		@ frame_needed = 0, uses_anonymous_args = 0
  70 0000 08B5     		push	{r3, lr}
  71 0002 0E48     		ldr	r0, .L11
  72 0004 0E4B     		ldr	r3, .L11+4
  73 0006 0360     		str	r3, [r0]
  74 0008 0323     		movs	r3, #3
  75 000a 4360     		str	r3, [r0, #4]
  76 000c 0023     		movs	r3, #0
  77 000e 8360     		str	r3, [r0, #8]
  78 0010 C360     		str	r3, [r0, #12]
  79 0012 4FF41022 		mov	r2, #589824
  80 0016 0261     		str	r2, [r0, #16]
  81 0018 4FF40012 		mov	r2, #2097152
  82 001c 4261     		str	r2, [r0, #20]
  83 001e 0376     		strb	r3, [r0, #24]
  84 0020 0122     		movs	r2, #1
  85 0022 4276     		strb	r2, [r0, #25]
  86 0024 8376     		strb	r3, [r0, #26]
  87 0026 C276     		strb	r2, [r0, #27]
  88 0028 0377     		strb	r3, [r0, #28]
  89 002a 4277     		strb	r2, [r0, #29]
  90 002c FFF7FEFF 		bl	HAL_CAN_Init
  91 0030 00B9     		cbnz	r0, .L10
  92              	.L7:
  93 0032 08BD     		pop	{r3, pc}
  94              	.L10:
  95 0034 FFF7FEFF 		bl	Error_Handler
  96 0038 FBE7     		b	.L7
  97              	.L12:
  98 003a 00BF     		.align	2
  99              	.L11:
 100 003c 00000000 		.word	hcan2
 101 0040 00680040 		.word	1073768448
 103              		.section	.text.HAL_CAN_MspInit,"ax",%progbits
 104              		.align	1
 105              		.global	HAL_CAN_MspInit
 106              		.syntax unified
 107              		.thumb
 108              		.thumb_func
 110              	HAL_CAN_MspInit:
 111              		@ args = 0, pretend = 0, frame = 40
 112              		@ frame_needed = 0, uses_anonymous_args = 0
 113 0000 00B5     		push	{lr}
 114 0002 8BB0     		sub	sp, sp, #44
 115 0004 0023     		movs	r3, #0
 116 0006 0593     		str	r3, [sp, #20]
 117 0008 0693     		str	r3, [sp, #24]
 118 000a 0793     		str	r3, [sp, #28]
 119 000c 0893     		str	r3, [sp, #32]
ARM GAS  C:\Users\Administrator\AppData\Local\Temp\ccayghoV.s 			page 3


 120 000e 0993     		str	r3, [sp, #36]
 121 0010 0368     		ldr	r3, [r0]
 122 0012 454A     		ldr	r2, .L23
 123 0014 9342     		cmp	r3, r2
 124 0016 04D0     		beq	.L19
 125 0018 444A     		ldr	r2, .L23+4
 126 001a 9342     		cmp	r3, r2
 127 001c 3CD0     		beq	.L20
 128              	.L13:
 129 001e 0BB0     		add	sp, sp, #44
 130              		@ sp needed
 131 0020 00BD     		pop	{pc}
 132              	.L19:
 133 0022 434A     		ldr	r2, .L23+8
 134 0024 1368     		ldr	r3, [r2]
 135 0026 0133     		adds	r3, r3, #1
 136 0028 1360     		str	r3, [r2]
 137 002a 012B     		cmp	r3, #1
 138 002c 27D0     		beq	.L21
 139              	.L15:
 140 002e 0023     		movs	r3, #0
 141 0030 0193     		str	r3, [sp, #4]
 142 0032 404B     		ldr	r3, .L23+12
 143 0034 1A6B     		ldr	r2, [r3, #48]
 144 0036 42F00802 		orr	r2, r2, #8
 145 003a 1A63     		str	r2, [r3, #48]
 146 003c 1B6B     		ldr	r3, [r3, #48]
 147 003e 03F00803 		and	r3, r3, #8
 148 0042 0193     		str	r3, [sp, #4]
 149 0044 019B     		ldr	r3, [sp, #4]
 150 0046 0323     		movs	r3, #3
 151 0048 0593     		str	r3, [sp, #20]
 152 004a 0222     		movs	r2, #2
 153 004c 0692     		str	r2, [sp, #24]
 154 004e 0893     		str	r3, [sp, #32]
 155 0050 0923     		movs	r3, #9
 156 0052 0993     		str	r3, [sp, #36]
 157 0054 05A9     		add	r1, sp, #20
 158 0056 3848     		ldr	r0, .L23+16
 159 0058 FFF7FEFF 		bl	HAL_GPIO_Init
 160 005c 0022     		movs	r2, #0
 161 005e 0521     		movs	r1, #5
 162 0060 1420     		movs	r0, #20
 163 0062 FFF7FEFF 		bl	HAL_NVIC_SetPriority
 164 0066 1420     		movs	r0, #20
 165 0068 FFF7FEFF 		bl	HAL_NVIC_EnableIRQ
 166 006c 0022     		movs	r2, #0
 167 006e 0521     		movs	r1, #5
 168 0070 1520     		movs	r0, #21
 169 0072 FFF7FEFF 		bl	HAL_NVIC_SetPriority
 170 0076 1520     		movs	r0, #21
 171 0078 FFF7FEFF 		bl	HAL_NVIC_EnableIRQ
 172 007c CFE7     		b	.L13
 173              	.L21:
 174 007e 0023     		movs	r3, #0
 175 0080 0093     		str	r3, [sp]
 176 0082 2C4B     		ldr	r3, .L23+12
ARM GAS  C:\Users\Administrator\AppData\Local\Temp\ccayghoV.s 			page 4


 177 0084 1A6C     		ldr	r2, [r3, #64]
 178 0086 42F00072 		orr	r2, r2, #33554432
 179 008a 1A64     		str	r2, [r3, #64]
 180 008c 1B6C     		ldr	r3, [r3, #64]
 181 008e 03F00073 		and	r3, r3, #33554432
 182 0092 0093     		str	r3, [sp]
 183 0094 009B     		ldr	r3, [sp]
 184 0096 CAE7     		b	.L15
 185              	.L20:
 186 0098 0023     		movs	r3, #0
 187 009a 0293     		str	r3, [sp, #8]
 188 009c 254B     		ldr	r3, .L23+12
 189 009e 1A6C     		ldr	r2, [r3, #64]
 190 00a0 42F08062 		orr	r2, r2, #67108864
 191 00a4 1A64     		str	r2, [r3, #64]
 192 00a6 1B6C     		ldr	r3, [r3, #64]
 193 00a8 03F08063 		and	r3, r3, #67108864
 194 00ac 0293     		str	r3, [sp, #8]
 195 00ae 029B     		ldr	r3, [sp, #8]
 196 00b0 1F4A     		ldr	r2, .L23+8
 197 00b2 1368     		ldr	r3, [r2]
 198 00b4 0133     		adds	r3, r3, #1
 199 00b6 1360     		str	r3, [r2]
 200 00b8 012B     		cmp	r3, #1
 201 00ba 28D0     		beq	.L22
 202              	.L17:
 203 00bc 0023     		movs	r3, #0
 204 00be 0493     		str	r3, [sp, #16]
 205 00c0 1C4B     		ldr	r3, .L23+12
 206 00c2 1A6B     		ldr	r2, [r3, #48]
 207 00c4 42F00202 		orr	r2, r2, #2
 208 00c8 1A63     		str	r2, [r3, #48]
 209 00ca 1B6B     		ldr	r3, [r3, #48]
 210 00cc 03F00203 		and	r3, r3, #2
 211 00d0 0493     		str	r3, [sp, #16]
 212 00d2 049B     		ldr	r3, [sp, #16]
 213 00d4 6023     		movs	r3, #96
 214 00d6 0593     		str	r3, [sp, #20]
 215 00d8 0223     		movs	r3, #2
 216 00da 0693     		str	r3, [sp, #24]
 217 00dc 0323     		movs	r3, #3
 218 00de 0893     		str	r3, [sp, #32]
 219 00e0 0923     		movs	r3, #9
 220 00e2 0993     		str	r3, [sp, #36]
 221 00e4 05A9     		add	r1, sp, #20
 222 00e6 1548     		ldr	r0, .L23+20
 223 00e8 FFF7FEFF 		bl	HAL_GPIO_Init
 224 00ec 0022     		movs	r2, #0
 225 00ee 0521     		movs	r1, #5
 226 00f0 4020     		movs	r0, #64
 227 00f2 FFF7FEFF 		bl	HAL_NVIC_SetPriority
 228 00f6 4020     		movs	r0, #64
 229 00f8 FFF7FEFF 		bl	HAL_NVIC_EnableIRQ
 230 00fc 0022     		movs	r2, #0
 231 00fe 0521     		movs	r1, #5
 232 0100 4120     		movs	r0, #65
 233 0102 FFF7FEFF 		bl	HAL_NVIC_SetPriority
ARM GAS  C:\Users\Administrator\AppData\Local\Temp\ccayghoV.s 			page 5


 234 0106 4120     		movs	r0, #65
 235 0108 FFF7FEFF 		bl	HAL_NVIC_EnableIRQ
 236 010c 87E7     		b	.L13
 237              	.L22:
 238 010e 0023     		movs	r3, #0
 239 0110 0393     		str	r3, [sp, #12]
 240 0112 084B     		ldr	r3, .L23+12
 241 0114 1A6C     		ldr	r2, [r3, #64]
 242 0116 42F00072 		orr	r2, r2, #33554432
 243 011a 1A64     		str	r2, [r3, #64]
 244 011c 1B6C     		ldr	r3, [r3, #64]
 245 011e 03F00073 		and	r3, r3, #33554432
 246 0122 0393     		str	r3, [sp, #12]
 247 0124 039B     		ldr	r3, [sp, #12]
 248 0126 C9E7     		b	.L17
 249              	.L24:
 250              		.align	2
 251              	.L23:
 252 0128 00640040 		.word	1073767424
 253 012c 00680040 		.word	1073768448
 254 0130 00000000 		.word	HAL_RCC_CAN1_CLK_ENABLED
 255 0134 00380240 		.word	1073887232
 256 0138 000C0240 		.word	1073875968
 257 013c 00040240 		.word	1073873920
 259              		.section	.text.HAL_CAN_MspDeInit,"ax",%progbits
 260              		.align	1
 261              		.global	HAL_CAN_MspDeInit
 262              		.syntax unified
 263              		.thumb
 264              		.thumb_func
 266              	HAL_CAN_MspDeInit:
 267              		@ args = 0, pretend = 0, frame = 0
 268              		@ frame_needed = 0, uses_anonymous_args = 0
 269 0000 08B5     		push	{r3, lr}
 270 0002 0368     		ldr	r3, [r0]
 271 0004 1B4A     		ldr	r2, .L33
 272 0006 9342     		cmp	r3, r2
 273 0008 03D0     		beq	.L31
 274 000a 1B4A     		ldr	r2, .L33+4
 275 000c 9342     		cmp	r3, r2
 276 000e 15D0     		beq	.L32
 277              	.L25:
 278 0010 08BD     		pop	{r3, pc}
 279              	.L31:
 280 0012 1A4A     		ldr	r2, .L33+8
 281 0014 1368     		ldr	r3, [r2]
 282 0016 013B     		subs	r3, r3, #1
 283 0018 1360     		str	r3, [r2]
 284 001a 23B9     		cbnz	r3, .L27
 285 001c 184A     		ldr	r2, .L33+12
 286 001e 136C     		ldr	r3, [r2, #64]
 287 0020 23F00073 		bic	r3, r3, #33554432
 288 0024 1364     		str	r3, [r2, #64]
 289              	.L27:
 290 0026 0321     		movs	r1, #3
 291 0028 1648     		ldr	r0, .L33+16
 292 002a FFF7FEFF 		bl	HAL_GPIO_DeInit
ARM GAS  C:\Users\Administrator\AppData\Local\Temp\ccayghoV.s 			page 6


 293 002e 1420     		movs	r0, #20
 294 0030 FFF7FEFF 		bl	HAL_NVIC_DisableIRQ
 295 0034 1520     		movs	r0, #21
 296 0036 FFF7FEFF 		bl	HAL_NVIC_DisableIRQ
 297 003a E9E7     		b	.L25
 298              	.L32:
 299 003c 02F5E832 		add	r2, r2, #118784
 300 0040 136C     		ldr	r3, [r2, #64]
 301 0042 23F08063 		bic	r3, r3, #67108864
 302 0046 1364     		str	r3, [r2, #64]
 303 0048 0C4A     		ldr	r2, .L33+8
 304 004a 1368     		ldr	r3, [r2]
 305 004c 013B     		subs	r3, r3, #1
 306 004e 1360     		str	r3, [r2]
 307 0050 23B9     		cbnz	r3, .L29
 308 0052 0B4A     		ldr	r2, .L33+12
 309 0054 136C     		ldr	r3, [r2, #64]
 310 0056 23F00073 		bic	r3, r3, #33554432
 311 005a 1364     		str	r3, [r2, #64]
 312              	.L29:
 313 005c 6021     		movs	r1, #96
 314 005e 0A48     		ldr	r0, .L33+20
 315 0060 FFF7FEFF 		bl	HAL_GPIO_DeInit
 316 0064 4020     		movs	r0, #64
 317 0066 FFF7FEFF 		bl	HAL_NVIC_DisableIRQ
 318 006a 4120     		movs	r0, #65
 319 006c FFF7FEFF 		bl	HAL_NVIC_DisableIRQ
 320 0070 CEE7     		b	.L25
 321              	.L34:
 322 0072 00BF     		.align	2
 323              	.L33:
 324 0074 00640040 		.word	1073767424
 325 0078 00680040 		.word	1073768448
 326 007c 00000000 		.word	HAL_RCC_CAN1_CLK_ENABLED
 327 0080 00380240 		.word	1073887232
 328 0084 000C0240 		.word	1073875968
 329 0088 00040240 		.word	1073873920
 331              		.section	.bss.HAL_RCC_CAN1_CLK_ENABLED,"aw",%nobits
 332              		.align	2
 335              	HAL_RCC_CAN1_CLK_ENABLED:
 336 0000 00000000 		.space	4
 337              		.global	hcan2
 338              		.section	.bss.hcan2,"aw",%nobits
 339              		.align	2
 342              	hcan2:
 343 0000 00000000 		.space	40
 343      00000000 
 343      00000000 
 343      00000000 
 343      00000000 
 344              		.global	hcan1
 345              		.section	.bss.hcan1,"aw",%nobits
 346              		.align	2
 349              	hcan1:
 350 0000 00000000 		.space	40
 350      00000000 
 350      00000000 
ARM GAS  C:\Users\Administrator\AppData\Local\Temp\ccayghoV.s 			page 7


 350      00000000 
 350      00000000 
 351              		.ident	"GCC: (xPack GNU Arm Embedded GCC x86_64) 15.2.1 20251203"
ARM GAS  C:\Users\Administrator\AppData\Local\Temp\ccayghoV.s 			page 8

