ARM GAS  C:\Users\Administrator\AppData\Local\Temp\ccv68W8Y.s 			page 1


   1              		.cpu cortex-m4
   2              		.arch armv7e-m
   3              		.fpu fpv4-sp-d16
   4              		.eabi_attribute 27, 1
   5              		.eabi_attribute 28, 1
   6              		.eabi_attribute 20, 1
   7              		.eabi_attribute 21, 1
   8              		.eabi_attribute 23, 3
   9              		.eabi_attribute 24, 1
  10              		.eabi_attribute 25, 1
  11              		.eabi_attribute 26, 1
  12              		.eabi_attribute 30, 1
  13              		.eabi_attribute 34, 1
  14              		.eabi_attribute 18, 4
  15              		.file	"gimbal.c"
  16              		.text
  17              		.section	.rodata.GimbalInit.str1.4,"aMS",%progbits,1
  18              		.align	2
  19              	.LC0:
  20 0000 67696D62 		.ascii	"gimbal_feed\000"
  20      616C5F66 
  20      65656400 
  21              		.align	2
  22              	.LC1:
  23 000c 67696D62 		.ascii	"gimbal_cmd\000"
  23      616C5F63 
  23      6D6400
  24              		.section	.text.GimbalInit,"ax",%progbits
  25              		.align	1
  26              		.global	GimbalInit
  27              		.syntax unified
  28              		.thumb
  29              		.thumb_func
  31              	GimbalInit:
  32              		@ args = 0, pretend = 0, frame = 0
  33              		@ frame_needed = 0, uses_anonymous_args = 0
  34 0000 38B5     		push	{r3, r4, r5, lr}
  35 0002 FFF7FEFF 		bl	INS_Init
  36 0006 1F4D     		ldr	r5, .L8
  37 0008 2860     		str	r0, [r5]
  38 000a FFF7FEFF 		bl	GimbalConfigFeed
  39 000e 1E4C     		ldr	r4, .L8+4
  40 0010 2060     		str	r0, [r4]
  41 0012 2B68     		ldr	r3, [r5]
  42 0014 03F12402 		add	r2, r3, #36
  43 0018 4261     		str	r2, [r0, #20]
  44 001a 0833     		adds	r3, r3, #8
  45 001c 8361     		str	r3, [r0, #24]
  46 001e 1430     		adds	r0, r0, #20
  47 0020 FFF7FEFF 		bl	DJIMotorInit
  48 0024 194B     		ldr	r3, .L8+8
  49 0026 1860     		str	r0, [r3]
  50 0028 2068     		ldr	r0, [r4]
  51 002a 0378     		ldrb	r3, [r0]	@ zero_extendqisi2
  52 002c 012B     		cmp	r3, #1
  53 002e 10D0     		beq	.L7
  54              	.L2:
ARM GAS  C:\Users\Administrator\AppData\Local\Temp\ccv68W8Y.s 			page 2


  55 0030 144B     		ldr	r3, .L8
  56 0032 1B68     		ldr	r3, [r3]
  57 0034 C0F89031 		str	r3, [r0, #400]
  58 0038 90F82832 		ldrb	r3, [r0, #552]	@ zero_extendqisi2
  59 003c 012B     		cmp	r3, #1
  60 003e 0DD0     		beq	.L3
  61 0040 072B     		cmp	r3, #7
  62 0042 11D1     		bne	.L5
  63 0044 00F5C670 		add	r0, r0, #396
  64 0048 FFF7FEFF 		bl	XMMotorInit
  65 004c 104B     		ldr	r3, .L8+12
  66 004e 1860     		str	r0, [r3]
  67 0050 0AE0     		b	.L5
  68              	.L7:
  69 0052 2B68     		ldr	r3, [r5]
  70 0054 1C33     		adds	r3, r3, #28
  71 0056 C0F88C31 		str	r3, [r0, #396]
  72 005a E9E7     		b	.L2
  73              	.L3:
  74 005c 00F5C670 		add	r0, r0, #396
  75 0060 FFF7FEFF 		bl	DJIMotorInit
  76 0064 0B4B     		ldr	r3, .L8+16
  77 0066 1860     		str	r0, [r3]
  78              	.L5:
  79 0068 2C21     		movs	r1, #44
  80 006a 0B48     		ldr	r0, .L8+20
  81 006c FFF7FEFF 		bl	PubRegister
  82 0070 0A4B     		ldr	r3, .L8+24
  83 0072 1860     		str	r0, [r3]
  84 0074 1221     		movs	r1, #18
  85 0076 0A48     		ldr	r0, .L8+28
  86 0078 FFF7FEFF 		bl	SubRegister
  87 007c 094B     		ldr	r3, .L8+32
  88 007e 1860     		str	r0, [r3]
  89 0080 38BD     		pop	{r3, r4, r5, pc}
  90              	.L9:
  91 0082 00BF     		.align	2
  92              	.L8:
  93 0084 00000000 		.word	gimba_IMU_data
  94 0088 00000000 		.word	gimbal_config
  95 008c 00000000 		.word	yaw_motor
  96 0090 00000000 		.word	pitch_xmmotor
  97 0094 00000000 		.word	pitch_motor
  98 0098 00000000 		.word	.LC0
  99 009c 00000000 		.word	gimbal_pub
 100 00a0 0C000000 		.word	.LC1
 101 00a4 00000000 		.word	gimbal_sub
 103              		.section	.text.GimbalTask,"ax",%progbits
 104              		.align	1
 105              		.global	GimbalTask
 106              		.syntax unified
 107              		.thumb
 108              		.thumb_func
 110              	GimbalTask:
 111              		@ args = 0, pretend = 0, frame = 0
 112              		@ frame_needed = 0, uses_anonymous_args = 0
 113 0000 10B5     		push	{r4, lr}
ARM GAS  C:\Users\Administrator\AppData\Local\Temp\ccv68W8Y.s 			page 3


 114 0002 4F4C     		ldr	r4, .L23
 115 0004 2146     		mov	r1, r4
 116 0006 4F4B     		ldr	r3, .L23+4
 117 0008 1868     		ldr	r0, [r3]
 118 000a FFF7FEFF 		bl	SubGetMessage
 119 000e 237C     		ldrb	r3, [r4, #16]	@ zero_extendqisi2
 120 0010 0BB3     		cbz	r3, .L11
 121 0012 012B     		cmp	r3, #1
 122 0014 3ED0     		beq	.L12
 123              	.L13:
 124 0016 4C4C     		ldr	r4, .L23+8
 125 0018 A446     		mov	ip, r4
 126 001a 4C4B     		ldr	r3, .L23+12
 127 001c D3F800E0 		ldr	lr, [r3]
 128 0020 BEE80F00 		ldmia	lr!, {r0, r1, r2, r3}
 129 0024 ACE80F00 		stmia	ip!, {r0, r1, r2, r3}
 130 0028 BEE80F00 		ldmia	lr!, {r0, r1, r2, r3}
 131 002c ACE80F00 		stmia	ip!, {r0, r1, r2, r3}
 132 0030 9EE80300 		ldm	lr, {r0, r1}
 133 0034 8CE80300 		stm	ip, {r0, r1}
 134 0038 454B     		ldr	r3, .L23+16
 135 003a 1B68     		ldr	r3, [r3]
 136 003c D3ED017A 		vldr.32	s15, [r3, #4]
 137 0040 FCEEE77A 		vcvt.u32.f32	s15, s15
 138 0044 17EE903A 		vmov	r3, s15	@ int
 139 0048 2385     		strh	r3, [r4, #40]	@ movhi
 140 004a 2146     		mov	r1, r4
 141 004c 414B     		ldr	r3, .L23+20
 142 004e 1868     		ldr	r0, [r3]
 143 0050 FFF7FEFF 		bl	PubPushMessage
 144 0054 10BD     		pop	{r4, pc}
 145              	.L11:
 146 0056 3E4B     		ldr	r3, .L23+16
 147 0058 1868     		ldr	r0, [r3]
 148 005a FFF7FEFF 		bl	DJIMotorStop
 149 005e 3E4B     		ldr	r3, .L23+24
 150 0060 1B68     		ldr	r3, [r3]
 151 0062 1B78     		ldrb	r3, [r3]	@ zero_extendqisi2
 152 0064 012B     		cmp	r3, #1
 153 0066 0CD0     		beq	.L21
 154              	.L14:
 155 0068 3B4B     		ldr	r3, .L23+24
 156 006a 1B68     		ldr	r3, [r3]
 157 006c 93F82832 		ldrb	r3, [r3, #552]	@ zero_extendqisi2
 158 0070 012B     		cmp	r3, #1
 159 0072 0AD0     		beq	.L15
 160 0074 072B     		cmp	r3, #7
 161 0076 CED1     		bne	.L13
 162 0078 384B     		ldr	r3, .L23+28
 163 007a 1868     		ldr	r0, [r3]
 164 007c FFF7FEFF 		bl	XMMotorStop
 165 0080 C9E7     		b	.L13
 166              	.L21:
 167 0082 0020     		movs	r0, #0
 168 0084 FFF7FEFF 		bl	DJIMotorStop
 169 0088 EEE7     		b	.L14
 170              	.L15:
ARM GAS  C:\Users\Administrator\AppData\Local\Temp\ccv68W8Y.s 			page 4


 171 008a 354B     		ldr	r3, .L23+32
 172 008c 1868     		ldr	r0, [r3]
 173 008e FFF7FEFF 		bl	DJIMotorStop
 174 0092 C0E7     		b	.L13
 175              	.L12:
 176 0094 2E4C     		ldr	r4, .L23+16
 177 0096 2068     		ldr	r0, [r4]
 178 0098 FFF7FEFF 		bl	DJIMotorEnable
 179 009c 0122     		movs	r2, #1
 180 009e 0421     		movs	r1, #4
 181 00a0 2068     		ldr	r0, [r4]
 182 00a2 FFF7FEFF 		bl	DJIMotorChangeFeed
 183 00a6 0122     		movs	r2, #1
 184 00a8 0221     		movs	r1, #2
 185 00aa 2068     		ldr	r0, [r4]
 186 00ac FFF7FEFF 		bl	DJIMotorChangeFeed
 187 00b0 234B     		ldr	r3, .L23
 188 00b2 93ED010A 		vldr.32	s0, [r3, #4]
 189 00b6 2068     		ldr	r0, [r4]
 190 00b8 FFF7FEFF 		bl	DJIMotorSetRef
 191 00bc 264B     		ldr	r3, .L23+24
 192 00be 1B68     		ldr	r3, [r3]
 193 00c0 1B78     		ldrb	r3, [r3]	@ zero_extendqisi2
 194 00c2 012B     		cmp	r3, #1
 195 00c4 1CD0     		beq	.L22
 196              	.L17:
 197 00c6 244B     		ldr	r3, .L23+24
 198 00c8 1B68     		ldr	r3, [r3]
 199 00ca 93F82832 		ldrb	r3, [r3, #552]	@ zero_extendqisi2
 200 00ce 012B     		cmp	r3, #1
 201 00d0 20D0     		beq	.L18
 202 00d2 072B     		cmp	r3, #7
 203 00d4 9FD1     		bne	.L13
 204 00d6 214C     		ldr	r4, .L23+28
 205 00d8 2068     		ldr	r0, [r4]
 206 00da FFF7FEFF 		bl	XMMotorEnable
 207 00de 0122     		movs	r2, #1
 208 00e0 0421     		movs	r1, #4
 209 00e2 2068     		ldr	r0, [r4]
 210 00e4 FFF7FEFF 		bl	XMMotorChangeFeed
 211 00e8 0122     		movs	r2, #1
 212 00ea 0221     		movs	r1, #2
 213 00ec 2068     		ldr	r0, [r4]
 214 00ee FFF7FEFF 		bl	XMMotorChangeFeed
 215 00f2 134B     		ldr	r3, .L23
 216 00f4 93ED020A 		vldr.32	s0, [r3, #8]
 217 00f8 2068     		ldr	r0, [r4]
 218 00fa FFF7FEFF 		bl	XMMotorSetRef
 219 00fe 8AE7     		b	.L13
 220              	.L22:
 221 0100 0020     		movs	r0, #0
 222 0102 FFF7FEFF 		bl	DJIMotorEnable
 223 0106 0E4B     		ldr	r3, .L23
 224 0108 93ED000A 		vldr.32	s0, [r3]
 225 010c 0020     		movs	r0, #0
 226 010e FFF7FEFF 		bl	DJIMotorSetRef
 227 0112 D8E7     		b	.L17
ARM GAS  C:\Users\Administrator\AppData\Local\Temp\ccv68W8Y.s 			page 5


 228              	.L18:
 229 0114 124C     		ldr	r4, .L23+32
 230 0116 2068     		ldr	r0, [r4]
 231 0118 FFF7FEFF 		bl	DJIMotorEnable
 232 011c 0122     		movs	r2, #1
 233 011e 0421     		movs	r1, #4
 234 0120 2068     		ldr	r0, [r4]
 235 0122 FFF7FEFF 		bl	DJIMotorChangeFeed
 236 0126 0122     		movs	r2, #1
 237 0128 0221     		movs	r1, #2
 238 012a 2068     		ldr	r0, [r4]
 239 012c FFF7FEFF 		bl	DJIMotorChangeFeed
 240 0130 034B     		ldr	r3, .L23
 241 0132 93ED020A 		vldr.32	s0, [r3, #8]
 242 0136 2068     		ldr	r0, [r4]
 243 0138 FFF7FEFF 		bl	DJIMotorSetRef
 244 013c 6BE7     		b	.L13
 245              	.L24:
 246 013e 00BF     		.align	2
 247              	.L23:
 248 0140 00000000 		.word	gimbal_cmd_recv
 249 0144 00000000 		.word	gimbal_sub
 250 0148 00000000 		.word	gimbal_feedback_data
 251 014c 00000000 		.word	gimba_IMU_data
 252 0150 00000000 		.word	yaw_motor
 253 0154 00000000 		.word	gimbal_pub
 254 0158 00000000 		.word	gimbal_config
 255 015c 00000000 		.word	pitch_xmmotor
 256 0160 00000000 		.word	pitch_motor
 258              		.section	.bss.gimbal_cmd_recv,"aw",%nobits
 259              		.align	2
 262              	gimbal_cmd_recv:
 263 0000 00000000 		.space	18
 263      00000000 
 263      00000000 
 263      00000000 
 263      0000
 264              		.section	.bss.gimbal_feedback_data,"aw",%nobits
 265              		.align	2
 268              	gimbal_feedback_data:
 269 0000 00000000 		.space	44
 269      00000000 
 269      00000000 
 269      00000000 
 269      00000000 
 270              		.section	.bss.gimbal_sub,"aw",%nobits
 271              		.align	2
 274              	gimbal_sub:
 275 0000 00000000 		.space	4
 276              		.section	.bss.gimbal_pub,"aw",%nobits
 277              		.align	2
 280              	gimbal_pub:
 281 0000 00000000 		.space	4
 282              		.section	.bss.pitch_xmmotor,"aw",%nobits
 283              		.align	2
 286              	pitch_xmmotor:
 287 0000 00000000 		.space	4
ARM GAS  C:\Users\Administrator\AppData\Local\Temp\ccv68W8Y.s 			page 6


 288              		.section	.bss.pitch_motor,"aw",%nobits
 289              		.align	2
 292              	pitch_motor:
 293 0000 00000000 		.space	4
 294              		.section	.bss.yaw_motor,"aw",%nobits
 295              		.align	2
 298              	yaw_motor:
 299 0000 00000000 		.space	4
 300              		.section	.bss.gimba_IMU_data,"aw",%nobits
 301              		.align	2
 304              	gimba_IMU_data:
 305 0000 00000000 		.space	4
 306              		.section	.bss.gimbal_config,"aw",%nobits
 307              		.align	2
 310              	gimbal_config:
 311 0000 00000000 		.space	4
 312              		.ident	"GCC: (xPack GNU Arm Embedded GCC x86_64) 15.2.1 20251203"
ARM GAS  C:\Users\Administrator\AppData\Local\Temp\ccv68W8Y.s 			page 7


DEFINED SYMBOLS
                            *ABS*:00000000 gimbal.c
C:\Users\Administrator\AppData\Local\Temp\ccv68W8Y.s:18     .rodata.GimbalInit.str1.4:00000000 $d
C:\Users\Administrator\AppData\Local\Temp\ccv68W8Y.s:25     .text.GimbalInit:00000000 $t
C:\Users\Administrator\AppData\Local\Temp\ccv68W8Y.s:31     .text.GimbalInit:00000000 GimbalInit
C:\Users\Administrator\AppData\Local\Temp\ccv68W8Y.s:93     .text.GimbalInit:00000084 $d
C:\Users\Administrator\AppData\Local\Temp\ccv68W8Y.s:304    .bss.gimba_IMU_data:00000000 gimba_IMU_data
C:\Users\Administrator\AppData\Local\Temp\ccv68W8Y.s:310    .bss.gimbal_config:00000000 gimbal_config
C:\Users\Administrator\AppData\Local\Temp\ccv68W8Y.s:298    .bss.yaw_motor:00000000 yaw_motor
C:\Users\Administrator\AppData\Local\Temp\ccv68W8Y.s:286    .bss.pitch_xmmotor:00000000 pitch_xmmotor
C:\Users\Administrator\AppData\Local\Temp\ccv68W8Y.s:292    .bss.pitch_motor:00000000 pitch_motor
C:\Users\Administrator\AppData\Local\Temp\ccv68W8Y.s:280    .bss.gimbal_pub:00000000 gimbal_pub
C:\Users\Administrator\AppData\Local\Temp\ccv68W8Y.s:274    .bss.gimbal_sub:00000000 gimbal_sub
C:\Users\Administrator\AppData\Local\Temp\ccv68W8Y.s:104    .text.GimbalTask:00000000 $t
C:\Users\Administrator\AppData\Local\Temp\ccv68W8Y.s:110    .text.GimbalTask:00000000 GimbalTask
C:\Users\Administrator\AppData\Local\Temp\ccv68W8Y.s:248    .text.GimbalTask:00000140 $d
C:\Users\Administrator\AppData\Local\Temp\ccv68W8Y.s:262    .bss.gimbal_cmd_recv:00000000 gimbal_cmd_recv
C:\Users\Administrator\AppData\Local\Temp\ccv68W8Y.s:268    .bss.gimbal_feedback_data:00000000 gimbal_feedback_data
C:\Users\Administrator\AppData\Local\Temp\ccv68W8Y.s:259    .bss.gimbal_cmd_recv:00000000 $d
C:\Users\Administrator\AppData\Local\Temp\ccv68W8Y.s:265    .bss.gimbal_feedback_data:00000000 $d
C:\Users\Administrator\AppData\Local\Temp\ccv68W8Y.s:271    .bss.gimbal_sub:00000000 $d
C:\Users\Administrator\AppData\Local\Temp\ccv68W8Y.s:277    .bss.gimbal_pub:00000000 $d
C:\Users\Administrator\AppData\Local\Temp\ccv68W8Y.s:283    .bss.pitch_xmmotor:00000000 $d
C:\Users\Administrator\AppData\Local\Temp\ccv68W8Y.s:289    .bss.pitch_motor:00000000 $d
C:\Users\Administrator\AppData\Local\Temp\ccv68W8Y.s:295    .bss.yaw_motor:00000000 $d
C:\Users\Administrator\AppData\Local\Temp\ccv68W8Y.s:301    .bss.gimba_IMU_data:00000000 $d
C:\Users\Administrator\AppData\Local\Temp\ccv68W8Y.s:307    .bss.gimbal_config:00000000 $d

UNDEFINED SYMBOLS
INS_Init
GimbalConfigFeed
DJIMotorInit
XMMotorInit
PubRegister
SubRegister
SubGetMessage
PubPushMessage
DJIMotorStop
XMMotorStop
DJIMotorEnable
DJIMotorChangeFeed
DJIMotorSetRef
XMMotorEnable
XMMotorChangeFeed
XMMotorSetRef
