ARM GAS  C:\Users\Administrator\AppData\Local\Temp\ccXIQjX3.s 			page 1


   1              		.cpu cortex-m4
   2              		.arch armv7e-m
   3              		.fpu fpv4-sp-d16
   4              		.eabi_attribute 27, 1
   5              		.eabi_attribute 28, 1
   6              		.eabi_attribute 20, 1
   7              		.eabi_attribute 21, 1
   8              		.eabi_attribute 23, 3
   9              		.eabi_attribute 24, 1
  10              		.eabi_attribute 25, 1
  11              		.eabi_attribute 26, 1
  12              		.eabi_attribute 30, 1
  13              		.eabi_attribute 34, 1
  14              		.eabi_attribute 18, 4
  15              		.file	"gpio.c"
  16              		.text
  17              		.section	.text.MX_GPIO_Init,"ax",%progbits
  18              		.align	1
  19              		.global	MX_GPIO_Init
  20              		.syntax unified
  21              		.thumb
  22              		.thumb_func
  24              	MX_GPIO_Init:
  25              		@ args = 0, pretend = 0, frame = 56
  26              		@ frame_needed = 0, uses_anonymous_args = 0
  27 0000 2DE9F047 		push	{r4, r5, r6, r7, r8, r9, r10, lr}
  28 0004 8EB0     		sub	sp, sp, #56
  29 0006 09AD     		add	r5, sp, #36
  30 0008 0024     		movs	r4, #0
  31 000a 0994     		str	r4, [sp, #36]
  32 000c 0A94     		str	r4, [sp, #40]
  33 000e 0B94     		str	r4, [sp, #44]
  34 0010 0C94     		str	r4, [sp, #48]
  35 0012 0D94     		str	r4, [sp, #52]
  36 0014 0094     		str	r4, [sp]
  37 0016 614B     		ldr	r3, .L3
  38 0018 1A6B     		ldr	r2, [r3, #48]
  39 001a 42F00202 		orr	r2, r2, #2
  40 001e 1A63     		str	r2, [r3, #48]
  41 0020 1A6B     		ldr	r2, [r3, #48]
  42 0022 02F00202 		and	r2, r2, #2
  43 0026 0092     		str	r2, [sp]
  44 0028 009A     		ldr	r2, [sp]
  45 002a 0194     		str	r4, [sp, #4]
  46 002c 1A6B     		ldr	r2, [r3, #48]
  47 002e 42F04002 		orr	r2, r2, #64
  48 0032 1A63     		str	r2, [r3, #48]
  49 0034 1A6B     		ldr	r2, [r3, #48]
  50 0036 02F04002 		and	r2, r2, #64
  51 003a 0192     		str	r2, [sp, #4]
  52 003c 019A     		ldr	r2, [sp, #4]
  53 003e 0294     		str	r4, [sp, #8]
  54 0040 1A6B     		ldr	r2, [r3, #48]
  55 0042 42F00102 		orr	r2, r2, #1
  56 0046 1A63     		str	r2, [r3, #48]
  57 0048 1A6B     		ldr	r2, [r3, #48]
  58 004a 02F00102 		and	r2, r2, #1
ARM GAS  C:\Users\Administrator\AppData\Local\Temp\ccXIQjX3.s 			page 2


  59 004e 0292     		str	r2, [sp, #8]
  60 0050 029A     		ldr	r2, [sp, #8]
  61 0052 0394     		str	r4, [sp, #12]
  62 0054 1A6B     		ldr	r2, [r3, #48]
  63 0056 42F00802 		orr	r2, r2, #8
  64 005a 1A63     		str	r2, [r3, #48]
  65 005c 1A6B     		ldr	r2, [r3, #48]
  66 005e 02F00802 		and	r2, r2, #8
  67 0062 0392     		str	r2, [sp, #12]
  68 0064 039A     		ldr	r2, [sp, #12]
  69 0066 0494     		str	r4, [sp, #16]
  70 0068 1A6B     		ldr	r2, [r3, #48]
  71 006a 42F00402 		orr	r2, r2, #4
  72 006e 1A63     		str	r2, [r3, #48]
  73 0070 1A6B     		ldr	r2, [r3, #48]
  74 0072 02F00402 		and	r2, r2, #4
  75 0076 0492     		str	r2, [sp, #16]
  76 0078 049A     		ldr	r2, [sp, #16]
  77 007a 0594     		str	r4, [sp, #20]
  78 007c 1A6B     		ldr	r2, [r3, #48]
  79 007e 42F48072 		orr	r2, r2, #256
  80 0082 1A63     		str	r2, [r3, #48]
  81 0084 1A6B     		ldr	r2, [r3, #48]
  82 0086 02F48072 		and	r2, r2, #256
  83 008a 0592     		str	r2, [sp, #20]
  84 008c 059A     		ldr	r2, [sp, #20]
  85 008e 0694     		str	r4, [sp, #24]
  86 0090 1A6B     		ldr	r2, [r3, #48]
  87 0092 42F02002 		orr	r2, r2, #32
  88 0096 1A63     		str	r2, [r3, #48]
  89 0098 1A6B     		ldr	r2, [r3, #48]
  90 009a 02F02002 		and	r2, r2, #32
  91 009e 0692     		str	r2, [sp, #24]
  92 00a0 069A     		ldr	r2, [sp, #24]
  93 00a2 0794     		str	r4, [sp, #28]
  94 00a4 1A6B     		ldr	r2, [r3, #48]
  95 00a6 42F08002 		orr	r2, r2, #128
  96 00aa 1A63     		str	r2, [r3, #48]
  97 00ac 1A6B     		ldr	r2, [r3, #48]
  98 00ae 02F08002 		and	r2, r2, #128
  99 00b2 0792     		str	r2, [sp, #28]
 100 00b4 079A     		ldr	r2, [sp, #28]
 101 00b6 0894     		str	r4, [sp, #32]
 102 00b8 1A6B     		ldr	r2, [r3, #48]
 103 00ba 42F01002 		orr	r2, r2, #16
 104 00be 1A63     		str	r2, [r3, #48]
 105 00c0 1B6B     		ldr	r3, [r3, #48]
 106 00c2 03F01003 		and	r3, r3, #16
 107 00c6 0893     		str	r3, [sp, #32]
 108 00c8 089B     		ldr	r3, [sp, #32]
 109 00ca DFF8DC80 		ldr	r8, .L3+12
 110 00ce 2246     		mov	r2, r4
 111 00d0 4021     		movs	r1, #64
 112 00d2 4046     		mov	r0, r8
 113 00d4 FFF7FEFF 		bl	HAL_GPIO_WritePin
 114 00d8 314F     		ldr	r7, .L3+4
 115 00da 0122     		movs	r2, #1
ARM GAS  C:\Users\Administrator\AppData\Local\Temp\ccXIQjX3.s 			page 3


 116 00dc 1021     		movs	r1, #16
 117 00de 3846     		mov	r0, r7
 118 00e0 FFF7FEFF 		bl	HAL_GPIO_WritePin
 119 00e4 DFF8C490 		ldr	r9, .L3+16
 120 00e8 0122     		movs	r2, #1
 121 00ea 1146     		mov	r1, r2
 122 00ec 4846     		mov	r0, r9
 123 00ee FFF7FEFF 		bl	HAL_GPIO_WritePin
 124 00f2 4023     		movs	r3, #64
 125 00f4 0993     		str	r3, [sp, #36]
 126 00f6 0126     		movs	r6, #1
 127 00f8 0A96     		str	r6, [sp, #40]
 128 00fa 0B94     		str	r4, [sp, #44]
 129 00fc 0C94     		str	r4, [sp, #48]
 130 00fe 2946     		mov	r1, r5
 131 0100 4046     		mov	r0, r8
 132 0102 FFF7FEFF 		bl	HAL_GPIO_Init
 133 0106 0823     		movs	r3, #8
 134 0108 0993     		str	r3, [sp, #36]
 135 010a 4FF4041A 		mov	r10, #2162688
 136 010e CDF828A0 		str	r10, [sp, #40]
 137 0112 0B96     		str	r6, [sp, #44]
 138 0114 2946     		mov	r1, r5
 139 0116 4046     		mov	r0, r8
 140 0118 FFF7FEFF 		bl	HAL_GPIO_Init
 141 011c 0996     		str	r6, [sp, #36]
 142 011e 0A94     		str	r4, [sp, #40]
 143 0120 0B96     		str	r6, [sp, #44]
 144 0122 2946     		mov	r1, r5
 145 0124 3846     		mov	r0, r7
 146 0126 FFF7FEFF 		bl	HAL_GPIO_Init
 147 012a 1023     		movs	r3, #16
 148 012c 0993     		str	r3, [sp, #36]
 149 012e 0A96     		str	r6, [sp, #40]
 150 0130 0B96     		str	r6, [sp, #44]
 151 0132 4FF00208 		mov	r8, #2
 152 0136 CDF83080 		str	r8, [sp, #48]
 153 013a 2946     		mov	r1, r5
 154 013c 3846     		mov	r0, r7
 155 013e FFF7FEFF 		bl	HAL_GPIO_Init
 156 0142 3023     		movs	r3, #48
 157 0144 0993     		str	r3, [sp, #36]
 158 0146 CDF828A0 		str	r10, [sp, #40]
 159 014a 0B94     		str	r4, [sp, #44]
 160 014c 2946     		mov	r1, r5
 161 014e 1548     		ldr	r0, .L3+8
 162 0150 FFF7FEFF 		bl	HAL_GPIO_Init
 163 0154 0996     		str	r6, [sp, #36]
 164 0156 0A96     		str	r6, [sp, #40]
 165 0158 0B96     		str	r6, [sp, #44]
 166 015a CDF83080 		str	r8, [sp, #48]
 167 015e 2946     		mov	r1, r5
 168 0160 4846     		mov	r0, r9
 169 0162 FFF7FEFF 		bl	HAL_GPIO_Init
 170 0166 2246     		mov	r2, r4
 171 0168 0521     		movs	r1, #5
 172 016a 0920     		movs	r0, #9
ARM GAS  C:\Users\Administrator\AppData\Local\Temp\ccXIQjX3.s 			page 4


 173 016c FFF7FEFF 		bl	HAL_NVIC_SetPriority
 174 0170 0920     		movs	r0, #9
 175 0172 FFF7FEFF 		bl	HAL_NVIC_EnableIRQ
 176 0176 2246     		mov	r2, r4
 177 0178 0521     		movs	r1, #5
 178 017a 0A20     		movs	r0, #10
 179 017c FFF7FEFF 		bl	HAL_NVIC_SetPriority
 180 0180 0A20     		movs	r0, #10
 181 0182 FFF7FEFF 		bl	HAL_NVIC_EnableIRQ
 182 0186 2246     		mov	r2, r4
 183 0188 0521     		movs	r1, #5
 184 018a 1720     		movs	r0, #23
 185 018c FFF7FEFF 		bl	HAL_NVIC_SetPriority
 186 0190 1720     		movs	r0, #23
 187 0192 FFF7FEFF 		bl	HAL_NVIC_EnableIRQ
 188 0196 0EB0     		add	sp, sp, #56
 189              		@ sp needed
 190 0198 BDE8F087 		pop	{r4, r5, r6, r7, r8, r9, r10, pc}
 191              	.L4:
 192              		.align	2
 193              	.L3:
 194 019c 00380240 		.word	1073887232
 195 01a0 00000240 		.word	1073872896
 196 01a4 00080240 		.word	1073874944
 197 01a8 00180240 		.word	1073879040
 198 01ac 00040240 		.word	1073873920
 200              		.ident	"GCC: (xPack GNU Arm Embedded GCC x86_64) 15.2.1 20251203"
ARM GAS  C:\Users\Administrator\AppData\Local\Temp\ccXIQjX3.s 			page 5


DEFINED SYMBOLS
                            *ABS*:00000000 gpio.c
C:\Users\Administrator\AppData\Local\Temp\ccXIQjX3.s:18     .text.MX_GPIO_Init:00000000 $t
C:\Users\Administrator\AppData\Local\Temp\ccXIQjX3.s:24     .text.MX_GPIO_Init:00000000 MX_GPIO_Init
C:\Users\Administrator\AppData\Local\Temp\ccXIQjX3.s:194    .text.MX_GPIO_Init:0000019c $d

UNDEFINED SYMBOLS
HAL_GPIO_WritePin
HAL_GPIO_Init
HAL_NVIC_SetPriority
HAL_NVIC_EnableIRQ
