ARM GAS  C:\Users\Administrator\AppData\Local\Temp\ccrAtQVe.s 			page 1


   1              		.cpu cortex-m4
   2              		.arch armv7e-m
   3              		.fpu fpv4-sp-d16
   4              		.eabi_attribute 27, 1
   5              		.eabi_attribute 28, 1
   6              		.eabi_attribute 20, 1
   7              		.eabi_attribute 21, 1
   8              		.eabi_attribute 23, 3
   9              		.eabi_attribute 24, 1
  10              		.eabi_attribute 25, 1
  11              		.eabi_attribute 26, 1
  12              		.eabi_attribute 30, 1
  13              		.eabi_attribute 34, 1
  14              		.eabi_attribute 18, 4
  15              		.file	"i2c.c"
  16              		.text
  17              		.section	.text.MX_I2C2_Init,"ax",%progbits
  18              		.align	1
  19              		.global	MX_I2C2_Init
  20              		.syntax unified
  21              		.thumb
  22              		.thumb_func
  24              	MX_I2C2_Init:
  25              		@ args = 0, pretend = 0, frame = 0
  26              		@ frame_needed = 0, uses_anonymous_args = 0
  27 0000 08B5     		push	{r3, lr}
  28 0002 0B48     		ldr	r0, .L5
  29 0004 0B4B     		ldr	r3, .L5+4
  30 0006 0360     		str	r3, [r0]
  31 0008 0B4B     		ldr	r3, .L5+8
  32 000a 4360     		str	r3, [r0, #4]
  33 000c 0023     		movs	r3, #0
  34 000e 8360     		str	r3, [r0, #8]
  35 0010 C360     		str	r3, [r0, #12]
  36 0012 4FF48042 		mov	r2, #16384
  37 0016 0261     		str	r2, [r0, #16]
  38 0018 4361     		str	r3, [r0, #20]
  39 001a 8361     		str	r3, [r0, #24]
  40 001c C361     		str	r3, [r0, #28]
  41 001e 0362     		str	r3, [r0, #32]
  42 0020 FFF7FEFF 		bl	HAL_I2C_Init
  43 0024 00B9     		cbnz	r0, .L4
  44              	.L1:
  45 0026 08BD     		pop	{r3, pc}
  46              	.L4:
  47 0028 FFF7FEFF 		bl	Error_Handler
  48 002c FBE7     		b	.L1
  49              	.L6:
  50 002e 00BF     		.align	2
  51              	.L5:
  52 0030 00000000 		.word	hi2c2
  53 0034 00580040 		.word	1073764352
  54 0038 801A0600 		.word	400000
  56              		.section	.text.MX_I2C3_Init,"ax",%progbits
  57              		.align	1
  58              		.global	MX_I2C3_Init
  59              		.syntax unified
ARM GAS  C:\Users\Administrator\AppData\Local\Temp\ccrAtQVe.s 			page 2


  60              		.thumb
  61              		.thumb_func
  63              	MX_I2C3_Init:
  64              		@ args = 0, pretend = 0, frame = 0
  65              		@ frame_needed = 0, uses_anonymous_args = 0
  66 0000 08B5     		push	{r3, lr}
  67 0002 0B48     		ldr	r0, .L11
  68 0004 0B4B     		ldr	r3, .L11+4
  69 0006 0360     		str	r3, [r0]
  70 0008 0B4B     		ldr	r3, .L11+8
  71 000a 4360     		str	r3, [r0, #4]
  72 000c 0023     		movs	r3, #0
  73 000e 8360     		str	r3, [r0, #8]
  74 0010 C360     		str	r3, [r0, #12]
  75 0012 4FF48042 		mov	r2, #16384
  76 0016 0261     		str	r2, [r0, #16]
  77 0018 4361     		str	r3, [r0, #20]
  78 001a 8361     		str	r3, [r0, #24]
  79 001c C361     		str	r3, [r0, #28]
  80 001e 0362     		str	r3, [r0, #32]
  81 0020 FFF7FEFF 		bl	HAL_I2C_Init
  82 0024 00B9     		cbnz	r0, .L10
  83              	.L7:
  84 0026 08BD     		pop	{r3, pc}
  85              	.L10:
  86 0028 FFF7FEFF 		bl	Error_Handler
  87 002c FBE7     		b	.L7
  88              	.L12:
  89 002e 00BF     		.align	2
  90              	.L11:
  91 0030 00000000 		.word	hi2c3
  92 0034 005C0040 		.word	1073765376
  93 0038 801A0600 		.word	400000
  95              		.section	.text.HAL_I2C_MspInit,"ax",%progbits
  96              		.align	1
  97              		.global	HAL_I2C_MspInit
  98              		.syntax unified
  99              		.thumb
 100              		.thumb_func
 102              	HAL_I2C_MspInit:
 103              		@ args = 0, pretend = 0, frame = 40
 104              		@ frame_needed = 0, uses_anonymous_args = 0
 105 0000 F0B5     		push	{r4, r5, r6, r7, lr}
 106 0002 8BB0     		sub	sp, sp, #44
 107 0004 0023     		movs	r3, #0
 108 0006 0593     		str	r3, [sp, #20]
 109 0008 0693     		str	r3, [sp, #24]
 110 000a 0793     		str	r3, [sp, #28]
 111 000c 0893     		str	r3, [sp, #32]
 112 000e 0993     		str	r3, [sp, #36]
 113 0010 0368     		ldr	r3, [r0]
 114 0012 5C4A     		ldr	r2, .L23
 115 0014 9342     		cmp	r3, r2
 116 0016 04D0     		beq	.L19
 117 0018 5B4A     		ldr	r2, .L23+4
 118 001a 9342     		cmp	r3, r2
 119 001c 68D0     		beq	.L20
ARM GAS  C:\Users\Administrator\AppData\Local\Temp\ccrAtQVe.s 			page 3


 120              	.L13:
 121 001e 0BB0     		add	sp, sp, #44
 122              		@ sp needed
 123 0020 F0BD     		pop	{r4, r5, r6, r7, pc}
 124              	.L19:
 125 0022 0646     		mov	r6, r0
 126 0024 0024     		movs	r4, #0
 127 0026 0094     		str	r4, [sp]
 128 0028 584D     		ldr	r5, .L23+8
 129 002a 2B6B     		ldr	r3, [r5, #48]
 130 002c 43F02003 		orr	r3, r3, #32
 131 0030 2B63     		str	r3, [r5, #48]
 132 0032 2B6B     		ldr	r3, [r5, #48]
 133 0034 03F02003 		and	r3, r3, #32
 134 0038 0093     		str	r3, [sp]
 135 003a 009B     		ldr	r3, [sp]
 136 003c 0323     		movs	r3, #3
 137 003e 0593     		str	r3, [sp, #20]
 138 0040 1222     		movs	r2, #18
 139 0042 0692     		str	r2, [sp, #24]
 140 0044 0893     		str	r3, [sp, #32]
 141 0046 0423     		movs	r3, #4
 142 0048 0993     		str	r3, [sp, #36]
 143 004a 05A9     		add	r1, sp, #20
 144 004c 5048     		ldr	r0, .L23+12
 145 004e FFF7FEFF 		bl	HAL_GPIO_Init
 146 0052 0194     		str	r4, [sp, #4]
 147 0054 2B6C     		ldr	r3, [r5, #64]
 148 0056 43F48003 		orr	r3, r3, #4194304
 149 005a 2B64     		str	r3, [r5, #64]
 150 005c 2B6C     		ldr	r3, [r5, #64]
 151 005e 03F48003 		and	r3, r3, #4194304
 152 0062 0193     		str	r3, [sp, #4]
 153 0064 019B     		ldr	r3, [sp, #4]
 154 0066 4B48     		ldr	r0, .L23+16
 155 0068 4B4B     		ldr	r3, .L23+20
 156 006a 0360     		str	r3, [r0]
 157 006c 4FF06063 		mov	r3, #234881024
 158 0070 4360     		str	r3, [r0, #4]
 159 0072 8460     		str	r4, [r0, #8]
 160 0074 C460     		str	r4, [r0, #12]
 161 0076 4FF48063 		mov	r3, #1024
 162 007a 0361     		str	r3, [r0, #16]
 163 007c 4461     		str	r4, [r0, #20]
 164 007e 8461     		str	r4, [r0, #24]
 165 0080 C461     		str	r4, [r0, #28]
 166 0082 0462     		str	r4, [r0, #32]
 167 0084 4462     		str	r4, [r0, #36]
 168 0086 FFF7FEFF 		bl	HAL_DMA_Init
 169 008a 58BB     		cbnz	r0, .L21
 170              	.L15:
 171 008c 414B     		ldr	r3, .L23+16
 172 008e B363     		str	r3, [r6, #56]
 173 0090 9E63     		str	r6, [r3, #56]
 174 0092 4248     		ldr	r0, .L23+24
 175 0094 424B     		ldr	r3, .L23+28
 176 0096 0360     		str	r3, [r0]
ARM GAS  C:\Users\Administrator\AppData\Local\Temp\ccrAtQVe.s 			page 4


 177 0098 4FF06063 		mov	r3, #234881024
 178 009c 4360     		str	r3, [r0, #4]
 179 009e 4023     		movs	r3, #64
 180 00a0 8360     		str	r3, [r0, #8]
 181 00a2 0023     		movs	r3, #0
 182 00a4 C360     		str	r3, [r0, #12]
 183 00a6 4FF48062 		mov	r2, #1024
 184 00aa 0261     		str	r2, [r0, #16]
 185 00ac 4361     		str	r3, [r0, #20]
 186 00ae 8361     		str	r3, [r0, #24]
 187 00b0 C361     		str	r3, [r0, #28]
 188 00b2 0362     		str	r3, [r0, #32]
 189 00b4 4362     		str	r3, [r0, #36]
 190 00b6 FFF7FEFF 		bl	HAL_DMA_Init
 191 00ba B0B9     		cbnz	r0, .L22
 192              	.L16:
 193 00bc 374B     		ldr	r3, .L23+24
 194 00be 7363     		str	r3, [r6, #52]
 195 00c0 9E63     		str	r6, [r3, #56]
 196 00c2 0022     		movs	r2, #0
 197 00c4 0521     		movs	r1, #5
 198 00c6 2120     		movs	r0, #33
 199 00c8 FFF7FEFF 		bl	HAL_NVIC_SetPriority
 200 00cc 2120     		movs	r0, #33
 201 00ce FFF7FEFF 		bl	HAL_NVIC_EnableIRQ
 202 00d2 0022     		movs	r2, #0
 203 00d4 0521     		movs	r1, #5
 204 00d6 2220     		movs	r0, #34
 205 00d8 FFF7FEFF 		bl	HAL_NVIC_SetPriority
 206 00dc 2220     		movs	r0, #34
 207 00de FFF7FEFF 		bl	HAL_NVIC_EnableIRQ
 208 00e2 9CE7     		b	.L13
 209              	.L21:
 210 00e4 FFF7FEFF 		bl	Error_Handler
 211 00e8 D0E7     		b	.L15
 212              	.L22:
 213 00ea FFF7FEFF 		bl	Error_Handler
 214 00ee E5E7     		b	.L16
 215              	.L20:
 216 00f0 0025     		movs	r5, #0
 217 00f2 0295     		str	r5, [sp, #8]
 218 00f4 254C     		ldr	r4, .L23+8
 219 00f6 236B     		ldr	r3, [r4, #48]
 220 00f8 43F00403 		orr	r3, r3, #4
 221 00fc 2363     		str	r3, [r4, #48]
 222 00fe 236B     		ldr	r3, [r4, #48]
 223 0100 03F00403 		and	r3, r3, #4
 224 0104 0293     		str	r3, [sp, #8]
 225 0106 029B     		ldr	r3, [sp, #8]
 226 0108 0395     		str	r5, [sp, #12]
 227 010a 236B     		ldr	r3, [r4, #48]
 228 010c 43F00103 		orr	r3, r3, #1
 229 0110 2363     		str	r3, [r4, #48]
 230 0112 236B     		ldr	r3, [r4, #48]
 231 0114 03F00103 		and	r3, r3, #1
 232 0118 0393     		str	r3, [sp, #12]
 233 011a 039B     		ldr	r3, [sp, #12]
ARM GAS  C:\Users\Administrator\AppData\Local\Temp\ccrAtQVe.s 			page 5


 234 011c 4FF40073 		mov	r3, #512
 235 0120 0593     		str	r3, [sp, #20]
 236 0122 1226     		movs	r6, #18
 237 0124 0696     		str	r6, [sp, #24]
 238 0126 0327     		movs	r7, #3
 239 0128 0897     		str	r7, [sp, #32]
 240 012a 0423     		movs	r3, #4
 241 012c 0993     		str	r3, [sp, #36]
 242 012e 05A9     		add	r1, sp, #20
 243 0130 1C48     		ldr	r0, .L23+32
 244 0132 FFF7FEFF 		bl	HAL_GPIO_Init
 245 0136 4FF48073 		mov	r3, #256
 246 013a 0593     		str	r3, [sp, #20]
 247 013c 0696     		str	r6, [sp, #24]
 248 013e 0795     		str	r5, [sp, #28]
 249 0140 0897     		str	r7, [sp, #32]
 250 0142 0423     		movs	r3, #4
 251 0144 0993     		str	r3, [sp, #36]
 252 0146 05A9     		add	r1, sp, #20
 253 0148 1748     		ldr	r0, .L23+36
 254 014a FFF7FEFF 		bl	HAL_GPIO_Init
 255 014e 0495     		str	r5, [sp, #16]
 256 0150 236C     		ldr	r3, [r4, #64]
 257 0152 43F40003 		orr	r3, r3, #8388608
 258 0156 2364     		str	r3, [r4, #64]
 259 0158 236C     		ldr	r3, [r4, #64]
 260 015a 03F40003 		and	r3, r3, #8388608
 261 015e 0493     		str	r3, [sp, #16]
 262 0160 049B     		ldr	r3, [sp, #16]
 263 0162 2A46     		mov	r2, r5
 264 0164 0521     		movs	r1, #5
 265 0166 4820     		movs	r0, #72
 266 0168 FFF7FEFF 		bl	HAL_NVIC_SetPriority
 267 016c 4820     		movs	r0, #72
 268 016e FFF7FEFF 		bl	HAL_NVIC_EnableIRQ
 269 0172 2A46     		mov	r2, r5
 270 0174 0521     		movs	r1, #5
 271 0176 4920     		movs	r0, #73
 272 0178 FFF7FEFF 		bl	HAL_NVIC_SetPriority
 273 017c 4920     		movs	r0, #73
 274 017e FFF7FEFF 		bl	HAL_NVIC_EnableIRQ
 275 0182 4CE7     		b	.L13
 276              	.L24:
 277              		.align	2
 278              	.L23:
 279 0184 00580040 		.word	1073764352
 280 0188 005C0040 		.word	1073765376
 281 018c 00380240 		.word	1073887232
 282 0190 00140240 		.word	1073878016
 283 0194 00000000 		.word	hdma_i2c2_rx
 284 0198 40600240 		.word	1073897536
 285 019c 00000000 		.word	hdma_i2c2_tx
 286 01a0 B8600240 		.word	1073897656
 287 01a4 00080240 		.word	1073874944
 288 01a8 00000240 		.word	1073872896
 290              		.section	.text.HAL_I2C_MspDeInit,"ax",%progbits
 291              		.align	1
ARM GAS  C:\Users\Administrator\AppData\Local\Temp\ccrAtQVe.s 			page 6


 292              		.global	HAL_I2C_MspDeInit
 293              		.syntax unified
 294              		.thumb
 295              		.thumb_func
 297              	HAL_I2C_MspDeInit:
 298              		@ args = 0, pretend = 0, frame = 0
 299              		@ frame_needed = 0, uses_anonymous_args = 0
 300 0000 10B5     		push	{r4, lr}
 301 0002 0368     		ldr	r3, [r0]
 302 0004 1C4A     		ldr	r2, .L31
 303 0006 9342     		cmp	r3, r2
 304 0008 03D0     		beq	.L29
 305 000a 1C4A     		ldr	r2, .L31+4
 306 000c 9342     		cmp	r3, r2
 307 000e 1CD0     		beq	.L30
 308              	.L25:
 309 0010 10BD     		pop	{r4, pc}
 310              	.L29:
 311 0012 0446     		mov	r4, r0
 312 0014 02F5F032 		add	r2, r2, #122880
 313 0018 136C     		ldr	r3, [r2, #64]
 314 001a 23F48003 		bic	r3, r3, #4194304
 315 001e 1364     		str	r3, [r2, #64]
 316 0020 0121     		movs	r1, #1
 317 0022 1748     		ldr	r0, .L31+8
 318 0024 FFF7FEFF 		bl	HAL_GPIO_DeInit
 319 0028 0221     		movs	r1, #2
 320 002a 1548     		ldr	r0, .L31+8
 321 002c FFF7FEFF 		bl	HAL_GPIO_DeInit
 322 0030 A06B     		ldr	r0, [r4, #56]
 323 0032 FFF7FEFF 		bl	HAL_DMA_DeInit
 324 0036 606B     		ldr	r0, [r4, #52]
 325 0038 FFF7FEFF 		bl	HAL_DMA_DeInit
 326 003c 2120     		movs	r0, #33
 327 003e FFF7FEFF 		bl	HAL_NVIC_DisableIRQ
 328 0042 2220     		movs	r0, #34
 329 0044 FFF7FEFF 		bl	HAL_NVIC_DisableIRQ
 330 0048 E2E7     		b	.L25
 331              	.L30:
 332 004a 02F5EE32 		add	r2, r2, #121856
 333 004e 136C     		ldr	r3, [r2, #64]
 334 0050 23F40003 		bic	r3, r3, #8388608
 335 0054 1364     		str	r3, [r2, #64]
 336 0056 4FF40071 		mov	r1, #512
 337 005a 0A48     		ldr	r0, .L31+12
 338 005c FFF7FEFF 		bl	HAL_GPIO_DeInit
 339 0060 4FF48071 		mov	r1, #256
 340 0064 0848     		ldr	r0, .L31+16
 341 0066 FFF7FEFF 		bl	HAL_GPIO_DeInit
 342 006a 4820     		movs	r0, #72
 343 006c FFF7FEFF 		bl	HAL_NVIC_DisableIRQ
 344 0070 4920     		movs	r0, #73
 345 0072 FFF7FEFF 		bl	HAL_NVIC_DisableIRQ
 346 0076 CBE7     		b	.L25
 347              	.L32:
 348              		.align	2
 349              	.L31:
ARM GAS  C:\Users\Administrator\AppData\Local\Temp\ccrAtQVe.s 			page 7


 350 0078 00580040 		.word	1073764352
 351 007c 005C0040 		.word	1073765376
 352 0080 00140240 		.word	1073878016
 353 0084 00080240 		.word	1073874944
 354 0088 00000240 		.word	1073872896
 356              		.global	hdma_i2c2_tx
 357              		.section	.bss.hdma_i2c2_tx,"aw",%nobits
 358              		.align	2
 361              	hdma_i2c2_tx:
 362 0000 00000000 		.space	96
 362      00000000 
 362      00000000 
 362      00000000 
 362      00000000 
 363              		.global	hdma_i2c2_rx
 364              		.section	.bss.hdma_i2c2_rx,"aw",%nobits
 365              		.align	2
 368              	hdma_i2c2_rx:
 369 0000 00000000 		.space	96
 369      00000000 
 369      00000000 
 369      00000000 
 369      00000000 
 370              		.global	hi2c3
 371              		.section	.bss.hi2c3,"aw",%nobits
 372              		.align	2
 375              	hi2c3:
 376 0000 00000000 		.space	84
 376      00000000 
 376      00000000 
 376      00000000 
 376      00000000 
 377              		.global	hi2c2
 378              		.section	.bss.hi2c2,"aw",%nobits
 379              		.align	2
 382              	hi2c2:
 383 0000 00000000 		.space	84
 383      00000000 
 383      00000000 
 383      00000000 
 383      00000000 
 384              		.ident	"GCC: (xPack GNU Arm Embedded GCC x86_64) 15.2.1 20251203"
ARM GAS  C:\Users\Administrator\AppData\Local\Temp\ccrAtQVe.s 			page 8

