ARM GAS  C:\Users\Administrator\AppData\Local\Temp\ccDK9JSj.s 			page 1


   1              		.cpu cortex-m4
   2              		.arch armv7e-m
   3              		.fpu fpv4-sp-d16
   4              		.eabi_attribute 27, 1
   5              		.eabi_attribute 28, 1
   6              		.eabi_attribute 20, 1
   7              		.eabi_attribute 21, 1
   8              		.eabi_attribute 23, 3
   9              		.eabi_attribute 24, 1
  10              		.eabi_attribute 25, 1
  11              		.eabi_attribute 26, 1
  12              		.eabi_attribute 30, 1
  13              		.eabi_attribute 34, 1
  14              		.eabi_attribute 18, 4
  15              		.file	"infantry_config.c"
  16              		.text
  17              		.section	.text.InfantryConfigInit,"ax",%progbits
  18              		.align	1
  19              		.global	InfantryConfigInit
  20              		.syntax unified
  21              		.thumb
  22              		.thumb_func
  24              	InfantryConfigInit:
  25              		@ args = 0, pretend = 0, frame = 0
  26              		@ frame_needed = 0, uses_anonymous_args = 0
  27              		@ link register save eliminated.
  28 0000 0328     		cmp	r0, #3
  29 0002 02D0     		beq	.L3
  30 0004 0428     		cmp	r0, #4
  31 0006 02D0     		beq	.L4
  32 0008 7047     		bx	lr
  33              	.L3:
  34 000a 0248     		ldr	r0, .L5
  35 000c 7047     		bx	lr
  36              	.L4:
  37 000e 0248     		ldr	r0, .L5+4
  38 0010 7047     		bx	lr
  39              	.L6:
  40 0012 00BF     		.align	2
  41              	.L5:
  42 0014 00000000 		.word	infantry_config_3.1
  43 0018 00000000 		.word	infantry_config_5.0
  45              		.section	.rodata.InfantryStaticUI.str1.4,"aMS",%progbits,1
  46              		.align	2
  47              	.LC0:
  48 0000 736C3000 		.ascii	"sl0\000"
  49              		.align	2
  50              	.LC1:
  51 0004 736C3100 		.ascii	"sl1\000"
  52              		.align	2
  53              	.LC2:
  54 0008 736C3200 		.ascii	"sl2\000"
  55              		.align	2
  56              	.LC3:
  57 000c 736C3300 		.ascii	"sl3\000"
  58              		.align	2
  59              	.LC4:
ARM GAS  C:\Users\Administrator\AppData\Local\Temp\ccDK9JSj.s 			page 2


  60 0010 736C3400 		.ascii	"sl4\000"
  61              		.align	2
  62              	.LC5:
  63 0014 736C3500 		.ascii	"sl5\000"
  64              		.align	2
  65              	.LC6:
  66 0018 736F3100 		.ascii	"so1\000"
  67              		.align	2
  68              	.LC7:
  69 001c 736F3200 		.ascii	"so2\000"
  70              		.align	2
  71              	.LC8:
  72 0020 736F3300 		.ascii	"so3\000"
  73              		.align	2
  74              	.LC9:
  75 0024 736F3400 		.ascii	"so4\000"
  76              		.align	2
  77              	.LC10:
  78 0028 736F3500 		.ascii	"so5\000"
  79              		.align	2
  80              	.LC11:
  81 002c 736F3600 		.ascii	"so6\000"
  82              		.align	2
  83              	.LC12:
  84 0030 73733000 		.ascii	"ss0\000"
  85              		.align	2
  86              	.LC13:
  87 0034 73733100 		.ascii	"ss1\000"
  88              		.align	2
  89              	.LC14:
  90 0038 73733200 		.ascii	"ss2\000"
  91              		.align	2
  92              	.LC15:
  93 003c 73733300 		.ascii	"ss3\000"
  94              		.align	2
  95              	.LC16:
  96 0040 736A3100 		.ascii	"sj1\000"
  97              		.align	2
  98              	.LC17:
  99 0044 736A3200 		.ascii	"sj2\000"
 100              		.align	2
 101              	.LC18:
 102 0048 736A3300 		.ascii	"sj3\000"
 103              		.align	2
 104              	.LC19:
 105 004c 736C3600 		.ascii	"sl6\000"
 106              		.align	2
 107              	.LC20:
 108 0050 736C3700 		.ascii	"sl7\000"
 109              		.section	.text.InfantryStaticUI,"ax",%progbits
 110              		.align	1
 111              		.global	InfantryStaticUI
 112              		.syntax unified
 113              		.thumb
 114              		.thumb_func
 116              	InfantryStaticUI:
 117              		@ args = 0, pretend = 0, frame = 8
ARM GAS  C:\Users\Administrator\AppData\Local\Temp\ccDK9JSj.s 			page 3


 118              		@ frame_needed = 0, uses_anonymous_args = 0
 119 0000 2DE9F04F 		push	{r4, r5, r6, r7, r8, r9, r10, fp, lr}
 120 0004 95B0     		sub	sp, sp, #84
 121 0006 1390     		str	r0, [sp, #76]
 122 0008 CF4C     		ldr	r4, .L9
 123 000a 4FF4E673 		mov	r3, #460
 124 000e 0593     		str	r3, [sp, #20]
 125 0010 4FF45C72 		mov	r2, #880
 126 0014 0492     		str	r2, [sp, #16]
 127 0016 0393     		str	r3, [sp, #12]
 128 0018 40F20543 		movw	r3, #1029
 129 001c 0293     		str	r3, [sp, #8]
 130 001e 0223     		movs	r3, #2
 131 0020 0193     		str	r3, [sp, #4]
 132 0022 0625     		movs	r5, #6
 133 0024 0095     		str	r5, [sp]
 134 0026 0723     		movs	r3, #7
 135 0028 0122     		movs	r2, #1
 136 002a C849     		ldr	r1, .L9+4
 137 002c 2046     		mov	r0, r4
 138 002e FFF7FEFF 		bl	UILineDraw
 139 0032 04F10F06 		add	r6, r4, #15
 140 0036 4FF4BE73 		mov	r3, #380
 141 003a 0593     		str	r3, [sp, #20]
 142 003c 4FF49162 		mov	r2, #1160
 143 0040 0492     		str	r2, [sp, #16]
 144 0042 0393     		str	r3, [sp, #12]
 145 0044 40F2EE23 		movw	r3, #750
 146 0048 0293     		str	r3, [sp, #8]
 147 004a 0323     		movs	r3, #3
 148 004c 0193     		str	r3, [sp, #4]
 149 004e 0095     		str	r5, [sp]
 150 0050 0723     		movs	r3, #7
 151 0052 0122     		movs	r2, #1
 152 0054 BE49     		ldr	r1, .L9+8
 153 0056 3046     		mov	r0, r6
 154 0058 FFF7FEFF 		bl	UILineDraw
 155 005c 04F11E07 		add	r7, r4, #30
 156 0060 4FF4967A 		mov	r10, #300
 157 0064 CDF814A0 		str	r10, [sp, #20]
 158 0068 40F2FA43 		movw	r3, #1274
 159 006c 0493     		str	r3, [sp, #16]
 160 006e CDF80CA0 		str	r10, [sp, #12]
 161 0072 40F28523 		movw	r3, #645
 162 0076 0293     		str	r3, [sp, #8]
 163 0078 4FF0040B 		mov	fp, #4
 164 007c CDF804B0 		str	fp, [sp, #4]
 165 0080 0095     		str	r5, [sp]
 166 0082 0723     		movs	r3, #7
 167 0084 0122     		movs	r2, #1
 168 0086 B349     		ldr	r1, .L9+12
 169 0088 3846     		mov	r0, r7
 170 008a FFF7FEFF 		bl	UILineDraw
 171 008e 04F12D08 		add	r8, r4, #45
 172 0092 40F21A22 		movw	r2, #538
 173 0096 0592     		str	r2, [sp, #20]
 174 0098 4FF46673 		mov	r3, #920
ARM GAS  C:\Users\Administrator\AppData\Local\Temp\ccDK9JSj.s 			page 4


 175 009c 0493     		str	r3, [sp, #16]
 176 009e 0392     		str	r2, [sp, #12]
 177 00a0 4FF41673 		mov	r3, #600
 178 00a4 0293     		str	r3, [sp, #8]
 179 00a6 CDF804B0 		str	fp, [sp, #4]
 180 00aa 0095     		str	r5, [sp]
 181 00ac 0723     		movs	r3, #7
 182 00ae 0122     		movs	r2, #1
 183 00b0 A949     		ldr	r1, .L9+16
 184 00b2 4046     		mov	r0, r8
 185 00b4 FFF7FEFF 		bl	UILineDraw
 186 00b8 04F13C09 		add	r9, r4, #60
 187 00bc 40F21A22 		movw	r2, #538
 188 00c0 0592     		str	r2, [sp, #20]
 189 00c2 40F2C443 		movw	r3, #1220
 190 00c6 0493     		str	r3, [sp, #16]
 191 00c8 0392     		str	r2, [sp, #12]
 192 00ca 4FF47A73 		mov	r3, #1000
 193 00ce 0293     		str	r3, [sp, #8]
 194 00d0 CDF804B0 		str	fp, [sp, #4]
 195 00d4 0095     		str	r5, [sp]
 196 00d6 0723     		movs	r3, #7
 197 00d8 0122     		movs	r2, #1
 198 00da A049     		ldr	r1, .L9+20
 199 00dc 4846     		mov	r0, r9
 200 00de FFF7FEFF 		bl	UILineDraw
 201 00e2 0DF1380C 		add	ip, sp, #56
 202 00e6 99E80F00 		ldm	r9, {r0, r1, r2, r3}
 203 00ea ACE80700 		stmia	ip!, {r0, r1, r2}
 204 00ee 2CF8023B 		strh	r3, [ip], #2	@ movhi
 205 00f2 1B0C     		lsrs	r3, r3, #16
 206 00f4 8CF80030 		strb	r3, [ip]
 207 00f8 0AAB     		add	r3, sp, #40
 208 00fa D4F82D00 		ldr	r0, [r4, #45]	@ unaligned
 209 00fe D4F83110 		ldr	r1, [r4, #49]	@ unaligned
 210 0102 D4F83520 		ldr	r2, [r4, #53]	@ unaligned
 211 0106 07C3     		stmia	r3!, {r0, r1, r2}
 212 0108 B4F83910 		ldrh	r1, [r4, #57]	@ unaligned
 213 010c 94F83B20 		ldrb	r2, [r4, #59]	@ zero_extendqisi2
 214 0110 1980     		strh	r1, [r3]	@ unaligned
 215 0112 9A70     		strb	r2, [r3, #2]
 216 0114 06AB     		add	r3, sp, #24
 217 0116 D4F81E00 		ldr	r0, [r4, #30]	@ unaligned
 218 011a D4F82210 		ldr	r1, [r4, #34]	@ unaligned
 219 011e D4F82620 		ldr	r2, [r4, #38]	@ unaligned
 220 0122 07C3     		stmia	r3!, {r0, r1, r2}
 221 0124 618D     		ldrh	r1, [r4, #42]	@ unaligned
 222 0126 94F82C20 		ldrb	r2, [r4, #44]	@ zero_extendqisi2
 223 012a 1980     		strh	r1, [r3]	@ unaligned
 224 012c 9A70     		strb	r2, [r3, #2]
 225 012e 02AB     		add	r3, sp, #8
 226 0130 D4F80F00 		ldr	r0, [r4, #15]	@ unaligned
 227 0134 D4F81310 		ldr	r1, [r4, #19]	@ unaligned
 228 0138 D4F81720 		ldr	r2, [r4, #23]	@ unaligned
 229 013c 07C3     		stmia	r3!, {r0, r1, r2}
 230 013e B4F81B10 		ldrh	r1, [r4, #27]	@ unaligned
 231 0142 627F     		ldrb	r2, [r4, #29]	@ zero_extendqisi2
ARM GAS  C:\Users\Administrator\AppData\Local\Temp\ccDK9JSj.s 			page 5


 232 0144 1980     		strh	r1, [r3]	@ unaligned
 233 0146 9A70     		strb	r2, [r3, #2]
 234 0148 04F10803 		add	r3, r4, #8
 235 014c 93E80300 		ldm	r3, {r0, r1}
 236 0150 0090     		str	r0, [sp]
 237 0152 ADF80410 		strh	r1, [sp, #4]	@ movhi
 238 0156 090C     		lsrs	r1, r1, #16
 239 0158 8DF80610 		strb	r1, [sp, #6]
 240 015c 94E80C00 		ldm	r4, {r2, r3}
 241 0160 0521     		movs	r1, #5
 242 0162 DDF84C80 		ldr	r8, [sp, #76]
 243 0166 4046     		mov	r0, r8
 244 0168 FFF7FEFF 		bl	UIGraphRefresh
 245 016c 40F2F913 		movw	r3, #505
 246 0170 0593     		str	r3, [sp, #20]
 247 0172 40F2BF33 		movw	r3, #959
 248 0176 0493     		str	r3, [sp, #16]
 249 0178 CDF80CA0 		str	r10, [sp, #12]
 250 017c 0293     		str	r3, [sp, #8]
 251 017e CDF804B0 		str	fp, [sp, #4]
 252 0182 0095     		str	r5, [sp]
 253 0184 0723     		movs	r3, #7
 254 0186 0122     		movs	r2, #1
 255 0188 7549     		ldr	r1, .L9+24
 256 018a 04F14B00 		add	r0, r4, #75
 257 018e FFF7FEFF 		bl	UILineDraw
 258 0192 D4F85300 		ldr	r0, [r4, #83]	@ unaligned
 259 0196 0090     		str	r0, [sp]
 260 0198 B4F85720 		ldrh	r2, [r4, #87]	@ unaligned
 261 019c 94F85930 		ldrb	r3, [r4, #89]	@ zero_extendqisi2
 262 01a0 ADF80420 		strh	r2, [sp, #4]	@ unaligned
 263 01a4 8DF80630 		strb	r3, [sp, #6]
 264 01a8 D4F84B20 		ldr	r2, [r4, #75]	@ unaligned
 265 01ac D4F84F30 		ldr	r3, [r4, #79]	@ unaligned
 266 01b0 0121     		movs	r1, #1
 267 01b2 CDF84C80 		str	r8, [sp, #76]
 268 01b6 4046     		mov	r0, r8
 269 01b8 FFF7FEFF 		bl	UIGraphRefresh
 270 01bc 694E     		ldr	r6, .L9+28
 271 01be 40F21A22 		movw	r2, #538
 272 01c2 0592     		str	r2, [sp, #20]
 273 01c4 40F23D53 		movw	r3, #1341
 274 01c8 0493     		str	r3, [sp, #16]
 275 01ca 0392     		str	r2, [sp, #12]
 276 01cc 4FF4A563 		mov	r3, #1320
 277 01d0 0293     		str	r3, [sp, #8]
 278 01d2 0A23     		movs	r3, #10
 279 01d4 0193     		str	r3, [sp, #4]
 280 01d6 0095     		str	r5, [sp]
 281 01d8 0723     		movs	r3, #7
 282 01da 0122     		movs	r2, #1
 283 01dc 6249     		ldr	r1, .L9+32
 284 01de 3046     		mov	r0, r6
 285 01e0 FFF7FEFF 		bl	UILineDraw
 286 01e4 06F10F07 		add	r7, r6, #15
 287 01e8 40F28B23 		movw	r3, #651
 288 01ec 0593     		str	r3, [sp, #20]
ARM GAS  C:\Users\Administrator\AppData\Local\Temp\ccDK9JSj.s 			page 6


 289 01ee 40F2EA43 		movw	r3, #1258
 290 01f2 0493     		str	r3, [sp, #16]
 291 01f4 40F2A723 		movw	r3, #679
 292 01f8 0393     		str	r3, [sp, #12]
 293 01fa 40F21B53 		movw	r3, #1307
 294 01fe 0293     		str	r3, [sp, #8]
 295 0200 4FF00F0A 		mov	r10, #15
 296 0204 CDF804A0 		str	r10, [sp, #4]
 297 0208 0095     		str	r5, [sp]
 298 020a 0723     		movs	r3, #7
 299 020c 0122     		movs	r2, #1
 300 020e 5749     		ldr	r1, .L9+36
 301 0210 3846     		mov	r0, r7
 302 0212 FFF7FEFF 		bl	UILineDraw
 303 0216 06F11E08 		add	r8, r6, #30
 304 021a 40F26523 		movw	r3, #613
 305 021e 0593     		str	r3, [sp, #20]
 306 0220 40F23153 		movw	r3, #1329
 307 0224 0493     		str	r3, [sp, #16]
 308 0226 4FF41671 		mov	r1, #600
 309 022a 0391     		str	r1, [sp, #12]
 310 022c 40F21153 		movw	r3, #1297
 311 0230 0293     		str	r3, [sp, #8]
 312 0232 0A23     		movs	r3, #10
 313 0234 0193     		str	r3, [sp, #4]
 314 0236 0095     		str	r5, [sp]
 315 0238 0723     		movs	r3, #7
 316 023a 0122     		movs	r2, #1
 317 023c 4C49     		ldr	r1, .L9+40
 318 023e 4046     		mov	r0, r8
 319 0240 FFF7FEFF 		bl	UILineDraw
 320 0244 06F12D09 		add	r9, r6, #45
 321 0248 4FF44973 		mov	r3, #804
 322 024c 0593     		str	r3, [sp, #20]
 323 024e 40F2CB43 		movw	r3, #1227
 324 0252 0493     		str	r3, [sp, #16]
 325 0254 4FF44073 		mov	r3, #768
 326 0258 0393     		str	r3, [sp, #12]
 327 025a 40F2A743 		movw	r3, #1191
 328 025e 0293     		str	r3, [sp, #8]
 329 0260 CDF804A0 		str	r10, [sp, #4]
 330 0264 0095     		str	r5, [sp]
 331 0266 0723     		movs	r3, #7
 332 0268 0122     		movs	r2, #1
 333 026a 4249     		ldr	r1, .L9+44
 334 026c 4846     		mov	r0, r9
 335 026e FFF7FEFF 		bl	UILineDraw
 336 0272 40F2E623 		movw	r3, #742
 337 0276 0593     		str	r3, [sp, #20]
 338 0278 40F20253 		movw	r3, #1282
 339 027c 0493     		str	r3, [sp, #16]
 340 027e 40F2D521 		movw	r1, #725
 341 0282 0391     		str	r1, [sp, #12]
 342 0284 40F2E643 		movw	r3, #1254
 343 0288 0293     		str	r3, [sp, #8]
 344 028a 0A23     		movs	r3, #10
 345 028c 0193     		str	r3, [sp, #4]
ARM GAS  C:\Users\Administrator\AppData\Local\Temp\ccDK9JSj.s 			page 7


 346 028e 0095     		str	r5, [sp]
 347 0290 0723     		movs	r3, #7
 348 0292 0122     		movs	r2, #1
 349 0294 3849     		ldr	r1, .L9+48
 350 0296 06F13C00 		add	r0, r6, #60
 351 029a FFF7FEFF 		bl	UILineDraw
 352 029e 0DF1380C 		add	ip, sp, #56
 353 02a2 06F13C03 		add	r3, r6, #60
 354 02a6 0FCB     		ldm	r3, {r0, r1, r2, r3}
 355 02a8 ACE80700 		stmia	ip!, {r0, r1, r2}
 356 02ac 2CF8023B 		strh	r3, [ip], #2	@ movhi
 357 02b0 1B0C     		lsrs	r3, r3, #16
 358 02b2 8CF80030 		strb	r3, [ip]
 359 02b6 0AAB     		add	r3, sp, #40
 360 02b8 D6F82D00 		ldr	r0, [r6, #45]	@ unaligned
 361 02bc D6F83110 		ldr	r1, [r6, #49]	@ unaligned
 362 02c0 D6F83520 		ldr	r2, [r6, #53]	@ unaligned
 363 02c4 07C3     		stmia	r3!, {r0, r1, r2}
 364 02c6 B6F83910 		ldrh	r1, [r6, #57]	@ unaligned
 365 02ca 96F83B20 		ldrb	r2, [r6, #59]	@ zero_extendqisi2
 366 02ce 1980     		strh	r1, [r3]	@ unaligned
 367 02d0 9A70     		strb	r2, [r3, #2]
 368 02d2 06AB     		add	r3, sp, #24
 369 02d4 D6F81E00 		ldr	r0, [r6, #30]	@ unaligned
 370 02d8 D6F82210 		ldr	r1, [r6, #34]	@ unaligned
 371 02dc D6F82620 		ldr	r2, [r6, #38]	@ unaligned
 372 02e0 07C3     		stmia	r3!, {r0, r1, r2}
 373 02e2 718D     		ldrh	r1, [r6, #42]	@ unaligned
 374 02e4 96F82C20 		ldrb	r2, [r6, #44]	@ zero_extendqisi2
 375 02e8 1980     		strh	r1, [r3]	@ unaligned
 376 02ea 9A70     		strb	r2, [r3, #2]
 377 02ec 02AB     		add	r3, sp, #8
 378 02ee D6F80F00 		ldr	r0, [r6, #15]	@ unaligned
 379 02f2 D6F81310 		ldr	r1, [r6, #19]	@ unaligned
 380 02f6 D6F81720 		ldr	r2, [r6, #23]	@ unaligned
 381 02fa 07C3     		stmia	r3!, {r0, r1, r2}
 382 02fc B6F81B10 		ldrh	r1, [r6, #27]	@ unaligned
 383 0300 727F     		ldrb	r2, [r6, #29]	@ zero_extendqisi2
 384 0302 1980     		strh	r1, [r3]	@ unaligned
 385 0304 9A70     		strb	r2, [r3, #2]
 386 0306 06F10803 		add	r3, r6, #8
 387 030a 93E80300 		ldm	r3, {r0, r1}
 388 030e 0090     		str	r0, [sp]
 389 0310 ADF80410 		strh	r1, [sp, #4]	@ movhi
 390 0314 090C     		lsrs	r1, r1, #16
 391 0316 8DF80610 		strb	r1, [sp, #6]
 392 031a 96E80C00 		ldm	r6, {r2, r3}
 393 031e 0521     		movs	r1, #5
 394 0320 DDF84C80 		ldr	r8, [sp, #76]
 395 0324 4046     		mov	r0, r8
 396 0326 FFF7FEFF 		bl	UIGraphRefresh
 397 032a 4FF4B477 		mov	r7, #360
 398 032e 0797     		str	r7, [sp, #28]
 399 0330 0697     		str	r7, [sp, #24]
 400 0332 40F21A22 		movw	r2, #538
 401 0336 0592     		str	r2, [sp, #20]
 402 0338 40F2BE33 		movw	r3, #958
ARM GAS  C:\Users\Administrator\AppData\Local\Temp\ccDK9JSj.s 			page 8


 403 033c 0493     		str	r3, [sp, #16]
 404 033e 1423     		movs	r3, #20
 405 0340 0393     		str	r3, [sp, #12]
 406 0342 5C23     		movs	r3, #92
 407 0344 1AE0     		b	.L10
 408              	.L11:
 409 0346 00BF     		.align	2
 410              	.L9:
 411 0348 00000000 		.word	UI_shoot_line
 412 034c 00000000 		.word	.LC0
 413 0350 04000000 		.word	.LC1
 414 0354 08000000 		.word	.LC2
 415 0358 0C000000 		.word	.LC3
 416 035c 10000000 		.word	.LC4
 417 0360 14000000 		.word	.LC5
 418 0364 00000000 		.word	UI_pitch_line
 419 0368 18000000 		.word	.LC6
 420 036c 1C000000 		.word	.LC7
 421 0370 20000000 		.word	.LC8
 422 0374 24000000 		.word	.LC9
 423 0378 28000000 		.word	.LC10
 424              	.L10:
 425 037c 0293     		str	r3, [sp, #8]
 426 037e 5823     		movs	r3, #88
 427 0380 0193     		str	r3, [sp, #4]
 428 0382 CDF800B0 		str	fp, [sp]
 429 0386 0523     		movs	r3, #5
 430 0388 0122     		movs	r2, #1
 431 038a BD49     		ldr	r1, .L12
 432 038c 06F14B00 		add	r0, r6, #75
 433 0390 FFF7FEFF 		bl	UIArcDraw
 434 0394 D6F85300 		ldr	r0, [r6, #83]	@ unaligned
 435 0398 0090     		str	r0, [sp]
 436 039a B6F85720 		ldrh	r2, [r6, #87]	@ unaligned
 437 039e 96F85930 		ldrb	r3, [r6, #89]	@ zero_extendqisi2
 438 03a2 ADF80420 		strh	r2, [sp, #4]	@ unaligned
 439 03a6 8DF80630 		strb	r3, [sp, #6]
 440 03aa D6F84B20 		ldr	r2, [r6, #75]	@ unaligned
 441 03ae D6F84F30 		ldr	r3, [r6, #79]	@ unaligned
 442 03b2 0521     		movs	r1, #5
 443 03b4 CDF84C80 		str	r8, [sp, #76]
 444 03b8 4046     		mov	r0, r8
 445 03ba FFF7FEFF 		bl	UIGraphRefresh
 446 03be B14E     		ldr	r6, .L12+4
 447 03c0 4FF4C879 		mov	r9, #400
 448 03c4 CDF81C90 		str	r9, [sp, #28]
 449 03c8 CDF81890 		str	r9, [sp, #24]
 450 03cc 4FF40773 		mov	r3, #540
 451 03d0 0593     		str	r3, [sp, #20]
 452 03d2 40F2B633 		movw	r3, #950
 453 03d6 0493     		str	r3, [sp, #16]
 454 03d8 0395     		str	r5, [sp, #12]
 455 03da 8723     		movs	r3, #135
 456 03dc 0293     		str	r3, [sp, #8]
 457 03de 2D23     		movs	r3, #45
 458 03e0 0193     		str	r3, [sp, #4]
 459 03e2 0095     		str	r5, [sp]
ARM GAS  C:\Users\Administrator\AppData\Local\Temp\ccDK9JSj.s 			page 9


 460 03e4 0723     		movs	r3, #7
 461 03e6 0122     		movs	r2, #1
 462 03e8 A749     		ldr	r1, .L12+8
 463 03ea 3046     		mov	r0, r6
 464 03ec FFF7FEFF 		bl	UIArcDraw
 465 03f0 06EB0A08 		add	r8, r6, r10
 466 03f4 CDF81C90 		str	r9, [sp, #28]
 467 03f8 CDF81890 		str	r9, [sp, #24]
 468 03fc 40F21223 		movw	r3, #530
 469 0400 0593     		str	r3, [sp, #20]
 470 0402 4FF47073 		mov	r3, #960
 471 0406 0493     		str	r3, [sp, #16]
 472 0408 CDF80CA0 		str	r10, [sp, #12]
 473 040c 4FF48773 		mov	r3, #270
 474 0410 0293     		str	r3, [sp, #8]
 475 0412 E123     		movs	r3, #225
 476 0414 0193     		str	r3, [sp, #4]
 477 0416 0095     		str	r5, [sp]
 478 0418 0723     		movs	r3, #7
 479 041a 0122     		movs	r2, #1
 480 041c 9B49     		ldr	r1, .L12+12
 481 041e 4046     		mov	r0, r8
 482 0420 FFF7FEFF 		bl	UIArcDraw
 483 0424 02AB     		add	r3, sp, #8
 484 0426 D6F80F00 		ldr	r0, [r6, #15]	@ unaligned
 485 042a D8F80410 		ldr	r1, [r8, #4]	@ unaligned
 486 042e D8F80820 		ldr	r2, [r8, #8]	@ unaligned
 487 0432 07C3     		stmia	r3!, {r0, r1, r2}
 488 0434 B8F80C10 		ldrh	r1, [r8, #12]	@ unaligned
 489 0438 98F80E20 		ldrb	r2, [r8, #14]	@ zero_extendqisi2
 490 043c 1980     		strh	r1, [r3]	@ unaligned
 491 043e 9A70     		strb	r2, [r3, #2]
 492 0440 06F10803 		add	r3, r6, #8
 493 0444 93E80300 		ldm	r3, {r0, r1}
 494 0448 0090     		str	r0, [sp]
 495 044a ADF80410 		strh	r1, [sp, #4]	@ movhi
 496 044e 090C     		lsrs	r1, r1, #16
 497 0450 8DF80610 		strb	r1, [sp, #6]
 498 0454 96E80C00 		ldm	r6, {r2, r3}
 499 0458 0221     		movs	r1, #2
 500 045a 1398     		ldr	r0, [sp, #76]
 501 045c FFF7FEFF 		bl	UIGraphRefresh
 502 0460 4FF06408 		mov	r8, #100
 503 0464 CDF81C80 		str	r8, [sp, #28]
 504 0468 CDF81880 		str	r8, [sp, #24]
 505 046c 40F2D521 		movw	r1, #725
 506 0470 0591     		str	r1, [sp, #20]
 507 0472 40F2F459 		movw	r9, #1524
 508 0476 CDF81090 		str	r9, [sp, #16]
 509 047a CDF80CA0 		str	r10, [sp, #12]
 510 047e 0297     		str	r7, [sp, #8]
 511 0480 0027     		movs	r7, #0
 512 0482 0197     		str	r7, [sp, #4]
 513 0484 0095     		str	r5, [sp]
 514 0486 0723     		movs	r3, #7
 515 0488 0122     		movs	r2, #1
 516 048a 8149     		ldr	r1, .L12+16
ARM GAS  C:\Users\Administrator\AppData\Local\Temp\ccDK9JSj.s 			page 10


 517 048c 06F11E00 		add	r0, r6, #30
 518 0490 FFF7FEFF 		bl	UIArcDraw
 519 0494 D6F82600 		ldr	r0, [r6, #38]	@ unaligned
 520 0498 0090     		str	r0, [sp]
 521 049a 728D     		ldrh	r2, [r6, #42]	@ unaligned
 522 049c 96F82C30 		ldrb	r3, [r6, #44]	@ zero_extendqisi2
 523 04a0 ADF80420 		strh	r2, [sp, #4]	@ unaligned
 524 04a4 8DF80630 		strb	r3, [sp, #6]
 525 04a8 D6F81E20 		ldr	r2, [r6, #30]	@ unaligned
 526 04ac D6F82230 		ldr	r3, [r6, #34]	@ unaligned
 527 04b0 0121     		movs	r1, #1
 528 04b2 1398     		ldr	r0, [sp, #76]
 529 04b4 FFF7FEFF 		bl	UIGraphRefresh
 530 04b8 CDF81C80 		str	r8, [sp, #28]
 531 04bc CDF81880 		str	r8, [sp, #24]
 532 04c0 40F2D521 		movw	r1, #725
 533 04c4 0591     		str	r1, [sp, #20]
 534 04c6 CDF81090 		str	r9, [sp, #16]
 535 04ca CDF80CA0 		str	r10, [sp, #12]
 536 04ce 0297     		str	r7, [sp, #8]
 537 04d0 0197     		str	r7, [sp, #4]
 538 04d2 0095     		str	r5, [sp]
 539 04d4 0723     		movs	r3, #7
 540 04d6 0122     		movs	r2, #1
 541 04d8 6E49     		ldr	r1, .L12+20
 542 04da 06F12D00 		add	r0, r6, #45
 543 04de FFF7FEFF 		bl	UIArcDraw
 544 04e2 D6F83500 		ldr	r0, [r6, #53]	@ unaligned
 545 04e6 0090     		str	r0, [sp]
 546 04e8 B6F83920 		ldrh	r2, [r6, #57]	@ unaligned
 547 04ec 96F83B30 		ldrb	r3, [r6, #59]	@ zero_extendqisi2
 548 04f0 ADF80420 		strh	r2, [sp, #4]	@ unaligned
 549 04f4 8DF80630 		strb	r3, [sp, #6]
 550 04f8 D6F82D20 		ldr	r2, [r6, #45]	@ unaligned
 551 04fc D6F83130 		ldr	r3, [r6, #49]	@ unaligned
 552 0500 0121     		movs	r1, #1
 553 0502 1398     		ldr	r0, [sp, #76]
 554 0504 FFF7FEFF 		bl	UIGraphRefresh
 555 0508 634E     		ldr	r6, .L12+24
 556 050a 40F25A33 		movw	r3, #858
 557 050e 0593     		str	r3, [sp, #20]
 558 0510 8823     		movs	r3, #136
 559 0512 0493     		str	r3, [sp, #16]
 560 0514 40F24233 		movw	r3, #834
 561 0518 0393     		str	r3, [sp, #12]
 562 051a 2E23     		movs	r3, #46
 563 051c 0293     		str	r3, [sp, #8]
 564 051e CDF804B0 		str	fp, [sp, #4]
 565 0522 0095     		str	r5, [sp]
 566 0524 0723     		movs	r3, #7
 567 0526 0122     		movs	r2, #1
 568 0528 5C49     		ldr	r1, .L12+28
 569 052a 3046     		mov	r0, r6
 570 052c FFF7FEFF 		bl	UIRectangleDraw
 571 0530 06EB0A07 		add	r7, r6, r10
 572 0534 4FF44373 		mov	r3, #780
 573 0538 0593     		str	r3, [sp, #20]
ARM GAS  C:\Users\Administrator\AppData\Local\Temp\ccDK9JSj.s 			page 11


 574 053a 40F2E358 		movw	r8, #1507
 575 053e CDF81080 		str	r8, [sp, #16]
 576 0542 4FF4287A 		mov	r10, #672
 577 0546 CDF80CA0 		str	r10, [sp, #12]
 578 054a 40F2C952 		movw	r2, #1481
 579 054e 0292     		str	r2, [sp, #8]
 580 0550 4FF00509 		mov	r9, #5
 581 0554 CDF80490 		str	r9, [sp, #4]
 582 0558 0095     		str	r5, [sp]
 583 055a 0723     		movs	r3, #7
 584 055c 0122     		movs	r2, #1
 585 055e 5049     		ldr	r1, .L12+32
 586 0560 3846     		mov	r0, r7
 587 0562 FFF7FEFF 		bl	UIRectangleDraw
 588 0566 02AB     		add	r3, sp, #8
 589 0568 D6F80F00 		ldr	r0, [r6, #15]	@ unaligned
 590 056c 7968     		ldr	r1, [r7, #4]	@ unaligned
 591 056e BA68     		ldr	r2, [r7, #8]	@ unaligned
 592 0570 07C3     		stmia	r3!, {r0, r1, r2}
 593 0572 B989     		ldrh	r1, [r7, #12]	@ unaligned
 594 0574 BA7B     		ldrb	r2, [r7, #14]	@ zero_extendqisi2
 595 0576 1980     		strh	r1, [r3]	@ unaligned
 596 0578 9A70     		strb	r2, [r3, #2]
 597 057a 06F10803 		add	r3, r6, #8
 598 057e 93E80300 		ldm	r3, {r0, r1}
 599 0582 0090     		str	r0, [sp]
 600 0584 ADF80410 		strh	r1, [sp, #4]	@ movhi
 601 0588 090C     		lsrs	r1, r1, #16
 602 058a 8DF80610 		strb	r1, [sp, #6]
 603 058e 96E80C00 		ldm	r6, {r2, r3}
 604 0592 0221     		movs	r1, #2
 605 0594 1398     		ldr	r0, [sp, #76]
 606 0596 FFF7FEFF 		bl	UIGraphRefresh
 607 059a 4FF44373 		mov	r3, #780
 608 059e 0593     		str	r3, [sp, #20]
 609 05a0 40F22D67 		movw	r7, #1581
 610 05a4 0497     		str	r7, [sp, #16]
 611 05a6 CDF80CA0 		str	r10, [sp, #12]
 612 05aa 40F2136A 		movw	r10, #1555
 613 05ae CDF808A0 		str	r10, [sp, #8]
 614 05b2 CDF80490 		str	r9, [sp, #4]
 615 05b6 0095     		str	r5, [sp]
 616 05b8 0723     		movs	r3, #7
 617 05ba 0122     		movs	r2, #1
 618 05bc 3949     		ldr	r1, .L12+36
 619 05be 06F11E00 		add	r0, r6, #30
 620 05c2 FFF7FEFF 		bl	UIRectangleDraw
 621 05c6 D6F82600 		ldr	r0, [r6, #38]	@ unaligned
 622 05ca 0090     		str	r0, [sp]
 623 05cc 728D     		ldrh	r2, [r6, #42]	@ unaligned
 624 05ce 96F82C30 		ldrb	r3, [r6, #44]	@ zero_extendqisi2
 625 05d2 ADF80420 		strh	r2, [sp, #4]	@ unaligned
 626 05d6 8DF80630 		strb	r3, [sp, #6]
 627 05da D6F81E20 		ldr	r2, [r6, #30]	@ unaligned
 628 05de D6F82230 		ldr	r3, [r6, #34]	@ unaligned
 629 05e2 0121     		movs	r1, #1
 630 05e4 DDF84C90 		ldr	r9, [sp, #76]
ARM GAS  C:\Users\Administrator\AppData\Local\Temp\ccDK9JSj.s 			page 12


 631 05e8 4846     		mov	r0, r9
 632 05ea FFF7FEFF 		bl	UIGraphRefresh
 633 05ee 40F2AA25 		movw	r5, #682
 634 05f2 0595     		str	r5, [sp, #20]
 635 05f4 CDF81080 		str	r8, [sp, #16]
 636 05f8 0395     		str	r5, [sp, #12]
 637 05fa 40F2C952 		movw	r2, #1481
 638 05fe 0292     		str	r2, [sp, #8]
 639 0600 CDF804B0 		str	fp, [sp, #4]
 640 0604 CDF800B0 		str	fp, [sp]
 641 0608 0723     		movs	r3, #7
 642 060a 0122     		movs	r2, #1
 643 060c 2649     		ldr	r1, .L12+40
 644 060e 04F15A00 		add	r0, r4, #90
 645 0612 FFF7FEFF 		bl	UILineDraw
 646 0616 04F16906 		add	r6, r4, #105
 647 061a 0595     		str	r5, [sp, #20]
 648 061c 0497     		str	r7, [sp, #16]
 649 061e 0395     		str	r5, [sp, #12]
 650 0620 CDF808A0 		str	r10, [sp, #8]
 651 0624 CDF804B0 		str	fp, [sp, #4]
 652 0628 CDF800B0 		str	fp, [sp]
 653 062c 0723     		movs	r3, #7
 654 062e 0122     		movs	r2, #1
 655 0630 1E49     		ldr	r1, .L12+44
 656 0632 3046     		mov	r0, r6
 657 0634 FFF7FEFF 		bl	UILineDraw
 658 0638 02AB     		add	r3, sp, #8
 659 063a D4F86900 		ldr	r0, [r4, #105]	@ unaligned
 660 063e D4F86D10 		ldr	r1, [r4, #109]	@ unaligned
 661 0642 D4F87120 		ldr	r2, [r4, #113]	@ unaligned
 662 0646 07C3     		stmia	r3!, {r0, r1, r2}
 663 0648 B4F87510 		ldrh	r1, [r4, #117]	@ unaligned
 664 064c 94F87720 		ldrb	r2, [r4, #119]	@ zero_extendqisi2
 665 0650 1980     		strh	r1, [r3]	@ unaligned
 666 0652 9A70     		strb	r2, [r3, #2]
 667 0654 D4F86200 		ldr	r0, [r4, #98]	@ unaligned
 668 0658 0090     		str	r0, [sp]
 669 065a B4F86620 		ldrh	r2, [r4, #102]	@ unaligned
 670 065e 94F86830 		ldrb	r3, [r4, #104]	@ zero_extendqisi2
 671 0662 ADF80420 		strh	r2, [sp, #4]	@ unaligned
 672 0666 8DF80630 		strb	r3, [sp, #6]
 673 066a D4F85A20 		ldr	r2, [r4, #90]	@ unaligned
 674 066e D4F85E30 		ldr	r3, [r4, #94]	@ unaligned
 675 0672 0221     		movs	r1, #2
 676 0674 4846     		mov	r0, r9
 677 0676 FFF7FEFF 		bl	UIGraphRefresh
 678 067a 15B0     		add	sp, sp, #84
 679              		@ sp needed
 680 067c BDE8F08F 		pop	{r4, r5, r6, r7, r8, r9, r10, fp, pc}
 681              	.L13:
 682              		.align	2
 683              	.L12:
 684 0680 2C000000 		.word	.LC11
 685 0684 00000000 		.word	UI_graph_Arc
 686 0688 30000000 		.word	.LC12
 687 068c 34000000 		.word	.LC13
ARM GAS  C:\Users\Administrator\AppData\Local\Temp\ccDK9JSj.s 			page 13


 688 0690 38000000 		.word	.LC14
 689 0694 3C000000 		.word	.LC15
 690 0698 00000000 		.word	UI_graph_Rectangle
 691 069c 40000000 		.word	.LC16
 692 06a0 44000000 		.word	.LC17
 693 06a4 48000000 		.word	.LC18
 694 06a8 4C000000 		.word	.LC19
 695 06ac 50000000 		.word	.LC20
 697              		.section	.text.InfantryDynamciscUI,"ax",%progbits
 698              		.align	1
 699              		.global	InfantryDynamciscUI
 700              		.syntax unified
 701              		.thumb
 702              		.thumb_func
 704              	InfantryDynamciscUI:
 705              		@ args = 0, pretend = 0, frame = 0
 706              		@ frame_needed = 0, uses_anonymous_args = 0
 707 0000 F0B5     		push	{r4, r5, r6, r7, lr}
 708 0002 89B0     		sub	sp, sp, #36
 709 0004 0646     		mov	r6, r0
 710 0006 0C46     		mov	r4, r1
 711 0008 4B69     		ldr	r3, [r1, #20]	@ unaligned
 712 000a 07EE903A 		vmov	s15, r3	@ int
 713 000e 9FEDC77A 		vldr.32	s14, .L35
 714 0012 F4EEC77A 		vcmpe.f32	s15, s14
 715 0016 F1EE10FA 		vmrs	APSR_nzcv, FPSCR
 716 001a 05D5     		bpl	.L15
 717 001c F5EEC07A 		vcmpe.f32	s15, #0
 718 0020 F1EE10FA 		vmrs	APSR_nzcv, FPSCR
 719 0024 80F2AC80 		bge	.L30
 720              	.L15:
 721 0028 9FEDC17A 		vldr.32	s14, .L35+4
 722 002c F4EEC77A 		vcmpe.f32	s15, s14
 723 0030 F1EE10FA 		vmrs	APSR_nzcv, FPSCR
 724 0034 05DD     		ble	.L18
 725 0036 F5EEC07A 		vcmpe.f32	s15, #0
 726 003a F1EE10FA 		vmrs	APSR_nzcv, FPSCR
 727 003e 00F1C180 		bmi	.L31
 728              	.L18:
 729 0042 BC4B     		ldr	r3, .L35+8
 730 0044 D3F83500 		ldr	r0, [r3, #53]	@ unaligned
 731 0048 0090     		str	r0, [sp]
 732 004a B3F83910 		ldrh	r1, [r3, #57]	@ unaligned
 733 004e 93F83B20 		ldrb	r2, [r3, #59]	@ zero_extendqisi2
 734 0052 ADF80410 		strh	r1, [sp, #4]	@ unaligned
 735 0056 8DF80620 		strb	r2, [sp, #6]
 736 005a D3F82D20 		ldr	r2, [r3, #45]	@ unaligned
 737 005e D3F83130 		ldr	r3, [r3, #49]	@ unaligned
 738 0062 0121     		movs	r1, #1
 739 0064 3046     		mov	r0, r6
 740 0066 FFF7FEFF 		bl	UIGraphRefresh
 741 006a A369     		ldr	r3, [r4, #24]	@ unaligned
 742 006c 06EE903A 		vmov	s13, r3	@ int
 743 0070 DFEDB17A 		vldr.32	s15, .L35+12
 744 0074 77EEE67A 		vsub.f32	s15, s15, s13
 745 0078 9FEDB07A 		vldr.32	s14, .L35+16
 746 007c 37EE667A 		vsub.f32	s14, s14, s13
ARM GAS  C:\Users\Administrator\AppData\Local\Temp\ccDK9JSj.s 			page 14


 747 0080 AF4D     		ldr	r5, .L35+20
 748 0082 4FF4B473 		mov	r3, #360
 749 0086 0793     		str	r3, [sp, #28]
 750 0088 0693     		str	r3, [sp, #24]
 751 008a 40F21A23 		movw	r3, #538
 752 008e 0593     		str	r3, [sp, #20]
 753 0090 40F2BE33 		movw	r3, #958
 754 0094 0493     		str	r3, [sp, #16]
 755 0096 1423     		movs	r3, #20
 756 0098 0393     		str	r3, [sp, #12]
 757 009a BCEEC77A 		vcvt.u32.f32	s14, s14
 758 009e 8DED027A 		vstr.32	s14, [sp, #8]	@ int
 759 00a2 FCEEE77A 		vcvt.u32.f32	s15, s15
 760 00a6 CDED017A 		vstr.32	s15, [sp, #4]	@ int
 761 00aa 0423     		movs	r3, #4
 762 00ac 0093     		str	r3, [sp]
 763 00ae 0523     		movs	r3, #5
 764 00b0 0222     		movs	r2, #2
 765 00b2 A449     		ldr	r1, .L35+24
 766 00b4 2846     		mov	r0, r5
 767 00b6 FFF7FEFF 		bl	UIArcDraw
 768 00ba 2B46     		mov	r3, r5
 769 00bc 53F84B29 		ldr	r2, [r3], #-75	@ unaligned
 770 00c0 A868     		ldr	r0, [r5, #8]	@ unaligned
 771 00c2 0090     		str	r0, [sp]
 772 00c4 A889     		ldrh	r0, [r5, #12]	@ unaligned
 773 00c6 A97B     		ldrb	r1, [r5, #14]	@ zero_extendqisi2
 774 00c8 ADF80400 		strh	r0, [sp, #4]	@ unaligned
 775 00cc 8DF80610 		strb	r1, [sp, #6]
 776 00d0 D3F84F30 		ldr	r3, [r3, #79]	@ unaligned
 777 00d4 0521     		movs	r1, #5
 778 00d6 3046     		mov	r0, r6
 779 00d8 FFF7FEFF 		bl	UIGraphRefresh
 780 00dc 2379     		ldrb	r3, [r4, #4]	@ zero_extendqisi2
 781 00de 002B     		cmp	r3, #0
 782 00e0 00F09880 		beq	.L32
 783 00e4 E37C     		ldrb	r3, [r4, #19]	@ zero_extendqisi2
 784 00e6 0F2B     		cmp	r3, #15
 785 00e8 00F0DA80 		beq	.L33
 786 00ec 122B     		cmp	r3, #18
 787 00ee 00F03781 		beq	.L34
 788 00f2 954C     		ldr	r4, .L35+28
 789 00f4 4FF44177 		mov	r7, #772
 790 00f8 0597     		str	r7, [sp, #20]
 791 00fa 40F2E353 		movw	r3, #1507
 792 00fe 0493     		str	r3, [sp, #16]
 793 0100 0397     		str	r7, [sp, #12]
 794 0102 40F2C953 		movw	r3, #1481
 795 0106 0293     		str	r3, [sp, #8]
 796 0108 0423     		movs	r3, #4
 797 010a 0193     		str	r3, [sp, #4]
 798 010c 0093     		str	r3, [sp]
 799 010e 0723     		movs	r3, #7
 800 0110 0222     		movs	r2, #2
 801 0112 8E49     		ldr	r1, .L35+32
 802 0114 2046     		mov	r0, r4
 803 0116 FFF7FEFF 		bl	UILineDraw
ARM GAS  C:\Users\Administrator\AppData\Local\Temp\ccDK9JSj.s 			page 15


 804 011a 04F10F05 		add	r5, r4, #15
 805 011e 0597     		str	r7, [sp, #20]
 806 0120 40F22D63 		movw	r3, #1581
 807 0124 0493     		str	r3, [sp, #16]
 808 0126 0397     		str	r7, [sp, #12]
 809 0128 40F21363 		movw	r3, #1555
 810 012c 0293     		str	r3, [sp, #8]
 811 012e 0423     		movs	r3, #4
 812 0130 0193     		str	r3, [sp, #4]
 813 0132 0093     		str	r3, [sp]
 814 0134 0723     		movs	r3, #7
 815 0136 0222     		movs	r2, #2
 816 0138 8549     		ldr	r1, .L35+36
 817 013a 2846     		mov	r0, r5
 818 013c FFF7FEFF 		bl	UILineDraw
 819 0140 A446     		mov	ip, r4
 820 0142 02AB     		add	r3, sp, #8
 821 0144 D4F80F00 		ldr	r0, [r4, #15]	@ unaligned
 822 0148 D4F81310 		ldr	r1, [r4, #19]	@ unaligned
 823 014c D4F81720 		ldr	r2, [r4, #23]	@ unaligned
 824 0150 07C3     		stmia	r3!, {r0, r1, r2}
 825 0152 B4F81B10 		ldrh	r1, [r4, #27]	@ unaligned
 826 0156 627F     		ldrb	r2, [r4, #29]	@ zero_extendqisi2
 827 0158 1980     		strh	r1, [r3]	@ unaligned
 828 015a 9A70     		strb	r2, [r3, #2]
 829 015c 5CF85A29 		ldr	r2, [ip], #-90	@ unaligned
 830 0160 A068     		ldr	r0, [r4, #8]	@ unaligned
 831 0162 0090     		str	r0, [sp]
 832 0164 A189     		ldrh	r1, [r4, #12]	@ unaligned
 833 0166 A37B     		ldrb	r3, [r4, #14]	@ zero_extendqisi2
 834 0168 ADF80410 		strh	r1, [sp, #4]	@ unaligned
 835 016c 8DF80630 		strb	r3, [sp, #6]
 836 0170 DCF85E30 		ldr	r3, [ip, #94]	@ unaligned
 837 0174 0221     		movs	r1, #2
 838 0176 3046     		mov	r0, r6
 839 0178 FFF7FEFF 		bl	UIGraphRefresh
 840              	.L14:
 841 017c 09B0     		add	sp, sp, #36
 842              		@ sp needed
 843 017e F0BD     		pop	{r4, r5, r6, r7, pc}
 844              	.L30:
 845 0180 F2EE046A 		vmov.f32	s13, #1.0e+1
 846 0184 37EEE67A 		vsub.f32	s14, s15, s13
 847 0188 77EEA67A 		vadd.f32	s15, s15, s13
 848 018c 6423     		movs	r3, #100
 849 018e 0793     		str	r3, [sp, #28]
 850 0190 0693     		str	r3, [sp, #24]
 851 0192 40F2D523 		movw	r3, #725
 852 0196 0593     		str	r3, [sp, #20]
 853 0198 40F2F453 		movw	r3, #1524
 854 019c 0493     		str	r3, [sp, #16]
 855 019e 0F23     		movs	r3, #15
 856 01a0 0393     		str	r3, [sp, #12]
 857 01a2 FCEEE77A 		vcvt.u32.f32	s15, s15
 858 01a6 CDED027A 		vstr.32	s15, [sp, #8]	@ int
 859 01aa BCEEC77A 		vcvt.u32.f32	s14, s14
 860 01ae 8DED017A 		vstr.32	s14, [sp, #4]	@ int
ARM GAS  C:\Users\Administrator\AppData\Local\Temp\ccDK9JSj.s 			page 16


 861 01b2 0523     		movs	r3, #5
 862 01b4 0093     		str	r3, [sp]
 863 01b6 0723     		movs	r3, #7
 864 01b8 0222     		movs	r2, #2
 865 01ba 6649     		ldr	r1, .L35+40
 866 01bc 6648     		ldr	r0, .L35+44
 867 01be FFF7FEFF 		bl	UIArcDraw
 868 01c2 3EE7     		b	.L18
 869              	.L31:
 870 01c4 B2EE046A 		vmov.f32	s12, #1.0e+1
 871 01c8 37EEC67A 		vsub.f32	s14, s15, s12
 872 01cc DFED636A 		vldr.32	s13, .L35+48
 873 01d0 37EE267A 		vadd.f32	s14, s14, s13
 874 01d4 77EE867A 		vadd.f32	s15, s15, s12
 875 01d8 77EEA67A 		vadd.f32	s15, s15, s13
 876 01dc 6423     		movs	r3, #100
 877 01de 0793     		str	r3, [sp, #28]
 878 01e0 0693     		str	r3, [sp, #24]
 879 01e2 40F2D523 		movw	r3, #725
 880 01e6 0593     		str	r3, [sp, #20]
 881 01e8 40F2F453 		movw	r3, #1524
 882 01ec 0493     		str	r3, [sp, #16]
 883 01ee 0F23     		movs	r3, #15
 884 01f0 0393     		str	r3, [sp, #12]
 885 01f2 FCEEE77A 		vcvt.u32.f32	s15, s15
 886 01f6 CDED027A 		vstr.32	s15, [sp, #8]	@ int
 887 01fa BCEEC77A 		vcvt.u32.f32	s14, s14
 888 01fe 8DED017A 		vstr.32	s14, [sp, #4]	@ int
 889 0202 0523     		movs	r3, #5
 890 0204 0093     		str	r3, [sp]
 891 0206 0723     		movs	r3, #7
 892 0208 0222     		movs	r2, #2
 893 020a 5249     		ldr	r1, .L35+40
 894 020c 5248     		ldr	r0, .L35+44
 895 020e FFF7FEFF 		bl	UIArcDraw
 896 0212 16E7     		b	.L18
 897              	.L32:
 898 0214 4C4C     		ldr	r4, .L35+28
 899 0216 40F2AA27 		movw	r7, #682
 900 021a 0597     		str	r7, [sp, #20]
 901 021c 40F2E353 		movw	r3, #1507
 902 0220 0493     		str	r3, [sp, #16]
 903 0222 0397     		str	r7, [sp, #12]
 904 0224 40F2C953 		movw	r3, #1481
 905 0228 0293     		str	r3, [sp, #8]
 906 022a 0423     		movs	r3, #4
 907 022c 0193     		str	r3, [sp, #4]
 908 022e 0093     		str	r3, [sp]
 909 0230 0723     		movs	r3, #7
 910 0232 0222     		movs	r2, #2
 911 0234 4549     		ldr	r1, .L35+32
 912 0236 2046     		mov	r0, r4
 913 0238 FFF7FEFF 		bl	UILineDraw
 914 023c 04F10F05 		add	r5, r4, #15
 915 0240 0597     		str	r7, [sp, #20]
 916 0242 40F22D63 		movw	r3, #1581
 917 0246 0493     		str	r3, [sp, #16]
ARM GAS  C:\Users\Administrator\AppData\Local\Temp\ccDK9JSj.s 			page 17


 918 0248 0397     		str	r7, [sp, #12]
 919 024a 40F21363 		movw	r3, #1555
 920 024e 0293     		str	r3, [sp, #8]
 921 0250 0423     		movs	r3, #4
 922 0252 0193     		str	r3, [sp, #4]
 923 0254 0093     		str	r3, [sp]
 924 0256 0723     		movs	r3, #7
 925 0258 0222     		movs	r2, #2
 926 025a 3D49     		ldr	r1, .L35+36
 927 025c 2846     		mov	r0, r5
 928 025e FFF7FEFF 		bl	UILineDraw
 929 0262 A446     		mov	ip, r4
 930 0264 02AB     		add	r3, sp, #8
 931 0266 D4F80F00 		ldr	r0, [r4, #15]	@ unaligned
 932 026a D4F81310 		ldr	r1, [r4, #19]	@ unaligned
 933 026e D4F81720 		ldr	r2, [r4, #23]	@ unaligned
 934 0272 07C3     		stmia	r3!, {r0, r1, r2}
 935 0274 B4F81B10 		ldrh	r1, [r4, #27]	@ unaligned
 936 0278 627F     		ldrb	r2, [r4, #29]	@ zero_extendqisi2
 937 027a 1980     		strh	r1, [r3]	@ unaligned
 938 027c 9A70     		strb	r2, [r3, #2]
 939 027e 5CF85A29 		ldr	r2, [ip], #-90	@ unaligned
 940 0282 A068     		ldr	r0, [r4, #8]	@ unaligned
 941 0284 0090     		str	r0, [sp]
 942 0286 A189     		ldrh	r1, [r4, #12]	@ unaligned
 943 0288 A37B     		ldrb	r3, [r4, #14]	@ zero_extendqisi2
 944 028a ADF80410 		strh	r1, [sp, #4]	@ unaligned
 945 028e 8DF80630 		strb	r3, [sp, #6]
 946 0292 DCF85E30 		ldr	r3, [ip, #94]	@ unaligned
 947 0296 0221     		movs	r1, #2
 948 0298 3046     		mov	r0, r6
 949 029a FFF7FEFF 		bl	UIGraphRefresh
 950 029e 6DE7     		b	.L14
 951              	.L33:
 952 02a0 294C     		ldr	r4, .L35+28
 953 02a2 4FF43277 		mov	r7, #712
 954 02a6 0597     		str	r7, [sp, #20]
 955 02a8 40F2E353 		movw	r3, #1507
 956 02ac 0493     		str	r3, [sp, #16]
 957 02ae 0397     		str	r7, [sp, #12]
 958 02b0 40F2C953 		movw	r3, #1481
 959 02b4 0293     		str	r3, [sp, #8]
 960 02b6 0423     		movs	r3, #4
 961 02b8 0193     		str	r3, [sp, #4]
 962 02ba 0093     		str	r3, [sp]
 963 02bc 0723     		movs	r3, #7
 964 02be 0222     		movs	r2, #2
 965 02c0 2249     		ldr	r1, .L35+32
 966 02c2 2046     		mov	r0, r4
 967 02c4 FFF7FEFF 		bl	UILineDraw
 968 02c8 04F10F05 		add	r5, r4, #15
 969 02cc 0597     		str	r7, [sp, #20]
 970 02ce 40F22D63 		movw	r3, #1581
 971 02d2 0493     		str	r3, [sp, #16]
 972 02d4 0397     		str	r7, [sp, #12]
 973 02d6 40F21363 		movw	r3, #1555
 974 02da 0293     		str	r3, [sp, #8]
ARM GAS  C:\Users\Administrator\AppData\Local\Temp\ccDK9JSj.s 			page 18


 975 02dc 0423     		movs	r3, #4
 976 02de 0193     		str	r3, [sp, #4]
 977 02e0 0093     		str	r3, [sp]
 978 02e2 0723     		movs	r3, #7
 979 02e4 0222     		movs	r2, #2
 980 02e6 1A49     		ldr	r1, .L35+36
 981 02e8 2846     		mov	r0, r5
 982 02ea FFF7FEFF 		bl	UILineDraw
 983 02ee A446     		mov	ip, r4
 984 02f0 02AB     		add	r3, sp, #8
 985 02f2 D4F80F00 		ldr	r0, [r4, #15]	@ unaligned
 986 02f6 D4F81310 		ldr	r1, [r4, #19]	@ unaligned
 987 02fa D4F81720 		ldr	r2, [r4, #23]	@ unaligned
 988 02fe 07C3     		stmia	r3!, {r0, r1, r2}
 989 0300 B4F81B10 		ldrh	r1, [r4, #27]	@ unaligned
 990 0304 627F     		ldrb	r2, [r4, #29]	@ zero_extendqisi2
 991 0306 1980     		strh	r1, [r3]	@ unaligned
 992 0308 9A70     		strb	r2, [r3, #2]
 993 030a 5CF85A29 		ldr	r2, [ip], #-90	@ unaligned
 994 030e A068     		ldr	r0, [r4, #8]	@ unaligned
 995 0310 0090     		str	r0, [sp]
 996 0312 A189     		ldrh	r1, [r4, #12]	@ unaligned
 997 0314 A37B     		ldrb	r3, [r4, #14]	@ zero_extendqisi2
 998 0316 ADF80410 		strh	r1, [sp, #4]	@ unaligned
 999 031a 8DF80630 		strb	r3, [sp, #6]
 1000 031e DCF85E30 		ldr	r3, [ip, #94]	@ unaligned
 1001 0322 0221     		movs	r1, #2
 1002 0324 3046     		mov	r0, r6
 1003 0326 FFF7FEFF 		bl	UIGraphRefresh
 1004 032a 27E7     		b	.L14
 1005              	.L36:
 1006              		.align	2
 1007              	.L35:
 1008 032c 00003443 		.word	1127481344
 1009 0330 000034C3 		.word	-1020002304
 1010 0334 00000000 		.word	UI_graph_Arc
 1011 0338 0000B042 		.word	1118830592
 1012 033c 0000B842 		.word	1119354880
 1013 0340 4B000000 		.word	UI_pitch_line+75
 1014 0344 2C000000 		.word	.LC11
 1015 0348 5A000000 		.word	UI_shoot_line+90
 1016 034c 4C000000 		.word	.LC19
 1017 0350 50000000 		.word	.LC20
 1018 0354 3C000000 		.word	.LC15
 1019 0358 2D000000 		.word	UI_graph_Arc+45
 1020 035c 0000B443 		.word	1135869952
 1021              	.L34:
 1022 0360 224C     		ldr	r4, .L37
 1023 0362 40F2E627 		movw	r7, #742
 1024 0366 0597     		str	r7, [sp, #20]
 1025 0368 40F2E353 		movw	r3, #1507
 1026 036c 0493     		str	r3, [sp, #16]
 1027 036e 0397     		str	r7, [sp, #12]
 1028 0370 40F2C953 		movw	r3, #1481
 1029 0374 0293     		str	r3, [sp, #8]
 1030 0376 0423     		movs	r3, #4
 1031 0378 0193     		str	r3, [sp, #4]
ARM GAS  C:\Users\Administrator\AppData\Local\Temp\ccDK9JSj.s 			page 19


 1032 037a 0093     		str	r3, [sp]
 1033 037c 0723     		movs	r3, #7
 1034 037e 0222     		movs	r2, #2
 1035 0380 1B49     		ldr	r1, .L37+4
 1036 0382 2046     		mov	r0, r4
 1037 0384 FFF7FEFF 		bl	UILineDraw
 1038 0388 04F10F05 		add	r5, r4, #15
 1039 038c 0597     		str	r7, [sp, #20]
 1040 038e 40F22D63 		movw	r3, #1581
 1041 0392 0493     		str	r3, [sp, #16]
 1042 0394 0397     		str	r7, [sp, #12]
 1043 0396 40F21363 		movw	r3, #1555
 1044 039a 0293     		str	r3, [sp, #8]
 1045 039c 0423     		movs	r3, #4
 1046 039e 0193     		str	r3, [sp, #4]
 1047 03a0 0093     		str	r3, [sp]
 1048 03a2 0723     		movs	r3, #7
 1049 03a4 0222     		movs	r2, #2
 1050 03a6 1349     		ldr	r1, .L37+8
 1051 03a8 2846     		mov	r0, r5
 1052 03aa FFF7FEFF 		bl	UILineDraw
 1053 03ae A446     		mov	ip, r4
 1054 03b0 02AB     		add	r3, sp, #8
 1055 03b2 D4F80F00 		ldr	r0, [r4, #15]	@ unaligned
 1056 03b6 D4F81310 		ldr	r1, [r4, #19]	@ unaligned
 1057 03ba D4F81720 		ldr	r2, [r4, #23]	@ unaligned
 1058 03be 07C3     		stmia	r3!, {r0, r1, r2}
 1059 03c0 B4F81B10 		ldrh	r1, [r4, #27]	@ unaligned
 1060 03c4 627F     		ldrb	r2, [r4, #29]	@ zero_extendqisi2
 1061 03c6 1980     		strh	r1, [r3]	@ unaligned
 1062 03c8 9A70     		strb	r2, [r3, #2]
 1063 03ca 5CF85A29 		ldr	r2, [ip], #-90	@ unaligned
 1064 03ce A068     		ldr	r0, [r4, #8]	@ unaligned
 1065 03d0 0090     		str	r0, [sp]
 1066 03d2 A189     		ldrh	r1, [r4, #12]	@ unaligned
 1067 03d4 A37B     		ldrb	r3, [r4, #14]	@ zero_extendqisi2
 1068 03d6 ADF80410 		strh	r1, [sp, #4]	@ unaligned
 1069 03da 8DF80630 		strb	r3, [sp, #6]
 1070 03de DCF85E30 		ldr	r3, [ip, #94]	@ unaligned
 1071 03e2 0221     		movs	r1, #2
 1072 03e4 3046     		mov	r0, r6
 1073 03e6 FFF7FEFF 		bl	UIGraphRefresh
 1074 03ea C7E6     		b	.L14
 1075              	.L38:
 1076              		.align	2
 1077              	.L37:
 1078 03ec 5A000000 		.word	UI_shoot_line+90
 1079 03f0 4C000000 		.word	.LC19
 1080 03f4 50000000 		.word	.LC20
 1082              		.section	.data.infantry_config_5.0,"aw"
 1083              		.align	2
 1086              	infantry_config_5.0:
 1087 0000 00       		.byte	0
 1088 0001 000000   		.space	3
 1089 0004 00000000 		.word	0
 1090 0008 00000000 		.word	0
 1091 000c 0000B943 		.word	1136197632
ARM GAS  C:\Users\Administrator\AppData\Local\Temp\ccDK9JSj.s 			page 20


 1092 0010 0000D243 		.word	1137836032
 1093 0014 00009642 		.word	1117126656
 1094 0018 00009841 		.word	1100480512
 1095 001c 00000000 		.space	16
 1095      00000000 
 1095      00000000 
 1095      00000000 
 1096 002c 0000003F 		.word	1056964608
 1097 0030 00000000 		.word	0
 1098 0034 00000000 		.word	0
 1099 0038 00606A46 		.word	1181376512
 1100 003c 00000000 		.space	4
 1101 0040 07       		.byte	7
 1102 0041 000000   		.space	3
 1103 0044 00803B45 		.word	1161527296
 1104 0048 00000000 		.space	16
 1104      00000000 
 1104      00000000 
 1104      00000000 
 1105 0058 0000A040 		.word	1084227584
 1106 005c 0000803F 		.word	1065353216
 1107 0060 00000000 		.word	0
 1108 0064 00803B46 		.word	1178304512
 1109 0068 00000000 		.space	4
 1110 006c 07       		.byte	7
 1111 006d 000000   		.space	3
 1112 0070 00803B45 		.word	1161527296
 1113 0074 00000000 		.space	16
 1113      00000000 
 1113      00000000 
 1113      00000000 
 1114 0084 00000000 		.space	44
 1114      00000000 
 1114      00000000 
 1114      00000000 
 1114      00000000 
 1115 00b0 02       		.byte	2
 1116 00b1 03       		.byte	3
 1117 00b2 0000     		.space	2
 1118 00b4 00       		.byte	0
 1119 00b5 00       		.byte	0
 1120 00b6 0000     		.space	2
 1121 00b8 02       		.byte	2
 1122 00b9 000000   		.space	3
 1123 00bc 00000000 		.word	hcan1
 1124 00c0 00000000 		.space	24
 1124      00000000 
 1124      00000000 
 1124      00000000 
 1124      00000000 
 1125 00d8 00000000 		.space	44
 1125      00000000 
 1125      00000000 
 1125      00000000 
 1125      00000000 
 1126 0104 03020401 		.ascii	"\003\002\004\001\000"
 1126      00
ARM GAS  C:\Users\Administrator\AppData\Local\Temp\ccDK9JSj.s 			page 21


 1127 0109 000000   		.space	3
 1128 010c 00       		.byte	0
 1129 010d 000000   		.space	3
 1130 0110 00000000 		.space	4
 1131 0114 0060B945 		.word	1169776640
 1132 0118 00007041 		.word	1097859072
 1133 011c 000020C2 		.word	-1038090240
 1134 0120 00000000 		.space	60
 1134      00000000 
 1134      00000000 
 1134      00000000 
 1134      00000000 
 1135 015c 00009643 		.word	1133903872
 1136 0160 00001643 		.word	1125515264
 1137 0164 00000000 		.word	0
 1138 0168 00409C46 		.word	1184645120
 1139 016c 00000000 		.space	4
 1140 0170 07       		.byte	7
 1141 0171 000000   		.space	3
 1142 0174 00803B45 		.word	1161527296
 1143 0178 00000000 		.space	16
 1143      00000000 
 1143      00000000 
 1143      00000000 
 1144 0188 00007041 		.word	1097859072
 1145 018c 00000000 		.word	0
 1146 0190 3333333F 		.word	1060320051
 1147 0194 0000FA43 		.word	1140457472
 1148 0198 CDCCCC3D 		.word	1036831949
 1149 019c 07       		.byte	7
 1150 019d 000000   		.space	3
 1151 01a0 0000C842 		.word	1120403456
 1152 01a4 00000000 		.space	16
 1152      00000000 
 1152      00000000 
 1152      00000000 
 1153 01b4 04       		.byte	4
 1154 01b5 06       		.byte	6
 1155 01b6 01       		.byte	1
 1156 01b7 00       		.byte	0
 1157 01b8 01       		.byte	1
 1158 01b9 01       		.byte	1
 1159 01ba 0000     		.space	2
 1160 01bc 01       		.byte	1
 1161 01bd 000000   		.space	3
 1162 01c0 00000000 		.word	hcan1
 1163 01c4 01000000 		.word	1
 1164 01c8 00000000 		.space	20
 1164      00000000 
 1164      00000000 
 1164      00000000 
 1164      00000000 
 1165 01dc 00000000 		.space	188
 1165      00000000 
 1165      00000000 
 1165      00000000 
 1165      00000000 
ARM GAS  C:\Users\Administrator\AppData\Local\Temp\ccDK9JSj.s 			page 22


 1166 0298 00000000 		.space	60
 1166      00000000 
 1166      00000000 
 1166      00000000 
 1166      00000000 
 1167 02d4 00004843 		.word	1128792064
 1168 02d8 0000C842 		.word	1120403456
 1169 02dc 00000000 		.word	0
 1170 02e0 00409C46 		.word	1184645120
 1171 02e4 00000000 		.space	4
 1172 02e8 07       		.byte	7
 1173 02e9 000000   		.space	3
 1174 02ec 00401C45 		.word	1159479296
 1175 02f0 00000000 		.space	16
 1175      00000000 
 1175      00000000 
 1175      00000000 
 1176 0300 0000A041 		.word	1101004800
 1177 0304 00000000 		.word	0
 1178 0308 CDCCCC3E 		.word	1053609165
 1179 030c 0000FA43 		.word	1140457472
 1180 0310 00000000 		.space	4
 1181 0314 07       		.byte	7
 1182 0315 000000   		.space	3
 1183 0318 0000C842 		.word	1120403456
 1184 031c 00000000 		.space	16
 1184      00000000 
 1184      00000000 
 1184      00000000 
 1185 032c 04       		.byte	4
 1186 032d 06       		.byte	6
 1187 032e 00       		.byte	0
 1188 032f 01       		.byte	1
 1189 0330 01       		.byte	1
 1190 0331 01       		.byte	1
 1191 0332 0000     		.space	2
 1192 0334 01       		.byte	1
 1193 0335 000000   		.space	3
 1194 0338 00000000 		.word	hcan2
 1195 033c 02000000 		.word	2
 1196 0340 00000000 		.space	20
 1196      00000000 
 1196      00000000 
 1196      00000000 
 1196      00000000 
 1197 0354 00       		.byte	0
 1198 0355 000000   		.space	3
 1199 0358 00000000 		.space	16
 1199      00000000 
 1199      00000000 
 1199      00000000 
 1200 0368 CDCCCC3E 		.word	1053609165
 1201 036c 00000000 		.word	0
 1202 0370 00000000 		.word	0
 1203 0374 00606A46 		.word	1181376512
 1204 0378 00000000 		.space	4
 1205 037c 01       		.byte	1
ARM GAS  C:\Users\Administrator\AppData\Local\Temp\ccDK9JSj.s 			page 23


 1206 037d 000000   		.space	3
 1207 0380 00401C46 		.word	1176256512
 1208 0384 00000000 		.space	16
 1208      00000000 
 1208      00000000 
 1208      00000000 
 1209 0394 00007041 		.word	1097859072
 1210 0398 0000803F 		.word	1065353216
 1211 039c 00000000 		.word	0
 1212 03a0 00606A46 		.word	1181376512
 1213 03a4 00000000 		.space	4
 1214 03a8 01       		.byte	1
 1215 03a9 000000   		.space	3
 1216 03ac 00401C46 		.word	1176256512
 1217 03b0 00000000 		.space	16
 1217      00000000 
 1217      00000000 
 1217      00000000 
 1218 03c0 00000000 		.space	44
 1218      00000000 
 1218      00000000 
 1218      00000000 
 1218      00000000 
 1219 03ec 02       		.byte	2
 1220 03ed 03       		.byte	3
 1221 03ee 01       		.byte	1
 1222 03ef 00       		.space	1
 1223 03f0 00       		.byte	0
 1224 03f1 00       		.byte	0
 1225 03f2 0000     		.space	2
 1226 03f4 02       		.byte	2
 1227 03f5 000000   		.space	3
 1228 03f8 00000000 		.word	hcan2
 1229 03fc 00000000 		.space	24
 1229      00000000 
 1229      00000000 
 1229      00000000 
 1229      00000000 
 1230 0414 00000000 		.space	16
 1230      00000000 
 1230      00000000 
 1230      00000000 
 1231 0424 CDCCCC3E 		.word	1053609165
 1232 0428 00000000 		.word	0
 1233 042c 00000000 		.word	0
 1234 0430 00409C45 		.word	1167867904
 1235 0434 00000000 		.space	4
 1236 0438 01       		.byte	1
 1237 0439 000000   		.space	3
 1238 043c 00409C45 		.word	1167867904
 1239 0440 00000000 		.space	16
 1239      00000000 
 1239      00000000 
 1239      00000000 
 1240 0450 00004040 		.word	1077936128
 1241 0454 00000000 		.word	0
 1242 0458 00000000 		.word	0
ARM GAS  C:\Users\Administrator\AppData\Local\Temp\ccDK9JSj.s 			page 24


 1243 045c 00401C46 		.word	1176256512
 1244 0460 00000000 		.space	4
 1245 0464 01       		.byte	1
 1246 0465 000000   		.space	3
 1247 0468 0000FA45 		.word	1174011904
 1248 046c 00000000 		.space	16
 1248      00000000 
 1248      00000000 
 1248      00000000 
 1249 047c 00002041 		.word	1092616192
 1250 0480 0000803F 		.word	1065353216
 1251 0484 00000000 		.word	0
 1252 0488 00409C45 		.word	1167867904
 1253 048c 00000000 		.space	28
 1253      00000000 
 1253      00000000 
 1253      00000000 
 1253      00000000 
 1254 04a8 02       		.byte	2
 1255 04a9 06       		.byte	6
 1256 04aa 00       		.byte	0
 1257 04ab 00       		.space	1
 1258 04ac 00       		.byte	0
 1259 04ad 00       		.byte	0
 1260 04ae 0000     		.space	2
 1261 04b0 03       		.byte	3
 1262 04b1 000000   		.space	3
 1263 04b4 00000000 		.word	hcan2
 1264 04b8 07000000 		.word	7
 1265 04bc 00000000 		.space	20
 1265      00000000 
 1265      00000000 
 1265      00000000 
 1265      00000000 
 1266 04d0 030400   		.ascii	"\003\004\000"
 1267 04d3 00       		.space	1
 1268 04d4 01       		.byte	1
 1269 04d5 00       		.byte	0
 1270 04d6 0000     		.space	2
 1271              		.section	.data.infantry_config_3.1,"aw"
 1272              		.align	2
 1275              	infantry_config_3.1:
 1276 0000 00       		.byte	0
 1277 0001 000000   		.space	3
 1278 0004 00000000 		.word	0
 1279 0008 00000000 		.word	0
 1280 000c 0000B943 		.word	1136197632
 1281 0010 0000D243 		.word	1137836032
 1282 0014 00009642 		.word	1117126656
 1283 0018 00009841 		.word	1100480512
 1284 001c 00000000 		.space	16
 1284      00000000 
 1284      00000000 
 1284      00000000 
 1285 002c 0000003F 		.word	1056964608
 1286 0030 00000000 		.word	0
 1287 0034 00000000 		.word	0
ARM GAS  C:\Users\Administrator\AppData\Local\Temp\ccDK9JSj.s 			page 25


 1288 0038 00606A46 		.word	1181376512
 1289 003c 00000000 		.space	4
 1290 0040 07       		.byte	7
 1291 0041 000000   		.space	3
 1292 0044 00803B45 		.word	1161527296
 1293 0048 00000000 		.space	16
 1293      00000000 
 1293      00000000 
 1293      00000000 
 1294 0058 0000A040 		.word	1084227584
 1295 005c 0000803F 		.word	1065353216
 1296 0060 00000000 		.word	0
 1297 0064 00803B46 		.word	1178304512
 1298 0068 00000000 		.space	4
 1299 006c 07       		.byte	7
 1300 006d 000000   		.space	3
 1301 0070 00803B45 		.word	1161527296
 1302 0074 00000000 		.space	16
 1302      00000000 
 1302      00000000 
 1302      00000000 
 1303 0084 00000000 		.space	44
 1303      00000000 
 1303      00000000 
 1303      00000000 
 1303      00000000 
 1304 00b0 02       		.byte	2
 1305 00b1 03       		.byte	3
 1306 00b2 0000     		.space	2
 1307 00b4 00       		.byte	0
 1308 00b5 00       		.byte	0
 1309 00b6 0000     		.space	2
 1310 00b8 02       		.byte	2
 1311 00b9 000000   		.space	3
 1312 00bc 00000000 		.word	hcan1
 1313 00c0 00000000 		.space	24
 1313      00000000 
 1313      00000000 
 1313      00000000 
 1313      00000000 
 1314 00d8 00000000 		.space	44
 1314      00000000 
 1314      00000000 
 1314      00000000 
 1314      00000000 
 1315 0104 01020403 		.ascii	"\001\002\004\003\000"
 1315      00
 1316 0109 000000   		.space	3
 1317 010c 00       		.byte	0
 1318 010d 000000   		.space	3
 1319 0110 00000000 		.space	4
 1320 0114 00002545 		.word	1160052736
 1321 0118 0000A041 		.word	1101004800
 1322 011c 000020C1 		.word	-1054867456
 1323 0120 00000000 		.space	60
 1323      00000000 
 1323      00000000 
ARM GAS  C:\Users\Administrator\AppData\Local\Temp\ccDK9JSj.s 			page 26


 1323      00000000 
 1323      00000000 
 1324 015c 00009643 		.word	1133903872
 1325 0160 0000C842 		.word	1120403456
 1326 0164 00000000 		.word	0
 1327 0168 00409C46 		.word	1184645120
 1328 016c 00000000 		.space	4
 1329 0170 07       		.byte	7
 1330 0171 000000   		.space	3
 1331 0174 00803B45 		.word	1161527296
 1332 0178 00000000 		.space	16
 1332      00000000 
 1332      00000000 
 1332      00000000 
 1333 0188 00000041 		.word	1090519040
 1334 018c 00000000 		.word	0
 1335 0190 CDCCCC3E 		.word	1053609165
 1336 0194 0000FA43 		.word	1140457472
 1337 0198 CDCCCC3D 		.word	1036831949
 1338 019c 07       		.byte	7
 1339 019d 000000   		.space	3
 1340 01a0 0000C842 		.word	1120403456
 1341 01a4 00000000 		.space	16
 1341      00000000 
 1341      00000000 
 1341      00000000 
 1342 01b4 04       		.byte	4
 1343 01b5 06       		.byte	6
 1344 01b6 01       		.byte	1
 1345 01b7 00       		.byte	0
 1346 01b8 01       		.byte	1
 1347 01b9 01       		.byte	1
 1348 01ba 0000     		.space	2
 1349 01bc 01       		.byte	1
 1350 01bd 000000   		.space	3
 1351 01c0 00000000 		.word	hcan1
 1352 01c4 01000000 		.word	1
 1353 01c8 00000000 		.space	20
 1353      00000000 
 1353      00000000 
 1353      00000000 
 1353      00000000 
 1354 01dc 00000000 		.space	188
 1354      00000000 
 1354      00000000 
 1354      00000000 
 1354      00000000 
 1355 0298 00000000 		.space	60
 1355      00000000 
 1355      00000000 
 1355      00000000 
 1355      00000000 
 1356 02d4 00007A43 		.word	1132068864
 1357 02d8 0000C842 		.word	1120403456
 1358 02dc 00000000 		.word	0
 1359 02e0 00409C46 		.word	1184645120
 1360 02e4 00000000 		.space	4
ARM GAS  C:\Users\Administrator\AppData\Local\Temp\ccDK9JSj.s 			page 27


 1361 02e8 07       		.byte	7
 1362 02e9 000000   		.space	3
 1363 02ec 00401C45 		.word	1159479296
 1364 02f0 00000000 		.space	16
 1364      00000000 
 1364      00000000 
 1364      00000000 
 1365 0300 00007041 		.word	1097859072
 1366 0304 00000000 		.word	0
 1367 0308 CDCCCC3E 		.word	1053609165
 1368 030c 0000FA43 		.word	1140457472
 1369 0310 00000000 		.space	4
 1370 0314 07       		.byte	7
 1371 0315 000000   		.space	3
 1372 0318 0000C842 		.word	1120403456
 1373 031c 00000000 		.space	16
 1373      00000000 
 1373      00000000 
 1373      00000000 
 1374 032c 04       		.byte	4
 1375 032d 06       		.byte	6
 1376 032e 00       		.byte	0
 1377 032f 00       		.byte	0
 1378 0330 01       		.byte	1
 1379 0331 01       		.byte	1
 1380 0332 0000     		.space	2
 1381 0334 01       		.byte	1
 1382 0335 000000   		.space	3
 1383 0338 00000000 		.word	hcan1
 1384 033c 02000000 		.word	2
 1385 0340 00000000 		.space	20
 1385      00000000 
 1385      00000000 
 1385      00000000 
 1385      00000000 
 1386 0354 00       		.byte	0
 1387 0355 000000   		.space	3
 1388 0358 00000000 		.space	16
 1388      00000000 
 1388      00000000 
 1388      00000000 
 1389 0368 CDCCCC3E 		.word	1053609165
 1390 036c 00000000 		.word	0
 1391 0370 00000000 		.word	0
 1392 0374 00606A46 		.word	1181376512
 1393 0378 00000000 		.space	4
 1394 037c 01       		.byte	1
 1395 037d 000000   		.space	3
 1396 0380 00401C46 		.word	1176256512
 1397 0384 00000000 		.space	16
 1397      00000000 
 1397      00000000 
 1397      00000000 
 1398 0394 00002041 		.word	1092616192
 1399 0398 0000803F 		.word	1065353216
 1400 039c 00000000 		.word	0
 1401 03a0 0050C346 		.word	1187205120
ARM GAS  C:\Users\Administrator\AppData\Local\Temp\ccDK9JSj.s 			page 28


 1402 03a4 00000000 		.space	4
 1403 03a8 01       		.byte	1
 1404 03a9 000000   		.space	3
 1405 03ac 00401C46 		.word	1176256512
 1406 03b0 00000000 		.space	16
 1406      00000000 
 1406      00000000 
 1406      00000000 
 1407 03c0 00000000 		.space	44
 1407      00000000 
 1407      00000000 
 1407      00000000 
 1407      00000000 
 1408 03ec 02       		.byte	2
 1409 03ed 03       		.byte	3
 1410 03ee 01       		.byte	1
 1411 03ef 00       		.space	1
 1412 03f0 00       		.byte	0
 1413 03f1 00       		.byte	0
 1414 03f2 0000     		.space	2
 1415 03f4 02       		.byte	2
 1416 03f5 000000   		.space	3
 1417 03f8 00000000 		.word	hcan2
 1418 03fc 00000000 		.space	24
 1418      00000000 
 1418      00000000 
 1418      00000000 
 1418      00000000 
 1419 0414 00000000 		.space	16
 1419      00000000 
 1419      00000000 
 1419      00000000 
 1420 0424 CDCCCC3E 		.word	1053609165
 1421 0428 00000000 		.word	0
 1422 042c 00000000 		.word	0
 1423 0430 00409C45 		.word	1167867904
 1424 0434 00000000 		.space	4
 1425 0438 01       		.byte	1
 1426 0439 000000   		.space	3
 1427 043c 00409C45 		.word	1167867904
 1428 0440 00000000 		.space	16
 1428      00000000 
 1428      00000000 
 1428      00000000 
 1429 0450 00004040 		.word	1077936128
 1430 0454 00000000 		.word	0
 1431 0458 00000000 		.word	0
 1432 045c 0000FA45 		.word	1174011904
 1433 0460 00000000 		.space	4
 1434 0464 01       		.byte	1
 1435 0465 000000   		.space	3
 1436 0468 0000FA45 		.word	1174011904
 1437 046c 00000000 		.space	16
 1437      00000000 
 1437      00000000 
 1437      00000000 
 1438 047c 00007041 		.word	1097859072
ARM GAS  C:\Users\Administrator\AppData\Local\Temp\ccDK9JSj.s 			page 29


 1439 0480 0000803F 		.word	1065353216
 1440 0484 00000000 		.word	0
 1441 0488 00409C45 		.word	1167867904
 1442 048c 00000000 		.space	28
 1442      00000000 
 1442      00000000 
 1442      00000000 
 1442      00000000 
 1443 04a8 02       		.byte	2
 1444 04a9 06       		.byte	6
 1445 04aa 00       		.byte	0
 1446 04ab 00       		.space	1
 1447 04ac 00       		.byte	0
 1448 04ad 00       		.byte	0
 1449 04ae 0000     		.space	2
 1450 04b0 03       		.byte	3
 1451 04b1 000000   		.space	3
 1452 04b4 00000000 		.word	hcan2
 1453 04b8 05000000 		.word	5
 1454 04bc 00000000 		.space	20
 1454      00000000 
 1454      00000000 
 1454      00000000 
 1454      00000000 
 1455 04d0 010200   		.ascii	"\001\002\000"
 1456 04d3 00       		.space	1
 1457 04d4 00       		.byte	0
 1458 04d5 01       		.byte	1
 1459 04d6 0000     		.space	2
 1460              		.section	.bss.UI_graph_Rectangle,"aw",%nobits
 1461              		.align	2
 1464              	UI_graph_Rectangle:
 1465 0000 00000000 		.space	45
 1465      00000000 
 1465      00000000 
 1465      00000000 
 1465      00000000 
 1466              		.section	.bss.UI_graph_Arc,"aw",%nobits
 1467              		.align	2
 1470              	UI_graph_Arc:
 1471 0000 00000000 		.space	45
 1471      00000000 
 1471      00000000 
 1471      00000000 
 1471      00000000 
 1472              		.section	.bss.UI_shoot_line,"aw",%nobits
 1473              		.align	2
 1476              	UI_shoot_line:
 1477 0000 00000000 		.space	150
 1477      00000000 
 1477      00000000 
 1477      00000000 
 1477      00000000 
 1478              		.section	.bss.UI_pitch_line,"aw",%nobits
 1479              		.align	2
 1482              	UI_pitch_line:
 1483 0000 00000000 		.space	150
ARM GAS  C:\Users\Administrator\AppData\Local\Temp\ccDK9JSj.s 			page 30


 1483      00000000 
 1483      00000000 
 1483      00000000 
 1483      00000000 
 1484              		.ident	"GCC: (xPack GNU Arm Embedded GCC x86_64) 15.2.1 20251203"
ARM GAS  C:\Users\Administrator\AppData\Local\Temp\ccDK9JSj.s 			page 31

