ARM GAS  C:\Users\Administrator\AppData\Local\Temp\ccMuDVdN.s 			page 1


   1              		.cpu cortex-m4
   2              		.arch armv7e-m
   3              		.fpu fpv4-sp-d16
   4              		.eabi_attribute 27, 1
   5              		.eabi_attribute 28, 1
   6              		.eabi_attribute 20, 1
   7              		.eabi_attribute 21, 1
   8              		.eabi_attribute 23, 3
   9              		.eabi_attribute 24, 1
  10              		.eabi_attribute 25, 1
  11              		.eabi_attribute 26, 1
  12              		.eabi_attribute 30, 1
  13              		.eabi_attribute 34, 1
  14              		.eabi_attribute 18, 4
  15              		.file	"oled.c"
  16              		.text
  17              		.section	.text.oled_write_byte,"ax",%progbits
  18              		.align	1
  19              		.global	oled_write_byte
  20              		.syntax unified
  21              		.thumb
  22              		.thumb_func
  24              	oled_write_byte:
  25              		@ args = 0, pretend = 0, frame = 0
  26              		@ frame_needed = 0, uses_anonymous_args = 0
  27 0000 00B5     		push	{lr}
  28 0002 83B0     		sub	sp, sp, #12
  29 0004 61B9     		cbnz	r1, .L2
  30 0006 084B     		ldr	r3, .L5
  31 0008 1970     		strb	r1, [r3]
  32              	.L3:
  33 000a 074A     		ldr	r2, .L5
  34 000c 5070     		strb	r0, [r2, #1]
  35 000e 0A23     		movs	r3, #10
  36 0010 0093     		str	r3, [sp]
  37 0012 0223     		movs	r3, #2
  38 0014 7821     		movs	r1, #120
  39 0016 0548     		ldr	r0, .L5+4
  40 0018 FFF7FEFF 		bl	HAL_I2C_Master_Transmit
  41 001c 03B0     		add	sp, sp, #12
  42              		@ sp needed
  43 001e 00BD     		pop	{pc}
  44              	.L2:
  45 0020 014B     		ldr	r3, .L5
  46 0022 4022     		movs	r2, #64
  47 0024 1A70     		strb	r2, [r3]
  48 0026 F0E7     		b	.L3
  49              	.L6:
  50              		.align	2
  51              	.L5:
  52 0028 00000000 		.word	cmd_data.2
  53 002c 00000000 		.word	hi2c2
  55              		.section	.text.OLED_init,"ax",%progbits
  56              		.align	1
  57              		.global	OLED_init
  58              		.syntax unified
  59              		.thumb
ARM GAS  C:\Users\Administrator\AppData\Local\Temp\ccMuDVdN.s 			page 2


  60              		.thumb_func
  62              	OLED_init:
  63              		@ args = 0, pretend = 0, frame = 0
  64              		@ frame_needed = 0, uses_anonymous_args = 0
  65 0000 08B5     		push	{r3, lr}
  66 0002 0021     		movs	r1, #0
  67 0004 AE20     		movs	r0, #174
  68 0006 FFF7FEFF 		bl	oled_write_byte
  69 000a 0021     		movs	r1, #0
  70 000c 2020     		movs	r0, #32
  71 000e FFF7FEFF 		bl	oled_write_byte
  72 0012 0021     		movs	r1, #0
  73 0014 1020     		movs	r0, #16
  74 0016 FFF7FEFF 		bl	oled_write_byte
  75 001a 0021     		movs	r1, #0
  76 001c B020     		movs	r0, #176
  77 001e FFF7FEFF 		bl	oled_write_byte
  78 0022 0021     		movs	r1, #0
  79 0024 C820     		movs	r0, #200
  80 0026 FFF7FEFF 		bl	oled_write_byte
  81 002a 0021     		movs	r1, #0
  82 002c 0846     		mov	r0, r1
  83 002e FFF7FEFF 		bl	oled_write_byte
  84 0032 0021     		movs	r1, #0
  85 0034 1020     		movs	r0, #16
  86 0036 FFF7FEFF 		bl	oled_write_byte
  87 003a 0021     		movs	r1, #0
  88 003c 4020     		movs	r0, #64
  89 003e FFF7FEFF 		bl	oled_write_byte
  90 0042 0021     		movs	r1, #0
  91 0044 8120     		movs	r0, #129
  92 0046 FFF7FEFF 		bl	oled_write_byte
  93 004a 0021     		movs	r1, #0
  94 004c FF20     		movs	r0, #255
  95 004e FFF7FEFF 		bl	oled_write_byte
  96 0052 0021     		movs	r1, #0
  97 0054 A120     		movs	r0, #161
  98 0056 FFF7FEFF 		bl	oled_write_byte
  99 005a 0021     		movs	r1, #0
 100 005c A620     		movs	r0, #166
 101 005e FFF7FEFF 		bl	oled_write_byte
 102 0062 0021     		movs	r1, #0
 103 0064 A820     		movs	r0, #168
 104 0066 FFF7FEFF 		bl	oled_write_byte
 105 006a 0021     		movs	r1, #0
 106 006c 3F20     		movs	r0, #63
 107 006e FFF7FEFF 		bl	oled_write_byte
 108 0072 0021     		movs	r1, #0
 109 0074 A420     		movs	r0, #164
 110 0076 FFF7FEFF 		bl	oled_write_byte
 111 007a 0021     		movs	r1, #0
 112 007c D320     		movs	r0, #211
 113 007e FFF7FEFF 		bl	oled_write_byte
 114 0082 0021     		movs	r1, #0
 115 0084 0846     		mov	r0, r1
 116 0086 FFF7FEFF 		bl	oled_write_byte
 117 008a 0021     		movs	r1, #0
ARM GAS  C:\Users\Administrator\AppData\Local\Temp\ccMuDVdN.s 			page 3


 118 008c D520     		movs	r0, #213
 119 008e FFF7FEFF 		bl	oled_write_byte
 120 0092 0021     		movs	r1, #0
 121 0094 F020     		movs	r0, #240
 122 0096 FFF7FEFF 		bl	oled_write_byte
 123 009a 0021     		movs	r1, #0
 124 009c D920     		movs	r0, #217
 125 009e FFF7FEFF 		bl	oled_write_byte
 126 00a2 0021     		movs	r1, #0
 127 00a4 2220     		movs	r0, #34
 128 00a6 FFF7FEFF 		bl	oled_write_byte
 129 00aa 0021     		movs	r1, #0
 130 00ac DA20     		movs	r0, #218
 131 00ae FFF7FEFF 		bl	oled_write_byte
 132 00b2 0021     		movs	r1, #0
 133 00b4 1220     		movs	r0, #18
 134 00b6 FFF7FEFF 		bl	oled_write_byte
 135 00ba 0021     		movs	r1, #0
 136 00bc DB20     		movs	r0, #219
 137 00be FFF7FEFF 		bl	oled_write_byte
 138 00c2 0021     		movs	r1, #0
 139 00c4 2020     		movs	r0, #32
 140 00c6 FFF7FEFF 		bl	oled_write_byte
 141 00ca 0021     		movs	r1, #0
 142 00cc 8D20     		movs	r0, #141
 143 00ce FFF7FEFF 		bl	oled_write_byte
 144 00d2 0021     		movs	r1, #0
 145 00d4 1420     		movs	r0, #20
 146 00d6 FFF7FEFF 		bl	oled_write_byte
 147 00da 0021     		movs	r1, #0
 148 00dc AF20     		movs	r0, #175
 149 00de FFF7FEFF 		bl	oled_write_byte
 150 00e2 08BD     		pop	{r3, pc}
 152              		.section	.text.OLED_display_on,"ax",%progbits
 153              		.align	1
 154              		.global	OLED_display_on
 155              		.syntax unified
 156              		.thumb
 157              		.thumb_func
 159              	OLED_display_on:
 160              		@ args = 0, pretend = 0, frame = 0
 161              		@ frame_needed = 0, uses_anonymous_args = 0
 162 0000 08B5     		push	{r3, lr}
 163 0002 0021     		movs	r1, #0
 164 0004 8D20     		movs	r0, #141
 165 0006 FFF7FEFF 		bl	oled_write_byte
 166 000a 0021     		movs	r1, #0
 167 000c 1420     		movs	r0, #20
 168 000e FFF7FEFF 		bl	oled_write_byte
 169 0012 0021     		movs	r1, #0
 170 0014 AF20     		movs	r0, #175
 171 0016 FFF7FEFF 		bl	oled_write_byte
 172 001a 08BD     		pop	{r3, pc}
 174              		.section	.text.OLED_display_off,"ax",%progbits
 175              		.align	1
 176              		.global	OLED_display_off
 177              		.syntax unified
ARM GAS  C:\Users\Administrator\AppData\Local\Temp\ccMuDVdN.s 			page 4


 178              		.thumb
 179              		.thumb_func
 181              	OLED_display_off:
 182              		@ args = 0, pretend = 0, frame = 0
 183              		@ frame_needed = 0, uses_anonymous_args = 0
 184 0000 08B5     		push	{r3, lr}
 185 0002 0021     		movs	r1, #0
 186 0004 8D20     		movs	r0, #141
 187 0006 FFF7FEFF 		bl	oled_write_byte
 188 000a 0021     		movs	r1, #0
 189 000c 1020     		movs	r0, #16
 190 000e FFF7FEFF 		bl	oled_write_byte
 191 0012 0021     		movs	r1, #0
 192 0014 AE20     		movs	r0, #174
 193 0016 FFF7FEFF 		bl	oled_write_byte
 194 001a 08BD     		pop	{r3, pc}
 196              		.section	.text.OLED_operate_gram,"ax",%progbits
 197              		.align	1
 198              		.global	OLED_operate_gram
 199              		.syntax unified
 200              		.thumb
 201              		.thumb_func
 203              	OLED_operate_gram:
 204              		@ args = 0, pretend = 0, frame = 0
 205              		@ frame_needed = 0, uses_anonymous_args = 0
 206              		@ link register save eliminated.
 207 0000 0246     		mov	r2, r0
 208 0002 0020     		movs	r0, #0
 209 0004 1FE0     		b	.L14
 210              	.L22:
 211 0006 1249     		ldr	r1, .L24
 212 0008 01EBC301 		add	r1, r1, r3, lsl #3
 213 000c 4FF0FF0C 		mov	ip, #255
 214 0010 01F800C0 		strb	ip, [r1, r0]
 215              	.L16:
 216 0014 0133     		adds	r3, r3, #1
 217 0016 DBB2     		uxtb	r3, r3
 218              	.L19:
 219 0018 13F0800F 		tst	r3, #128
 220 001c 11D1     		bne	.L21
 221 001e 012A     		cmp	r2, #1
 222 0020 F1D0     		beq	.L22
 223 0022 22B9     		cbnz	r2, .L17
 224 0024 0A49     		ldr	r1, .L24
 225 0026 01EBC301 		add	r1, r1, r3, lsl #3
 226 002a 0A54     		strb	r2, [r1, r0]
 227 002c F2E7     		b	.L16
 228              	.L17:
 229 002e 0849     		ldr	r1, .L24
 230 0030 01EBC301 		add	r1, r1, r3, lsl #3
 231 0034 11F800C0 		ldrb	ip, [r1, r0]	@ zero_extendqisi2
 232 0038 8CF0FF0C 		eor	ip, ip, #255
 233 003c 01F800C0 		strb	ip, [r1, r0]
 234 0040 E8E7     		b	.L16
 235              	.L21:
 236 0042 0130     		adds	r0, r0, #1
 237 0044 C0B2     		uxtb	r0, r0
ARM GAS  C:\Users\Administrator\AppData\Local\Temp\ccMuDVdN.s 			page 5


 238              	.L14:
 239 0046 0728     		cmp	r0, #7
 240 0048 01D8     		bhi	.L23
 241 004a 0023     		movs	r3, #0
 242 004c E4E7     		b	.L19
 243              	.L23:
 244 004e 7047     		bx	lr
 245              	.L25:
 246              		.align	2
 247              	.L24:
 248 0050 00000000 		.word	OLED_GRAM
 250              		.section	.text.OLED_set_pos,"ax",%progbits
 251              		.align	1
 252              		.global	OLED_set_pos
 253              		.syntax unified
 254              		.thumb
 255              		.thumb_func
 257              	OLED_set_pos:
 258              		@ args = 0, pretend = 0, frame = 0
 259              		@ frame_needed = 0, uses_anonymous_args = 0
 260 0000 10B5     		push	{r4, lr}
 261 0002 0446     		mov	r4, r0
 262 0004 A1F15000 		sub	r0, r1, #80
 263 0008 0021     		movs	r1, #0
 264 000a C0B2     		uxtb	r0, r0
 265 000c FFF7FEFF 		bl	oled_write_byte
 266 0010 2009     		lsrs	r0, r4, #4
 267 0012 0021     		movs	r1, #0
 268 0014 40F01000 		orr	r0, r0, #16
 269 0018 FFF7FEFF 		bl	oled_write_byte
 270 001c 0021     		movs	r1, #0
 271 001e 04F00F00 		and	r0, r4, #15
 272 0022 FFF7FEFF 		bl	oled_write_byte
 273 0026 10BD     		pop	{r4, pc}
 275              		.section	.text.OLED_draw_point,"ax",%progbits
 276              		.align	1
 277              		.global	OLED_draw_point
 278              		.syntax unified
 279              		.thumb
 280              		.thumb_func
 282              	OLED_draw_point:
 283              		@ args = 0, pretend = 0, frame = 0
 284              		@ frame_needed = 0, uses_anonymous_args = 0
 285              		@ link register save eliminated.
 286 0000 0028     		cmp	r0, #0
 287 0002 22DB     		blt	.L28
 288 0004 0029     		cmp	r1, #0
 289 0006 20DB     		blt	.L28
 290 0008 3F29     		cmp	r1, #63
 291 000a 1EDC     		bgt	.L28
 292 000c 0B46     		mov	r3, r1
 293 000e 0029     		cmp	r1, #0
 294 0010 1CDB     		blt	.L33
 295              	.L30:
 296 0012 C3F3C703 		ubfx	r3, r3, #3, #8
 297 0016 D1F1000C 		rsbs	ip, r1, #0
 298 001a 01F00701 		and	r1, r1, #7
ARM GAS  C:\Users\Administrator\AppData\Local\Temp\ccMuDVdN.s 			page 6


 299 001e 0CF0070C 		and	ip, ip, #7
 300 0022 58BF     		it	pl
 301 0024 CCF10001 		rsbpl	r1, ip, #0
 302 0028 C9B2     		uxtb	r1, r1
 303 002a 012A     		cmp	r2, #1
 304 002c 10D0     		beq	.L34
 305 002e 022A     		cmp	r2, #2
 306 0030 19D0     		beq	.L35
 307 0032 124A     		ldr	r2, .L36
 308 0034 02EBC000 		add	r0, r2, r0, lsl #3
 309 0038 10F803C0 		ldrb	ip, [r0, r3]	@ zero_extendqisi2
 310 003c 0122     		movs	r2, #1
 311 003e 8A40     		lsls	r2, r2, r1
 312 0040 D243     		mvns	r2, r2
 313 0042 52B2     		sxtb	r2, r2
 314 0044 0CEA0202 		and	r2, ip, r2
 315 0048 C254     		strb	r2, [r0, r3]
 316              	.L28:
 317 004a 7047     		bx	lr
 318              	.L33:
 319 004c CB1D     		adds	r3, r1, #7
 320 004e E0E7     		b	.L30
 321              	.L34:
 322 0050 0A4A     		ldr	r2, .L36
 323 0052 02EBC002 		add	r2, r2, r0, lsl #3
 324 0056 D05C     		ldrb	r0, [r2, r3]	@ zero_extendqisi2
 325 0058 4FF0010C 		mov	ip, #1
 326 005c 0CFA01F1 		lsl	r1, ip, r1
 327 0060 0143     		orrs	r1, r1, r0
 328 0062 D154     		strb	r1, [r2, r3]
 329 0064 7047     		bx	lr
 330              	.L35:
 331 0066 054A     		ldr	r2, .L36
 332 0068 02EBC002 		add	r2, r2, r0, lsl #3
 333 006c D05C     		ldrb	r0, [r2, r3]	@ zero_extendqisi2
 334 006e 4FF0010C 		mov	ip, #1
 335 0072 0CFA01F1 		lsl	r1, ip, r1
 336 0076 4140     		eors	r1, r1, r0
 337 0078 D154     		strb	r1, [r2, r3]
 338 007a 7047     		bx	lr
 339              	.L37:
 340              		.align	2
 341              	.L36:
 342 007c 00000000 		.word	OLED_GRAM
 344              		.section	.text.OLED_draw_line,"ax",%progbits
 345              		.align	1
 346              		.global	OLED_draw_line
 347              		.syntax unified
 348              		.thumb
 349              		.thumb_func
 351              	OLED_draw_line:
 352              		@ args = 4, pretend = 0, frame = 8
 353              		@ frame_needed = 0, uses_anonymous_args = 0
 354 0000 2DE9F041 		push	{r4, r5, r6, r7, r8, lr}
 355 0004 2DED028B 		vpush.64	{d8}
 356 0008 82B0     		sub	sp, sp, #8
 357 000a 0446     		mov	r4, r0
ARM GAS  C:\Users\Administrator\AppData\Local\Temp\ccMuDVdN.s 			page 7


 358 000c 8846     		mov	r8, r1
 359 000e 1646     		mov	r6, r2
 360 0010 9DF82870 		ldrb	r7, [sp, #40]	@ zero_extendqisi2
 361 0014 9942     		cmp	r1, r3
 362 0016 1DD0     		beq	.L57
 363 0018 9042     		cmp	r0, r2
 364 001a 2FD0     		beq	.L58
 365 001c 5B1A     		subs	r3, r3, r1
 366 001e 07EE903A 		vmov	s15, r3	@ int
 367 0022 F8EEE77A 		vcvt.f32.s32	s15, s15
 368 0026 131A     		subs	r3, r2, r0
 369 0028 07EE103A 		vmov	s14, r3	@ int
 370 002c B8EEC77A 		vcvt.f32.s32	s14, s14
 371 0030 C7EE878A 		vdiv.f32	s17, s15, s14
 372 0034 07EE901A 		vmov	s15, r1	@ int
 373 0038 B8EE678A 		vcvt.f32.u32	s16, s15
 374 003c 07EE900A 		vmov	s15, r0	@ int
 375 0040 F8EEE77A 		vcvt.f32.s32	s15, s15
 376 0044 67EEA87A 		vmul.f32	s15, s15, s17
 377 0048 38EE678A 		vsub.f32	s16, s16, s15
 378 004c 9042     		cmp	r0, r2
 379 004e 3CD9     		bls	.L52
 380 0050 1446     		mov	r4, r2
 381 0052 3AE0     		b	.L52
 382              	.L57:
 383 0054 9042     		cmp	r0, r2
 384 0056 04D8     		bhi	.L54
 385 0058 0546     		mov	r5, r0
 386              	.L40:
 387 005a B442     		cmp	r4, r6
 388 005c 0BD8     		bhi	.L42
 389 005e 3446     		mov	r4, r6
 390 0060 09E0     		b	.L42
 391              	.L54:
 392 0062 1546     		mov	r5, r2
 393 0064 F9E7     		b	.L40
 394              	.L43:
 395 0066 3A46     		mov	r2, r7
 396 0068 4FFA88F1 		sxtb	r1, r8
 397 006c 68B2     		sxtb	r0, r5
 398 006e FFF7FEFF 		bl	OLED_draw_point
 399 0072 0135     		adds	r5, r5, #1
 400 0074 EDB2     		uxtb	r5, r5
 401              	.L42:
 402 0076 A542     		cmp	r5, r4
 403 0078 F5D9     		bls	.L43
 404 007a 28E0     		b	.L38
 405              	.L58:
 406 007c 9942     		cmp	r1, r3
 407 007e 04D8     		bhi	.L55
 408 0080 0D46     		mov	r5, r1
 409              	.L46:
 410 0082 9845     		cmp	r8, r3
 411 0084 0AD8     		bhi	.L48
 412 0086 9846     		mov	r8, r3
 413 0088 08E0     		b	.L48
 414              	.L55:
ARM GAS  C:\Users\Administrator\AppData\Local\Temp\ccMuDVdN.s 			page 8


 415 008a 1D46     		mov	r5, r3
 416 008c F9E7     		b	.L46
 417              	.L49:
 418 008e 3A46     		mov	r2, r7
 419 0090 69B2     		sxtb	r1, r5
 420 0092 60B2     		sxtb	r0, r4
 421 0094 FFF7FEFF 		bl	OLED_draw_point
 422 0098 0135     		adds	r5, r5, #1
 423 009a EDB2     		uxtb	r5, r5
 424              	.L48:
 425 009c 4545     		cmp	r5, r8
 426 009e F6D9     		bls	.L49
 427 00a0 15E0     		b	.L38
 428              	.L53:
 429 00a2 07EE904A 		vmov	s15, r4	@ int
 430 00a6 F8EEE77A 		vcvt.f32.s32	s15, s15
 431 00aa 67EEA87A 		vmul.f32	s15, s15, s17
 432 00ae 77EE887A 		vadd.f32	s15, s15, s16
 433 00b2 FCEEE77A 		vcvt.u32.f32	s15, s15
 434 00b6 CDED017A 		vstr.32	s15, [sp, #4]	@ int
 435 00ba 3A46     		mov	r2, r7
 436 00bc 9DF90410 		ldrsb	r1, [sp, #4]
 437 00c0 60B2     		sxtb	r0, r4
 438 00c2 FFF7FEFF 		bl	OLED_draw_point
 439 00c6 0134     		adds	r4, r4, #1
 440 00c8 E4B2     		uxtb	r4, r4
 441              	.L52:
 442 00ca B442     		cmp	r4, r6
 443 00cc E9D9     		bls	.L53
 444              	.L38:
 445 00ce 02B0     		add	sp, sp, #8
 446              		@ sp needed
 447 00d0 BDEC028B 		vldm	sp!, {d8}
 448 00d4 BDE8F081 		pop	{r4, r5, r6, r7, r8, pc}
 450              		.section	.text.OLED_show_char,"ax",%progbits
 451              		.align	1
 452              		.global	OLED_show_char
 453              		.syntax unified
 454              		.thumb
 455              		.thumb_func
 457              	OLED_show_char:
 458              		@ args = 0, pretend = 0, frame = 0
 459              		@ frame_needed = 0, uses_anonymous_args = 0
 460 0000 2DE9F047 		push	{r4, r5, r6, r7, r8, r9, r10, lr}
 461 0004 01EB4101 		add	r1, r1, r1, lsl #1
 462 0008 4F00     		lsls	r7, r1, #1
 463 000a FFB2     		uxtb	r7, r7
 464 000c 00EB4000 		add	r0, r0, r0, lsl #1
 465 0010 4FEA8008 		lsl	r8, r0, #2
 466 0014 5FFA88F8 		uxtb	r8, r8
 467 0018 203A     		subs	r2, r2, #32
 468 001a 5FFA82FA 		uxtb	r10, r2
 469 001e 4446     		mov	r4, r8
 470 0020 4FF00009 		mov	r9, #0
 471 0024 20E0     		b	.L60
 472              	.L70:
 473 0026 0122     		movs	r2, #1
ARM GAS  C:\Users\Administrator\AppData\Local\Temp\ccMuDVdN.s 			page 9


 474 0028 61B2     		sxtb	r1, r4
 475 002a 78B2     		sxtb	r0, r7
 476 002c FFF7FEFF 		bl	OLED_draw_point
 477              	.L63:
 478 0030 6D00     		lsls	r5, r5, #1
 479 0032 EDB2     		uxtb	r5, r5
 480 0034 0134     		adds	r4, r4, #1
 481 0036 E4B2     		uxtb	r4, r4
 482 0038 A4EB0803 		sub	r3, r4, r8
 483 003c 0C2B     		cmp	r3, #12
 484 003e 0CD0     		beq	.L69
 485 0040 0136     		adds	r6, r6, #1
 486 0042 F6B2     		uxtb	r6, r6
 487              	.L61:
 488 0044 072E     		cmp	r6, #7
 489 0046 0BD8     		bhi	.L65
 490 0048 15F0800F 		tst	r5, #128
 491 004c EBD1     		bne	.L70
 492 004e 0022     		movs	r2, #0
 493 0050 61B2     		sxtb	r1, r4
 494 0052 78B2     		sxtb	r0, r7
 495 0054 FFF7FEFF 		bl	OLED_draw_point
 496 0058 EAE7     		b	.L63
 497              	.L69:
 498 005a 0137     		adds	r7, r7, #1
 499 005c FFB2     		uxtb	r7, r7
 500 005e 4446     		mov	r4, r8
 501              	.L65:
 502 0060 09F10109 		add	r9, r9, #1
 503 0064 5FFA89F9 		uxtb	r9, r9
 504              	.L60:
 505 0068 B9F10B0F 		cmp	r9, #11
 506 006c 08D8     		bhi	.L71
 507 006e 0AEB4A02 		add	r2, r10, r10, lsl #1
 508 0072 044B     		ldr	r3, .L72
 509 0074 03EB8203 		add	r3, r3, r2, lsl #2
 510 0078 13F80950 		ldrb	r5, [r3, r9]	@ zero_extendqisi2
 511 007c 0026     		movs	r6, #0
 512 007e E1E7     		b	.L61
 513              	.L71:
 514 0080 BDE8F087 		pop	{r4, r5, r6, r7, r8, r9, r10, pc}
 515              	.L73:
 516              		.align	2
 517              	.L72:
 518 0084 00000000 		.word	asc2_1206
 520              		.section	.text.OLED_show_string,"ax",%progbits
 521              		.align	1
 522              		.global	OLED_show_string
 523              		.syntax unified
 524              		.thumb
 525              		.thumb_func
 527              	OLED_show_string:
 528              		@ args = 0, pretend = 0, frame = 0
 529              		@ frame_needed = 0, uses_anonymous_args = 0
 530 0000 F8B5     		push	{r3, r4, r5, r6, r7, lr}
 531 0002 0646     		mov	r6, r0
 532 0004 0C46     		mov	r4, r1
ARM GAS  C:\Users\Administrator\AppData\Local\Temp\ccMuDVdN.s 			page 10


 533 0006 1746     		mov	r7, r2
 534 0008 0025     		movs	r5, #0
 535 000a 01E0     		b	.L75
 536              	.L76:
 537 000c 0135     		adds	r5, r5, #1
 538 000e EDB2     		uxtb	r5, r5
 539              	.L75:
 540 0010 7A5D     		ldrb	r2, [r7, r5]	@ zero_extendqisi2
 541 0012 5AB1     		cbz	r2, .L79
 542 0014 2146     		mov	r1, r4
 543 0016 3046     		mov	r0, r6
 544 0018 FFF7FEFF 		bl	OLED_show_char
 545 001c 0134     		adds	r4, r4, #1
 546 001e E4B2     		uxtb	r4, r4
 547 0020 142C     		cmp	r4, #20
 548 0022 F3D9     		bls	.L76
 549 0024 0136     		adds	r6, r6, #1
 550 0026 F6B2     		uxtb	r6, r6
 551 0028 0024     		movs	r4, #0
 552 002a EFE7     		b	.L76
 553              	.L79:
 554 002c F8BD     		pop	{r3, r4, r5, r6, r7, pc}
 556              		.section	.text.OLED_printf,"ax",%progbits
 557              		.align	1
 558              		.global	OLED_printf
 559              		.syntax unified
 560              		.thumb
 561              		.thumb_func
 563              	OLED_printf:
 564              		@ args = 4, pretend = 8, frame = 0
 565              		@ frame_needed = 0, uses_anonymous_args = 1
 566 0000 0428     		cmp	r0, #4
 567 0002 1CD8     		bhi	.L83
 568 0004 0CB4     		push	{r2, r3}
 569 0006 38B5     		push	{r3, r4, r5, lr}
 570 0008 0446     		mov	r4, r0
 571 000a 0D46     		mov	r5, r1
 572 000c 1429     		cmp	r1, #20
 573 000e 03D9     		bls	.L86
 574              	.L80:
 575 0010 BDE83840 		pop	{r3, r4, r5, lr}
 576 0014 02B0     		add	sp, sp, #8
 577 0016 7047     		bx	lr
 578              	.L86:
 579 0018 05AA     		add	r2, sp, #20
 580 001a 094B     		ldr	r3, .L87
 581 001c 1A60     		str	r2, [r3]
 582 001e 0499     		ldr	r1, [sp, #16]
 583 0020 0848     		ldr	r0, .L87+4
 584 0022 FFF7FEFF 		bl	vsprintf
 585 0026 2946     		mov	r1, r5
 586 0028 C5F11503 		rsb	r3, r5, #21
 587 002c DBB2     		uxtb	r3, r3
 588 002e 0022     		movs	r2, #0
 589 0030 0448     		ldr	r0, .L87+4
 590 0032 C254     		strb	r2, [r0, r3]
 591 0034 0246     		mov	r2, r0
ARM GAS  C:\Users\Administrator\AppData\Local\Temp\ccMuDVdN.s 			page 11


 592 0036 2046     		mov	r0, r4
 593 0038 FFF7FEFF 		bl	OLED_show_string
 594 003c E8E7     		b	.L80
 595              	.L83:
 596 003e 7047     		bx	lr
 597              	.L88:
 598              		.align	2
 599              	.L87:
 600 0040 00000000 		.word	ap.1
 601 0044 00000000 		.word	LCD_BUF.0
 603              		.section	.text.OLED_refresh_gram,"ax",%progbits
 604              		.align	1
 605              		.global	OLED_refresh_gram
 606              		.syntax unified
 607              		.thumb
 608              		.thumb_func
 610              	OLED_refresh_gram:
 611              		@ args = 0, pretend = 0, frame = 0
 612              		@ frame_needed = 0, uses_anonymous_args = 0
 613 0000 38B5     		push	{r3, r4, r5, lr}
 614 0002 0025     		movs	r5, #0
 615 0004 01E0     		b	.L90
 616              	.L96:
 617 0006 0135     		adds	r5, r5, #1
 618 0008 EDB2     		uxtb	r5, r5
 619              	.L90:
 620 000a 072D     		cmp	r5, #7
 621 000c 11D8     		bhi	.L95
 622 000e 2946     		mov	r1, r5
 623 0010 0020     		movs	r0, #0
 624 0012 FFF7FEFF 		bl	OLED_set_pos
 625 0016 0024     		movs	r4, #0
 626              	.L91:
 627 0018 14F0800F 		tst	r4, #128
 628 001c F3D1     		bne	.L96
 629 001e 054B     		ldr	r3, .L97
 630 0020 03EBC403 		add	r3, r3, r4, lsl #3
 631 0024 0121     		movs	r1, #1
 632 0026 585D     		ldrb	r0, [r3, r5]	@ zero_extendqisi2
 633 0028 FFF7FEFF 		bl	oled_write_byte
 634 002c 0134     		adds	r4, r4, #1
 635 002e E4B2     		uxtb	r4, r4
 636 0030 F2E7     		b	.L91
 637              	.L95:
 638 0032 38BD     		pop	{r3, r4, r5, pc}
 639              	.L98:
 640              		.align	2
 641              	.L97:
 642 0034 00000000 		.word	OLED_GRAM
 644              		.section	.text.OLED_LOGO,"ax",%progbits
 645              		.align	1
 646              		.global	OLED_LOGO
 647              		.syntax unified
 648              		.thumb
 649              		.thumb_func
 651              	OLED_LOGO:
 652              		@ args = 0, pretend = 0, frame = 0
ARM GAS  C:\Users\Administrator\AppData\Local\Temp\ccMuDVdN.s 			page 12


 653              		@ frame_needed = 0, uses_anonymous_args = 0
 654 0000 2DE9F041 		push	{r4, r5, r6, r7, r8, lr}
 655 0004 0020     		movs	r0, #0
 656 0006 FFF7FEFF 		bl	OLED_operate_gram
 657 000a 0027     		movs	r7, #0
 658 000c 26E0     		b	.L100
 659              	.L110:
 660 000e 3919     		adds	r1, r7, r4
 661 0010 0122     		movs	r2, #1
 662 0012 49B2     		sxtb	r1, r1
 663 0014 3046     		mov	r0, r6
 664 0016 FFF7FEFF 		bl	OLED_draw_point
 665              	.L103:
 666 001a 6D00     		lsls	r5, r5, #1
 667 001c EDB2     		uxtb	r5, r5
 668 001e 0134     		adds	r4, r4, #1
 669 0020 E4B2     		uxtb	r4, r4
 670              	.L101:
 671 0022 072C     		cmp	r4, #7
 672 0024 09D8     		bhi	.L109
 673 0026 15F0800F 		tst	r5, #128
 674 002a F0D1     		bne	.L110
 675 002c 3919     		adds	r1, r7, r4
 676 002e 0022     		movs	r2, #0
 677 0030 49B2     		sxtb	r1, r1
 678 0032 3046     		mov	r0, r6
 679 0034 FFF7FEFF 		bl	OLED_draw_point
 680 0038 EFE7     		b	.L103
 681              	.L109:
 682 003a 08F10108 		add	r8, r8, #1
 683 003e 5FFA88F8 		uxtb	r8, r8
 684              	.L106:
 685 0042 4FFA88F6 		sxtb	r6, r8
 686 0046 002E     		cmp	r6, #0
 687 0048 06DB     		blt	.L111
 688 004a FB08     		lsrs	r3, r7, #3
 689 004c 084A     		ldr	r2, .L113
 690 004e 02EBC802 		add	r2, r2, r8, lsl #3
 691 0052 D55C     		ldrb	r5, [r2, r3]	@ zero_extendqisi2
 692 0054 0024     		movs	r4, #0
 693 0056 E4E7     		b	.L101
 694              	.L111:
 695 0058 0837     		adds	r7, r7, #8
 696 005a FFB2     		uxtb	r7, r7
 697              	.L100:
 698 005c 3F2F     		cmp	r7, #63
 699 005e 02D8     		bhi	.L112
 700 0060 4FF00008 		mov	r8, #0
 701 0064 EDE7     		b	.L106
 702              	.L112:
 703 0066 FFF7FEFF 		bl	OLED_refresh_gram
 704 006a BDE8F081 		pop	{r4, r5, r6, r7, r8, pc}
 705              	.L114:
 706 006e 00BF     		.align	2
 707              	.L113:
 708 0070 00000000 		.word	LOGO_BMP
 710              		.section	.bss.LCD_BUF.0,"aw",%nobits
ARM GAS  C:\Users\Administrator\AppData\Local\Temp\ccMuDVdN.s 			page 13


 711              		.align	2
 714              	LCD_BUF.0:
 715 0000 00000000 		.space	128
 715      00000000 
 715      00000000 
 715      00000000 
 715      00000000 
 716              		.section	.bss.ap.1,"aw",%nobits
 717              		.align	2
 720              	ap.1:
 721 0000 00000000 		.space	4
 722              		.section	.bss.cmd_data.2,"aw",%nobits
 723              		.align	2
 726              	cmd_data.2:
 727 0000 0000     		.space	2
 728              		.section	.bss.OLED_GRAM,"aw",%nobits
 729              		.align	2
 732              	OLED_GRAM:
 733 0000 00000000 		.space	1024
 733      00000000 
 733      00000000 
 733      00000000 
 733      00000000 
 734              		.global	LOGO_BMP
 735              		.section	.rodata.LOGO_BMP,"a"
 736              		.align	2
 739              	LOGO_BMP:
 740 0000 00000000 		.ascii	"\000\000\000\000\000\000\000\000"
 740      00000000 
 741 0008 00000000 		.ascii	"\000\000\000\000\000\000\000\000"
 741      00000000 
 742 0010 00000000 		.ascii	"\000\000\000\000\000\000\000\000"
 742      00000000 
 743 0018 00000000 		.ascii	"\000\000\000\000\000\000\000\000"
 743      00000000 
 744 0020 00000000 		.ascii	"\000\000\000\000\000\000\000\000"
 744      00000000 
 745 0028 00000000 		.ascii	"\000\000\000\000\000\000\000\000"
 745      00000000 
 746 0030 00000000 		.ascii	"\000\000\000\000\000\000\000\000"
 746      00000000 
 747 0038 00000000 		.ascii	"\000\000\000\000\000\000\000\000"
 747      00000000 
 748 0040 00000000 		.ascii	"\000\000\000\000\000\000\000\006"
 748      00000006 
 749 0048 00000000 		.ascii	"\000\000\000\000\000\000\000\036"
 749      0000001E 
 750 0050 00000000 		.ascii	"\000\000\000\000\000\000\000\336"
 750      000000DE 
 751 0058 00000000 		.ascii	"\000\000\000\000\000\000\000\330"
 751      000000D8 
 752 0060 00000000 		.ascii	"\000\000\000\000\000\000\000\330"
 752      000000D8 
 753 0068 00000000 		.ascii	"\000\000\000\000\000\000\000\330"
 753      000000D8 
 754 0070 00000000 		.ascii	"\000\000\000\000\000\000\000\336"
 754      000000DE 
ARM GAS  C:\Users\Administrator\AppData\Local\Temp\ccMuDVdN.s 			page 14


 755 0078 00000000 		.ascii	"\000\000\000\000\000\000\000\376"
 755      000000FE 
 756 0080 00000000 		.ascii	"\000\000\000\000\000\000\000\366"
 756      000000F6 
 757 0088 00000000 		.ascii	"\000\000\000\000\000\000\000r"
 757      00000072 
 758 0090 00000000 		.ascii	"\000\000\000\000\000\000\000\000"
 758      00000000 
 759 0098 00000000 		.ascii	"\000\000\000\000\000\000\000|"
 759      0000007C 
 760 00a0 00000000 		.ascii	"\000\000\000\000\000\000\000\376"
 760      000000FE 
 761 00a8 00000000 		.ascii	"\000\000\000\000\000\000\000\306"
 761      000000C6 
 762 00b0 00000000 		.ascii	"\000\000\000\000\000\000\000\306"
 762      000000C6 
 763 00b8 00000000 		.ascii	"\000\000\000\000\000\000\000\306"
 763      000000C6 
 764 00c0 00000000 		.ascii	"\000\000\000\000\000\000\000\376"
 764      000000FE 
 765 00c8 00000000 		.ascii	"\000\000\000\000\000\000\000|"
 765      0000007C 
 766 00d0 00000000 		.ascii	"\000\000\000\000\000\000\000\000"
 766      00000000 
 767 00d8 00000000 		.ascii	"\000\000\000\000\000\000\000\036"
 767      0000001E 
 768 00e0 00000000 		.ascii	"\000\000\000\000\000\000\000\336"
 768      000000DE 
 769 00e8 00000000 		.ascii	"\000\000\000\000\000\000\000\326"
 769      000000D6 
 770 00f0 00000000 		.ascii	"\000\000\000\000\000\000\000\326"
 770      000000D6 
 771 00f8 00000000 		.ascii	"\000\000\000\000\000\000\000\326"
 771      000000D6 
 772 0100 00000000 		.ascii	"\000\000\000\000\000\000\000\326"
 772      000000D6 
 773 0108 00000000 		.ascii	"\000\000\000\000\000\000\000\336"
 773      000000DE 
 774 0110 40000000 		.ascii	"@\000\000\000\000\000\000\376"
 774      000000FE 
 775 0118 60000000 		.ascii	"`\000\000\000\000\020\000l"
 775      0010006C 
 776 0120 70000000 		.ascii	"p\000\000\000\0000\000\000"
 776      00300000 
 777 0128 78000000 		.ascii	"x\000\000\000\000\360\000|"
 777      00F0007C 
 778 0130 7C000000 		.ascii	"|\000\000\000\007\360\000\376"
 778      07F000FE 
 779 0138 7E000000 		.ascii	"~\000\000\000?\360\000\306"
 779      3FF000C6 
 780 0140 7F000001 		.ascii	"\177\000\000\001\377\360\000\306"
 780      FFF000C6 
 781 0148 7F80000F 		.ascii	"\177\200\000\017\377\360\000\306"
 781      FFF000C6 
 782 0150 7FC0007F 		.ascii	"\177\300\000\177\377\360\000\376"
 782      FFF000FE 
 783 0158 7FE003FF 		.ascii	"\177\340\003\377\377\360\000|"
ARM GAS  C:\Users\Administrator\AppData\Local\Temp\ccMuDVdN.s 			page 15


 783      FFF0007C 
 784 0160 7FF03FFF 		.ascii	"\177\360?\377\377\360\000\002"
 784      FFF00002 
 785 0168 7FF83FFF 		.ascii	"\177\370?\377\377\360\000\006"
 785      FFF00006 
 786 0170 7FFC3FFF 		.ascii	"\177\374?\377\377\360\000\036"
 786      FFF0001E 
 787 0178 7FFE3FFF 		.ascii	"\177\376?\377\377\360\000\274"
 787      FFF000BC 
 788 0180 7FFF3FFF 		.ascii	"\177\377?\377\377\360\000\340"
 788      FFF000E0 
 789 0188 7FFFBFFF 		.ascii	"\177\377\277\377\377\200\000\370"
 789      FF8000F8 
 790 0190 7FFFFFFF 		.ascii	"\177\377\377\377\374\000\000>"
 790      FC00003E 
 791 0198 7FFFFFFF 		.ascii	"\177\377\377\377\340\000\000\016"
 791      E000000E 
 792 01a0 7FFFFFFF 		.ascii	"\177\377\377\377\000\000\000\270"
 792      000000B8 
 793 01a8 7FFFFFF8 		.ascii	"\177\377\377\370\000\000\000\340"
 793      000000E0 
 794 01b0 7FFFFFF0 		.ascii	"\177\377\377\360\000\000\000\376"
 794      000000FE 
 795 01b8 7FFFFFF0 		.ascii	"\177\377\377\360\000\000\000\036"
 795      0000001E 
 796 01c0 7FFFFFF0 		.ascii	"\177\377\377\360\000\000\000\002"
 796      00000002 
 797 01c8 7FFFFFF0 		.ascii	"\177\377\377\360\000\000\000\000"
 797      00000000 
 798 01d0 7FEFFFF0 		.ascii	"\177\357\377\360\002\000\000\006"
 798      02000006 
 799 01d8 7FE7FFF0 		.ascii	"\177\347\377\360\002\000\000\016"
 799      0200000E 
 800 01e0 7FE3FFF0 		.ascii	"\177\343\377\360\002\000\000\034"
 800      0200001C 
 801 01e8 7FE1FFF8 		.ascii	"\177\341\377\370\003\000\000\272"
 801      030000BA 
 802 01f0 7FE0FFFC 		.ascii	"\177\340\377\374\003\000\000\366"
 802      030000F6 
 803 01f8 7FE07FFE 		.ascii	"\177\340\177\376\003\200\000\346"
 803      038000E6 
 804 0200 7FE03FFF 		.ascii	"\177\340?\377\003\200\000\366"
 804      038000F6 
 805 0208 7FE03FFF 		.ascii	"\177\340?\377\203\300\000>"
 805      83C0003E 
 806 0210 7FE03FFF 		.ascii	"\177\340?\377\303\300\000\016"
 806      C3C0000E 
 807 0218 7FE03FFF 		.ascii	"\177\340?\377\343\340\000\002"
 807      E3E00002 
 808 0220 7FE03FFF 		.ascii	"\177\340?\377\363\340\000\000"
 808      F3E00000 
 809 0228 7FE03FFF 		.ascii	"\177\340?\377\373\360\000\002"
 809      FBF00002 
 810 0230 7FE03FFF 		.ascii	"\177\340?\377\377\360\000f"
 810      FFF00066 
 811 0238 7FE03FFF 		.ascii	"\177\340?\377\377\370\000\366"
 811      FFF800F6 
ARM GAS  C:\Users\Administrator\AppData\Local\Temp\ccMuDVdN.s 			page 16


 812 0240 7FE03FFF 		.ascii	"\177\340?\377\377\370\000\326"
 812      FFF800D6 
 813 0248 7FE03FFF 		.ascii	"\177\340?\377\377\374\000\326"
 813      FFFC00D6 
 814 0250 7FF07FFF 		.ascii	"\177\360\177\377\377\374\000\326"
 814      FFFC00D6 
 815 0258 7FF8FFF7 		.ascii	"\177\370\377\367\377\376\000\326"
 815      FFFE00D6 
 816 0260 7FFFFFF3 		.ascii	"\177\377\377\363\377\376\000\336"
 816      FFFE00DE 
 817 0268 3FFFFFE1 		.ascii	"?\377\377\341\377\377\000\214"
 817      FFFF008C 
 818 0270 3FFFFFE0 		.ascii	"?\377\377\340\377\317\000@"
 818      FFCF0040 
 819 0278 1FFFFFC0 		.ascii	"\037\377\377\300\177\307\200\300"
 819      7FC780C0 
 820 0280 1FFFFFC0 		.ascii	"\037\377\377\300?\303\200\300"
 820      3FC380C0 
 821 0288 0FFFFF80 		.ascii	"\017\377\377\200\037\301\300\376"
 821      1FC1C0FE 
 822 0290 07FFFF00 		.ascii	"\007\377\377\000\017\300\300\376"
 822      0FC0C0FE 
 823 0298 03FFFE00 		.ascii	"\003\377\376\000\007\300`\300"
 823      07C060C0 
 824 02a0 01FFFC00 		.ascii	"\001\377\374\000\003\300 \300"
 824      03C020C0 
 825 02a8 007FF000 		.ascii	"\000\177\360\000\001\300\000\206"
 825      01C00086 
 826 02b0 000F8000 		.ascii	"\000\017\200\000\000\300\000\026"
 826      00C00016 
 827 02b8 00000000 		.ascii	"\000\000\000\000\000@\000\326"
 827      004000D6 
 828 02c0 00000000 		.ascii	"\000\000\000\000\000\000\000\326"
 828      000000D6 
 829 02c8 00000000 		.ascii	"\000\000\000\000\000\000\000\326"
 829      000000D6 
 830 02d0 00000000 		.ascii	"\000\000\000\000\000\000\000\326"
 830      000000D6 
 831 02d8 00000000 		.ascii	"\000\000\000\000\000\000\000\326"
 831      000000D6 
 832 02e0 00000000 		.ascii	"\000\000\000\000\000\000\000\320"
 832      000000D0 
 833 02e8 00000000 		.ascii	"\000\000\000\000\000\000\000\300"
 833      000000C0 
 834 02f0 00000000 		.ascii	"\000\000\000\000\000\000\000\006"
 834      00000006 
 835 02f8 00000000 		.ascii	"\000\000\000\000\000\000\000\036"
 835      0000001E 
 836 0300 00000000 		.ascii	"\000\000\000\000\000\000\000\336"
 836      000000DE 
 837 0308 00000000 		.ascii	"\000\000\000\000\000\000\000\330"
 837      000000D8 
 838 0310 00000000 		.ascii	"\000\000\000\000\000\000\000\330"
 838      000000D8 
 839 0318 00000000 		.ascii	"\000\000\000\000\000\000\000\330"
 839      000000D8 
 840 0320 00000000 		.ascii	"\000\000\000\000\000\000\000\336"
ARM GAS  C:\Users\Administrator\AppData\Local\Temp\ccMuDVdN.s 			page 17


 840      000000DE 
 841 0328 00000000 		.ascii	"\000\000\000\000\000\000\000\336"
 841      000000DE 
 842 0330 00000000 		.ascii	"\000\000\000\000\000\000\000\366"
 842      000000F6 
 843 0338 00000000 		.ascii	"\000\000\000\000\000\000\000r"
 843      00000072 
 844 0340 00000000 		.ascii	"\000\000\000\000\000\000\000\000"
 844      00000000 
 845 0348 00000000 		.ascii	"\000\000\000\000\000\000\000b"
 845      00000062 
 846 0350 00000000 		.ascii	"\000\000\000\000\000\000\000\366"
 846      000000F6 
 847 0358 00000000 		.ascii	"\000\000\000\000\000\000\000\366"
 847      000000F6 
 848 0360 00000000 		.ascii	"\000\000\000\000\000\000\000\326"
 848      000000D6 
 849 0368 00000000 		.ascii	"\000\000\000\000\000\000\000\326"
 849      000000D6 
 850 0370 00000000 		.ascii	"\000\000\000\000\000\000\000\326"
 850      000000D6 
 851 0378 00000000 		.ascii	"\000\000\000\000\000\000\000\336"
 851      000000DE 
 852 0380 00000000 		.ascii	"\000\000\000\000\000\000\000\214"
 852      0000008C 
 853 0388 00000000 		.ascii	"\000\000\000\000\000\000\000\000"
 853      00000000 
 854 0390 00000000 		.ascii	"\000\000\000\000\000\000\000\000"
 854      00000000 
 855 0398 00000000 		.ascii	"\000\000\000\000\000\000\000\000"
 855      00000000 
 856 03a0 00000000 		.ascii	"\000\000\000\000\000\000\000\000"
 856      00000000 
 857 03a8 00000000 		.ascii	"\000\000\000\000\000\000\000\000"
 857      00000000 
 858 03b0 00000000 		.ascii	"\000\000\000\000\000\000\000\000"
 858      00000000 
 859 03b8 00000000 		.ascii	"\000\000\000\000\000\000\000\000"
 859      00000000 
 860 03c0 00000000 		.ascii	"\000\000\000\000\000\000\000\000"
 860      00000000 
 861 03c8 00000000 		.ascii	"\000\000\000\000\000\000\000\000"
 861      00000000 
 862 03d0 00000000 		.ascii	"\000\000\000\000\000\000\000\000"
 862      00000000 
 863 03d8 00000000 		.ascii	"\000\000\000\000\000\000\000\000"
 863      00000000 
 864 03e0 00000000 		.ascii	"\000\000\000\000\000\000\000\000"
 864      00000000 
 865 03e8 00000000 		.ascii	"\000\000\000\000\000\000\000\000"
 865      00000000 
 866 03f0 00000000 		.ascii	"\000\000\000\000\000\000\000\000"
 866      00000000 
 867 03f8 00000000 		.ascii	"\000\000\000\000\000\000\000\000"
 867      00000000 
 868              		.global	asc2_1206
 869              		.section	.rodata.asc2_1206,"a"
ARM GAS  C:\Users\Administrator\AppData\Local\Temp\ccMuDVdN.s 			page 18


 870              		.align	2
 873              	asc2_1206:
 874 0000 00000000 		.ascii	"\000\000\000\000\000\000\000\000\000\000\000\000"
 874      00000000 
 874      00000000 
 875 000c 00000000 		.ascii	"\000\000\000\000?@\000\000\000\000\000\000"
 875      3F400000 
 875      00000000 
 876 0018 00003000 		.ascii	"\000\0000\000@\0000\000@\000\000\000"
 876      40003000 
 876      40000000 
 877 0024 09000BC0 		.ascii	"\011\000\013\300=\000\013\300=\000\011\000"
 877      3D000BC0 
 877      3D000900 
 878 0030 18C02440 		.ascii	"\030\300$@\177\340\"@1\200\000\000"
 878      7FE02240 
 878      31800000 
 879 003c 180024C0 		.ascii	"\030\000$\300\033\000\015\2002@\001\200"
 879      1B000D80 
 879      32400180 
 880 0048 03801C40 		.ascii	"\003\200\034@'@\034\200\007@\000@"
 880      27401C80 
 880      07400040 
 881 0054 10006000 		.ascii	"\020\000`\000\000\000\000\000\000\000\000\000"
 881      00000000 
 881      00000000 
 882 0060 00000000 		.ascii	"\000\000\000\000\000\000\037\200 @@ "
 882      00001F80 
 882      20404020 
 883 006c 00004020 		.ascii	"\000\000@  @\037\200\000\000\000\000"
 883      20401F80 
 883      00000000 
 884 0078 09000600 		.ascii	"\011\000\006\000\037\200\006\000\011\000\000\000"
 884      1F800600 
 884      09000000 
 885 0084 04000400 		.ascii	"\004\000\004\000?\200\004\000\004\000\000\000"
 885      3F800400 
 885      04000000 
 886 0090 00100060 		.ascii	"\000\020\000`\000\000\000\000\000\000\000\000"
 886      00000000 
 886      00000000 
 887 009c 04000400 		.ascii	"\004\000\004\000\004\000\004\000\004\000\000\000"
 887      04000400 
 887      04000000 
 888 00a8 00000040 		.ascii	"\000\000\000@\000\000\000\000\000\000\000\000"
 888      00000000 
 888      00000000 
 889 00b4 002001C0 		.ascii	"\000 \001\300\006\0008\000@\000\000\000"
 889      06003800 
 889      40000000 
 890 00c0 1F802040 		.ascii	"\037\200 @ @ @\037\200\000\000"
 890      20402040 
 890      1F800000 
 891 00cc 00001040 		.ascii	"\000\000\020@?\300\000@\000\000\000\000"
 891      3FC00040 
 891      00000000 
 892 00d8 18C02140 		.ascii	"\030\300!@\"@$@\030@\000\000"
ARM GAS  C:\Users\Administrator\AppData\Local\Temp\ccMuDVdN.s 			page 19


 892      22402440 
 892      18400000 
 893 00e4 10802040 		.ascii	"\020\200 @$@$@\033\200\000\000"
 893      24402440 
 893      1B800000 
 894 00f0 02000D00 		.ascii	"\002\000\015\000\021\000?\300\001@\000\000"
 894      11003FC0 
 894      01400000 
 895 00fc 3C802440 		.ascii	"<\200$@$@$@#\200\000\000"
 895      24402440 
 895      23800000 
 896 0108 1F802440 		.ascii	"\037\200$@$@4@\003\200\000\000"
 896      24403440 
 896      03800000 
 897 0114 30002000 		.ascii	"0\000 \000'\3008\000 \000\000\000"
 897      27C03800 
 897      20000000 
 898 0120 1B802440 		.ascii	"\033\200$@$@$@\033\200\000\000"
 898      24402440 
 898      1B800000 
 899 012c 1C0022C0 		.ascii	"\034\000\"\300\"@\"@\037\200\000\000"
 899      22402240 
 899      1F800000 
 900 0138 00000000 		.ascii	"\000\000\000\000\010@\000\000\000\000\000\000"
 900      08400000 
 900      00000000 
 901 0144 00000000 		.ascii	"\000\000\000\000\004`\000\000\000\000\000\000"
 901      04600000 
 901      00000000 
 902 0150 00000400 		.ascii	"\000\000\004\000\012\000\021\000 \200@@"
 902      0A001100 
 902      20804040 
 903 015c 09000900 		.ascii	"\011\000\011\000\011\000\011\000\011\000\000\000"
 903      09000900 
 903      09000000 
 904 0168 00004040 		.ascii	"\000\000@@ \200\021\000\012\000\004\000"
 904      20801100 
 904      0A000400 
 905 0174 18002000 		.ascii	"\030\000 \000#@$\000\030\000\000\000"
 905      23402400 
 905      18000000 
 906 0180 1F802040 		.ascii	"\037\200 @'@)@\037@\000\000"
 906      27402940 
 906      1F400000 
 907 018c 004007C0 		.ascii	"\000@\007\3009\000\017\000\001\300\000@"
 907      39000F00 
 907      01C00040 
 908 0198 20403FC0 		.ascii	" @?\300$@$@\033\200\000\000"
 908      24402440 
 908      1B800000 
 909 01a4 1F802040 		.ascii	"\037\200 @ @ @0\200\000\000"
 909      20402040 
 909      30800000 
 910 01b0 20403FC0 		.ascii	" @?\300 @ @\037\200\000\000"
 910      20402040 
 910      1F800000 
 911 01bc 20403FC0 		.ascii	" @?\300$@.@0\300\000\000"
ARM GAS  C:\Users\Administrator\AppData\Local\Temp\ccMuDVdN.s 			page 20


 911      24402E40 
 911      30C00000 
 912 01c8 20403FC0 		.ascii	" @?\300$@.\0000\000\000\000"
 912      24402E00 
 912      30000000 
 913 01d4 0F001080 		.ascii	"\017\000\020\200 @\"@3\200\002\000"
 913      20402240 
 913      33800200 
 914 01e0 20403FC0 		.ascii	" @?\300\004\000\004\000?\300 @"
 914      04000400 
 914      3FC02040 
 915 01ec 20402040 		.ascii	" @ @?\300 @ @\000\000"
 915      3FC02040 
 915      20400000 
 916 01f8 00602020 		.ascii	"\000`    ?\300 \000 \000"
 916      20203FC0 
 916      20002000 
 917 0204 20403FC0 		.ascii	" @?\300$@\013\0000\300 @"
 917      24400B00 
 917      30C02040 
 918 0210 20403FC0 		.ascii	" @?\300 @\000@\000@\000\300"
 918      20400040 
 918      004000C0 
 919 021c 3FC03C00 		.ascii	"?\300<\000\003\300<\000?\300\000\000"
 919      03C03C00 
 919      3FC00000 
 920 0228 20403FC0 		.ascii	" @?\300\014@#\000?\300 \000"
 920      0C402300 
 920      3FC02000 
 921 0234 1F802040 		.ascii	"\037\200 @ @ @\037\200\000\000"
 921      20402040 
 921      1F800000 
 922 0240 20403FC0 		.ascii	" @?\300$@$\000\030\000\000\000"
 922      24402400 
 922      18000000 
 923 024c 1F802140 		.ascii	"\037\200!@!@ \340\037\240\000\000"
 923      214020E0 
 923      1FA00000 
 924 0258 20403FC0 		.ascii	" @?\300$@&\000\031\300\000@"
 924      24402600 
 924      19C00040 
 925 0264 18C02440 		.ascii	"\030\300$@$@\"@1\200\000\000"
 925      24402240 
 925      31800000 
 926 0270 30002040 		.ascii	"0\000 @?\300 @0\000\000\000"
 926      3FC02040 
 926      30000000 
 927 027c 20003F80 		.ascii	" \000?\200\000@\000@?\200 \000"
 927      00400040 
 927      3F802000 
 928 0288 20003E00 		.ascii	" \000>\000\001\300\007\0008\000 \000"
 928      01C00700 
 928      38002000 
 929 0294 380007C0 		.ascii	"8\000\007\300<\000\007\3008\000\000\000"
 929      3C0007C0 
 929      38000000 
 930 02a0 204039C0 		.ascii	" @9\300\006\0009\300 @\000\000"
ARM GAS  C:\Users\Administrator\AppData\Local\Temp\ccMuDVdN.s 			page 21


 930      060039C0 
 930      20400000 
 931 02ac 20003840 		.ascii	" \0008@\007\3008@ \000\000\000"
 931      07C03840 
 931      20000000 
 932 02b8 304021C0 		.ascii	"0@!\300&@8@ \300\000\000"
 932      26403840 
 932      20C00000 
 933 02c4 00000000 		.ascii	"\000\000\000\000\177\340@ @ \000\000"
 933      7FE04020 
 933      40200000 
 934 02d0 00007000 		.ascii	"\000\000p\000\014\000\003\200\000@\000\000"
 934      0C000380 
 934      00400000 
 935 02dc 00004020 		.ascii	"\000\000@ @ \177\340\000\000\000\000"
 935      40207FE0 
 935      00000000 
 936 02e8 00002000 		.ascii	"\000\000 \000@\000 \000\000\000\000\000"
 936      40002000 
 936      00000000 
 937 02f4 00100010 		.ascii	"\000\020\000\020\000\020\000\020\000\020\000\020"
 937      00100010 
 937      00100010 
 938 0300 00000000 		.ascii	"\000\000\000\000@\000\000\000\000\000\000\000"
 938      40000000 
 938      00000000 
 939 030c 00000280 		.ascii	"\000\000\002\200\005@\005@\003\300\000@"
 939      05400540 
 939      03C00040 
 940 0318 20003FC0 		.ascii	" \000?\300\004@\004@\003\200\000\000"
 940      04400440 
 940      03800000 
 941 0324 00000380 		.ascii	"\000\000\003\200\004@\004@\006@\000\000"
 941      04400440 
 941      06400000 
 942 0330 00000380 		.ascii	"\000\000\003\200\004@$@?\300\000@"
 942      04402440 
 942      3FC00040 
 943 033c 00000380 		.ascii	"\000\000\003\200\005@\005@\003@\000\000"
 943      05400540 
 943      03400000 
 944 0348 00000440 		.ascii	"\000\000\004@\037\300$@$@ \000"
 944      1FC02440 
 944      24402000 
 945 0354 000002E0 		.ascii	"\000\000\002\340\005P\005P\006P\004 "
 945      05500550 
 945      06500420 
 946 0360 20403FC0 		.ascii	" @?\300\004@\004\000\003\300\000@"
 946      04400400 
 946      03C00040 
 947 036c 00000440 		.ascii	"\000\000\004@'\300\000@\000\000\000\000"
 947      27C00040 
 947      00000000 
 948 0378 00100010 		.ascii	"\000\020\000\020\004\020'\340\000\000\000\000"
 948      041027E0 
 948      00000000 
 949 0384 20403FC0 		.ascii	" @?\300\001@\007\000\004\300\004@"
ARM GAS  C:\Users\Administrator\AppData\Local\Temp\ccMuDVdN.s 			page 22


 949      01400700 
 949      04C00440 
 950 0390 20402040 		.ascii	" @ @?\300\000@\000@\000\000"
 950      3FC00040 
 950      00400000 
 951 039c 07C00400 		.ascii	"\007\300\004\000\007\300\004\000\003\300\000\000"
 951      07C00400 
 951      03C00000 
 952 03a8 044007C0 		.ascii	"\004@\007\300\004@\004\000\003\300\000@"
 952      04400400 
 952      03C00040 
 953 03b4 00000380 		.ascii	"\000\000\003\200\004@\004@\003\200\000\000"
 953      04400440 
 953      03800000 
 954 03c0 041007F0 		.ascii	"\004\020\007\360\004P\004@\003\200\000\000"
 954      04500440 
 954      03800000 
 955 03cc 00000380 		.ascii	"\000\000\003\200\004@\004P\007\360\000\020"
 955      04400450 
 955      07F00010 
 956 03d8 044007C0 		.ascii	"\004@\007\300\002@\004\000\004\000\000\000"
 956      02400400 
 956      04000000 
 957 03e4 00000640 		.ascii	"\000\000\006@\005@\005@\004\300\000\000"
 957      05400540 
 957      04C00000 
 958 03f0 00000400 		.ascii	"\000\000\004\000\037\200\004@\000@\000\000"
 958      1F800440 
 958      00400000 
 959 03fc 04000780 		.ascii	"\004\000\007\200\000@\004@\007\300\000@"
 959      00400440 
 959      07C00040 
 960 0408 04000700 		.ascii	"\004\000\007\000\004\300\001\200\006\000\004\000"
 960      04C00180 
 960      06000400 
 961 0414 060001C0 		.ascii	"\006\000\001\300\007\000\001\300\006\000\000\000"
 961      070001C0 
 961      06000000 
 962 0420 044006C0 		.ascii	"\004@\006\300\001\000\006\300\004@\000\000"
 962      010006C0 
 962      04400000 
 963 042c 04100710 		.ascii	"\004\020\007\020\004\340\001\200\006\000\004\000"
 963      04E00180 
 963      06000400 
 964 0438 00000440 		.ascii	"\000\000\004@\005\300\006@\004@\000\000"
 964      05C00640 
 964      04400000 
 965 0444 00000000 		.ascii	"\000\000\000\000\004\000{\340@ \000\000"
 965      04007BE0 
 965      40200000 
 966 0450 00000000 		.ascii	"\000\000\000\000\000\000\377\360\000\000\000\000"
 966      0000FFF0 
 966      00000000 
 967 045c 00004020 		.ascii	"\000\000@ {\340\004\000\000\000\000\000"
 967      7BE00400 
 967      00000000 
 968 0468 40008000 		.ascii	"@\000\200\000@\000 \000 \000@\000"
ARM GAS  C:\Users\Administrator\AppData\Local\Temp\ccMuDVdN.s 			page 23


 968      40002000 
 968      20004000 
 969              		.ident	"GCC: (xPack GNU Arm Embedded GCC x86_64) 15.2.1 20251203"
ARM GAS  C:\Users\Administrator\AppData\Local\Temp\ccMuDVdN.s 			page 24

