ARM GAS  C:\Users\Administrator\AppData\Local\Temp\ccNwC1KZ.s 			page 1


   1              		.cpu cortex-m4
   2              		.arch armv7e-m
   3              		.fpu fpv4-sp-d16
   4              		.eabi_attribute 27, 1
   5              		.eabi_attribute 28, 1
   6              		.eabi_attribute 20, 1
   7              		.eabi_attribute 21, 1
   8              		.eabi_attribute 23, 3
   9              		.eabi_attribute 24, 1
  10              		.eabi_attribute 25, 1
  11              		.eabi_attribute 26, 1
  12              		.eabi_attribute 30, 1
  13              		.eabi_attribute 34, 1
  14              		.eabi_attribute 18, 4
  15              		.file	"RLS.c"
  16              		.text
  17              		.section	.text.RLS_Init,"ax",%progbits
  18              		.align	1
  19              		.global	RLS_Init
  20              		.syntax unified
  21              		.thumb
  22              		.thumb_func
  24              	RLS_Init:
  25              		@ args = 0, pretend = 0, frame = 0
  26              		@ frame_needed = 0, uses_anonymous_args = 0
  27 0000 2DE9F843 		push	{r3, r4, r5, r6, r7, r8, r9, lr}
  28 0004 0446     		mov	r4, r0
  29 0006 0D46     		mov	r5, r1
  30 0008 10EE109A 		vmov	r9, s0
  31 000c 10EE908A 		vmov	r8, s1
  32 0010 634E     		ldr	r6, .L3
  33 0012 0423     		movs	r3, #4
  34 0014 3380     		strh	r3, [r6]	@ movhi
  35 0016 634B     		ldr	r3, .L3+4
  36 0018 0822     		movs	r2, #8
  37 001a 1A80     		strh	r2, [r3]	@ movhi
  38 001c 0170     		strb	r1, [r0]
  39 001e 8F00     		lsls	r7, r1, #2
  40 0020 3846     		mov	r0, r7
  41 0022 FFF7FEFF 		bl	malloc
  42 0026 6065     		str	r0, [r4, #84]
  43 0028 3A46     		mov	r2, r7
  44 002a 0021     		movs	r1, #0
  45 002c FFF7FEFF 		bl	memset
  46 0030 636D     		ldr	r3, [r4, #84]
  47 0032 0122     		movs	r2, #1
  48 0034 2178     		ldrb	r1, [r4]	@ zero_extendqisi2
  49 0036 201D     		adds	r0, r4, #4
  50 0038 FFF7FEFF 		bl	arm_mat_init_f32
  51 003c 3788     		ldrh	r7, [r6]
  52 003e 05FB07F7 		mul	r7, r5, r7
  53 0042 3846     		mov	r0, r7
  54 0044 FFF7FEFF 		bl	malloc
  55 0048 A065     		str	r0, [r4, #88]
  56 004a 3A46     		mov	r2, r7
  57 004c 0021     		movs	r1, #0
  58 004e FFF7FEFF 		bl	memset
ARM GAS  C:\Users\Administrator\AppData\Local\Temp\ccNwC1KZ.s 			page 2


  59 0052 A36D     		ldr	r3, [r4, #88]
  60 0054 2278     		ldrb	r2, [r4]	@ zero_extendqisi2
  61 0056 0121     		movs	r1, #1
  62 0058 04F10C00 		add	r0, r4, #12
  63 005c FFF7FEFF 		bl	arm_mat_init_f32
  64 0060 3788     		ldrh	r7, [r6]
  65 0062 05FB07F7 		mul	r7, r5, r7
  66 0066 05FB07F7 		mul	r7, r5, r7
  67 006a 3846     		mov	r0, r7
  68 006c FFF7FEFF 		bl	malloc
  69 0070 A066     		str	r0, [r4, #104]
  70 0072 3A46     		mov	r2, r7
  71 0074 0021     		movs	r1, #0
  72 0076 FFF7FEFF 		bl	memset
  73 007a 2178     		ldrb	r1, [r4]	@ zero_extendqisi2
  74 007c A36E     		ldr	r3, [r4, #104]
  75 007e 0A46     		mov	r2, r1
  76 0080 04F12400 		add	r0, r4, #36
  77 0084 FFF7FEFF 		bl	arm_mat_init_f32
  78 0088 3788     		ldrh	r7, [r6]
  79 008a 05FB07F7 		mul	r7, r5, r7
  80 008e 3846     		mov	r0, r7
  81 0090 FFF7FEFF 		bl	malloc
  82 0094 2066     		str	r0, [r4, #96]
  83 0096 3A46     		mov	r2, r7
  84 0098 0021     		movs	r1, #0
  85 009a FFF7FEFF 		bl	memset
  86 009e 236E     		ldr	r3, [r4, #96]
  87 00a0 0122     		movs	r2, #1
  88 00a2 2178     		ldrb	r1, [r4]	@ zero_extendqisi2
  89 00a4 04F11400 		add	r0, r4, #20
  90 00a8 FFF7FEFF 		bl	arm_mat_init_f32
  91 00ac 3788     		ldrh	r7, [r6]
  92 00ae 05FB07F7 		mul	r7, r5, r7
  93 00b2 3846     		mov	r0, r7
  94 00b4 FFF7FEFF 		bl	malloc
  95 00b8 6066     		str	r0, [r4, #100]
  96 00ba 3A46     		mov	r2, r7
  97 00bc 0021     		movs	r1, #0
  98 00be FFF7FEFF 		bl	memset
  99 00c2 636E     		ldr	r3, [r4, #100]
 100 00c4 0122     		movs	r2, #1
 101 00c6 2178     		ldrb	r1, [r4]	@ zero_extendqisi2
 102 00c8 04F11C00 		add	r0, r4, #28
 103 00cc FFF7FEFF 		bl	arm_mat_init_f32
 104 00d0 3788     		ldrh	r7, [r6]
 105 00d2 3846     		mov	r0, r7
 106 00d4 FFF7FEFF 		bl	malloc
 107 00d8 E066     		str	r0, [r4, #108]
 108 00da 3A46     		mov	r2, r7
 109 00dc 0021     		movs	r1, #0
 110 00de FFF7FEFF 		bl	memset
 111 00e2 E36E     		ldr	r3, [r4, #108]
 112 00e4 0122     		movs	r2, #1
 113 00e6 1146     		mov	r1, r2
 114 00e8 04F12C00 		add	r0, r4, #44
 115 00ec FFF7FEFF 		bl	arm_mat_init_f32
ARM GAS  C:\Users\Administrator\AppData\Local\Temp\ccNwC1KZ.s 			page 3


 116 00f0 3788     		ldrh	r7, [r6]
 117 00f2 05FB07F7 		mul	r7, r5, r7
 118 00f6 3846     		mov	r0, r7
 119 00f8 FFF7FEFF 		bl	malloc
 120 00fc A067     		str	r0, [r4, #120]
 121 00fe 3A46     		mov	r2, r7
 122 0100 0021     		movs	r1, #0
 123 0102 FFF7FEFF 		bl	memset
 124 0106 A36F     		ldr	r3, [r4, #120]
 125 0108 0122     		movs	r2, #1
 126 010a 2178     		ldrb	r1, [r4]	@ zero_extendqisi2
 127 010c 04F14400 		add	r0, r4, #68
 128 0110 FFF7FEFF 		bl	arm_mat_init_f32
 129 0114 3788     		ldrh	r7, [r6]
 130 0116 05FB07F7 		mul	r7, r5, r7
 131 011a 3846     		mov	r0, r7
 132 011c FFF7FEFF 		bl	malloc
 133 0120 E067     		str	r0, [r4, #124]
 134 0122 3A46     		mov	r2, r7
 135 0124 0021     		movs	r1, #0
 136 0126 FFF7FEFF 		bl	memset
 137 012a E36F     		ldr	r3, [r4, #124]
 138 012c 0122     		movs	r2, #1
 139 012e 2178     		ldrb	r1, [r4]	@ zero_extendqisi2
 140 0130 04F14C00 		add	r0, r4, #76
 141 0134 FFF7FEFF 		bl	arm_mat_init_f32
 142 0138 3788     		ldrh	r7, [r6]
 143 013a 05FB07F7 		mul	r7, r5, r7
 144 013e 05FB07F7 		mul	r7, r5, r7
 145 0142 3846     		mov	r0, r7
 146 0144 FFF7FEFF 		bl	malloc
 147 0148 2067     		str	r0, [r4, #112]
 148 014a 3A46     		mov	r2, r7
 149 014c 0021     		movs	r1, #0
 150 014e FFF7FEFF 		bl	memset
 151 0152 2178     		ldrb	r1, [r4]	@ zero_extendqisi2
 152 0154 236F     		ldr	r3, [r4, #112]
 153 0156 0A46     		mov	r2, r1
 154 0158 04F13400 		add	r0, r4, #52
 155 015c FFF7FEFF 		bl	arm_mat_init_f32
 156 0160 3388     		ldrh	r3, [r6]
 157 0162 05FB03F3 		mul	r3, r5, r3
 158 0166 03FB05F5 		mul	r5, r3, r5
 159 016a 2846     		mov	r0, r5
 160 016c FFF7FEFF 		bl	malloc
 161 0170 6067     		str	r0, [r4, #116]
 162 0172 2A46     		mov	r2, r5
 163 0174 0021     		movs	r1, #0
 164 0176 FFF7FEFF 		bl	memset
 165 017a 2178     		ldrb	r1, [r4]	@ zero_extendqisi2
 166 017c 636F     		ldr	r3, [r4, #116]
 167 017e 0A46     		mov	r2, r1
 168 0180 04F13C00 		add	r0, r4, #60
 169 0184 FFF7FEFF 		bl	arm_mat_init_f32
 170 0188 4846     		mov	r0, r9	@ float
 171 018a FFF7FEFF 		bl	__aeabi_f2d
 172 018e C4E92001 		strd	r0, [r4, #128]
ARM GAS  C:\Users\Administrator\AppData\Local\Temp\ccNwC1KZ.s 			page 4


 173 0192 4046     		mov	r0, r8	@ float
 174 0194 FFF7FEFF 		bl	__aeabi_f2d
 175 0198 C4E92201 		strd	r0, [r4, #136]
 176 019c BDE8F883 		pop	{r3, r4, r5, r6, r7, r8, r9, pc}
 177              	.L4:
 178              		.align	2
 179              	.L3:
 180 01a0 00000000 		.word	sizeof_float
 181 01a4 00000000 		.word	sizeof_double
 183              		.section	.text.RLS_SetParam,"ax",%progbits
 184              		.align	1
 185              		.global	RLS_SetParam
 186              		.syntax unified
 187              		.thumb
 188              		.thumb_func
 190              	RLS_SetParam:
 191              		@ args = 0, pretend = 0, frame = 0
 192              		@ frame_needed = 0, uses_anonymous_args = 0
 193              		@ link register save eliminated.
 194 0000 0023     		movs	r3, #0
 195 0002 0AE0     		b	.L6
 196              	.L7:
 197 0004 426E     		ldr	r2, [r0, #100]
 198 0006 02EB8302 		add	r2, r2, r3, lsl #2
 199 000a 01EB830C 		add	ip, r1, r3, lsl #2
 200 000e DCF800C0 		ldr	ip, [ip]	@ float
 201 0012 C2F800C0 		str	ip, [r2]	@ float
 202 0016 0133     		adds	r3, r3, #1
 203 0018 DBB2     		uxtb	r3, r3
 204              	.L6:
 205 001a 0278     		ldrb	r2, [r0]	@ zero_extendqisi2
 206 001c 9A42     		cmp	r2, r3
 207 001e F1D8     		bhi	.L7
 208 0020 7047     		bx	lr
 210              		.section	.text.RLS_Reset,"ax",%progbits
 211              		.align	1
 212              		.global	RLS_Reset
 213              		.syntax unified
 214              		.thumb
 215              		.thumb_func
 217              	RLS_Reset:
 218              		@ args = 0, pretend = 0, frame = 0
 219              		@ frame_needed = 0, uses_anonymous_args = 0
 220 0000 70B5     		push	{r4, r5, r6, lr}
 221 0002 0546     		mov	r5, r0
 222 0004 0024     		movs	r4, #0
 223 0006 1AE0     		b	.L9
 224              	.L10:
 225 0008 AB6E     		ldr	r3, [r5, #104]
 226 000a EA8C     		ldrh	r2, [r5, #38]
 227 000c 02FB0442 		mla	r2, r2, r4, r4
 228 0010 03EB8203 		add	r3, r3, r2, lsl #2
 229 0014 4FF07E52 		mov	r2, #1065353216
 230 0018 1A60     		str	r2, [r3]	@ float
 231 001a AE6E     		ldr	r6, [r5, #104]
 232 001c EB8C     		ldrh	r3, [r5, #38]
 233 001e 04FB0343 		mla	r3, r4, r3, r4
ARM GAS  C:\Users\Administrator\AppData\Local\Temp\ccNwC1KZ.s 			page 5


 234 0022 06EB8306 		add	r6, r6, r3, lsl #2
 235 0026 3068     		ldr	r0, [r6]	@ float
 236 0028 FFF7FEFF 		bl	__aeabi_f2d
 237 002c D5E92023 		ldrd	r2, [r5, #128]
 238 0030 FFF7FEFF 		bl	__aeabi_dmul
 239 0034 FFF7FEFF 		bl	__aeabi_d2f
 240 0038 3060     		str	r0, [r6]	@ float
 241 003a 0134     		adds	r4, r4, #1
 242 003c E4B2     		uxtb	r4, r4
 243              	.L9:
 244 003e AB8C     		ldrh	r3, [r5, #36]
 245 0040 9C42     		cmp	r4, r3
 246 0042 E1D3     		bcc	.L10
 247 0044 084B     		ldr	r3, .L12
 248 0046 1C88     		ldrh	r4, [r3]
 249 0048 2A78     		ldrb	r2, [r5]	@ zero_extendqisi2
 250 004a 04FB02F2 		mul	r2, r4, r2
 251 004e 0021     		movs	r1, #0
 252 0050 286E     		ldr	r0, [r5, #96]
 253 0052 FFF7FEFF 		bl	memset
 254 0056 2A78     		ldrb	r2, [r5]	@ zero_extendqisi2
 255 0058 04FB02F2 		mul	r2, r4, r2
 256 005c 0021     		movs	r1, #0
 257 005e 686E     		ldr	r0, [r5, #100]
 258 0060 FFF7FEFF 		bl	memset
 259 0064 70BD     		pop	{r4, r5, r6, pc}
 260              	.L13:
 261 0066 00BF     		.align	2
 262              	.L12:
 263 0068 00000000 		.word	sizeof_float
 265              		.section	.text.RLS_Update,"ax",%progbits
 266              		.align	1
 267              		.global	RLS_Update
 268              		.syntax unified
 269              		.thumb
 270              		.thumb_func
 272              	RLS_Update:
 273              		@ args = 0, pretend = 0, frame = 8
 274              		@ frame_needed = 0, uses_anonymous_args = 0
 275 0000 2DE9F04F 		push	{r4, r5, r6, r7, r8, r9, r10, fp, lr}
 276 0004 2DED028B 		vpush.64	{d8}
 277 0008 83B0     		sub	sp, sp, #12
 278 000a 0446     		mov	r4, r0
 279 000c B0EE408A 		vmov.f32	s16, s0
 280 0010 0023     		movs	r3, #0
 281 0012 08E0     		b	.L15
 282              	.L16:
 283 0014 626D     		ldr	r2, [r4, #84]
 284 0016 02EB8302 		add	r2, r2, r3, lsl #2
 285 001a 01EB8300 		add	r0, r1, r3, lsl #2
 286 001e 0068     		ldr	r0, [r0]	@ float
 287 0020 1060     		str	r0, [r2]	@ float
 288 0022 0133     		adds	r3, r3, #1
 289 0024 DBB2     		uxtb	r3, r3
 290              	.L15:
 291 0026 A088     		ldrh	r0, [r4, #4]
 292 0028 E288     		ldrh	r2, [r4, #6]
ARM GAS  C:\Users\Administrator\AppData\Local\Temp\ccNwC1KZ.s 			page 6


 293 002a 00FB02F2 		mul	r2, r0, r2
 294 002e 9342     		cmp	r3, r2
 295 0030 F0DB     		blt	.L16
 296 0032 A4F84400 		strh	r0, [r4, #68]	@ movhi
 297 0036 0127     		movs	r7, #1
 298 0038 A4F84670 		strh	r7, [r4, #70]	@ movhi
 299 003c 04F12409 		add	r9, r4, #36
 300 0040 251D     		adds	r5, r4, #4
 301 0042 04F14402 		add	r2, r4, #68
 302 0046 2946     		mov	r1, r5
 303 0048 4846     		mov	r0, r9
 304 004a FFF7FEFF 		bl	arm_mat_mult_f32
 305 004e 6070     		strb	r0, [r4, #1]
 306 0050 04F10C06 		add	r6, r4, #12
 307 0054 3146     		mov	r1, r6
 308 0056 2846     		mov	r0, r5
 309 0058 FFF7FEFF 		bl	arm_mat_trans_f32
 310 005c 6070     		strb	r0, [r4, #1]
 311 005e A4F84C70 		strh	r7, [r4, #76]	@ movhi
 312 0062 E389     		ldrh	r3, [r4, #14]
 313 0064 A4F84E30 		strh	r3, [r4, #78]	@ movhi
 314 0068 04F14C0A 		add	r10, r4, #76
 315 006c 5246     		mov	r2, r10
 316 006e 4946     		mov	r1, r9
 317 0070 3046     		mov	r0, r6
 318 0072 FFF7FEFF 		bl	arm_mat_mult_f32
 319 0076 6070     		strb	r0, [r4, #1]
 320 0078 A785     		strh	r7, [r4, #44]	@ movhi
 321 007a E785     		strh	r7, [r4, #46]	@ movhi
 322 007c 04F12C08 		add	r8, r4, #44
 323 0080 4246     		mov	r2, r8
 324 0082 2946     		mov	r1, r5
 325 0084 5046     		mov	r0, r10
 326 0086 FFF7FEFF 		bl	arm_mat_mult_f32
 327 008a 6070     		strb	r0, [r4, #1]
 328 008c 0025     		movs	r5, #0
 329 008e CB46     		mov	fp, r9
 330 0090 CDF80480 		str	r8, [sp, #4]
 331 0094 2CE0     		b	.L17
 332              	.L18:
 333 0096 A76F     		ldr	r7, [r4, #120]
 334 0098 4FEA850A 		lsl	r10, r5, #2
 335 009c 07EB8507 		add	r7, r7, r5, lsl #2
 336 00a0 3868     		ldr	r0, [r7]	@ float
 337 00a2 FFF7FEFF 		bl	__aeabi_f2d
 338 00a6 8046     		mov	r8, r0
 339 00a8 8946     		mov	r9, r1
 340 00aa E36E     		ldr	r3, [r4, #108]
 341 00ac 1868     		ldr	r0, [r3]	@ float
 342 00ae FFF7FEFF 		bl	__aeabi_f2d
 343 00b2 D4E92223 		ldrd	r2, [r4, #136]
 344 00b6 FFF7FEFF 		bl	__aeabi_ddiv
 345 00ba 0022     		movs	r2, #0
 346 00bc 514B     		ldr	r3, .L26
 347 00be FFF7FEFF 		bl	__aeabi_dadd
 348 00c2 0246     		mov	r2, r0
 349 00c4 0B46     		mov	r3, r1
ARM GAS  C:\Users\Administrator\AppData\Local\Temp\ccNwC1KZ.s 			page 7


 350 00c6 4046     		mov	r0, r8
 351 00c8 4946     		mov	r1, r9
 352 00ca FFF7FEFF 		bl	__aeabi_ddiv
 353 00ce FFF7FEFF 		bl	__aeabi_d2f
 354 00d2 3860     		str	r0, [r7]	@ float
 355 00d4 A76F     		ldr	r7, [r4, #120]
 356 00d6 5744     		add	r7, r7, r10
 357 00d8 3868     		ldr	r0, [r7]	@ float
 358 00da FFF7FEFF 		bl	__aeabi_f2d
 359 00de D4E92223 		ldrd	r2, [r4, #136]
 360 00e2 FFF7FEFF 		bl	__aeabi_ddiv
 361 00e6 FFF7FEFF 		bl	__aeabi_d2f
 362 00ea 3860     		str	r0, [r7]	@ float
 363 00ec 0135     		adds	r5, r5, #1
 364 00ee EDB2     		uxtb	r5, r5
 365              	.L17:
 366 00f0 B4F84430 		ldrh	r3, [r4, #68]
 367 00f4 B4F84620 		ldrh	r2, [r4, #70]
 368 00f8 02FB03F3 		mul	r3, r2, r3
 369 00fc 9D42     		cmp	r5, r3
 370 00fe CADB     		blt	.L18
 371 0100 D946     		mov	r9, fp
 372 0102 DDF80480 		ldr	r8, [sp, #4]
 373 0106 0023     		movs	r3, #0
 374 0108 09E0     		b	.L19
 375              	.L20:
 376 010a A16F     		ldr	r1, [r4, #120]
 377 010c 226E     		ldr	r2, [r4, #96]
 378 010e 02EB8302 		add	r2, r2, r3, lsl #2
 379 0112 01EB8301 		add	r1, r1, r3, lsl #2
 380 0116 0968     		ldr	r1, [r1]	@ float
 381 0118 1160     		str	r1, [r2]	@ float
 382 011a 0133     		adds	r3, r3, #1
 383 011c DBB2     		uxtb	r3, r3
 384              	.L19:
 385 011e A28A     		ldrh	r2, [r4, #20]
 386 0120 E18A     		ldrh	r1, [r4, #22]
 387 0122 01FB02F2 		mul	r2, r1, r2
 388 0126 9342     		cmp	r3, r2
 389 0128 EFDB     		blt	.L20
 390 012a 0123     		movs	r3, #1
 391 012c A385     		strh	r3, [r4, #44]	@ movhi
 392 012e E385     		strh	r3, [r4, #46]	@ movhi
 393 0130 04F11C05 		add	r5, r4, #28
 394 0134 4246     		mov	r2, r8
 395 0136 2946     		mov	r1, r5
 396 0138 3046     		mov	r0, r6
 397 013a FFF7FEFF 		bl	arm_mat_mult_f32
 398 013e 6070     		strb	r0, [r4, #1]
 399 0140 E36E     		ldr	r3, [r4, #108]
 400 0142 D3ED007A 		vldr.32	s15, [r3]
 401 0146 38EE670A 		vsub.f32	s0, s16, s15
 402 014a 0023     		movs	r3, #0
 403 014c 0AE0     		b	.L21
 404              	.L22:
 405 014e 226E     		ldr	r2, [r4, #96]
 406 0150 02EB8302 		add	r2, r2, r3, lsl #2
ARM GAS  C:\Users\Administrator\AppData\Local\Temp\ccNwC1KZ.s 			page 8


 407 0154 D2ED007A 		vldr.32	s15, [r2]
 408 0158 67EE807A 		vmul.f32	s15, s15, s0
 409 015c C2ED007A 		vstr.32	s15, [r2]
 410 0160 0133     		adds	r3, r3, #1
 411 0162 DBB2     		uxtb	r3, r3
 412              	.L21:
 413 0164 A28A     		ldrh	r2, [r4, #20]
 414 0166 E18A     		ldrh	r1, [r4, #22]
 415 0168 01FB02F2 		mul	r2, r1, r2
 416 016c 9342     		cmp	r3, r2
 417 016e EEDB     		blt	.L22
 418 0170 04F11407 		add	r7, r4, #20
 419 0174 2A46     		mov	r2, r5
 420 0176 3946     		mov	r1, r7
 421 0178 2846     		mov	r0, r5
 422 017a FFF7FEFF 		bl	arm_mat_add_f32
 423 017e 6070     		strb	r0, [r4, #1]
 424 0180 A38C     		ldrh	r3, [r4, #36]
 425 0182 A386     		strh	r3, [r4, #52]	@ movhi
 426 0184 E38C     		ldrh	r3, [r4, #38]
 427 0186 E386     		strh	r3, [r4, #54]	@ movhi
 428 0188 04F13408 		add	r8, r4, #52
 429 018c 4246     		mov	r2, r8
 430 018e 3146     		mov	r1, r6
 431 0190 3846     		mov	r0, r7
 432 0192 FFF7FEFF 		bl	arm_mat_mult_f32
 433 0196 6070     		strb	r0, [r4, #1]
 434 0198 A38C     		ldrh	r3, [r4, #36]
 435 019a A387     		strh	r3, [r4, #60]	@ movhi
 436 019c E38C     		ldrh	r3, [r4, #38]
 437 019e E387     		strh	r3, [r4, #62]	@ movhi
 438 01a0 04F13C05 		add	r5, r4, #60
 439 01a4 2A46     		mov	r2, r5
 440 01a6 4946     		mov	r1, r9
 441 01a8 4046     		mov	r0, r8
 442 01aa FFF7FEFF 		bl	arm_mat_mult_f32
 443 01ae 6070     		strb	r0, [r4, #1]
 444 01b0 A38C     		ldrh	r3, [r4, #36]
 445 01b2 A387     		strh	r3, [r4, #60]	@ movhi
 446 01b4 E38C     		ldrh	r3, [r4, #38]
 447 01b6 E387     		strh	r3, [r4, #62]	@ movhi
 448 01b8 2A46     		mov	r2, r5
 449 01ba 2946     		mov	r1, r5
 450 01bc 4846     		mov	r0, r9
 451 01be FFF7FEFF 		bl	arm_mat_sub_f32
 452 01c2 6070     		strb	r0, [r4, #1]
 453 01c4 0025     		movs	r5, #0
 454 01c6 11E0     		b	.L23
 455              	.L24:
 456 01c8 636F     		ldr	r3, [r4, #116]
 457 01ca AE00     		lsls	r6, r5, #2
 458 01cc 03EB8503 		add	r3, r3, r5, lsl #2
 459 01d0 1868     		ldr	r0, [r3]	@ float
 460 01d2 FFF7FEFF 		bl	__aeabi_f2d
 461 01d6 A36E     		ldr	r3, [r4, #104]
 462 01d8 1E44     		add	r6, r6, r3
 463 01da D4E92223 		ldrd	r2, [r4, #136]
ARM GAS  C:\Users\Administrator\AppData\Local\Temp\ccNwC1KZ.s 			page 9


 464 01de FFF7FEFF 		bl	__aeabi_ddiv
 465 01e2 FFF7FEFF 		bl	__aeabi_d2f
 466 01e6 3060     		str	r0, [r6]	@ float
 467 01e8 0135     		adds	r5, r5, #1
 468 01ea EDB2     		uxtb	r5, r5
 469              	.L23:
 470 01ec A38C     		ldrh	r3, [r4, #36]
 471 01ee E28C     		ldrh	r2, [r4, #38]
 472 01f0 02FB03F3 		mul	r3, r2, r3
 473 01f4 9D42     		cmp	r5, r3
 474 01f6 E7DB     		blt	.L24
 475 01f8 03B0     		add	sp, sp, #12
 476              		@ sp needed
 477 01fa BDEC028B 		vldm	sp!, {d8}
 478 01fe BDE8F08F 		pop	{r4, r5, r6, r7, r8, r9, r10, fp, pc}
 479              	.L27:
 480 0202 00BF     		.align	2
 481              	.L26:
 482 0204 0000F03F 		.word	1072693248
 484              		.section	.bss.sizeof_double,"aw",%nobits
 485              		.align	1
 488              	sizeof_double:
 489 0000 0000     		.space	2
 490              		.section	.bss.sizeof_float,"aw",%nobits
 491              		.align	1
 494              	sizeof_float:
 495 0000 0000     		.space	2
 496              		.global	__aeabi_dadd
 497              		.global	__aeabi_ddiv
 498              		.global	__aeabi_d2f
 499              		.global	__aeabi_dmul
 500              		.global	__aeabi_f2d
 501              		.ident	"GCC: (xPack GNU Arm Embedded GCC x86_64) 15.2.1 20251203"
ARM GAS  C:\Users\Administrator\AppData\Local\Temp\ccNwC1KZ.s 			page 10

