ARM GAS  C:\Users\Administrator\AppData\Local\Temp\cczSwMYD.s 			page 1


   1              		.cpu cortex-m4
   2              		.arch armv7e-m
   3              		.fpu fpv4-sp-d16
   4              		.eabi_attribute 27, 1
   5              		.eabi_attribute 28, 1
   6              		.eabi_attribute 20, 1
   7              		.eabi_attribute 21, 1
   8              		.eabi_attribute 23, 3
   9              		.eabi_attribute 24, 1
  10              		.eabi_attribute 25, 1
  11              		.eabi_attribute 26, 1
  12              		.eabi_attribute 30, 1
  13              		.eabi_attribute 34, 1
  14              		.eabi_attribute 18, 4
  15              		.file	"stm32f4xx_it.c"
  16              		.text
  17              		.section	.text.NMI_Handler,"ax",%progbits
  18              		.align	1
  19              		.global	NMI_Handler
  20              		.syntax unified
  21              		.thumb
  22              		.thumb_func
  24              	NMI_Handler:
  25              		@ Volatile: function does not return.
  26              		@ args = 0, pretend = 0, frame = 0
  27              		@ frame_needed = 0, uses_anonymous_args = 0
  28              		@ link register save eliminated.
  29              	.L2:
  30 0000 FEE7     		b	.L2
  32              		.section	.text.HardFault_Handler,"ax",%progbits
  33              		.align	1
  34              		.global	HardFault_Handler
  35              		.syntax unified
  36              		.thumb
  37              		.thumb_func
  39              	HardFault_Handler:
  40              		@ Volatile: function does not return.
  41              		@ args = 0, pretend = 0, frame = 0
  42              		@ frame_needed = 0, uses_anonymous_args = 0
  43              		@ link register save eliminated.
  44              		.syntax unified
  45              	@ 108 "Src/stm32f4xx_it.c" 1
  46 0000 7047     		bx lr
  47              	@ 0 "" 2
  48              		.thumb
  49              		.syntax unified
  50              	.L4:
  51              		.syntax unified
  52              	@ 113 "Src/stm32f4xx_it.c" 1
  53 0002 7047     		bx lr
  54              	@ 0 "" 2
  55              		.thumb
  56              		.syntax unified
  57 0004 FDE7     		b	.L4
  59              		.section	.text.MemManage_Handler,"ax",%progbits
  60              		.align	1
  61              		.global	MemManage_Handler
ARM GAS  C:\Users\Administrator\AppData\Local\Temp\cczSwMYD.s 			page 2


  62              		.syntax unified
  63              		.thumb
  64              		.thumb_func
  66              	MemManage_Handler:
  67              		@ Volatile: function does not return.
  68              		@ args = 0, pretend = 0, frame = 0
  69              		@ frame_needed = 0, uses_anonymous_args = 0
  70              		@ link register save eliminated.
  71              	.L6:
  72 0000 FEE7     		b	.L6
  74              		.section	.text.BusFault_Handler,"ax",%progbits
  75              		.align	1
  76              		.global	BusFault_Handler
  77              		.syntax unified
  78              		.thumb
  79              		.thumb_func
  81              	BusFault_Handler:
  82              		@ Volatile: function does not return.
  83              		@ args = 0, pretend = 0, frame = 0
  84              		@ frame_needed = 0, uses_anonymous_args = 0
  85              		@ link register save eliminated.
  86              	.L8:
  87 0000 FEE7     		b	.L8
  89              		.section	.text.UsageFault_Handler,"ax",%progbits
  90              		.align	1
  91              		.global	UsageFault_Handler
  92              		.syntax unified
  93              		.thumb
  94              		.thumb_func
  96              	UsageFault_Handler:
  97              		@ Volatile: function does not return.
  98              		@ args = 0, pretend = 0, frame = 0
  99              		@ frame_needed = 0, uses_anonymous_args = 0
 100              		@ link register save eliminated.
 101              	.L10:
 102 0000 FEE7     		b	.L10
 104              		.section	.text.DebugMon_Handler,"ax",%progbits
 105              		.align	1
 106              		.global	DebugMon_Handler
 107              		.syntax unified
 108              		.thumb
 109              		.thumb_func
 111              	DebugMon_Handler:
 112              		@ args = 0, pretend = 0, frame = 0
 113              		@ frame_needed = 0, uses_anonymous_args = 0
 114              		@ link register save eliminated.
 115 0000 7047     		bx	lr
 117              		.section	.text.FLASH_IRQHandler,"ax",%progbits
 118              		.align	1
 119              		.global	FLASH_IRQHandler
 120              		.syntax unified
 121              		.thumb
 122              		.thumb_func
 124              	FLASH_IRQHandler:
 125              		@ args = 0, pretend = 0, frame = 0
 126              		@ frame_needed = 0, uses_anonymous_args = 0
 127 0000 08B5     		push	{r3, lr}
ARM GAS  C:\Users\Administrator\AppData\Local\Temp\cczSwMYD.s 			page 3


 128 0002 FFF7FEFF 		bl	HAL_FLASH_IRQHandler
 129 0006 08BD     		pop	{r3, pc}
 131              		.section	.text.EXTI3_IRQHandler,"ax",%progbits
 132              		.align	1
 133              		.global	EXTI3_IRQHandler
 134              		.syntax unified
 135              		.thumb
 136              		.thumb_func
 138              	EXTI3_IRQHandler:
 139              		@ args = 0, pretend = 0, frame = 0
 140              		@ frame_needed = 0, uses_anonymous_args = 0
 141 0000 08B5     		push	{r3, lr}
 142 0002 0820     		movs	r0, #8
 143 0004 FFF7FEFF 		bl	HAL_GPIO_EXTI_IRQHandler
 144 0008 08BD     		pop	{r3, pc}
 146              		.section	.text.EXTI4_IRQHandler,"ax",%progbits
 147              		.align	1
 148              		.global	EXTI4_IRQHandler
 149              		.syntax unified
 150              		.thumb
 151              		.thumb_func
 153              	EXTI4_IRQHandler:
 154              		@ args = 0, pretend = 0, frame = 0
 155              		@ frame_needed = 0, uses_anonymous_args = 0
 156 0000 08B5     		push	{r3, lr}
 157 0002 1020     		movs	r0, #16
 158 0004 FFF7FEFF 		bl	HAL_GPIO_EXTI_IRQHandler
 159 0008 08BD     		pop	{r3, pc}
 161              		.section	.text.DMA1_Stream1_IRQHandler,"ax",%progbits
 162              		.align	1
 163              		.global	DMA1_Stream1_IRQHandler
 164              		.syntax unified
 165              		.thumb
 166              		.thumb_func
 168              	DMA1_Stream1_IRQHandler:
 169              		@ args = 0, pretend = 0, frame = 0
 170              		@ frame_needed = 0, uses_anonymous_args = 0
 171 0000 08B5     		push	{r3, lr}
 172 0002 0248     		ldr	r0, .L20
 173 0004 FFF7FEFF 		bl	HAL_DMA_IRQHandler
 174 0008 08BD     		pop	{r3, pc}
 175              	.L21:
 176 000a 00BF     		.align	2
 177              	.L20:
 178 000c 00000000 		.word	hdma_usart3_rx
 180              		.section	.text.DMA1_Stream2_IRQHandler,"ax",%progbits
 181              		.align	1
 182              		.global	DMA1_Stream2_IRQHandler
 183              		.syntax unified
 184              		.thumb
 185              		.thumb_func
 187              	DMA1_Stream2_IRQHandler:
 188              		@ args = 0, pretend = 0, frame = 0
 189              		@ frame_needed = 0, uses_anonymous_args = 0
 190 0000 08B5     		push	{r3, lr}
 191 0002 0248     		ldr	r0, .L24
 192 0004 FFF7FEFF 		bl	HAL_DMA_IRQHandler
ARM GAS  C:\Users\Administrator\AppData\Local\Temp\cczSwMYD.s 			page 4


 193 0008 08BD     		pop	{r3, pc}
 194              	.L25:
 195 000a 00BF     		.align	2
 196              	.L24:
 197 000c 00000000 		.word	hdma_i2c2_rx
 199              		.section	.text.CAN1_RX0_IRQHandler,"ax",%progbits
 200              		.align	1
 201              		.global	CAN1_RX0_IRQHandler
 202              		.syntax unified
 203              		.thumb
 204              		.thumb_func
 206              	CAN1_RX0_IRQHandler:
 207              		@ args = 0, pretend = 0, frame = 0
 208              		@ frame_needed = 0, uses_anonymous_args = 0
 209 0000 08B5     		push	{r3, lr}
 210 0002 0248     		ldr	r0, .L28
 211 0004 FFF7FEFF 		bl	HAL_CAN_IRQHandler
 212 0008 08BD     		pop	{r3, pc}
 213              	.L29:
 214 000a 00BF     		.align	2
 215              	.L28:
 216 000c 00000000 		.word	hcan1
 218              		.section	.text.CAN1_RX1_IRQHandler,"ax",%progbits
 219              		.align	1
 220              		.global	CAN1_RX1_IRQHandler
 221              		.syntax unified
 222              		.thumb
 223              		.thumb_func
 225              	CAN1_RX1_IRQHandler:
 226              		@ args = 0, pretend = 0, frame = 0
 227              		@ frame_needed = 0, uses_anonymous_args = 0
 228 0000 08B5     		push	{r3, lr}
 229 0002 0248     		ldr	r0, .L32
 230 0004 FFF7FEFF 		bl	HAL_CAN_IRQHandler
 231 0008 08BD     		pop	{r3, pc}
 232              	.L33:
 233 000a 00BF     		.align	2
 234              	.L32:
 235 000c 00000000 		.word	hcan1
 237              		.section	.text.EXTI9_5_IRQHandler,"ax",%progbits
 238              		.align	1
 239              		.global	EXTI9_5_IRQHandler
 240              		.syntax unified
 241              		.thumb
 242              		.thumb_func
 244              	EXTI9_5_IRQHandler:
 245              		@ args = 0, pretend = 0, frame = 0
 246              		@ frame_needed = 0, uses_anonymous_args = 0
 247 0000 08B5     		push	{r3, lr}
 248 0002 2020     		movs	r0, #32
 249 0004 FFF7FEFF 		bl	HAL_GPIO_EXTI_IRQHandler
 250 0008 08BD     		pop	{r3, pc}
 252              		.section	.text.I2C2_EV_IRQHandler,"ax",%progbits
 253              		.align	1
 254              		.global	I2C2_EV_IRQHandler
 255              		.syntax unified
 256              		.thumb
ARM GAS  C:\Users\Administrator\AppData\Local\Temp\cczSwMYD.s 			page 5


 257              		.thumb_func
 259              	I2C2_EV_IRQHandler:
 260              		@ args = 0, pretend = 0, frame = 0
 261              		@ frame_needed = 0, uses_anonymous_args = 0
 262 0000 08B5     		push	{r3, lr}
 263 0002 0248     		ldr	r0, .L38
 264 0004 FFF7FEFF 		bl	HAL_I2C_EV_IRQHandler
 265 0008 08BD     		pop	{r3, pc}
 266              	.L39:
 267 000a 00BF     		.align	2
 268              	.L38:
 269 000c 00000000 		.word	hi2c2
 271              		.section	.text.I2C2_ER_IRQHandler,"ax",%progbits
 272              		.align	1
 273              		.global	I2C2_ER_IRQHandler
 274              		.syntax unified
 275              		.thumb
 276              		.thumb_func
 278              	I2C2_ER_IRQHandler:
 279              		@ args = 0, pretend = 0, frame = 0
 280              		@ frame_needed = 0, uses_anonymous_args = 0
 281 0000 08B5     		push	{r3, lr}
 282 0002 0248     		ldr	r0, .L42
 283 0004 FFF7FEFF 		bl	HAL_I2C_ER_IRQHandler
 284 0008 08BD     		pop	{r3, pc}
 285              	.L43:
 286 000a 00BF     		.align	2
 287              	.L42:
 288 000c 00000000 		.word	hi2c2
 290              		.section	.text.SPI1_IRQHandler,"ax",%progbits
 291              		.align	1
 292              		.global	SPI1_IRQHandler
 293              		.syntax unified
 294              		.thumb
 295              		.thumb_func
 297              	SPI1_IRQHandler:
 298              		@ args = 0, pretend = 0, frame = 0
 299              		@ frame_needed = 0, uses_anonymous_args = 0
 300 0000 08B5     		push	{r3, lr}
 301 0002 0248     		ldr	r0, .L46
 302 0004 FFF7FEFF 		bl	HAL_SPI_IRQHandler
 303 0008 08BD     		pop	{r3, pc}
 304              	.L47:
 305 000a 00BF     		.align	2
 306              	.L46:
 307 000c 00000000 		.word	hspi1
 309              		.section	.text.SPI2_IRQHandler,"ax",%progbits
 310              		.align	1
 311              		.global	SPI2_IRQHandler
 312              		.syntax unified
 313              		.thumb
 314              		.thumb_func
 316              	SPI2_IRQHandler:
 317              		@ args = 0, pretend = 0, frame = 0
 318              		@ frame_needed = 0, uses_anonymous_args = 0
 319 0000 08B5     		push	{r3, lr}
 320 0002 0248     		ldr	r0, .L50
ARM GAS  C:\Users\Administrator\AppData\Local\Temp\cczSwMYD.s 			page 6


 321 0004 FFF7FEFF 		bl	HAL_SPI_IRQHandler
 322 0008 08BD     		pop	{r3, pc}
 323              	.L51:
 324 000a 00BF     		.align	2
 325              	.L50:
 326 000c 00000000 		.word	hspi2
 328              		.section	.text.USART1_IRQHandler,"ax",%progbits
 329              		.align	1
 330              		.global	USART1_IRQHandler
 331              		.syntax unified
 332              		.thumb
 333              		.thumb_func
 335              	USART1_IRQHandler:
 336              		@ args = 0, pretend = 0, frame = 0
 337              		@ frame_needed = 0, uses_anonymous_args = 0
 338 0000 08B5     		push	{r3, lr}
 339 0002 0248     		ldr	r0, .L54
 340 0004 FFF7FEFF 		bl	HAL_UART_IRQHandler
 341 0008 08BD     		pop	{r3, pc}
 342              	.L55:
 343 000a 00BF     		.align	2
 344              	.L54:
 345 000c 00000000 		.word	huart1
 347              		.section	.text.USART3_IRQHandler,"ax",%progbits
 348              		.align	1
 349              		.global	USART3_IRQHandler
 350              		.syntax unified
 351              		.thumb
 352              		.thumb_func
 354              	USART3_IRQHandler:
 355              		@ args = 0, pretend = 0, frame = 0
 356              		@ frame_needed = 0, uses_anonymous_args = 0
 357 0000 08B5     		push	{r3, lr}
 358 0002 0248     		ldr	r0, .L58
 359 0004 FFF7FEFF 		bl	HAL_UART_IRQHandler
 360 0008 08BD     		pop	{r3, pc}
 361              	.L59:
 362 000a 00BF     		.align	2
 363              	.L58:
 364 000c 00000000 		.word	huart3
 366              		.section	.text.TIM8_TRG_COM_TIM14_IRQHandler,"ax",%progbits
 367              		.align	1
 368              		.global	TIM8_TRG_COM_TIM14_IRQHandler
 369              		.syntax unified
 370              		.thumb
 371              		.thumb_func
 373              	TIM8_TRG_COM_TIM14_IRQHandler:
 374              		@ args = 0, pretend = 0, frame = 0
 375              		@ frame_needed = 0, uses_anonymous_args = 0
 376 0000 08B5     		push	{r3, lr}
 377 0002 0348     		ldr	r0, .L62
 378 0004 FFF7FEFF 		bl	HAL_TIM_IRQHandler
 379 0008 0248     		ldr	r0, .L62+4
 380 000a FFF7FEFF 		bl	HAL_TIM_IRQHandler
 381 000e 08BD     		pop	{r3, pc}
 382              	.L63:
 383              		.align	2
ARM GAS  C:\Users\Administrator\AppData\Local\Temp\cczSwMYD.s 			page 7


 384              	.L62:
 385 0010 00000000 		.word	htim8
 386 0014 00000000 		.word	htim14
 388              		.section	.text.DMA1_Stream7_IRQHandler,"ax",%progbits
 389              		.align	1
 390              		.global	DMA1_Stream7_IRQHandler
 391              		.syntax unified
 392              		.thumb
 393              		.thumb_func
 395              	DMA1_Stream7_IRQHandler:
 396              		@ args = 0, pretend = 0, frame = 0
 397              		@ frame_needed = 0, uses_anonymous_args = 0
 398 0000 08B5     		push	{r3, lr}
 399 0002 0248     		ldr	r0, .L66
 400 0004 FFF7FEFF 		bl	HAL_DMA_IRQHandler
 401 0008 08BD     		pop	{r3, pc}
 402              	.L67:
 403 000a 00BF     		.align	2
 404              	.L66:
 405 000c 00000000 		.word	hdma_i2c2_tx
 407              		.section	.text.DMA2_Stream0_IRQHandler,"ax",%progbits
 408              		.align	1
 409              		.global	DMA2_Stream0_IRQHandler
 410              		.syntax unified
 411              		.thumb
 412              		.thumb_func
 414              	DMA2_Stream0_IRQHandler:
 415              		@ args = 0, pretend = 0, frame = 0
 416              		@ frame_needed = 0, uses_anonymous_args = 0
 417 0000 08B5     		push	{r3, lr}
 418 0002 0248     		ldr	r0, .L70
 419 0004 FFF7FEFF 		bl	HAL_DMA_IRQHandler
 420 0008 08BD     		pop	{r3, pc}
 421              	.L71:
 422 000a 00BF     		.align	2
 423              	.L70:
 424 000c 00000000 		.word	hdma_spi1_rx
 426              		.section	.text.DMA2_Stream2_IRQHandler,"ax",%progbits
 427              		.align	1
 428              		.global	DMA2_Stream2_IRQHandler
 429              		.syntax unified
 430              		.thumb
 431              		.thumb_func
 433              	DMA2_Stream2_IRQHandler:
 434              		@ args = 0, pretend = 0, frame = 0
 435              		@ frame_needed = 0, uses_anonymous_args = 0
 436 0000 08B5     		push	{r3, lr}
 437 0002 0248     		ldr	r0, .L74
 438 0004 FFF7FEFF 		bl	HAL_DMA_IRQHandler
 439 0008 08BD     		pop	{r3, pc}
 440              	.L75:
 441 000a 00BF     		.align	2
 442              	.L74:
 443 000c 00000000 		.word	hdma_usart6_rx
 445              		.section	.text.DMA2_Stream3_IRQHandler,"ax",%progbits
 446              		.align	1
 447              		.global	DMA2_Stream3_IRQHandler
ARM GAS  C:\Users\Administrator\AppData\Local\Temp\cczSwMYD.s 			page 8


 448              		.syntax unified
 449              		.thumb
 450              		.thumb_func
 452              	DMA2_Stream3_IRQHandler:
 453              		@ args = 0, pretend = 0, frame = 0
 454              		@ frame_needed = 0, uses_anonymous_args = 0
 455 0000 08B5     		push	{r3, lr}
 456 0002 0248     		ldr	r0, .L78
 457 0004 FFF7FEFF 		bl	HAL_DMA_IRQHandler
 458 0008 08BD     		pop	{r3, pc}
 459              	.L79:
 460 000a 00BF     		.align	2
 461              	.L78:
 462 000c 00000000 		.word	hdma_spi1_tx
 464              		.section	.text.CAN2_RX0_IRQHandler,"ax",%progbits
 465              		.align	1
 466              		.global	CAN2_RX0_IRQHandler
 467              		.syntax unified
 468              		.thumb
 469              		.thumb_func
 471              	CAN2_RX0_IRQHandler:
 472              		@ args = 0, pretend = 0, frame = 0
 473              		@ frame_needed = 0, uses_anonymous_args = 0
 474 0000 08B5     		push	{r3, lr}
 475 0002 0248     		ldr	r0, .L82
 476 0004 FFF7FEFF 		bl	HAL_CAN_IRQHandler
 477 0008 08BD     		pop	{r3, pc}
 478              	.L83:
 479 000a 00BF     		.align	2
 480              	.L82:
 481 000c 00000000 		.word	hcan2
 483              		.section	.text.CAN2_RX1_IRQHandler,"ax",%progbits
 484              		.align	1
 485              		.global	CAN2_RX1_IRQHandler
 486              		.syntax unified
 487              		.thumb
 488              		.thumb_func
 490              	CAN2_RX1_IRQHandler:
 491              		@ args = 0, pretend = 0, frame = 0
 492              		@ frame_needed = 0, uses_anonymous_args = 0
 493 0000 08B5     		push	{r3, lr}
 494 0002 0248     		ldr	r0, .L86
 495 0004 FFF7FEFF 		bl	HAL_CAN_IRQHandler
 496 0008 08BD     		pop	{r3, pc}
 497              	.L87:
 498 000a 00BF     		.align	2
 499              	.L86:
 500 000c 00000000 		.word	hcan2
 502              		.section	.text.OTG_FS_IRQHandler,"ax",%progbits
 503              		.align	1
 504              		.global	OTG_FS_IRQHandler
 505              		.syntax unified
 506              		.thumb
 507              		.thumb_func
 509              	OTG_FS_IRQHandler:
 510              		@ args = 0, pretend = 0, frame = 0
 511              		@ frame_needed = 0, uses_anonymous_args = 0
ARM GAS  C:\Users\Administrator\AppData\Local\Temp\cczSwMYD.s 			page 9


 512 0000 08B5     		push	{r3, lr}
 513 0002 0248     		ldr	r0, .L90
 514 0004 FFF7FEFF 		bl	HAL_PCD_IRQHandler
 515 0008 08BD     		pop	{r3, pc}
 516              	.L91:
 517 000a 00BF     		.align	2
 518              	.L90:
 519 000c 00000000 		.word	hpcd_USB_OTG_FS
 521              		.section	.text.DMA2_Stream5_IRQHandler,"ax",%progbits
 522              		.align	1
 523              		.global	DMA2_Stream5_IRQHandler
 524              		.syntax unified
 525              		.thumb
 526              		.thumb_func
 528              	DMA2_Stream5_IRQHandler:
 529              		@ args = 0, pretend = 0, frame = 0
 530              		@ frame_needed = 0, uses_anonymous_args = 0
 531 0000 08B5     		push	{r3, lr}
 532 0002 0248     		ldr	r0, .L94
 533 0004 FFF7FEFF 		bl	HAL_DMA_IRQHandler
 534 0008 08BD     		pop	{r3, pc}
 535              	.L95:
 536 000a 00BF     		.align	2
 537              	.L94:
 538 000c 00000000 		.word	hdma_usart1_rx
 540              		.section	.text.DMA2_Stream6_IRQHandler,"ax",%progbits
 541              		.align	1
 542              		.global	DMA2_Stream6_IRQHandler
 543              		.syntax unified
 544              		.thumb
 545              		.thumb_func
 547              	DMA2_Stream6_IRQHandler:
 548              		@ args = 0, pretend = 0, frame = 0
 549              		@ frame_needed = 0, uses_anonymous_args = 0
 550 0000 08B5     		push	{r3, lr}
 551 0002 0248     		ldr	r0, .L98
 552 0004 FFF7FEFF 		bl	HAL_DMA_IRQHandler
 553 0008 08BD     		pop	{r3, pc}
 554              	.L99:
 555 000a 00BF     		.align	2
 556              	.L98:
 557 000c 00000000 		.word	hdma_usart6_tx
 559              		.section	.text.DMA2_Stream7_IRQHandler,"ax",%progbits
 560              		.align	1
 561              		.global	DMA2_Stream7_IRQHandler
 562              		.syntax unified
 563              		.thumb
 564              		.thumb_func
 566              	DMA2_Stream7_IRQHandler:
 567              		@ args = 0, pretend = 0, frame = 0
 568              		@ frame_needed = 0, uses_anonymous_args = 0
 569 0000 08B5     		push	{r3, lr}
 570 0002 0248     		ldr	r0, .L102
 571 0004 FFF7FEFF 		bl	HAL_DMA_IRQHandler
 572 0008 08BD     		pop	{r3, pc}
 573              	.L103:
 574 000a 00BF     		.align	2
ARM GAS  C:\Users\Administrator\AppData\Local\Temp\cczSwMYD.s 			page 10


 575              	.L102:
 576 000c 00000000 		.word	hdma_usart1_tx
 578              		.section	.text.USART6_IRQHandler,"ax",%progbits
 579              		.align	1
 580              		.global	USART6_IRQHandler
 581              		.syntax unified
 582              		.thumb
 583              		.thumb_func
 585              	USART6_IRQHandler:
 586              		@ args = 0, pretend = 0, frame = 0
 587              		@ frame_needed = 0, uses_anonymous_args = 0
 588 0000 08B5     		push	{r3, lr}
 589 0002 0248     		ldr	r0, .L106
 590 0004 FFF7FEFF 		bl	HAL_UART_IRQHandler
 591 0008 08BD     		pop	{r3, pc}
 592              	.L107:
 593 000a 00BF     		.align	2
 594              	.L106:
 595 000c 00000000 		.word	huart6
 597              		.section	.text.I2C3_EV_IRQHandler,"ax",%progbits
 598              		.align	1
 599              		.global	I2C3_EV_IRQHandler
 600              		.syntax unified
 601              		.thumb
 602              		.thumb_func
 604              	I2C3_EV_IRQHandler:
 605              		@ args = 0, pretend = 0, frame = 0
 606              		@ frame_needed = 0, uses_anonymous_args = 0
 607 0000 08B5     		push	{r3, lr}
 608 0002 0248     		ldr	r0, .L110
 609 0004 FFF7FEFF 		bl	HAL_I2C_EV_IRQHandler
 610 0008 08BD     		pop	{r3, pc}
 611              	.L111:
 612 000a 00BF     		.align	2
 613              	.L110:
 614 000c 00000000 		.word	hi2c3
 616              		.section	.text.I2C3_ER_IRQHandler,"ax",%progbits
 617              		.align	1
 618              		.global	I2C3_ER_IRQHandler
 619              		.syntax unified
 620              		.thumb
 621              		.thumb_func
 623              	I2C3_ER_IRQHandler:
 624              		@ args = 0, pretend = 0, frame = 0
 625              		@ frame_needed = 0, uses_anonymous_args = 0
 626 0000 08B5     		push	{r3, lr}
 627 0002 0248     		ldr	r0, .L114
 628 0004 FFF7FEFF 		bl	HAL_I2C_ER_IRQHandler
 629 0008 08BD     		pop	{r3, pc}
 630              	.L115:
 631 000a 00BF     		.align	2
 632              	.L114:
 633 000c 00000000 		.word	hi2c3
 635              		.ident	"GCC: (xPack GNU Arm Embedded GCC x86_64) 15.2.1 20251203"
ARM GAS  C:\Users\Administrator\AppData\Local\Temp\cczSwMYD.s 			page 11

