ARM GAS  C:\Users\Administrator\AppData\Local\Temp\ccdDcLdm.s 			page 1


   1              		.cpu cortex-m4
   2              		.arch armv7e-m
   3              		.fpu fpv4-sp-d16
   4              		.eabi_attribute 27, 1
   5              		.eabi_attribute 28, 1
   6              		.eabi_attribute 20, 1
   7              		.eabi_attribute 21, 1
   8              		.eabi_attribute 23, 3
   9              		.eabi_attribute 24, 1
  10              		.eabi_attribute 25, 1
  11              		.eabi_attribute 26, 1
  12              		.eabi_attribute 30, 1
  13              		.eabi_attribute 34, 1
  14              		.eabi_attribute 18, 4
  15              		.file	"stm32f4xx_hal_tim.c"
  16              		.text
  17              		.section	.text.TIM_OC1_SetConfig,"ax",%progbits
  18              		.align	1
  19              		.syntax unified
  20              		.thumb
  21              		.thumb_func
  23              	TIM_OC1_SetConfig:
  24              		@ args = 0, pretend = 0, frame = 0
  25              		@ frame_needed = 0, uses_anonymous_args = 0
  26 0000 10B5     		push	{r4, lr}
  27 0002 036A     		ldr	r3, [r0, #32]
  28 0004 23F00103 		bic	r3, r3, #1
  29 0008 0362     		str	r3, [r0, #32]
  30 000a 036A     		ldr	r3, [r0, #32]
  31 000c 4268     		ldr	r2, [r0, #4]
  32 000e D0F818C0 		ldr	ip, [r0, #24]
  33 0012 2CF0730C 		bic	ip, ip, #115
  34 0016 0C68     		ldr	r4, [r1]
  35 0018 44EA0C0C 		orr	ip, r4, ip
  36 001c 23F0020E 		bic	lr, r3, #2
  37 0020 8B68     		ldr	r3, [r1, #8]
  38 0022 43EA0E03 		orr	r3, r3, lr
  39 0026 DFF848E0 		ldr	lr, .L7
  40 002a 7045     		cmp	r0, lr
  41 002c 03D0     		beq	.L2
  42 002e 0EF5806E 		add	lr, lr, #1024
  43 0032 7045     		cmp	r0, lr
  44 0034 05D1     		bne	.L3
  45              	.L2:
  46 0036 23F00803 		bic	r3, r3, #8
  47 003a CC68     		ldr	r4, [r1, #12]
  48 003c 2343     		orrs	r3, r3, r4
  49 003e 23F00403 		bic	r3, r3, #4
  50              	.L3:
  51 0042 DFF82CE0 		ldr	lr, .L7
  52 0046 7045     		cmp	r0, lr
  53 0048 03D0     		beq	.L4
  54 004a 0EF5806E 		add	lr, lr, #1024
  55 004e 7045     		cmp	r0, lr
  56 0050 07D1     		bne	.L5
  57              	.L4:
  58 0052 22F44072 		bic	r2, r2, #768
ARM GAS  C:\Users\Administrator\AppData\Local\Temp\ccdDcLdm.s 			page 2


  59 0056 4C69     		ldr	r4, [r1, #20]
  60 0058 44EA020E 		orr	lr, r4, r2
  61 005c 8A69     		ldr	r2, [r1, #24]
  62 005e 42EA0E02 		orr	r2, r2, lr
  63              	.L5:
  64 0062 4260     		str	r2, [r0, #4]
  65 0064 C0F818C0 		str	ip, [r0, #24]
  66 0068 4A68     		ldr	r2, [r1, #4]
  67 006a 4263     		str	r2, [r0, #52]
  68 006c 0362     		str	r3, [r0, #32]
  69 006e 10BD     		pop	{r4, pc}
  70              	.L8:
  71              		.align	2
  72              	.L7:
  73 0070 00000140 		.word	1073807360
  75              		.section	.text.TIM_OC3_SetConfig,"ax",%progbits
  76              		.align	1
  77              		.syntax unified
  78              		.thumb
  79              		.thumb_func
  81              	TIM_OC3_SetConfig:
  82              		@ args = 0, pretend = 0, frame = 0
  83              		@ frame_needed = 0, uses_anonymous_args = 0
  84 0000 10B5     		push	{r4, lr}
  85 0002 036A     		ldr	r3, [r0, #32]
  86 0004 23F48073 		bic	r3, r3, #256
  87 0008 0362     		str	r3, [r0, #32]
  88 000a 036A     		ldr	r3, [r0, #32]
  89 000c 4268     		ldr	r2, [r0, #4]
  90 000e D0F81CC0 		ldr	ip, [r0, #28]
  91 0012 2CF0730C 		bic	ip, ip, #115
  92 0016 0C68     		ldr	r4, [r1]
  93 0018 44EA0C0E 		orr	lr, r4, ip
  94 001c 23F40073 		bic	r3, r3, #512
  95 0020 8C68     		ldr	r4, [r1, #8]
  96 0022 43EA0423 		orr	r3, r3, r4, lsl #8
  97 0026 DFF84CC0 		ldr	ip, .L15
  98 002a 6045     		cmp	r0, ip
  99 002c 03D0     		beq	.L10
 100 002e 0CF5806C 		add	ip, ip, #1024
 101 0032 6045     		cmp	r0, ip
 102 0034 06D1     		bne	.L11
 103              	.L10:
 104 0036 23F40063 		bic	r3, r3, #2048
 105 003a CC68     		ldr	r4, [r1, #12]
 106 003c 43EA0423 		orr	r3, r3, r4, lsl #8
 107 0040 23F48063 		bic	r3, r3, #1024
 108              	.L11:
 109 0044 DFF82CC0 		ldr	ip, .L15
 110 0048 6045     		cmp	r0, ip
 111 004a 03D0     		beq	.L12
 112 004c 0CF5806C 		add	ip, ip, #1024
 113 0050 6045     		cmp	r0, ip
 114 0052 07D1     		bne	.L13
 115              	.L12:
 116 0054 22F44052 		bic	r2, r2, #12288
 117 0058 4C69     		ldr	r4, [r1, #20]
ARM GAS  C:\Users\Administrator\AppData\Local\Temp\ccdDcLdm.s 			page 3


 118 005a 42EA0412 		orr	r2, r2, r4, lsl #4
 119 005e 8C69     		ldr	r4, [r1, #24]
 120 0060 42EA0412 		orr	r2, r2, r4, lsl #4
 121              	.L13:
 122 0064 4260     		str	r2, [r0, #4]
 123 0066 C0F81CE0 		str	lr, [r0, #28]
 124 006a 4A68     		ldr	r2, [r1, #4]
 125 006c C263     		str	r2, [r0, #60]
 126 006e 0362     		str	r3, [r0, #32]
 127 0070 10BD     		pop	{r4, pc}
 128              	.L16:
 129 0072 00BF     		.align	2
 130              	.L15:
 131 0074 00000140 		.word	1073807360
 133              		.section	.text.TIM_OC4_SetConfig,"ax",%progbits
 134              		.align	1
 135              		.syntax unified
 136              		.thumb
 137              		.thumb_func
 139              	TIM_OC4_SetConfig:
 140              		@ args = 0, pretend = 0, frame = 0
 141              		@ frame_needed = 0, uses_anonymous_args = 0
 142 0000 10B5     		push	{r4, lr}
 143 0002 036A     		ldr	r3, [r0, #32]
 144 0004 23F48053 		bic	r3, r3, #4096
 145 0008 0362     		str	r3, [r0, #32]
 146 000a 036A     		ldr	r3, [r0, #32]
 147 000c D0F804C0 		ldr	ip, [r0, #4]
 148 0010 C269     		ldr	r2, [r0, #28]
 149 0012 22F4E642 		bic	r2, r2, #29440
 150 0016 0C68     		ldr	r4, [r1]
 151 0018 42EA0422 		orr	r2, r2, r4, lsl #8
 152 001c 23F40053 		bic	r3, r3, #8192
 153 0020 8C68     		ldr	r4, [r1, #8]
 154 0022 43EA0433 		orr	r3, r3, r4, lsl #12
 155 0026 DFF828E0 		ldr	lr, .L21
 156 002a 7045     		cmp	r0, lr
 157 002c 03D0     		beq	.L18
 158 002e 0EF5806E 		add	lr, lr, #1024
 159 0032 7045     		cmp	r0, lr
 160 0034 04D1     		bne	.L19
 161              	.L18:
 162 0036 2CF4804C 		bic	ip, ip, #16384
 163 003a 4C69     		ldr	r4, [r1, #20]
 164 003c 4CEA841C 		orr	ip, ip, r4, lsl #6
 165              	.L19:
 166 0040 C0F804C0 		str	ip, [r0, #4]
 167 0044 C261     		str	r2, [r0, #28]
 168 0046 4A68     		ldr	r2, [r1, #4]
 169 0048 0264     		str	r2, [r0, #64]
 170 004a 0362     		str	r3, [r0, #32]
 171 004c 10BD     		pop	{r4, pc}
 172              	.L22:
 173 004e 00BF     		.align	2
 174              	.L21:
 175 0050 00000140 		.word	1073807360
 177              		.section	.text.TIM_TI1_ConfigInputStage,"ax",%progbits
ARM GAS  C:\Users\Administrator\AppData\Local\Temp\ccdDcLdm.s 			page 4


 178              		.align	1
 179              		.syntax unified
 180              		.thumb
 181              		.thumb_func
 183              	TIM_TI1_ConfigInputStage:
 184              		@ args = 0, pretend = 0, frame = 0
 185              		@ frame_needed = 0, uses_anonymous_args = 0
 186              		@ link register save eliminated.
 187 0000 036A     		ldr	r3, [r0, #32]
 188 0002 D0F820C0 		ldr	ip, [r0, #32]
 189 0006 2CF0010C 		bic	ip, ip, #1
 190 000a C0F820C0 		str	ip, [r0, #32]
 191 000e D0F818C0 		ldr	ip, [r0, #24]
 192 0012 2CF0F00C 		bic	ip, ip, #240
 193 0016 4CEA0212 		orr	r2, ip, r2, lsl #4
 194 001a 23F00A03 		bic	r3, r3, #10
 195 001e 0B43     		orrs	r3, r3, r1
 196 0020 8261     		str	r2, [r0, #24]
 197 0022 0362     		str	r3, [r0, #32]
 198 0024 7047     		bx	lr
 200              		.section	.text.TIM_TI2_SetConfig,"ax",%progbits
 201              		.align	1
 202              		.syntax unified
 203              		.thumb
 204              		.thumb_func
 206              	TIM_TI2_SetConfig:
 207              		@ args = 0, pretend = 0, frame = 0
 208              		@ frame_needed = 0, uses_anonymous_args = 0
 209 0000 00B5     		push	{lr}
 210 0002 D0F820C0 		ldr	ip, [r0, #32]
 211 0006 2CF0100C 		bic	ip, ip, #16
 212 000a C0F820C0 		str	ip, [r0, #32]
 213 000e D0F818C0 		ldr	ip, [r0, #24]
 214 0012 D0F820E0 		ldr	lr, [r0, #32]
 215 0016 2CF4407C 		bic	ip, ip, #768
 216 001a 4CEA022C 		orr	ip, ip, r2, lsl #8
 217 001e 2CF4704C 		bic	ip, ip, #61440
 218 0022 1B03     		lsls	r3, r3, #12
 219 0024 9BB2     		uxth	r3, r3
 220 0026 43EA0C03 		orr	r3, r3, ip
 221 002a 2EF0A00E 		bic	lr, lr, #160
 222 002e 0901     		lsls	r1, r1, #4
 223 0030 01F0A001 		and	r1, r1, #160
 224 0034 41EA0E01 		orr	r1, r1, lr
 225 0038 8361     		str	r3, [r0, #24]
 226 003a 0162     		str	r1, [r0, #32]
 227 003c 00BD     		pop	{pc}
 229              		.section	.text.TIM_TI2_ConfigInputStage,"ax",%progbits
 230              		.align	1
 231              		.syntax unified
 232              		.thumb
 233              		.thumb_func
 235              	TIM_TI2_ConfigInputStage:
 236              		@ args = 0, pretend = 0, frame = 0
 237              		@ frame_needed = 0, uses_anonymous_args = 0
 238              		@ link register save eliminated.
 239 0000 036A     		ldr	r3, [r0, #32]
ARM GAS  C:\Users\Administrator\AppData\Local\Temp\ccdDcLdm.s 			page 5


 240 0002 23F01003 		bic	r3, r3, #16
 241 0006 0362     		str	r3, [r0, #32]
 242 0008 D0F818C0 		ldr	ip, [r0, #24]
 243 000c 036A     		ldr	r3, [r0, #32]
 244 000e 2CF4704C 		bic	ip, ip, #61440
 245 0012 4CEA0232 		orr	r2, ip, r2, lsl #12
 246 0016 23F0A003 		bic	r3, r3, #160
 247 001a 43EA0113 		orr	r3, r3, r1, lsl #4
 248 001e 8261     		str	r2, [r0, #24]
 249 0020 0362     		str	r3, [r0, #32]
 250 0022 7047     		bx	lr
 252              		.section	.text.TIM_TI3_SetConfig,"ax",%progbits
 253              		.align	1
 254              		.syntax unified
 255              		.thumb
 256              		.thumb_func
 258              	TIM_TI3_SetConfig:
 259              		@ args = 0, pretend = 0, frame = 0
 260              		@ frame_needed = 0, uses_anonymous_args = 0
 261 0000 00B5     		push	{lr}
 262 0002 D0F820C0 		ldr	ip, [r0, #32]
 263 0006 2CF4807C 		bic	ip, ip, #256
 264 000a C0F820C0 		str	ip, [r0, #32]
 265 000e D0F81CC0 		ldr	ip, [r0, #28]
 266 0012 D0F820E0 		ldr	lr, [r0, #32]
 267 0016 2CF0030C 		bic	ip, ip, #3
 268 001a 4CEA020C 		orr	ip, ip, r2
 269 001e 2CF0F00C 		bic	ip, ip, #240
 270 0022 1B01     		lsls	r3, r3, #4
 271 0024 DBB2     		uxtb	r3, r3
 272 0026 43EA0C03 		orr	r3, r3, ip
 273 002a 2EF4206E 		bic	lr, lr, #2560
 274 002e 0902     		lsls	r1, r1, #8
 275 0030 01F42061 		and	r1, r1, #2560
 276 0034 41EA0E01 		orr	r1, r1, lr
 277 0038 C361     		str	r3, [r0, #28]
 278 003a 0162     		str	r1, [r0, #32]
 279 003c 00BD     		pop	{pc}
 281              		.section	.text.TIM_TI4_SetConfig,"ax",%progbits
 282              		.align	1
 283              		.syntax unified
 284              		.thumb
 285              		.thumb_func
 287              	TIM_TI4_SetConfig:
 288              		@ args = 0, pretend = 0, frame = 0
 289              		@ frame_needed = 0, uses_anonymous_args = 0
 290 0000 00B5     		push	{lr}
 291 0002 D0F820C0 		ldr	ip, [r0, #32]
 292 0006 2CF4805C 		bic	ip, ip, #4096
 293 000a C0F820C0 		str	ip, [r0, #32]
 294 000e D0F81CC0 		ldr	ip, [r0, #28]
 295 0012 D0F820E0 		ldr	lr, [r0, #32]
 296 0016 2CF4407C 		bic	ip, ip, #768
 297 001a 4CEA022C 		orr	ip, ip, r2, lsl #8
 298 001e 2CF4704C 		bic	ip, ip, #61440
 299 0022 1B03     		lsls	r3, r3, #12
 300 0024 9BB2     		uxth	r3, r3
ARM GAS  C:\Users\Administrator\AppData\Local\Temp\ccdDcLdm.s 			page 6


 301 0026 43EA0C03 		orr	r3, r3, ip
 302 002a 2EF4204E 		bic	lr, lr, #40960
 303 002e 0903     		lsls	r1, r1, #12
 304 0030 01F42041 		and	r1, r1, #40960
 305 0034 41EA0E01 		orr	r1, r1, lr
 306 0038 C361     		str	r3, [r0, #28]
 307 003a 0162     		str	r1, [r0, #32]
 308 003c 00BD     		pop	{pc}
 310              		.section	.text.TIM_ITRx_SetConfig,"ax",%progbits
 311              		.align	1
 312              		.syntax unified
 313              		.thumb
 314              		.thumb_func
 316              	TIM_ITRx_SetConfig:
 317              		@ args = 0, pretend = 0, frame = 0
 318              		@ frame_needed = 0, uses_anonymous_args = 0
 319              		@ link register save eliminated.
 320 0000 8368     		ldr	r3, [r0, #8]
 321 0002 23F07003 		bic	r3, r3, #112
 322 0006 0B43     		orrs	r3, r3, r1
 323 0008 43F00703 		orr	r3, r3, #7
 324 000c 8360     		str	r3, [r0, #8]
 325 000e 7047     		bx	lr
 327              		.section	.text.HAL_TIM_Base_MspInit,"ax",%progbits
 328              		.align	1
 329              		.weak	HAL_TIM_Base_MspInit
 330              		.syntax unified
 331              		.thumb
 332              		.thumb_func
 334              	HAL_TIM_Base_MspInit:
 335              		@ args = 0, pretend = 0, frame = 0
 336              		@ frame_needed = 0, uses_anonymous_args = 0
 337              		@ link register save eliminated.
 338 0000 7047     		bx	lr
 340              		.section	.text.HAL_TIM_Base_MspDeInit,"ax",%progbits
 341              		.align	1
 342              		.weak	HAL_TIM_Base_MspDeInit
 343              		.syntax unified
 344              		.thumb
 345              		.thumb_func
 347              	HAL_TIM_Base_MspDeInit:
 348              		@ args = 0, pretend = 0, frame = 0
 349              		@ frame_needed = 0, uses_anonymous_args = 0
 350              		@ link register save eliminated.
 351 0000 7047     		bx	lr
 353              		.section	.text.HAL_TIM_Base_DeInit,"ax",%progbits
 354              		.align	1
 355              		.global	HAL_TIM_Base_DeInit
 356              		.syntax unified
 357              		.thumb
 358              		.thumb_func
 360              	HAL_TIM_Base_DeInit:
 361              		@ args = 0, pretend = 0, frame = 0
 362              		@ frame_needed = 0, uses_anonymous_args = 0
 363 0000 10B5     		push	{r4, lr}
 364 0002 0446     		mov	r4, r0
 365 0004 0223     		movs	r3, #2
ARM GAS  C:\Users\Administrator\AppData\Local\Temp\ccdDcLdm.s 			page 7


 366 0006 80F83D30 		strb	r3, [r0, #61]
 367 000a 0368     		ldr	r3, [r0]
 368 000c 196A     		ldr	r1, [r3, #32]
 369 000e 41F21112 		movw	r2, #4369
 370 0012 1142     		tst	r1, r2
 371 0014 08D1     		bne	.L35
 372 0016 196A     		ldr	r1, [r3, #32]
 373 0018 40F24442 		movw	r2, #1092
 374 001c 1142     		tst	r1, r2
 375 001e 03D1     		bne	.L35
 376 0020 1A68     		ldr	r2, [r3]
 377 0022 22F00102 		bic	r2, r2, #1
 378 0026 1A60     		str	r2, [r3]
 379              	.L35:
 380 0028 2046     		mov	r0, r4
 381 002a FFF7FEFF 		bl	HAL_TIM_Base_MspDeInit
 382 002e 0020     		movs	r0, #0
 383 0030 84F84600 		strb	r0, [r4, #70]
 384 0034 84F83E00 		strb	r0, [r4, #62]
 385 0038 84F83F00 		strb	r0, [r4, #63]
 386 003c 84F84000 		strb	r0, [r4, #64]
 387 0040 84F84100 		strb	r0, [r4, #65]
 388 0044 84F84200 		strb	r0, [r4, #66]
 389 0048 84F84300 		strb	r0, [r4, #67]
 390 004c 84F84400 		strb	r0, [r4, #68]
 391 0050 84F84500 		strb	r0, [r4, #69]
 392 0054 84F83D00 		strb	r0, [r4, #61]
 393 0058 84F83C00 		strb	r0, [r4, #60]
 394 005c 10BD     		pop	{r4, pc}
 396              		.section	.text.HAL_TIM_Base_Start,"ax",%progbits
 397              		.align	1
 398              		.global	HAL_TIM_Base_Start
 399              		.syntax unified
 400              		.thumb
 401              		.thumb_func
 403              	HAL_TIM_Base_Start:
 404              		@ args = 0, pretend = 0, frame = 0
 405              		@ frame_needed = 0, uses_anonymous_args = 0
 406              		@ link register save eliminated.
 407 0000 90F83D30 		ldrb	r3, [r0, #61]	@ zero_extendqisi2
 408 0004 012B     		cmp	r3, #1
 409 0006 32D1     		bne	.L41
 410 0008 0223     		movs	r3, #2
 411 000a 80F83D30 		strb	r3, [r0, #61]
 412 000e 0368     		ldr	r3, [r0]
 413 0010 194A     		ldr	r2, .L43
 414 0012 9342     		cmp	r3, r2
 415 0014 20D0     		beq	.L39
 416 0016 B3F1804F 		cmp	r3, #1073741824
 417 001a 1DD0     		beq	.L39
 418 001c A2F57C42 		sub	r2, r2, #64512
 419 0020 9342     		cmp	r3, r2
 420 0022 19D0     		beq	.L39
 421 0024 02F58062 		add	r2, r2, #1024
 422 0028 9342     		cmp	r3, r2
 423 002a 15D0     		beq	.L39
 424 002c 02F58062 		add	r2, r2, #1024
ARM GAS  C:\Users\Administrator\AppData\Local\Temp\ccdDcLdm.s 			page 8


 425 0030 9342     		cmp	r3, r2
 426 0032 11D0     		beq	.L39
 427 0034 02F57842 		add	r2, r2, #63488
 428 0038 9342     		cmp	r3, r2
 429 003a 0DD0     		beq	.L39
 430 003c 02F57052 		add	r2, r2, #15360
 431 0040 9342     		cmp	r3, r2
 432 0042 09D0     		beq	.L39
 433 0044 A2F59432 		sub	r2, r2, #75776
 434 0048 9342     		cmp	r3, r2
 435 004a 05D0     		beq	.L39
 436 004c 1A68     		ldr	r2, [r3]
 437 004e 42F00102 		orr	r2, r2, #1
 438 0052 1A60     		str	r2, [r3]
 439 0054 0020     		movs	r0, #0
 440 0056 7047     		bx	lr
 441              	.L39:
 442 0058 9A68     		ldr	r2, [r3, #8]
 443 005a 02F00702 		and	r2, r2, #7
 444 005e 062A     		cmp	r2, #6
 445 0060 07D0     		beq	.L42
 446 0062 1A68     		ldr	r2, [r3]
 447 0064 42F00102 		orr	r2, r2, #1
 448 0068 1A60     		str	r2, [r3]
 449 006a 0020     		movs	r0, #0
 450 006c 7047     		bx	lr
 451              	.L41:
 452 006e 0120     		movs	r0, #1
 453 0070 7047     		bx	lr
 454              	.L42:
 455 0072 0020     		movs	r0, #0
 456 0074 7047     		bx	lr
 457              	.L44:
 458 0076 00BF     		.align	2
 459              	.L43:
 460 0078 00000140 		.word	1073807360
 462              		.section	.text.HAL_TIM_Base_Stop,"ax",%progbits
 463              		.align	1
 464              		.global	HAL_TIM_Base_Stop
 465              		.syntax unified
 466              		.thumb
 467              		.thumb_func
 469              	HAL_TIM_Base_Stop:
 470              		@ args = 0, pretend = 0, frame = 0
 471              		@ frame_needed = 0, uses_anonymous_args = 0
 472              		@ link register save eliminated.
 473 0000 0368     		ldr	r3, [r0]
 474 0002 196A     		ldr	r1, [r3, #32]
 475 0004 41F21112 		movw	r2, #4369
 476 0008 1142     		tst	r1, r2
 477 000a 08D1     		bne	.L46
 478 000c 196A     		ldr	r1, [r3, #32]
 479 000e 40F24442 		movw	r2, #1092
 480 0012 1142     		tst	r1, r2
 481 0014 03D1     		bne	.L46
 482 0016 1A68     		ldr	r2, [r3]
 483 0018 22F00102 		bic	r2, r2, #1
ARM GAS  C:\Users\Administrator\AppData\Local\Temp\ccdDcLdm.s 			page 9


 484 001c 1A60     		str	r2, [r3]
 485              	.L46:
 486 001e 0123     		movs	r3, #1
 487 0020 80F83D30 		strb	r3, [r0, #61]
 488 0024 0020     		movs	r0, #0
 489 0026 7047     		bx	lr
 491              		.section	.text.HAL_TIM_Base_Start_IT,"ax",%progbits
 492              		.align	1
 493              		.global	HAL_TIM_Base_Start_IT
 494              		.syntax unified
 495              		.thumb
 496              		.thumb_func
 498              	HAL_TIM_Base_Start_IT:
 499              		@ args = 0, pretend = 0, frame = 0
 500              		@ frame_needed = 0, uses_anonymous_args = 0
 501              		@ link register save eliminated.
 502 0000 90F83D30 		ldrb	r3, [r0, #61]	@ zero_extendqisi2
 503 0004 012B     		cmp	r3, #1
 504 0006 37D1     		bne	.L51
 505 0008 0223     		movs	r3, #2
 506 000a 80F83D30 		strb	r3, [r0, #61]
 507 000e 0268     		ldr	r2, [r0]
 508 0010 D368     		ldr	r3, [r2, #12]
 509 0012 43F00103 		orr	r3, r3, #1
 510 0016 D360     		str	r3, [r2, #12]
 511 0018 0368     		ldr	r3, [r0]
 512 001a 194A     		ldr	r2, .L53
 513 001c 9342     		cmp	r3, r2
 514 001e 20D0     		beq	.L49
 515 0020 B3F1804F 		cmp	r3, #1073741824
 516 0024 1DD0     		beq	.L49
 517 0026 A2F57C42 		sub	r2, r2, #64512
 518 002a 9342     		cmp	r3, r2
 519 002c 19D0     		beq	.L49
 520 002e 02F58062 		add	r2, r2, #1024
 521 0032 9342     		cmp	r3, r2
 522 0034 15D0     		beq	.L49
 523 0036 02F58062 		add	r2, r2, #1024
 524 003a 9342     		cmp	r3, r2
 525 003c 11D0     		beq	.L49
 526 003e 02F57842 		add	r2, r2, #63488
 527 0042 9342     		cmp	r3, r2
 528 0044 0DD0     		beq	.L49
 529 0046 02F57052 		add	r2, r2, #15360
 530 004a 9342     		cmp	r3, r2
 531 004c 09D0     		beq	.L49
 532 004e A2F59432 		sub	r2, r2, #75776
 533 0052 9342     		cmp	r3, r2
 534 0054 05D0     		beq	.L49
 535 0056 1A68     		ldr	r2, [r3]
 536 0058 42F00102 		orr	r2, r2, #1
 537 005c 1A60     		str	r2, [r3]
 538 005e 0020     		movs	r0, #0
 539 0060 7047     		bx	lr
 540              	.L49:
 541 0062 9A68     		ldr	r2, [r3, #8]
 542 0064 02F00702 		and	r2, r2, #7
ARM GAS  C:\Users\Administrator\AppData\Local\Temp\ccdDcLdm.s 			page 10


 543 0068 062A     		cmp	r2, #6
 544 006a 07D0     		beq	.L52
 545 006c 1A68     		ldr	r2, [r3]
 546 006e 42F00102 		orr	r2, r2, #1
 547 0072 1A60     		str	r2, [r3]
 548 0074 0020     		movs	r0, #0
 549 0076 7047     		bx	lr
 550              	.L51:
 551 0078 0120     		movs	r0, #1
 552 007a 7047     		bx	lr
 553              	.L52:
 554 007c 0020     		movs	r0, #0
 555 007e 7047     		bx	lr
 556              	.L54:
 557              		.align	2
 558              	.L53:
 559 0080 00000140 		.word	1073807360
 561              		.section	.text.HAL_TIM_Base_Stop_IT,"ax",%progbits
 562              		.align	1
 563              		.global	HAL_TIM_Base_Stop_IT
 564              		.syntax unified
 565              		.thumb
 566              		.thumb_func
 568              	HAL_TIM_Base_Stop_IT:
 569              		@ args = 0, pretend = 0, frame = 0
 570              		@ frame_needed = 0, uses_anonymous_args = 0
 571              		@ link register save eliminated.
 572 0000 0268     		ldr	r2, [r0]
 573 0002 D368     		ldr	r3, [r2, #12]
 574 0004 23F00103 		bic	r3, r3, #1
 575 0008 D360     		str	r3, [r2, #12]
 576 000a 0368     		ldr	r3, [r0]
 577 000c 196A     		ldr	r1, [r3, #32]
 578 000e 41F21112 		movw	r2, #4369
 579 0012 1142     		tst	r1, r2
 580 0014 08D1     		bne	.L56
 581 0016 196A     		ldr	r1, [r3, #32]
 582 0018 40F24442 		movw	r2, #1092
 583 001c 1142     		tst	r1, r2
 584 001e 03D1     		bne	.L56
 585 0020 1A68     		ldr	r2, [r3]
 586 0022 22F00102 		bic	r2, r2, #1
 587 0026 1A60     		str	r2, [r3]
 588              	.L56:
 589 0028 0123     		movs	r3, #1
 590 002a 80F83D30 		strb	r3, [r0, #61]
 591 002e 0020     		movs	r0, #0
 592 0030 7047     		bx	lr
 594              		.section	.text.HAL_TIM_Base_Start_DMA,"ax",%progbits
 595              		.align	1
 596              		.global	HAL_TIM_Base_Start_DMA
 597              		.syntax unified
 598              		.thumb
 599              		.thumb_func
 601              	HAL_TIM_Base_Start_DMA:
 602              		@ args = 0, pretend = 0, frame = 0
 603              		@ frame_needed = 0, uses_anonymous_args = 0
ARM GAS  C:\Users\Administrator\AppData\Local\Temp\ccdDcLdm.s 			page 11


 604 0000 38B5     		push	{r3, r4, r5, lr}
 605 0002 90F83D30 		ldrb	r3, [r0, #61]	@ zero_extendqisi2
 606 0006 DDB2     		uxtb	r5, r3
 607 0008 022B     		cmp	r3, #2
 608 000a 56D0     		beq	.L58
 609 000c 0446     		mov	r4, r0
 610 000e 90F83D30 		ldrb	r3, [r0, #61]	@ zero_extendqisi2
 611 0012 DDB2     		uxtb	r5, r3
 612 0014 012B     		cmp	r3, #1
 613 0016 4FD1     		bne	.L62
 614 0018 0029     		cmp	r1, #0
 615 001a 3FD0     		beq	.L65
 616              	.L59:
 617 001c 0223     		movs	r3, #2
 618 001e 84F83D30 		strb	r3, [r4, #61]
 619 0022 236A     		ldr	r3, [r4, #32]
 620 0024 2748     		ldr	r0, .L66
 621 0026 D863     		str	r0, [r3, #60]
 622 0028 236A     		ldr	r3, [r4, #32]
 623 002a 2748     		ldr	r0, .L66+4
 624 002c 1864     		str	r0, [r3, #64]
 625 002e 236A     		ldr	r3, [r4, #32]
 626 0030 2648     		ldr	r0, .L66+8
 627 0032 D864     		str	r0, [r3, #76]
 628 0034 2068     		ldr	r0, [r4]
 629 0036 1346     		mov	r3, r2
 630 0038 00F12C02 		add	r2, r0, #44
 631 003c 206A     		ldr	r0, [r4, #32]
 632 003e FFF7FEFF 		bl	HAL_DMA_Start_IT
 633 0042 0146     		mov	r1, r0
 634 0044 0028     		cmp	r0, #0
 635 0046 38D1     		bne	.L58
 636 0048 2268     		ldr	r2, [r4]
 637 004a D368     		ldr	r3, [r2, #12]
 638 004c 43F48073 		orr	r3, r3, #256
 639 0050 D360     		str	r3, [r2, #12]
 640 0052 2368     		ldr	r3, [r4]
 641 0054 1E4A     		ldr	r2, .L66+12
 642 0056 9342     		cmp	r3, r2
 643 0058 23D0     		beq	.L60
 644 005a B3F1804F 		cmp	r3, #1073741824
 645 005e 20D0     		beq	.L60
 646 0060 A2F57C42 		sub	r2, r2, #64512
 647 0064 9342     		cmp	r3, r2
 648 0066 1CD0     		beq	.L60
 649 0068 02F58062 		add	r2, r2, #1024
 650 006c 9342     		cmp	r3, r2
 651 006e 18D0     		beq	.L60
 652 0070 02F58062 		add	r2, r2, #1024
 653 0074 9342     		cmp	r3, r2
 654 0076 14D0     		beq	.L60
 655 0078 02F57842 		add	r2, r2, #63488
 656 007c 9342     		cmp	r3, r2
 657 007e 10D0     		beq	.L60
 658 0080 02F57052 		add	r2, r2, #15360
 659 0084 9342     		cmp	r3, r2
 660 0086 0CD0     		beq	.L60
ARM GAS  C:\Users\Administrator\AppData\Local\Temp\ccdDcLdm.s 			page 12


 661 0088 A2F59432 		sub	r2, r2, #75776
 662 008c 9342     		cmp	r3, r2
 663 008e 08D0     		beq	.L60
 664 0090 1A68     		ldr	r2, [r3]
 665 0092 42F00102 		orr	r2, r2, #1
 666 0096 1A60     		str	r2, [r3]
 667 0098 0546     		mov	r5, r0
 668 009a 0EE0     		b	.L58
 669              	.L65:
 670 009c 002A     		cmp	r2, #0
 671 009e BDD0     		beq	.L59
 672 00a0 0BE0     		b	.L58
 673              	.L60:
 674 00a2 9A68     		ldr	r2, [r3, #8]
 675 00a4 02F00702 		and	r2, r2, #7
 676 00a8 062A     		cmp	r2, #6
 677 00aa 08D0     		beq	.L63
 678 00ac 1A68     		ldr	r2, [r3]
 679 00ae 42F00102 		orr	r2, r2, #1
 680 00b2 1A60     		str	r2, [r3]
 681 00b4 0D46     		mov	r5, r1
 682 00b6 00E0     		b	.L58
 683              	.L62:
 684 00b8 0125     		movs	r5, #1
 685              	.L58:
 686 00ba 2846     		mov	r0, r5
 687 00bc 38BD     		pop	{r3, r4, r5, pc}
 688              	.L63:
 689 00be 0D46     		mov	r5, r1
 690 00c0 FBE7     		b	.L58
 691              	.L67:
 692 00c2 00BF     		.align	2
 693              	.L66:
 694 00c4 00000000 		.word	TIM_DMAPeriodElapsedCplt
 695 00c8 00000000 		.word	TIM_DMAPeriodElapsedHalfCplt
 696 00cc 00000000 		.word	TIM_DMAError
 697 00d0 00000140 		.word	1073807360
 699              		.section	.text.HAL_TIM_Base_Stop_DMA,"ax",%progbits
 700              		.align	1
 701              		.global	HAL_TIM_Base_Stop_DMA
 702              		.syntax unified
 703              		.thumb
 704              		.thumb_func
 706              	HAL_TIM_Base_Stop_DMA:
 707              		@ args = 0, pretend = 0, frame = 0
 708              		@ frame_needed = 0, uses_anonymous_args = 0
 709 0000 10B5     		push	{r4, lr}
 710 0002 0446     		mov	r4, r0
 711 0004 0268     		ldr	r2, [r0]
 712 0006 D368     		ldr	r3, [r2, #12]
 713 0008 23F48073 		bic	r3, r3, #256
 714 000c D360     		str	r3, [r2, #12]
 715 000e 006A     		ldr	r0, [r0, #32]
 716 0010 FFF7FEFF 		bl	HAL_DMA_Abort_IT
 717 0014 2368     		ldr	r3, [r4]
 718 0016 196A     		ldr	r1, [r3, #32]
 719 0018 41F21112 		movw	r2, #4369
ARM GAS  C:\Users\Administrator\AppData\Local\Temp\ccdDcLdm.s 			page 13


 720 001c 1142     		tst	r1, r2
 721 001e 08D1     		bne	.L69
 722 0020 196A     		ldr	r1, [r3, #32]
 723 0022 40F24442 		movw	r2, #1092
 724 0026 1142     		tst	r1, r2
 725 0028 03D1     		bne	.L69
 726 002a 1A68     		ldr	r2, [r3]
 727 002c 22F00102 		bic	r2, r2, #1
 728 0030 1A60     		str	r2, [r3]
 729              	.L69:
 730 0032 0123     		movs	r3, #1
 731 0034 84F83D30 		strb	r3, [r4, #61]
 732 0038 0020     		movs	r0, #0
 733 003a 10BD     		pop	{r4, pc}
 735              		.section	.text.HAL_TIM_OC_MspInit,"ax",%progbits
 736              		.align	1
 737              		.weak	HAL_TIM_OC_MspInit
 738              		.syntax unified
 739              		.thumb
 740              		.thumb_func
 742              	HAL_TIM_OC_MspInit:
 743              		@ args = 0, pretend = 0, frame = 0
 744              		@ frame_needed = 0, uses_anonymous_args = 0
 745              		@ link register save eliminated.
 746 0000 7047     		bx	lr
 748              		.section	.text.HAL_TIM_OC_MspDeInit,"ax",%progbits
 749              		.align	1
 750              		.weak	HAL_TIM_OC_MspDeInit
 751              		.syntax unified
 752              		.thumb
 753              		.thumb_func
 755              	HAL_TIM_OC_MspDeInit:
 756              		@ args = 0, pretend = 0, frame = 0
 757              		@ frame_needed = 0, uses_anonymous_args = 0
 758              		@ link register save eliminated.
 759 0000 7047     		bx	lr
 761              		.section	.text.HAL_TIM_OC_DeInit,"ax",%progbits
 762              		.align	1
 763              		.global	HAL_TIM_OC_DeInit
 764              		.syntax unified
 765              		.thumb
 766              		.thumb_func
 768              	HAL_TIM_OC_DeInit:
 769              		@ args = 0, pretend = 0, frame = 0
 770              		@ frame_needed = 0, uses_anonymous_args = 0
 771 0000 10B5     		push	{r4, lr}
 772 0002 0446     		mov	r4, r0
 773 0004 0223     		movs	r3, #2
 774 0006 80F83D30 		strb	r3, [r0, #61]
 775 000a 0368     		ldr	r3, [r0]
 776 000c 196A     		ldr	r1, [r3, #32]
 777 000e 41F21112 		movw	r2, #4369
 778 0012 1142     		tst	r1, r2
 779 0014 08D1     		bne	.L74
 780 0016 196A     		ldr	r1, [r3, #32]
 781 0018 40F24442 		movw	r2, #1092
 782 001c 1142     		tst	r1, r2
ARM GAS  C:\Users\Administrator\AppData\Local\Temp\ccdDcLdm.s 			page 14


 783 001e 03D1     		bne	.L74
 784 0020 1A68     		ldr	r2, [r3]
 785 0022 22F00102 		bic	r2, r2, #1
 786 0026 1A60     		str	r2, [r3]
 787              	.L74:
 788 0028 2046     		mov	r0, r4
 789 002a FFF7FEFF 		bl	HAL_TIM_OC_MspDeInit
 790 002e 0020     		movs	r0, #0
 791 0030 84F84600 		strb	r0, [r4, #70]
 792 0034 84F83E00 		strb	r0, [r4, #62]
 793 0038 84F83F00 		strb	r0, [r4, #63]
 794 003c 84F84000 		strb	r0, [r4, #64]
 795 0040 84F84100 		strb	r0, [r4, #65]
 796 0044 84F84200 		strb	r0, [r4, #66]
 797 0048 84F84300 		strb	r0, [r4, #67]
 798 004c 84F84400 		strb	r0, [r4, #68]
 799 0050 84F84500 		strb	r0, [r4, #69]
 800 0054 84F83D00 		strb	r0, [r4, #61]
 801 0058 84F83C00 		strb	r0, [r4, #60]
 802 005c 10BD     		pop	{r4, pc}
 804              		.section	.text.HAL_TIM_PWM_MspInit,"ax",%progbits
 805              		.align	1
 806              		.weak	HAL_TIM_PWM_MspInit
 807              		.syntax unified
 808              		.thumb
 809              		.thumb_func
 811              	HAL_TIM_PWM_MspInit:
 812              		@ args = 0, pretend = 0, frame = 0
 813              		@ frame_needed = 0, uses_anonymous_args = 0
 814              		@ link register save eliminated.
 815 0000 7047     		bx	lr
 817              		.section	.text.HAL_TIM_PWM_MspDeInit,"ax",%progbits
 818              		.align	1
 819              		.weak	HAL_TIM_PWM_MspDeInit
 820              		.syntax unified
 821              		.thumb
 822              		.thumb_func
 824              	HAL_TIM_PWM_MspDeInit:
 825              		@ args = 0, pretend = 0, frame = 0
 826              		@ frame_needed = 0, uses_anonymous_args = 0
 827              		@ link register save eliminated.
 828 0000 7047     		bx	lr
 830              		.section	.text.HAL_TIM_PWM_DeInit,"ax",%progbits
 831              		.align	1
 832              		.global	HAL_TIM_PWM_DeInit
 833              		.syntax unified
 834              		.thumb
 835              		.thumb_func
 837              	HAL_TIM_PWM_DeInit:
 838              		@ args = 0, pretend = 0, frame = 0
 839              		@ frame_needed = 0, uses_anonymous_args = 0
 840 0000 10B5     		push	{r4, lr}
 841 0002 0446     		mov	r4, r0
 842 0004 0223     		movs	r3, #2
 843 0006 80F83D30 		strb	r3, [r0, #61]
 844 000a 0368     		ldr	r3, [r0]
 845 000c 196A     		ldr	r1, [r3, #32]
ARM GAS  C:\Users\Administrator\AppData\Local\Temp\ccdDcLdm.s 			page 15


 846 000e 41F21112 		movw	r2, #4369
 847 0012 1142     		tst	r1, r2
 848 0014 08D1     		bne	.L79
 849 0016 196A     		ldr	r1, [r3, #32]
 850 0018 40F24442 		movw	r2, #1092
 851 001c 1142     		tst	r1, r2
 852 001e 03D1     		bne	.L79
 853 0020 1A68     		ldr	r2, [r3]
 854 0022 22F00102 		bic	r2, r2, #1
 855 0026 1A60     		str	r2, [r3]
 856              	.L79:
 857 0028 2046     		mov	r0, r4
 858 002a FFF7FEFF 		bl	HAL_TIM_PWM_MspDeInit
 859 002e 0020     		movs	r0, #0
 860 0030 84F84600 		strb	r0, [r4, #70]
 861 0034 84F83E00 		strb	r0, [r4, #62]
 862 0038 84F83F00 		strb	r0, [r4, #63]
 863 003c 84F84000 		strb	r0, [r4, #64]
 864 0040 84F84100 		strb	r0, [r4, #65]
 865 0044 84F84200 		strb	r0, [r4, #66]
 866 0048 84F84300 		strb	r0, [r4, #67]
 867 004c 84F84400 		strb	r0, [r4, #68]
 868 0050 84F84500 		strb	r0, [r4, #69]
 869 0054 84F83D00 		strb	r0, [r4, #61]
 870 0058 84F83C00 		strb	r0, [r4, #60]
 871 005c 10BD     		pop	{r4, pc}
 873              		.section	.text.HAL_TIM_IC_MspInit,"ax",%progbits
 874              		.align	1
 875              		.weak	HAL_TIM_IC_MspInit
 876              		.syntax unified
 877              		.thumb
 878              		.thumb_func
 880              	HAL_TIM_IC_MspInit:
 881              		@ args = 0, pretend = 0, frame = 0
 882              		@ frame_needed = 0, uses_anonymous_args = 0
 883              		@ link register save eliminated.
 884 0000 7047     		bx	lr
 886              		.section	.text.HAL_TIM_IC_MspDeInit,"ax",%progbits
 887              		.align	1
 888              		.weak	HAL_TIM_IC_MspDeInit
 889              		.syntax unified
 890              		.thumb
 891              		.thumb_func
 893              	HAL_TIM_IC_MspDeInit:
 894              		@ args = 0, pretend = 0, frame = 0
 895              		@ frame_needed = 0, uses_anonymous_args = 0
 896              		@ link register save eliminated.
 897 0000 7047     		bx	lr
 899              		.section	.text.HAL_TIM_IC_DeInit,"ax",%progbits
 900              		.align	1
 901              		.global	HAL_TIM_IC_DeInit
 902              		.syntax unified
 903              		.thumb
 904              		.thumb_func
 906              	HAL_TIM_IC_DeInit:
 907              		@ args = 0, pretend = 0, frame = 0
 908              		@ frame_needed = 0, uses_anonymous_args = 0
ARM GAS  C:\Users\Administrator\AppData\Local\Temp\ccdDcLdm.s 			page 16


 909 0000 10B5     		push	{r4, lr}
 910 0002 0446     		mov	r4, r0
 911 0004 0223     		movs	r3, #2
 912 0006 80F83D30 		strb	r3, [r0, #61]
 913 000a 0368     		ldr	r3, [r0]
 914 000c 196A     		ldr	r1, [r3, #32]
 915 000e 41F21112 		movw	r2, #4369
 916 0012 1142     		tst	r1, r2
 917 0014 08D1     		bne	.L84
 918 0016 196A     		ldr	r1, [r3, #32]
 919 0018 40F24442 		movw	r2, #1092
 920 001c 1142     		tst	r1, r2
 921 001e 03D1     		bne	.L84
 922 0020 1A68     		ldr	r2, [r3]
 923 0022 22F00102 		bic	r2, r2, #1
 924 0026 1A60     		str	r2, [r3]
 925              	.L84:
 926 0028 2046     		mov	r0, r4
 927 002a FFF7FEFF 		bl	HAL_TIM_IC_MspDeInit
 928 002e 0020     		movs	r0, #0
 929 0030 84F84600 		strb	r0, [r4, #70]
 930 0034 84F83E00 		strb	r0, [r4, #62]
 931 0038 84F83F00 		strb	r0, [r4, #63]
 932 003c 84F84000 		strb	r0, [r4, #64]
 933 0040 84F84100 		strb	r0, [r4, #65]
 934 0044 84F84200 		strb	r0, [r4, #66]
 935 0048 84F84300 		strb	r0, [r4, #67]
 936 004c 84F84400 		strb	r0, [r4, #68]
 937 0050 84F84500 		strb	r0, [r4, #69]
 938 0054 84F83D00 		strb	r0, [r4, #61]
 939 0058 84F83C00 		strb	r0, [r4, #60]
 940 005c 10BD     		pop	{r4, pc}
 942              		.section	.text.HAL_TIM_OnePulse_MspInit,"ax",%progbits
 943              		.align	1
 944              		.weak	HAL_TIM_OnePulse_MspInit
 945              		.syntax unified
 946              		.thumb
 947              		.thumb_func
 949              	HAL_TIM_OnePulse_MspInit:
 950              		@ args = 0, pretend = 0, frame = 0
 951              		@ frame_needed = 0, uses_anonymous_args = 0
 952              		@ link register save eliminated.
 953 0000 7047     		bx	lr
 955              		.section	.text.HAL_TIM_OnePulse_MspDeInit,"ax",%progbits
 956              		.align	1
 957              		.weak	HAL_TIM_OnePulse_MspDeInit
 958              		.syntax unified
 959              		.thumb
 960              		.thumb_func
 962              	HAL_TIM_OnePulse_MspDeInit:
 963              		@ args = 0, pretend = 0, frame = 0
 964              		@ frame_needed = 0, uses_anonymous_args = 0
 965              		@ link register save eliminated.
 966 0000 7047     		bx	lr
 968              		.section	.text.HAL_TIM_OnePulse_DeInit,"ax",%progbits
 969              		.align	1
 970              		.global	HAL_TIM_OnePulse_DeInit
ARM GAS  C:\Users\Administrator\AppData\Local\Temp\ccdDcLdm.s 			page 17


 971              		.syntax unified
 972              		.thumb
 973              		.thumb_func
 975              	HAL_TIM_OnePulse_DeInit:
 976              		@ args = 0, pretend = 0, frame = 0
 977              		@ frame_needed = 0, uses_anonymous_args = 0
 978 0000 10B5     		push	{r4, lr}
 979 0002 0446     		mov	r4, r0
 980 0004 0223     		movs	r3, #2
 981 0006 80F83D30 		strb	r3, [r0, #61]
 982 000a 0368     		ldr	r3, [r0]
 983 000c 196A     		ldr	r1, [r3, #32]
 984 000e 41F21112 		movw	r2, #4369
 985 0012 1142     		tst	r1, r2
 986 0014 08D1     		bne	.L89
 987 0016 196A     		ldr	r1, [r3, #32]
 988 0018 40F24442 		movw	r2, #1092
 989 001c 1142     		tst	r1, r2
 990 001e 03D1     		bne	.L89
 991 0020 1A68     		ldr	r2, [r3]
 992 0022 22F00102 		bic	r2, r2, #1
 993 0026 1A60     		str	r2, [r3]
 994              	.L89:
 995 0028 2046     		mov	r0, r4
 996 002a FFF7FEFF 		bl	HAL_TIM_OnePulse_MspDeInit
 997 002e 0020     		movs	r0, #0
 998 0030 84F84600 		strb	r0, [r4, #70]
 999 0034 84F83E00 		strb	r0, [r4, #62]
 1000 0038 84F83F00 		strb	r0, [r4, #63]
 1001 003c 84F84200 		strb	r0, [r4, #66]
 1002 0040 84F84300 		strb	r0, [r4, #67]
 1003 0044 84F83D00 		strb	r0, [r4, #61]
 1004 0048 84F83C00 		strb	r0, [r4, #60]
 1005 004c 10BD     		pop	{r4, pc}
 1007              		.section	.text.HAL_TIM_Encoder_MspInit,"ax",%progbits
 1008              		.align	1
 1009              		.weak	HAL_TIM_Encoder_MspInit
 1010              		.syntax unified
 1011              		.thumb
 1012              		.thumb_func
 1014              	HAL_TIM_Encoder_MspInit:
 1015              		@ args = 0, pretend = 0, frame = 0
 1016              		@ frame_needed = 0, uses_anonymous_args = 0
 1017              		@ link register save eliminated.
 1018 0000 7047     		bx	lr
 1020              		.section	.text.HAL_TIM_Encoder_MspDeInit,"ax",%progbits
 1021              		.align	1
 1022              		.weak	HAL_TIM_Encoder_MspDeInit
 1023              		.syntax unified
 1024              		.thumb
 1025              		.thumb_func
 1027              	HAL_TIM_Encoder_MspDeInit:
 1028              		@ args = 0, pretend = 0, frame = 0
 1029              		@ frame_needed = 0, uses_anonymous_args = 0
 1030              		@ link register save eliminated.
 1031 0000 7047     		bx	lr
 1033              		.section	.text.HAL_TIM_Encoder_DeInit,"ax",%progbits
ARM GAS  C:\Users\Administrator\AppData\Local\Temp\ccdDcLdm.s 			page 18


 1034              		.align	1
 1035              		.global	HAL_TIM_Encoder_DeInit
 1036              		.syntax unified
 1037              		.thumb
 1038              		.thumb_func
 1040              	HAL_TIM_Encoder_DeInit:
 1041              		@ args = 0, pretend = 0, frame = 0
 1042              		@ frame_needed = 0, uses_anonymous_args = 0
 1043 0000 10B5     		push	{r4, lr}
 1044 0002 0446     		mov	r4, r0
 1045 0004 0223     		movs	r3, #2
 1046 0006 80F83D30 		strb	r3, [r0, #61]
 1047 000a 0368     		ldr	r3, [r0]
 1048 000c 196A     		ldr	r1, [r3, #32]
 1049 000e 41F21112 		movw	r2, #4369
 1050 0012 1142     		tst	r1, r2
 1051 0014 08D1     		bne	.L94
 1052 0016 196A     		ldr	r1, [r3, #32]
 1053 0018 40F24442 		movw	r2, #1092
 1054 001c 1142     		tst	r1, r2
 1055 001e 03D1     		bne	.L94
 1056 0020 1A68     		ldr	r2, [r3]
 1057 0022 22F00102 		bic	r2, r2, #1
 1058 0026 1A60     		str	r2, [r3]
 1059              	.L94:
 1060 0028 2046     		mov	r0, r4
 1061 002a FFF7FEFF 		bl	HAL_TIM_Encoder_MspDeInit
 1062 002e 0020     		movs	r0, #0
 1063 0030 84F84600 		strb	r0, [r4, #70]
 1064 0034 84F83E00 		strb	r0, [r4, #62]
 1065 0038 84F83F00 		strb	r0, [r4, #63]
 1066 003c 84F84200 		strb	r0, [r4, #66]
 1067 0040 84F84300 		strb	r0, [r4, #67]
 1068 0044 84F83D00 		strb	r0, [r4, #61]
 1069 0048 84F83C00 		strb	r0, [r4, #60]
 1070 004c 10BD     		pop	{r4, pc}
 1072              		.section	.text.HAL_TIM_DMABurst_MultiWriteStart,"ax",%progbits
 1073              		.align	1
 1074              		.global	HAL_TIM_DMABurst_MultiWriteStart
 1075              		.syntax unified
 1076              		.thumb
 1077              		.thumb_func
 1079              	HAL_TIM_DMABurst_MultiWriteStart:
 1080              		@ args = 8, pretend = 0, frame = 0
 1081              		@ frame_needed = 0, uses_anonymous_args = 0
 1082 0000 70B5     		push	{r4, r5, r6, lr}
 1083 0002 0446     		mov	r4, r0
 1084 0004 0E46     		mov	r6, r1
 1085 0006 1946     		mov	r1, r3
 1086 0008 90F84630 		ldrb	r3, [r0, #70]	@ zero_extendqisi2
 1087 000c D8B2     		uxtb	r0, r3
 1088 000e 022B     		cmp	r3, #2
 1089 0010 2ED0     		beq	.L97
 1090 0012 1546     		mov	r5, r2
 1091 0014 94F84630 		ldrb	r3, [r4, #70]	@ zero_extendqisi2
 1092 0018 D8B2     		uxtb	r0, r3
 1093 001a 012B     		cmp	r3, #1
ARM GAS  C:\Users\Administrator\AppData\Local\Temp\ccdDcLdm.s 			page 19


 1094 001c 29D0     		beq	.L117
 1095              	.L98:
 1096 001e B5F5006F 		cmp	r5, #2048
 1097 0022 75D0     		beq	.L100
 1098 0024 30D8     		bhi	.L101
 1099 0026 B5F5007F 		cmp	r5, #512
 1100 002a 4BD0     		beq	.L102
 1101 002c B5F5806F 		cmp	r5, #1024
 1102 0030 5BD0     		beq	.L103
 1103 0032 B5F5807F 		cmp	r5, #256
 1104 0036 25D1     		bne	.L118
 1105 0038 236A     		ldr	r3, [r4, #32]
 1106 003a 534A     		ldr	r2, .L122
 1107 003c DA63     		str	r2, [r3, #60]
 1108 003e 236A     		ldr	r3, [r4, #32]
 1109 0040 524A     		ldr	r2, .L122+4
 1110 0042 1A64     		str	r2, [r3, #64]
 1111 0044 236A     		ldr	r3, [r4, #32]
 1112 0046 524A     		ldr	r2, .L122+8
 1113 0048 DA64     		str	r2, [r3, #76]
 1114 004a 2268     		ldr	r2, [r4]
 1115 004c 059B     		ldr	r3, [sp, #20]
 1116 004e 4C32     		adds	r2, r2, #76
 1117 0050 206A     		ldr	r0, [r4, #32]
 1118 0052 FFF7FEFF 		bl	HAL_DMA_Start_IT
 1119 0056 0028     		cmp	r0, #0
 1120 0058 40F09480 		bne	.L119
 1121              	.L108:
 1122 005c 2368     		ldr	r3, [r4]
 1123 005e 3146     		mov	r1, r6
 1124 0060 049A     		ldr	r2, [sp, #16]
 1125 0062 1143     		orrs	r1, r1, r2
 1126 0064 9964     		str	r1, [r3, #72]
 1127 0066 2268     		ldr	r2, [r4]
 1128 0068 D368     		ldr	r3, [r2, #12]
 1129 006a 2B43     		orrs	r3, r3, r5
 1130 006c D360     		str	r3, [r2, #12]
 1131 006e 0020     		movs	r0, #0
 1132              	.L97:
 1133 0070 70BD     		pop	{r4, r5, r6, pc}
 1134              	.L117:
 1135 0072 19B1     		cbz	r1, .L120
 1136              	.L99:
 1137 0074 0223     		movs	r3, #2
 1138 0076 84F84630 		strb	r3, [r4, #70]
 1139 007a D0E7     		b	.L98
 1140              	.L120:
 1141 007c 049B     		ldr	r3, [sp, #16]
 1142 007e 002B     		cmp	r3, #0
 1143 0080 F8D0     		beq	.L99
 1144 0082 F5E7     		b	.L97
 1145              	.L118:
 1146 0084 0120     		movs	r0, #1
 1147 0086 F3E7     		b	.L97
 1148              	.L101:
 1149 0088 B5F5005F 		cmp	r5, #8192
 1150 008c 53D0     		beq	.L105
ARM GAS  C:\Users\Administrator\AppData\Local\Temp\ccdDcLdm.s 			page 20


 1151 008e B5F5804F 		cmp	r5, #16384
 1152 0092 63D0     		beq	.L106
 1153 0094 B5F5805F 		cmp	r5, #4096
 1154 0098 12D1     		bne	.L121
 1155 009a 236B     		ldr	r3, [r4, #48]
 1156 009c 3D4A     		ldr	r2, .L122+12
 1157 009e DA63     		str	r2, [r3, #60]
 1158 00a0 236B     		ldr	r3, [r4, #48]
 1159 00a2 3D4A     		ldr	r2, .L122+16
 1160 00a4 1A64     		str	r2, [r3, #64]
 1161 00a6 236B     		ldr	r3, [r4, #48]
 1162 00a8 394A     		ldr	r2, .L122+8
 1163 00aa DA64     		str	r2, [r3, #76]
 1164 00ac 2268     		ldr	r2, [r4]
 1165 00ae 059B     		ldr	r3, [sp, #20]
 1166 00b0 4C32     		adds	r2, r2, #76
 1167 00b2 206B     		ldr	r0, [r4, #48]
 1168 00b4 FFF7FEFF 		bl	HAL_DMA_Start_IT
 1169 00b8 0028     		cmp	r0, #0
 1170 00ba CFD0     		beq	.L108
 1171 00bc 0120     		movs	r0, #1
 1172 00be D7E7     		b	.L97
 1173              	.L121:
 1174 00c0 0120     		movs	r0, #1
 1175 00c2 D5E7     		b	.L97
 1176              	.L102:
 1177 00c4 636A     		ldr	r3, [r4, #36]
 1178 00c6 334A     		ldr	r2, .L122+12
 1179 00c8 DA63     		str	r2, [r3, #60]
 1180 00ca 636A     		ldr	r3, [r4, #36]
 1181 00cc 324A     		ldr	r2, .L122+16
 1182 00ce 1A64     		str	r2, [r3, #64]
 1183 00d0 636A     		ldr	r3, [r4, #36]
 1184 00d2 2F4A     		ldr	r2, .L122+8
 1185 00d4 DA64     		str	r2, [r3, #76]
 1186 00d6 2268     		ldr	r2, [r4]
 1187 00d8 059B     		ldr	r3, [sp, #20]
 1188 00da 4C32     		adds	r2, r2, #76
 1189 00dc 606A     		ldr	r0, [r4, #36]
 1190 00de FFF7FEFF 		bl	HAL_DMA_Start_IT
 1191 00e2 0028     		cmp	r0, #0
 1192 00e4 BAD0     		beq	.L108
 1193 00e6 0120     		movs	r0, #1
 1194 00e8 C2E7     		b	.L97
 1195              	.L103:
 1196 00ea A36A     		ldr	r3, [r4, #40]
 1197 00ec 294A     		ldr	r2, .L122+12
 1198 00ee DA63     		str	r2, [r3, #60]
 1199 00f0 A36A     		ldr	r3, [r4, #40]
 1200 00f2 294A     		ldr	r2, .L122+16
 1201 00f4 1A64     		str	r2, [r3, #64]
 1202 00f6 A36A     		ldr	r3, [r4, #40]
 1203 00f8 254A     		ldr	r2, .L122+8
 1204 00fa DA64     		str	r2, [r3, #76]
 1205 00fc 2268     		ldr	r2, [r4]
 1206 00fe 059B     		ldr	r3, [sp, #20]
 1207 0100 4C32     		adds	r2, r2, #76
ARM GAS  C:\Users\Administrator\AppData\Local\Temp\ccdDcLdm.s 			page 21


 1208 0102 A06A     		ldr	r0, [r4, #40]
 1209 0104 FFF7FEFF 		bl	HAL_DMA_Start_IT
 1210 0108 0028     		cmp	r0, #0
 1211 010a A7D0     		beq	.L108
 1212 010c 0120     		movs	r0, #1
 1213 010e AFE7     		b	.L97
 1214              	.L100:
 1215 0110 E36A     		ldr	r3, [r4, #44]
 1216 0112 204A     		ldr	r2, .L122+12
 1217 0114 DA63     		str	r2, [r3, #60]
 1218 0116 E36A     		ldr	r3, [r4, #44]
 1219 0118 1F4A     		ldr	r2, .L122+16
 1220 011a 1A64     		str	r2, [r3, #64]
 1221 011c E36A     		ldr	r3, [r4, #44]
 1222 011e 1C4A     		ldr	r2, .L122+8
 1223 0120 DA64     		str	r2, [r3, #76]
 1224 0122 2268     		ldr	r2, [r4]
 1225 0124 059B     		ldr	r3, [sp, #20]
 1226 0126 4C32     		adds	r2, r2, #76
 1227 0128 E06A     		ldr	r0, [r4, #44]
 1228 012a FFF7FEFF 		bl	HAL_DMA_Start_IT
 1229 012e 0028     		cmp	r0, #0
 1230 0130 94D0     		beq	.L108
 1231 0132 0120     		movs	r0, #1
 1232 0134 9CE7     		b	.L97
 1233              	.L105:
 1234 0136 636B     		ldr	r3, [r4, #52]
 1235 0138 184A     		ldr	r2, .L122+20
 1236 013a DA63     		str	r2, [r3, #60]
 1237 013c 636B     		ldr	r3, [r4, #52]
 1238 013e 184A     		ldr	r2, .L122+24
 1239 0140 1A64     		str	r2, [r3, #64]
 1240 0142 636B     		ldr	r3, [r4, #52]
 1241 0144 124A     		ldr	r2, .L122+8
 1242 0146 DA64     		str	r2, [r3, #76]
 1243 0148 2268     		ldr	r2, [r4]
 1244 014a 059B     		ldr	r3, [sp, #20]
 1245 014c 4C32     		adds	r2, r2, #76
 1246 014e 606B     		ldr	r0, [r4, #52]
 1247 0150 FFF7FEFF 		bl	HAL_DMA_Start_IT
 1248 0154 0028     		cmp	r0, #0
 1249 0156 81D0     		beq	.L108
 1250 0158 0120     		movs	r0, #1
 1251 015a 89E7     		b	.L97
 1252              	.L106:
 1253 015c A36B     		ldr	r3, [r4, #56]
 1254 015e 114A     		ldr	r2, .L122+28
 1255 0160 DA63     		str	r2, [r3, #60]
 1256 0162 A36B     		ldr	r3, [r4, #56]
 1257 0164 104A     		ldr	r2, .L122+32
 1258 0166 1A64     		str	r2, [r3, #64]
 1259 0168 A36B     		ldr	r3, [r4, #56]
 1260 016a 094A     		ldr	r2, .L122+8
 1261 016c DA64     		str	r2, [r3, #76]
 1262 016e 2268     		ldr	r2, [r4]
 1263 0170 059B     		ldr	r3, [sp, #20]
 1264 0172 4C32     		adds	r2, r2, #76
ARM GAS  C:\Users\Administrator\AppData\Local\Temp\ccdDcLdm.s 			page 22


 1265 0174 A06B     		ldr	r0, [r4, #56]
 1266 0176 FFF7FEFF 		bl	HAL_DMA_Start_IT
 1267 017a 0028     		cmp	r0, #0
 1268 017c 3FF46EAF 		beq	.L108
 1269 0180 0120     		movs	r0, #1
 1270 0182 75E7     		b	.L97
 1271              	.L119:
 1272 0184 0120     		movs	r0, #1
 1273 0186 73E7     		b	.L97
 1274              	.L123:
 1275              		.align	2
 1276              	.L122:
 1277 0188 00000000 		.word	TIM_DMAPeriodElapsedCplt
 1278 018c 00000000 		.word	TIM_DMAPeriodElapsedHalfCplt
 1279 0190 00000000 		.word	TIM_DMAError
 1280 0194 00000000 		.word	TIM_DMADelayPulseCplt
 1281 0198 00000000 		.word	TIM_DMADelayPulseHalfCplt
 1282 019c 00000000 		.word	TIMEx_DMACommutationCplt
 1283 01a0 00000000 		.word	TIMEx_DMACommutationHalfCplt
 1284 01a4 00000000 		.word	TIM_DMATriggerCplt
 1285 01a8 00000000 		.word	TIM_DMATriggerHalfCplt
 1287              		.section	.text.HAL_TIM_DMABurst_WriteStart,"ax",%progbits
 1288              		.align	1
 1289              		.global	HAL_TIM_DMABurst_WriteStart
 1290              		.syntax unified
 1291              		.thumb
 1292              		.thumb_func
 1294              	HAL_TIM_DMABurst_WriteStart:
 1295              		@ args = 4, pretend = 0, frame = 0
 1296              		@ frame_needed = 0, uses_anonymous_args = 0
 1297 0000 00B5     		push	{lr}
 1298 0002 83B0     		sub	sp, sp, #12
 1299 0004 DDF810E0 		ldr	lr, [sp, #16]
 1300 0008 4FEA1E2C 		lsr	ip, lr, #8
 1301 000c 0CF1010C 		add	ip, ip, #1
 1302 0010 CDF804C0 		str	ip, [sp, #4]
 1303 0014 CDF800E0 		str	lr, [sp]
 1304 0018 FFF7FEFF 		bl	HAL_TIM_DMABurst_MultiWriteStart
 1305 001c 03B0     		add	sp, sp, #12
 1306              		@ sp needed
 1307 001e 00BD     		pop	{pc}
 1309              		.section	.text.HAL_TIM_DMABurst_WriteStop,"ax",%progbits
 1310              		.align	1
 1311              		.global	HAL_TIM_DMABurst_WriteStop
 1312              		.syntax unified
 1313              		.thumb
 1314              		.thumb_func
 1316              	HAL_TIM_DMABurst_WriteStop:
 1317              		@ args = 0, pretend = 0, frame = 0
 1318              		@ frame_needed = 0, uses_anonymous_args = 0
 1319 0000 38B5     		push	{r3, r4, r5, lr}
 1320 0002 0546     		mov	r5, r0
 1321 0004 0C46     		mov	r4, r1
 1322 0006 B1F5006F 		cmp	r1, #2048
 1323 000a 2FD0     		beq	.L127
 1324 000c 17D8     		bhi	.L128
 1325 000e B1F5007F 		cmp	r1, #512
ARM GAS  C:\Users\Administrator\AppData\Local\Temp\ccdDcLdm.s 			page 23


 1326 0012 23D0     		beq	.L129
 1327 0014 B1F5806F 		cmp	r1, #1024
 1328 0018 24D0     		beq	.L130
 1329 001a B1F5807F 		cmp	r1, #256
 1330 001e 0CD1     		bne	.L138
 1331 0020 006A     		ldr	r0, [r0, #32]
 1332 0022 FFF7FEFF 		bl	HAL_DMA_Abort_IT
 1333              	.L136:
 1334 0026 2A68     		ldr	r2, [r5]
 1335 0028 D368     		ldr	r3, [r2, #12]
 1336 002a 23EA0403 		bic	r3, r3, r4
 1337 002e D360     		str	r3, [r2, #12]
 1338 0030 0123     		movs	r3, #1
 1339 0032 85F84630 		strb	r3, [r5, #70]
 1340 0036 0020     		movs	r0, #0
 1341              	.L132:
 1342 0038 38BD     		pop	{r3, r4, r5, pc}
 1343              	.L138:
 1344 003a 0120     		movs	r0, #1
 1345 003c FCE7     		b	.L132
 1346              	.L128:
 1347 003e B1F5005F 		cmp	r1, #8192
 1348 0042 17D0     		beq	.L133
 1349 0044 B1F5804F 		cmp	r1, #16384
 1350 0048 18D0     		beq	.L134
 1351 004a B1F5805F 		cmp	r1, #4096
 1352 004e 03D1     		bne	.L139
 1353 0050 006B     		ldr	r0, [r0, #48]
 1354 0052 FFF7FEFF 		bl	HAL_DMA_Abort_IT
 1355 0056 E6E7     		b	.L136
 1356              	.L139:
 1357 0058 0120     		movs	r0, #1
 1358 005a EDE7     		b	.L132
 1359              	.L129:
 1360 005c 406A     		ldr	r0, [r0, #36]
 1361 005e FFF7FEFF 		bl	HAL_DMA_Abort_IT
 1362 0062 E0E7     		b	.L136
 1363              	.L130:
 1364 0064 806A     		ldr	r0, [r0, #40]
 1365 0066 FFF7FEFF 		bl	HAL_DMA_Abort_IT
 1366 006a DCE7     		b	.L136
 1367              	.L127:
 1368 006c C06A     		ldr	r0, [r0, #44]
 1369 006e FFF7FEFF 		bl	HAL_DMA_Abort_IT
 1370 0072 D8E7     		b	.L136
 1371              	.L133:
 1372 0074 406B     		ldr	r0, [r0, #52]
 1373 0076 FFF7FEFF 		bl	HAL_DMA_Abort_IT
 1374 007a D4E7     		b	.L136
 1375              	.L134:
 1376 007c 806B     		ldr	r0, [r0, #56]
 1377 007e FFF7FEFF 		bl	HAL_DMA_Abort_IT
 1378 0082 D0E7     		b	.L136
 1380              		.section	.text.HAL_TIM_DMABurst_MultiReadStart,"ax",%progbits
 1381              		.align	1
 1382              		.global	HAL_TIM_DMABurst_MultiReadStart
 1383              		.syntax unified
ARM GAS  C:\Users\Administrator\AppData\Local\Temp\ccdDcLdm.s 			page 24


 1384              		.thumb
 1385              		.thumb_func
 1387              	HAL_TIM_DMABurst_MultiReadStart:
 1388              		@ args = 8, pretend = 0, frame = 0
 1389              		@ frame_needed = 0, uses_anonymous_args = 0
 1390 0000 70B5     		push	{r4, r5, r6, lr}
 1391 0002 0446     		mov	r4, r0
 1392 0004 1546     		mov	r5, r2
 1393 0006 1A46     		mov	r2, r3
 1394 0008 90F84630 		ldrb	r3, [r0, #70]	@ zero_extendqisi2
 1395 000c D8B2     		uxtb	r0, r3
 1396 000e 022B     		cmp	r3, #2
 1397 0010 2ED0     		beq	.L141
 1398 0012 0E46     		mov	r6, r1
 1399 0014 94F84630 		ldrb	r3, [r4, #70]	@ zero_extendqisi2
 1400 0018 D8B2     		uxtb	r0, r3
 1401 001a 012B     		cmp	r3, #1
 1402 001c 29D0     		beq	.L161
 1403              	.L142:
 1404 001e B5F5006F 		cmp	r5, #2048
 1405 0022 75D0     		beq	.L144
 1406 0024 30D8     		bhi	.L145
 1407 0026 B5F5007F 		cmp	r5, #512
 1408 002a 4BD0     		beq	.L146
 1409 002c B5F5806F 		cmp	r5, #1024
 1410 0030 5BD0     		beq	.L147
 1411 0032 B5F5807F 		cmp	r5, #256
 1412 0036 25D1     		bne	.L162
 1413 0038 236A     		ldr	r3, [r4, #32]
 1414 003a 5349     		ldr	r1, .L166
 1415 003c D963     		str	r1, [r3, #60]
 1416 003e 236A     		ldr	r3, [r4, #32]
 1417 0040 5249     		ldr	r1, .L166+4
 1418 0042 1964     		str	r1, [r3, #64]
 1419 0044 236A     		ldr	r3, [r4, #32]
 1420 0046 5249     		ldr	r1, .L166+8
 1421 0048 D964     		str	r1, [r3, #76]
 1422 004a 2168     		ldr	r1, [r4]
 1423 004c 059B     		ldr	r3, [sp, #20]
 1424 004e 4C31     		adds	r1, r1, #76
 1425 0050 206A     		ldr	r0, [r4, #32]
 1426 0052 FFF7FEFF 		bl	HAL_DMA_Start_IT
 1427 0056 0028     		cmp	r0, #0
 1428 0058 40F09480 		bne	.L163
 1429              	.L152:
 1430 005c 2368     		ldr	r3, [r4]
 1431 005e 3146     		mov	r1, r6
 1432 0060 049A     		ldr	r2, [sp, #16]
 1433 0062 1143     		orrs	r1, r1, r2
 1434 0064 9964     		str	r1, [r3, #72]
 1435 0066 2268     		ldr	r2, [r4]
 1436 0068 D368     		ldr	r3, [r2, #12]
 1437 006a 2B43     		orrs	r3, r3, r5
 1438 006c D360     		str	r3, [r2, #12]
 1439 006e 0020     		movs	r0, #0
 1440              	.L141:
 1441 0070 70BD     		pop	{r4, r5, r6, pc}
ARM GAS  C:\Users\Administrator\AppData\Local\Temp\ccdDcLdm.s 			page 25


 1442              	.L161:
 1443 0072 1AB1     		cbz	r2, .L164
 1444              	.L143:
 1445 0074 0223     		movs	r3, #2
 1446 0076 84F84630 		strb	r3, [r4, #70]
 1447 007a D0E7     		b	.L142
 1448              	.L164:
 1449 007c 049B     		ldr	r3, [sp, #16]
 1450 007e 002B     		cmp	r3, #0
 1451 0080 F8D0     		beq	.L143
 1452 0082 F5E7     		b	.L141
 1453              	.L162:
 1454 0084 0120     		movs	r0, #1
 1455 0086 F3E7     		b	.L141
 1456              	.L145:
 1457 0088 B5F5005F 		cmp	r5, #8192
 1458 008c 53D0     		beq	.L149
 1459 008e B5F5804F 		cmp	r5, #16384
 1460 0092 63D0     		beq	.L150
 1461 0094 B5F5805F 		cmp	r5, #4096
 1462 0098 12D1     		bne	.L165
 1463 009a 236B     		ldr	r3, [r4, #48]
 1464 009c 3D49     		ldr	r1, .L166+12
 1465 009e D963     		str	r1, [r3, #60]
 1466 00a0 236B     		ldr	r3, [r4, #48]
 1467 00a2 3D49     		ldr	r1, .L166+16
 1468 00a4 1964     		str	r1, [r3, #64]
 1469 00a6 236B     		ldr	r3, [r4, #48]
 1470 00a8 3949     		ldr	r1, .L166+8
 1471 00aa D964     		str	r1, [r3, #76]
 1472 00ac 2168     		ldr	r1, [r4]
 1473 00ae 059B     		ldr	r3, [sp, #20]
 1474 00b0 4C31     		adds	r1, r1, #76
 1475 00b2 206B     		ldr	r0, [r4, #48]
 1476 00b4 FFF7FEFF 		bl	HAL_DMA_Start_IT
 1477 00b8 0028     		cmp	r0, #0
 1478 00ba CFD0     		beq	.L152
 1479 00bc 0120     		movs	r0, #1
 1480 00be D7E7     		b	.L141
 1481              	.L165:
 1482 00c0 0120     		movs	r0, #1
 1483 00c2 D5E7     		b	.L141
 1484              	.L146:
 1485 00c4 636A     		ldr	r3, [r4, #36]
 1486 00c6 3349     		ldr	r1, .L166+12
 1487 00c8 D963     		str	r1, [r3, #60]
 1488 00ca 636A     		ldr	r3, [r4, #36]
 1489 00cc 3249     		ldr	r1, .L166+16
 1490 00ce 1964     		str	r1, [r3, #64]
 1491 00d0 636A     		ldr	r3, [r4, #36]
 1492 00d2 2F49     		ldr	r1, .L166+8
 1493 00d4 D964     		str	r1, [r3, #76]
 1494 00d6 2168     		ldr	r1, [r4]
 1495 00d8 059B     		ldr	r3, [sp, #20]
 1496 00da 4C31     		adds	r1, r1, #76
 1497 00dc 606A     		ldr	r0, [r4, #36]
 1498 00de FFF7FEFF 		bl	HAL_DMA_Start_IT
ARM GAS  C:\Users\Administrator\AppData\Local\Temp\ccdDcLdm.s 			page 26


 1499 00e2 0028     		cmp	r0, #0
 1500 00e4 BAD0     		beq	.L152
 1501 00e6 0120     		movs	r0, #1
 1502 00e8 C2E7     		b	.L141
 1503              	.L147:
 1504 00ea A36A     		ldr	r3, [r4, #40]
 1505 00ec 2949     		ldr	r1, .L166+12
 1506 00ee D963     		str	r1, [r3, #60]
 1507 00f0 A36A     		ldr	r3, [r4, #40]
 1508 00f2 2949     		ldr	r1, .L166+16
 1509 00f4 1964     		str	r1, [r3, #64]
 1510 00f6 A36A     		ldr	r3, [r4, #40]
 1511 00f8 2549     		ldr	r1, .L166+8
 1512 00fa D964     		str	r1, [r3, #76]
 1513 00fc 2168     		ldr	r1, [r4]
 1514 00fe 059B     		ldr	r3, [sp, #20]
 1515 0100 4C31     		adds	r1, r1, #76
 1516 0102 A06A     		ldr	r0, [r4, #40]
 1517 0104 FFF7FEFF 		bl	HAL_DMA_Start_IT
 1518 0108 0028     		cmp	r0, #0
 1519 010a A7D0     		beq	.L152
 1520 010c 0120     		movs	r0, #1
 1521 010e AFE7     		b	.L141
 1522              	.L144:
 1523 0110 E36A     		ldr	r3, [r4, #44]
 1524 0112 2049     		ldr	r1, .L166+12
 1525 0114 D963     		str	r1, [r3, #60]
 1526 0116 E36A     		ldr	r3, [r4, #44]
 1527 0118 1F49     		ldr	r1, .L166+16
 1528 011a 1964     		str	r1, [r3, #64]
 1529 011c E36A     		ldr	r3, [r4, #44]
 1530 011e 1C49     		ldr	r1, .L166+8
 1531 0120 D964     		str	r1, [r3, #76]
 1532 0122 2168     		ldr	r1, [r4]
 1533 0124 059B     		ldr	r3, [sp, #20]
 1534 0126 4C31     		adds	r1, r1, #76
 1535 0128 E06A     		ldr	r0, [r4, #44]
 1536 012a FFF7FEFF 		bl	HAL_DMA_Start_IT
 1537 012e 0028     		cmp	r0, #0
 1538 0130 94D0     		beq	.L152
 1539 0132 0120     		movs	r0, #1
 1540 0134 9CE7     		b	.L141
 1541              	.L149:
 1542 0136 636B     		ldr	r3, [r4, #52]
 1543 0138 1849     		ldr	r1, .L166+20
 1544 013a D963     		str	r1, [r3, #60]
 1545 013c 636B     		ldr	r3, [r4, #52]
 1546 013e 1849     		ldr	r1, .L166+24
 1547 0140 1964     		str	r1, [r3, #64]
 1548 0142 636B     		ldr	r3, [r4, #52]
 1549 0144 1249     		ldr	r1, .L166+8
 1550 0146 D964     		str	r1, [r3, #76]
 1551 0148 2168     		ldr	r1, [r4]
 1552 014a 059B     		ldr	r3, [sp, #20]
 1553 014c 4C31     		adds	r1, r1, #76
 1554 014e 606B     		ldr	r0, [r4, #52]
 1555 0150 FFF7FEFF 		bl	HAL_DMA_Start_IT
ARM GAS  C:\Users\Administrator\AppData\Local\Temp\ccdDcLdm.s 			page 27


 1556 0154 0028     		cmp	r0, #0
 1557 0156 81D0     		beq	.L152
 1558 0158 0120     		movs	r0, #1
 1559 015a 89E7     		b	.L141
 1560              	.L150:
 1561 015c A36B     		ldr	r3, [r4, #56]
 1562 015e 1149     		ldr	r1, .L166+28
 1563 0160 D963     		str	r1, [r3, #60]
 1564 0162 A36B     		ldr	r3, [r4, #56]
 1565 0164 1049     		ldr	r1, .L166+32
 1566 0166 1964     		str	r1, [r3, #64]
 1567 0168 A36B     		ldr	r3, [r4, #56]
 1568 016a 0949     		ldr	r1, .L166+8
 1569 016c D964     		str	r1, [r3, #76]
 1570 016e 2168     		ldr	r1, [r4]
 1571 0170 059B     		ldr	r3, [sp, #20]
 1572 0172 4C31     		adds	r1, r1, #76
 1573 0174 A06B     		ldr	r0, [r4, #56]
 1574 0176 FFF7FEFF 		bl	HAL_DMA_Start_IT
 1575 017a 0028     		cmp	r0, #0
 1576 017c 3FF46EAF 		beq	.L152
 1577 0180 0120     		movs	r0, #1
 1578 0182 75E7     		b	.L141
 1579              	.L163:
 1580 0184 0120     		movs	r0, #1
 1581 0186 73E7     		b	.L141
 1582              	.L167:
 1583              		.align	2
 1584              	.L166:
 1585 0188 00000000 		.word	TIM_DMAPeriodElapsedCplt
 1586 018c 00000000 		.word	TIM_DMAPeriodElapsedHalfCplt
 1587 0190 00000000 		.word	TIM_DMAError
 1588 0194 00000000 		.word	TIM_DMACaptureCplt
 1589 0198 00000000 		.word	TIM_DMACaptureHalfCplt
 1590 019c 00000000 		.word	TIMEx_DMACommutationCplt
 1591 01a0 00000000 		.word	TIMEx_DMACommutationHalfCplt
 1592 01a4 00000000 		.word	TIM_DMATriggerCplt
 1593 01a8 00000000 		.word	TIM_DMATriggerHalfCplt
 1595              		.section	.text.HAL_TIM_DMABurst_ReadStart,"ax",%progbits
 1596              		.align	1
 1597              		.global	HAL_TIM_DMABurst_ReadStart
 1598              		.syntax unified
 1599              		.thumb
 1600              		.thumb_func
 1602              	HAL_TIM_DMABurst_ReadStart:
 1603              		@ args = 4, pretend = 0, frame = 0
 1604              		@ frame_needed = 0, uses_anonymous_args = 0
 1605 0000 00B5     		push	{lr}
 1606 0002 83B0     		sub	sp, sp, #12
 1607 0004 DDF810E0 		ldr	lr, [sp, #16]
 1608 0008 4FEA1E2C 		lsr	ip, lr, #8
 1609 000c 0CF1010C 		add	ip, ip, #1
 1610 0010 CDF804C0 		str	ip, [sp, #4]
 1611 0014 CDF800E0 		str	lr, [sp]
 1612 0018 FFF7FEFF 		bl	HAL_TIM_DMABurst_MultiReadStart
 1613 001c 03B0     		add	sp, sp, #12
 1614              		@ sp needed
ARM GAS  C:\Users\Administrator\AppData\Local\Temp\ccdDcLdm.s 			page 28


 1615 001e 00BD     		pop	{pc}
 1617              		.section	.text.HAL_TIM_DMABurst_ReadStop,"ax",%progbits
 1618              		.align	1
 1619              		.global	HAL_TIM_DMABurst_ReadStop
 1620              		.syntax unified
 1621              		.thumb
 1622              		.thumb_func
 1624              	HAL_TIM_DMABurst_ReadStop:
 1625              		@ args = 0, pretend = 0, frame = 0
 1626              		@ frame_needed = 0, uses_anonymous_args = 0
 1627 0000 38B5     		push	{r3, r4, r5, lr}
 1628 0002 0546     		mov	r5, r0
 1629 0004 0C46     		mov	r4, r1
 1630 0006 B1F5006F 		cmp	r1, #2048
 1631 000a 2FD0     		beq	.L171
 1632 000c 17D8     		bhi	.L172
 1633 000e B1F5007F 		cmp	r1, #512
 1634 0012 23D0     		beq	.L173
 1635 0014 B1F5806F 		cmp	r1, #1024
 1636 0018 24D0     		beq	.L174
 1637 001a B1F5807F 		cmp	r1, #256
 1638 001e 0CD1     		bne	.L182
 1639 0020 006A     		ldr	r0, [r0, #32]
 1640 0022 FFF7FEFF 		bl	HAL_DMA_Abort_IT
 1641              	.L180:
 1642 0026 2A68     		ldr	r2, [r5]
 1643 0028 D368     		ldr	r3, [r2, #12]
 1644 002a 23EA0403 		bic	r3, r3, r4
 1645 002e D360     		str	r3, [r2, #12]
 1646 0030 0123     		movs	r3, #1
 1647 0032 85F84630 		strb	r3, [r5, #70]
 1648 0036 0020     		movs	r0, #0
 1649              	.L176:
 1650 0038 38BD     		pop	{r3, r4, r5, pc}
 1651              	.L182:
 1652 003a 0120     		movs	r0, #1
 1653 003c FCE7     		b	.L176
 1654              	.L172:
 1655 003e B1F5005F 		cmp	r1, #8192
 1656 0042 17D0     		beq	.L177
 1657 0044 B1F5804F 		cmp	r1, #16384
 1658 0048 18D0     		beq	.L178
 1659 004a B1F5805F 		cmp	r1, #4096
 1660 004e 03D1     		bne	.L183
 1661 0050 006B     		ldr	r0, [r0, #48]
 1662 0052 FFF7FEFF 		bl	HAL_DMA_Abort_IT
 1663 0056 E6E7     		b	.L180
 1664              	.L183:
 1665 0058 0120     		movs	r0, #1
 1666 005a EDE7     		b	.L176
 1667              	.L173:
 1668 005c 406A     		ldr	r0, [r0, #36]
 1669 005e FFF7FEFF 		bl	HAL_DMA_Abort_IT
 1670 0062 E0E7     		b	.L180
 1671              	.L174:
 1672 0064 806A     		ldr	r0, [r0, #40]
 1673 0066 FFF7FEFF 		bl	HAL_DMA_Abort_IT
ARM GAS  C:\Users\Administrator\AppData\Local\Temp\ccdDcLdm.s 			page 29


 1674 006a DCE7     		b	.L180
 1675              	.L171:
 1676 006c C06A     		ldr	r0, [r0, #44]
 1677 006e FFF7FEFF 		bl	HAL_DMA_Abort_IT
 1678 0072 D8E7     		b	.L180
 1679              	.L177:
 1680 0074 406B     		ldr	r0, [r0, #52]
 1681 0076 FFF7FEFF 		bl	HAL_DMA_Abort_IT
 1682 007a D4E7     		b	.L180
 1683              	.L178:
 1684 007c 806B     		ldr	r0, [r0, #56]
 1685 007e FFF7FEFF 		bl	HAL_DMA_Abort_IT
 1686 0082 D0E7     		b	.L180
 1688              		.section	.text.HAL_TIM_GenerateEvent,"ax",%progbits
 1689              		.align	1
 1690              		.global	HAL_TIM_GenerateEvent
 1691              		.syntax unified
 1692              		.thumb
 1693              		.thumb_func
 1695              	HAL_TIM_GenerateEvent:
 1696              		@ args = 0, pretend = 0, frame = 0
 1697              		@ frame_needed = 0, uses_anonymous_args = 0
 1698              		@ link register save eliminated.
 1699 0000 90F83C30 		ldrb	r3, [r0, #60]	@ zero_extendqisi2
 1700 0004 012B     		cmp	r3, #1
 1701 0006 0ED0     		beq	.L186
 1702 0008 0123     		movs	r3, #1
 1703 000a 80F83C30 		strb	r3, [r0, #60]
 1704 000e 0222     		movs	r2, #2
 1705 0010 80F83D20 		strb	r2, [r0, #61]
 1706 0014 0268     		ldr	r2, [r0]
 1707 0016 5161     		str	r1, [r2, #20]
 1708 0018 80F83D30 		strb	r3, [r0, #61]
 1709 001c 0023     		movs	r3, #0
 1710 001e 80F83C30 		strb	r3, [r0, #60]
 1711 0022 1846     		mov	r0, r3
 1712 0024 7047     		bx	lr
 1713              	.L186:
 1714 0026 0220     		movs	r0, #2
 1715 0028 7047     		bx	lr
 1717              		.section	.text.HAL_TIM_ConfigTI1Input,"ax",%progbits
 1718              		.align	1
 1719              		.global	HAL_TIM_ConfigTI1Input
 1720              		.syntax unified
 1721              		.thumb
 1722              		.thumb_func
 1724              	HAL_TIM_ConfigTI1Input:
 1725              		@ args = 0, pretend = 0, frame = 0
 1726              		@ frame_needed = 0, uses_anonymous_args = 0
 1727              		@ link register save eliminated.
 1728 0000 0268     		ldr	r2, [r0]
 1729 0002 5368     		ldr	r3, [r2, #4]
 1730 0004 23F08003 		bic	r3, r3, #128
 1731 0008 0B43     		orrs	r3, r3, r1
 1732 000a 5360     		str	r3, [r2, #4]
 1733 000c 0020     		movs	r0, #0
 1734 000e 7047     		bx	lr
ARM GAS  C:\Users\Administrator\AppData\Local\Temp\ccdDcLdm.s 			page 30


 1736              		.section	.text.HAL_TIM_ReadCapturedValue,"ax",%progbits
 1737              		.align	1
 1738              		.global	HAL_TIM_ReadCapturedValue
 1739              		.syntax unified
 1740              		.thumb
 1741              		.thumb_func
 1743              	HAL_TIM_ReadCapturedValue:
 1744              		@ args = 0, pretend = 0, frame = 0
 1745              		@ frame_needed = 0, uses_anonymous_args = 0
 1746              		@ link register save eliminated.
 1747 0000 0829     		cmp	r1, #8
 1748 0002 12D0     		beq	.L189
 1749 0004 07D8     		bhi	.L190
 1750 0006 69B1     		cbz	r1, .L191
 1751 0008 0429     		cmp	r1, #4
 1752 000a 02D1     		bne	.L195
 1753 000c 0368     		ldr	r3, [r0]
 1754 000e 986B     		ldr	r0, [r3, #56]
 1755 0010 7047     		bx	lr
 1756              	.L195:
 1757 0012 0020     		movs	r0, #0
 1758 0014 7047     		bx	lr
 1759              	.L190:
 1760 0016 0C29     		cmp	r1, #12
 1761 0018 02D1     		bne	.L196
 1762 001a 0368     		ldr	r3, [r0]
 1763 001c 186C     		ldr	r0, [r3, #64]
 1764 001e 7047     		bx	lr
 1765              	.L196:
 1766 0020 0020     		movs	r0, #0
 1767 0022 7047     		bx	lr
 1768              	.L191:
 1769 0024 0368     		ldr	r3, [r0]
 1770 0026 586B     		ldr	r0, [r3, #52]
 1771 0028 7047     		bx	lr
 1772              	.L189:
 1773 002a 0368     		ldr	r3, [r0]
 1774 002c D86B     		ldr	r0, [r3, #60]
 1775 002e 7047     		bx	lr
 1777              		.section	.text.HAL_TIM_PeriodElapsedCallback,"ax",%progbits
 1778              		.align	1
 1779              		.weak	HAL_TIM_PeriodElapsedCallback
 1780              		.syntax unified
 1781              		.thumb
 1782              		.thumb_func
 1784              	HAL_TIM_PeriodElapsedCallback:
 1785              		@ args = 0, pretend = 0, frame = 0
 1786              		@ frame_needed = 0, uses_anonymous_args = 0
 1787              		@ link register save eliminated.
 1788 0000 7047     		bx	lr
 1790              		.section	.text.TIM_DMAPeriodElapsedCplt,"ax",%progbits
 1791              		.align	1
 1792              		.syntax unified
 1793              		.thumb
 1794              		.thumb_func
 1796              	TIM_DMAPeriodElapsedCplt:
 1797              		@ args = 0, pretend = 0, frame = 0
ARM GAS  C:\Users\Administrator\AppData\Local\Temp\ccdDcLdm.s 			page 31


 1798              		@ frame_needed = 0, uses_anonymous_args = 0
 1799 0000 08B5     		push	{r3, lr}
 1800 0002 806B     		ldr	r0, [r0, #56]
 1801 0004 036A     		ldr	r3, [r0, #32]
 1802 0006 DB69     		ldr	r3, [r3, #28]
 1803 0008 13B9     		cbnz	r3, .L199
 1804 000a 0123     		movs	r3, #1
 1805 000c 80F83D30 		strb	r3, [r0, #61]
 1806              	.L199:
 1807 0010 FFF7FEFF 		bl	HAL_TIM_PeriodElapsedCallback
 1808 0014 08BD     		pop	{r3, pc}
 1810              		.section	.text.HAL_TIM_PeriodElapsedHalfCpltCallback,"ax",%progbits
 1811              		.align	1
 1812              		.weak	HAL_TIM_PeriodElapsedHalfCpltCallback
 1813              		.syntax unified
 1814              		.thumb
 1815              		.thumb_func
 1817              	HAL_TIM_PeriodElapsedHalfCpltCallback:
 1818              		@ args = 0, pretend = 0, frame = 0
 1819              		@ frame_needed = 0, uses_anonymous_args = 0
 1820              		@ link register save eliminated.
 1821 0000 7047     		bx	lr
 1823              		.section	.text.TIM_DMAPeriodElapsedHalfCplt,"ax",%progbits
 1824              		.align	1
 1825              		.syntax unified
 1826              		.thumb
 1827              		.thumb_func
 1829              	TIM_DMAPeriodElapsedHalfCplt:
 1830              		@ args = 0, pretend = 0, frame = 0
 1831              		@ frame_needed = 0, uses_anonymous_args = 0
 1832 0000 08B5     		push	{r3, lr}
 1833 0002 806B     		ldr	r0, [r0, #56]
 1834 0004 FFF7FEFF 		bl	HAL_TIM_PeriodElapsedHalfCpltCallback
 1835 0008 08BD     		pop	{r3, pc}
 1837              		.section	.text.HAL_TIM_OC_DelayElapsedCallback,"ax",%progbits
 1838              		.align	1
 1839              		.weak	HAL_TIM_OC_DelayElapsedCallback
 1840              		.syntax unified
 1841              		.thumb
 1842              		.thumb_func
 1844              	HAL_TIM_OC_DelayElapsedCallback:
 1845              		@ args = 0, pretend = 0, frame = 0
 1846              		@ frame_needed = 0, uses_anonymous_args = 0
 1847              		@ link register save eliminated.
 1848 0000 7047     		bx	lr
 1850              		.section	.text.HAL_TIM_IC_CaptureCallback,"ax",%progbits
 1851              		.align	1
 1852              		.weak	HAL_TIM_IC_CaptureCallback
 1853              		.syntax unified
 1854              		.thumb
 1855              		.thumb_func
 1857              	HAL_TIM_IC_CaptureCallback:
 1858              		@ args = 0, pretend = 0, frame = 0
 1859              		@ frame_needed = 0, uses_anonymous_args = 0
 1860              		@ link register save eliminated.
 1861 0000 7047     		bx	lr
 1863              		.section	.text.TIM_DMACaptureCplt,"ax",%progbits
ARM GAS  C:\Users\Administrator\AppData\Local\Temp\ccdDcLdm.s 			page 32


 1864              		.align	1
 1865              		.global	TIM_DMACaptureCplt
 1866              		.syntax unified
 1867              		.thumb
 1868              		.thumb_func
 1870              	TIM_DMACaptureCplt:
 1871              		@ args = 0, pretend = 0, frame = 0
 1872              		@ frame_needed = 0, uses_anonymous_args = 0
 1873 0000 10B5     		push	{r4, lr}
 1874 0002 846B     		ldr	r4, [r0, #56]
 1875 0004 636A     		ldr	r3, [r4, #36]
 1876 0006 8342     		cmp	r3, r0
 1877 0008 0ED0     		beq	.L212
 1878 000a A36A     		ldr	r3, [r4, #40]
 1879 000c 8342     		cmp	r3, r0
 1880 000e 16D0     		beq	.L213
 1881 0010 E36A     		ldr	r3, [r4, #44]
 1882 0012 8342     		cmp	r3, r0
 1883 0014 1ED0     		beq	.L214
 1884 0016 236B     		ldr	r3, [r4, #48]
 1885 0018 8342     		cmp	r3, r0
 1886 001a 26D0     		beq	.L215
 1887              	.L208:
 1888 001c 2046     		mov	r0, r4
 1889 001e FFF7FEFF 		bl	HAL_TIM_IC_CaptureCallback
 1890 0022 0023     		movs	r3, #0
 1891 0024 2377     		strb	r3, [r4, #28]
 1892 0026 10BD     		pop	{r4, pc}
 1893              	.L212:
 1894 0028 0123     		movs	r3, #1
 1895 002a 2377     		strb	r3, [r4, #28]
 1896 002c C369     		ldr	r3, [r0, #28]
 1897 002e 002B     		cmp	r3, #0
 1898 0030 F4D1     		bne	.L208
 1899 0032 0123     		movs	r3, #1
 1900 0034 84F83E30 		strb	r3, [r4, #62]
 1901 0038 84F84230 		strb	r3, [r4, #66]
 1902 003c EEE7     		b	.L208
 1903              	.L213:
 1904 003e 0223     		movs	r3, #2
 1905 0040 2377     		strb	r3, [r4, #28]
 1906 0042 C369     		ldr	r3, [r0, #28]
 1907 0044 002B     		cmp	r3, #0
 1908 0046 E9D1     		bne	.L208
 1909 0048 0123     		movs	r3, #1
 1910 004a 84F83F30 		strb	r3, [r4, #63]
 1911 004e 84F84330 		strb	r3, [r4, #67]
 1912 0052 E3E7     		b	.L208
 1913              	.L214:
 1914 0054 0423     		movs	r3, #4
 1915 0056 2377     		strb	r3, [r4, #28]
 1916 0058 C369     		ldr	r3, [r0, #28]
 1917 005a 002B     		cmp	r3, #0
 1918 005c DED1     		bne	.L208
 1919 005e 0123     		movs	r3, #1
 1920 0060 84F84030 		strb	r3, [r4, #64]
 1921 0064 84F84430 		strb	r3, [r4, #68]
ARM GAS  C:\Users\Administrator\AppData\Local\Temp\ccdDcLdm.s 			page 33


 1922 0068 D8E7     		b	.L208
 1923              	.L215:
 1924 006a 0823     		movs	r3, #8
 1925 006c 2377     		strb	r3, [r4, #28]
 1926 006e C369     		ldr	r3, [r0, #28]
 1927 0070 002B     		cmp	r3, #0
 1928 0072 D3D1     		bne	.L208
 1929 0074 0123     		movs	r3, #1
 1930 0076 84F84130 		strb	r3, [r4, #65]
 1931 007a 84F84530 		strb	r3, [r4, #69]
 1932 007e CDE7     		b	.L208
 1934              		.section	.text.HAL_TIM_IC_CaptureHalfCpltCallback,"ax",%progbits
 1935              		.align	1
 1936              		.weak	HAL_TIM_IC_CaptureHalfCpltCallback
 1937              		.syntax unified
 1938              		.thumb
 1939              		.thumb_func
 1941              	HAL_TIM_IC_CaptureHalfCpltCallback:
 1942              		@ args = 0, pretend = 0, frame = 0
 1943              		@ frame_needed = 0, uses_anonymous_args = 0
 1944              		@ link register save eliminated.
 1945 0000 7047     		bx	lr
 1947              		.section	.text.TIM_DMACaptureHalfCplt,"ax",%progbits
 1948              		.align	1
 1949              		.global	TIM_DMACaptureHalfCplt
 1950              		.syntax unified
 1951              		.thumb
 1952              		.thumb_func
 1954              	TIM_DMACaptureHalfCplt:
 1955              		@ args = 0, pretend = 0, frame = 0
 1956              		@ frame_needed = 0, uses_anonymous_args = 0
 1957 0000 10B5     		push	{r4, lr}
 1958 0002 846B     		ldr	r4, [r0, #56]
 1959 0004 636A     		ldr	r3, [r4, #36]
 1960 0006 8342     		cmp	r3, r0
 1961 0008 0BD0     		beq	.L223
 1962 000a A36A     		ldr	r3, [r4, #40]
 1963 000c 8342     		cmp	r3, r0
 1964 000e 10D0     		beq	.L224
 1965 0010 E36A     		ldr	r3, [r4, #44]
 1966 0012 8342     		cmp	r3, r0
 1967 0014 10D0     		beq	.L225
 1968 0016 236B     		ldr	r3, [r4, #48]
 1969 0018 8342     		cmp	r3, r0
 1970 001a 04D1     		bne	.L219
 1971 001c 0823     		movs	r3, #8
 1972 001e 2377     		strb	r3, [r4, #28]
 1973 0020 01E0     		b	.L219
 1974              	.L223:
 1975 0022 0123     		movs	r3, #1
 1976 0024 2377     		strb	r3, [r4, #28]
 1977              	.L219:
 1978 0026 2046     		mov	r0, r4
 1979 0028 FFF7FEFF 		bl	HAL_TIM_IC_CaptureHalfCpltCallback
 1980 002c 0023     		movs	r3, #0
 1981 002e 2377     		strb	r3, [r4, #28]
 1982 0030 10BD     		pop	{r4, pc}
ARM GAS  C:\Users\Administrator\AppData\Local\Temp\ccdDcLdm.s 			page 34


 1983              	.L224:
 1984 0032 0223     		movs	r3, #2
 1985 0034 2377     		strb	r3, [r4, #28]
 1986 0036 F6E7     		b	.L219
 1987              	.L225:
 1988 0038 0423     		movs	r3, #4
 1989 003a 2377     		strb	r3, [r4, #28]
 1990 003c F3E7     		b	.L219
 1992              		.section	.text.HAL_TIM_PWM_PulseFinishedCallback,"ax",%progbits
 1993              		.align	1
 1994              		.weak	HAL_TIM_PWM_PulseFinishedCallback
 1995              		.syntax unified
 1996              		.thumb
 1997              		.thumb_func
 1999              	HAL_TIM_PWM_PulseFinishedCallback:
 2000              		@ args = 0, pretend = 0, frame = 0
 2001              		@ frame_needed = 0, uses_anonymous_args = 0
 2002              		@ link register save eliminated.
 2003 0000 7047     		bx	lr
 2005              		.section	.text.TIM_DMADelayPulseCplt,"ax",%progbits
 2006              		.align	1
 2007              		.syntax unified
 2008              		.thumb
 2009              		.thumb_func
 2011              	TIM_DMADelayPulseCplt:
 2012              		@ args = 0, pretend = 0, frame = 0
 2013              		@ frame_needed = 0, uses_anonymous_args = 0
 2014 0000 10B5     		push	{r4, lr}
 2015 0002 846B     		ldr	r4, [r0, #56]
 2016 0004 636A     		ldr	r3, [r4, #36]
 2017 0006 8342     		cmp	r3, r0
 2018 0008 0ED0     		beq	.L233
 2019 000a A36A     		ldr	r3, [r4, #40]
 2020 000c 8342     		cmp	r3, r0
 2021 000e 14D0     		beq	.L234
 2022 0010 E36A     		ldr	r3, [r4, #44]
 2023 0012 8342     		cmp	r3, r0
 2024 0014 1AD0     		beq	.L235
 2025 0016 236B     		ldr	r3, [r4, #48]
 2026 0018 8342     		cmp	r3, r0
 2027 001a 20D0     		beq	.L236
 2028              	.L229:
 2029 001c 2046     		mov	r0, r4
 2030 001e FFF7FEFF 		bl	HAL_TIM_PWM_PulseFinishedCallback
 2031 0022 0023     		movs	r3, #0
 2032 0024 2377     		strb	r3, [r4, #28]
 2033 0026 10BD     		pop	{r4, pc}
 2034              	.L233:
 2035 0028 0123     		movs	r3, #1
 2036 002a 2377     		strb	r3, [r4, #28]
 2037 002c C369     		ldr	r3, [r0, #28]
 2038 002e 002B     		cmp	r3, #0
 2039 0030 F4D1     		bne	.L229
 2040 0032 0123     		movs	r3, #1
 2041 0034 84F83E30 		strb	r3, [r4, #62]
 2042 0038 F0E7     		b	.L229
 2043              	.L234:
ARM GAS  C:\Users\Administrator\AppData\Local\Temp\ccdDcLdm.s 			page 35


 2044 003a 0223     		movs	r3, #2
 2045 003c 2377     		strb	r3, [r4, #28]
 2046 003e C369     		ldr	r3, [r0, #28]
 2047 0040 002B     		cmp	r3, #0
 2048 0042 EBD1     		bne	.L229
 2049 0044 0123     		movs	r3, #1
 2050 0046 84F83F30 		strb	r3, [r4, #63]
 2051 004a E7E7     		b	.L229
 2052              	.L235:
 2053 004c 0423     		movs	r3, #4
 2054 004e 2377     		strb	r3, [r4, #28]
 2055 0050 C369     		ldr	r3, [r0, #28]
 2056 0052 002B     		cmp	r3, #0
 2057 0054 E2D1     		bne	.L229
 2058 0056 0123     		movs	r3, #1
 2059 0058 84F84030 		strb	r3, [r4, #64]
 2060 005c DEE7     		b	.L229
 2061              	.L236:
 2062 005e 0823     		movs	r3, #8
 2063 0060 2377     		strb	r3, [r4, #28]
 2064 0062 C369     		ldr	r3, [r0, #28]
 2065 0064 002B     		cmp	r3, #0
 2066 0066 D9D1     		bne	.L229
 2067 0068 0123     		movs	r3, #1
 2068 006a 84F84130 		strb	r3, [r4, #65]
 2069 006e D5E7     		b	.L229
 2071              		.section	.text.HAL_TIM_PWM_PulseFinishedHalfCpltCallback,"ax",%progbits
 2072              		.align	1
 2073              		.weak	HAL_TIM_PWM_PulseFinishedHalfCpltCallback
 2074              		.syntax unified
 2075              		.thumb
 2076              		.thumb_func
 2078              	HAL_TIM_PWM_PulseFinishedHalfCpltCallback:
 2079              		@ args = 0, pretend = 0, frame = 0
 2080              		@ frame_needed = 0, uses_anonymous_args = 0
 2081              		@ link register save eliminated.
 2082 0000 7047     		bx	lr
 2084              		.section	.text.TIM_DMADelayPulseHalfCplt,"ax",%progbits
 2085              		.align	1
 2086              		.global	TIM_DMADelayPulseHalfCplt
 2087              		.syntax unified
 2088              		.thumb
 2089              		.thumb_func
 2091              	TIM_DMADelayPulseHalfCplt:
 2092              		@ args = 0, pretend = 0, frame = 0
 2093              		@ frame_needed = 0, uses_anonymous_args = 0
 2094 0000 10B5     		push	{r4, lr}
 2095 0002 846B     		ldr	r4, [r0, #56]
 2096 0004 636A     		ldr	r3, [r4, #36]
 2097 0006 8342     		cmp	r3, r0
 2098 0008 0BD0     		beq	.L244
 2099 000a A36A     		ldr	r3, [r4, #40]
 2100 000c 8342     		cmp	r3, r0
 2101 000e 10D0     		beq	.L245
 2102 0010 E36A     		ldr	r3, [r4, #44]
 2103 0012 8342     		cmp	r3, r0
 2104 0014 10D0     		beq	.L246
ARM GAS  C:\Users\Administrator\AppData\Local\Temp\ccdDcLdm.s 			page 36


 2105 0016 236B     		ldr	r3, [r4, #48]
 2106 0018 8342     		cmp	r3, r0
 2107 001a 04D1     		bne	.L240
 2108 001c 0823     		movs	r3, #8
 2109 001e 2377     		strb	r3, [r4, #28]
 2110 0020 01E0     		b	.L240
 2111              	.L244:
 2112 0022 0123     		movs	r3, #1
 2113 0024 2377     		strb	r3, [r4, #28]
 2114              	.L240:
 2115 0026 2046     		mov	r0, r4
 2116 0028 FFF7FEFF 		bl	HAL_TIM_PWM_PulseFinishedHalfCpltCallback
 2117 002c 0023     		movs	r3, #0
 2118 002e 2377     		strb	r3, [r4, #28]
 2119 0030 10BD     		pop	{r4, pc}
 2120              	.L245:
 2121 0032 0223     		movs	r3, #2
 2122 0034 2377     		strb	r3, [r4, #28]
 2123 0036 F6E7     		b	.L240
 2124              	.L246:
 2125 0038 0423     		movs	r3, #4
 2126 003a 2377     		strb	r3, [r4, #28]
 2127 003c F3E7     		b	.L240
 2129              		.section	.text.HAL_TIM_TriggerCallback,"ax",%progbits
 2130              		.align	1
 2131              		.weak	HAL_TIM_TriggerCallback
 2132              		.syntax unified
 2133              		.thumb
 2134              		.thumb_func
 2136              	HAL_TIM_TriggerCallback:
 2137              		@ args = 0, pretend = 0, frame = 0
 2138              		@ frame_needed = 0, uses_anonymous_args = 0
 2139              		@ link register save eliminated.
 2140 0000 7047     		bx	lr
 2142              		.section	.text.HAL_TIM_IRQHandler,"ax",%progbits
 2143              		.align	1
 2144              		.global	HAL_TIM_IRQHandler
 2145              		.syntax unified
 2146              		.thumb
 2147              		.thumb_func
 2149              	HAL_TIM_IRQHandler:
 2150              		@ args = 0, pretend = 0, frame = 0
 2151              		@ frame_needed = 0, uses_anonymous_args = 0
 2152 0000 10B5     		push	{r4, lr}
 2153 0002 0446     		mov	r4, r0
 2154 0004 0368     		ldr	r3, [r0]
 2155 0006 1A69     		ldr	r2, [r3, #16]
 2156 0008 12F0020F 		tst	r2, #2
 2157 000c 11D0     		beq	.L249
 2158 000e DA68     		ldr	r2, [r3, #12]
 2159 0010 12F0020F 		tst	r2, #2
 2160 0014 0DD0     		beq	.L249
 2161 0016 6FF00202 		mvn	r2, #2
 2162 001a 1A61     		str	r2, [r3, #16]
 2163 001c 0123     		movs	r3, #1
 2164 001e 0377     		strb	r3, [r0, #28]
 2165 0020 0368     		ldr	r3, [r0]
ARM GAS  C:\Users\Administrator\AppData\Local\Temp\ccdDcLdm.s 			page 37


 2166 0022 9B69     		ldr	r3, [r3, #24]
 2167 0024 13F0030F 		tst	r3, #3
 2168 0028 70D0     		beq	.L250
 2169 002a FFF7FEFF 		bl	HAL_TIM_IC_CaptureCallback
 2170              	.L251:
 2171 002e 0023     		movs	r3, #0
 2172 0030 2377     		strb	r3, [r4, #28]
 2173              	.L249:
 2174 0032 2368     		ldr	r3, [r4]
 2175 0034 1A69     		ldr	r2, [r3, #16]
 2176 0036 12F0040F 		tst	r2, #4
 2177 003a 12D0     		beq	.L252
 2178 003c DA68     		ldr	r2, [r3, #12]
 2179 003e 12F0040F 		tst	r2, #4
 2180 0042 0ED0     		beq	.L252
 2181 0044 6FF00402 		mvn	r2, #4
 2182 0048 1A61     		str	r2, [r3, #16]
 2183 004a 0223     		movs	r3, #2
 2184 004c 2377     		strb	r3, [r4, #28]
 2185 004e 2368     		ldr	r3, [r4]
 2186 0050 9B69     		ldr	r3, [r3, #24]
 2187 0052 13F4407F 		tst	r3, #768
 2188 0056 5FD0     		beq	.L253
 2189 0058 2046     		mov	r0, r4
 2190 005a FFF7FEFF 		bl	HAL_TIM_IC_CaptureCallback
 2191              	.L254:
 2192 005e 0023     		movs	r3, #0
 2193 0060 2377     		strb	r3, [r4, #28]
 2194              	.L252:
 2195 0062 2368     		ldr	r3, [r4]
 2196 0064 1A69     		ldr	r2, [r3, #16]
 2197 0066 12F0080F 		tst	r2, #8
 2198 006a 12D0     		beq	.L255
 2199 006c DA68     		ldr	r2, [r3, #12]
 2200 006e 12F0080F 		tst	r2, #8
 2201 0072 0ED0     		beq	.L255
 2202 0074 6FF00802 		mvn	r2, #8
 2203 0078 1A61     		str	r2, [r3, #16]
 2204 007a 0423     		movs	r3, #4
 2205 007c 2377     		strb	r3, [r4, #28]
 2206 007e 2368     		ldr	r3, [r4]
 2207 0080 DB69     		ldr	r3, [r3, #28]
 2208 0082 13F0030F 		tst	r3, #3
 2209 0086 4ED0     		beq	.L256
 2210 0088 2046     		mov	r0, r4
 2211 008a FFF7FEFF 		bl	HAL_TIM_IC_CaptureCallback
 2212              	.L257:
 2213 008e 0023     		movs	r3, #0
 2214 0090 2377     		strb	r3, [r4, #28]
 2215              	.L255:
 2216 0092 2368     		ldr	r3, [r4]
 2217 0094 1A69     		ldr	r2, [r3, #16]
 2218 0096 12F0100F 		tst	r2, #16
 2219 009a 12D0     		beq	.L258
 2220 009c DA68     		ldr	r2, [r3, #12]
 2221 009e 12F0100F 		tst	r2, #16
 2222 00a2 0ED0     		beq	.L258
ARM GAS  C:\Users\Administrator\AppData\Local\Temp\ccdDcLdm.s 			page 38


 2223 00a4 6FF01002 		mvn	r2, #16
 2224 00a8 1A61     		str	r2, [r3, #16]
 2225 00aa 0823     		movs	r3, #8
 2226 00ac 2377     		strb	r3, [r4, #28]
 2227 00ae 2368     		ldr	r3, [r4]
 2228 00b0 DB69     		ldr	r3, [r3, #28]
 2229 00b2 13F4407F 		tst	r3, #768
 2230 00b6 3DD0     		beq	.L259
 2231 00b8 2046     		mov	r0, r4
 2232 00ba FFF7FEFF 		bl	HAL_TIM_IC_CaptureCallback
 2233              	.L260:
 2234 00be 0023     		movs	r3, #0
 2235 00c0 2377     		strb	r3, [r4, #28]
 2236              	.L258:
 2237 00c2 2368     		ldr	r3, [r4]
 2238 00c4 1A69     		ldr	r2, [r3, #16]
 2239 00c6 12F0010F 		tst	r2, #1
 2240 00ca 03D0     		beq	.L261
 2241 00cc DA68     		ldr	r2, [r3, #12]
 2242 00ce 12F0010F 		tst	r2, #1
 2243 00d2 36D1     		bne	.L266
 2244              	.L261:
 2245 00d4 2368     		ldr	r3, [r4]
 2246 00d6 1A69     		ldr	r2, [r3, #16]
 2247 00d8 12F0800F 		tst	r2, #128
 2248 00dc 03D0     		beq	.L262
 2249 00de DA68     		ldr	r2, [r3, #12]
 2250 00e0 12F0800F 		tst	r2, #128
 2251 00e4 34D1     		bne	.L267
 2252              	.L262:
 2253 00e6 2368     		ldr	r3, [r4]
 2254 00e8 1A69     		ldr	r2, [r3, #16]
 2255 00ea 12F0400F 		tst	r2, #64
 2256 00ee 03D0     		beq	.L263
 2257 00f0 DA68     		ldr	r2, [r3, #12]
 2258 00f2 12F0400F 		tst	r2, #64
 2259 00f6 32D1     		bne	.L268
 2260              	.L263:
 2261 00f8 2368     		ldr	r3, [r4]
 2262 00fa 1A69     		ldr	r2, [r3, #16]
 2263 00fc 12F0200F 		tst	r2, #32
 2264 0100 03D0     		beq	.L248
 2265 0102 DA68     		ldr	r2, [r3, #12]
 2266 0104 12F0200F 		tst	r2, #32
 2267 0108 30D1     		bne	.L269
 2268              	.L248:
 2269 010a 10BD     		pop	{r4, pc}
 2270              	.L250:
 2271 010c FFF7FEFF 		bl	HAL_TIM_OC_DelayElapsedCallback
 2272 0110 2046     		mov	r0, r4
 2273 0112 FFF7FEFF 		bl	HAL_TIM_PWM_PulseFinishedCallback
 2274 0116 8AE7     		b	.L251
 2275              	.L253:
 2276 0118 2046     		mov	r0, r4
 2277 011a FFF7FEFF 		bl	HAL_TIM_OC_DelayElapsedCallback
 2278 011e 2046     		mov	r0, r4
 2279 0120 FFF7FEFF 		bl	HAL_TIM_PWM_PulseFinishedCallback
ARM GAS  C:\Users\Administrator\AppData\Local\Temp\ccdDcLdm.s 			page 39


 2280 0124 9BE7     		b	.L254
 2281              	.L256:
 2282 0126 2046     		mov	r0, r4
 2283 0128 FFF7FEFF 		bl	HAL_TIM_OC_DelayElapsedCallback
 2284 012c 2046     		mov	r0, r4
 2285 012e FFF7FEFF 		bl	HAL_TIM_PWM_PulseFinishedCallback
 2286 0132 ACE7     		b	.L257
 2287              	.L259:
 2288 0134 2046     		mov	r0, r4
 2289 0136 FFF7FEFF 		bl	HAL_TIM_OC_DelayElapsedCallback
 2290 013a 2046     		mov	r0, r4
 2291 013c FFF7FEFF 		bl	HAL_TIM_PWM_PulseFinishedCallback
 2292 0140 BDE7     		b	.L260
 2293              	.L266:
 2294 0142 6FF00102 		mvn	r2, #1
 2295 0146 1A61     		str	r2, [r3, #16]
 2296 0148 2046     		mov	r0, r4
 2297 014a FFF7FEFF 		bl	HAL_TIM_PeriodElapsedCallback
 2298 014e C1E7     		b	.L261
 2299              	.L267:
 2300 0150 6FF08002 		mvn	r2, #128
 2301 0154 1A61     		str	r2, [r3, #16]
 2302 0156 2046     		mov	r0, r4
 2303 0158 FFF7FEFF 		bl	HAL_TIMEx_BreakCallback
 2304 015c C3E7     		b	.L262
 2305              	.L268:
 2306 015e 6FF04002 		mvn	r2, #64
 2307 0162 1A61     		str	r2, [r3, #16]
 2308 0164 2046     		mov	r0, r4
 2309 0166 FFF7FEFF 		bl	HAL_TIM_TriggerCallback
 2310 016a C5E7     		b	.L263
 2311              	.L269:
 2312 016c 6FF02002 		mvn	r2, #32
 2313 0170 1A61     		str	r2, [r3, #16]
 2314 0172 2046     		mov	r0, r4
 2315 0174 FFF7FEFF 		bl	HAL_TIMEx_CommutCallback
 2316 0178 C7E7     		b	.L248
 2318              		.section	.text.TIM_DMATriggerCplt,"ax",%progbits
 2319              		.align	1
 2320              		.syntax unified
 2321              		.thumb
 2322              		.thumb_func
 2324              	TIM_DMATriggerCplt:
 2325              		@ args = 0, pretend = 0, frame = 0
 2326              		@ frame_needed = 0, uses_anonymous_args = 0
 2327 0000 08B5     		push	{r3, lr}
 2328 0002 806B     		ldr	r0, [r0, #56]
 2329 0004 836B     		ldr	r3, [r0, #56]
 2330 0006 DB69     		ldr	r3, [r3, #28]
 2331 0008 13B9     		cbnz	r3, .L271
 2332 000a 0123     		movs	r3, #1
 2333 000c 80F83D30 		strb	r3, [r0, #61]
 2334              	.L271:
 2335 0010 FFF7FEFF 		bl	HAL_TIM_TriggerCallback
 2336 0014 08BD     		pop	{r3, pc}
 2338              		.section	.text.HAL_TIM_TriggerHalfCpltCallback,"ax",%progbits
 2339              		.align	1
ARM GAS  C:\Users\Administrator\AppData\Local\Temp\ccdDcLdm.s 			page 40


 2340              		.weak	HAL_TIM_TriggerHalfCpltCallback
 2341              		.syntax unified
 2342              		.thumb
 2343              		.thumb_func
 2345              	HAL_TIM_TriggerHalfCpltCallback:
 2346              		@ args = 0, pretend = 0, frame = 0
 2347              		@ frame_needed = 0, uses_anonymous_args = 0
 2348              		@ link register save eliminated.
 2349 0000 7047     		bx	lr
 2351              		.section	.text.TIM_DMATriggerHalfCplt,"ax",%progbits
 2352              		.align	1
 2353              		.syntax unified
 2354              		.thumb
 2355              		.thumb_func
 2357              	TIM_DMATriggerHalfCplt:
 2358              		@ args = 0, pretend = 0, frame = 0
 2359              		@ frame_needed = 0, uses_anonymous_args = 0
 2360 0000 08B5     		push	{r3, lr}
 2361 0002 806B     		ldr	r0, [r0, #56]
 2362 0004 FFF7FEFF 		bl	HAL_TIM_TriggerHalfCpltCallback
 2363 0008 08BD     		pop	{r3, pc}
 2365              		.section	.text.HAL_TIM_ErrorCallback,"ax",%progbits
 2366              		.align	1
 2367              		.weak	HAL_TIM_ErrorCallback
 2368              		.syntax unified
 2369              		.thumb
 2370              		.thumb_func
 2372              	HAL_TIM_ErrorCallback:
 2373              		@ args = 0, pretend = 0, frame = 0
 2374              		@ frame_needed = 0, uses_anonymous_args = 0
 2375              		@ link register save eliminated.
 2376 0000 7047     		bx	lr
 2378              		.section	.text.TIM_DMAError,"ax",%progbits
 2379              		.align	1
 2380              		.global	TIM_DMAError
 2381              		.syntax unified
 2382              		.thumb
 2383              		.thumb_func
 2385              	TIM_DMAError:
 2386              		@ args = 0, pretend = 0, frame = 0
 2387              		@ frame_needed = 0, uses_anonymous_args = 0
 2388 0000 10B5     		push	{r4, lr}
 2389 0002 846B     		ldr	r4, [r0, #56]
 2390 0004 636A     		ldr	r3, [r4, #36]
 2391 0006 8342     		cmp	r3, r0
 2392 0008 0CD0     		beq	.L284
 2393 000a A36A     		ldr	r3, [r4, #40]
 2394 000c 8342     		cmp	r3, r0
 2395 000e 13D0     		beq	.L285
 2396 0010 E36A     		ldr	r3, [r4, #44]
 2397 0012 8342     		cmp	r3, r0
 2398 0014 16D0     		beq	.L286
 2399 0016 236B     		ldr	r3, [r4, #48]
 2400 0018 8342     		cmp	r3, r0
 2401 001a 19D0     		beq	.L287
 2402 001c 0123     		movs	r3, #1
 2403 001e 84F83D30 		strb	r3, [r4, #61]
ARM GAS  C:\Users\Administrator\AppData\Local\Temp\ccdDcLdm.s 			page 41


 2404 0022 03E0     		b	.L279
 2405              	.L284:
 2406 0024 0123     		movs	r3, #1
 2407 0026 2377     		strb	r3, [r4, #28]
 2408 0028 84F83E30 		strb	r3, [r4, #62]
 2409              	.L279:
 2410 002c 2046     		mov	r0, r4
 2411 002e FFF7FEFF 		bl	HAL_TIM_ErrorCallback
 2412 0032 0023     		movs	r3, #0
 2413 0034 2377     		strb	r3, [r4, #28]
 2414 0036 10BD     		pop	{r4, pc}
 2415              	.L285:
 2416 0038 0223     		movs	r3, #2
 2417 003a 2377     		strb	r3, [r4, #28]
 2418 003c 0123     		movs	r3, #1
 2419 003e 84F83F30 		strb	r3, [r4, #63]
 2420 0042 F3E7     		b	.L279
 2421              	.L286:
 2422 0044 0423     		movs	r3, #4
 2423 0046 2377     		strb	r3, [r4, #28]
 2424 0048 0123     		movs	r3, #1
 2425 004a 84F84030 		strb	r3, [r4, #64]
 2426 004e EDE7     		b	.L279
 2427              	.L287:
 2428 0050 0823     		movs	r3, #8
 2429 0052 2377     		strb	r3, [r4, #28]
 2430 0054 0123     		movs	r3, #1
 2431 0056 84F84130 		strb	r3, [r4, #65]
 2432 005a E7E7     		b	.L279
 2434              		.section	.text.HAL_TIM_Base_GetState,"ax",%progbits
 2435              		.align	1
 2436              		.global	HAL_TIM_Base_GetState
 2437              		.syntax unified
 2438              		.thumb
 2439              		.thumb_func
 2441              	HAL_TIM_Base_GetState:
 2442              		@ args = 0, pretend = 0, frame = 0
 2443              		@ frame_needed = 0, uses_anonymous_args = 0
 2444              		@ link register save eliminated.
 2445 0000 90F83D00 		ldrb	r0, [r0, #61]	@ zero_extendqisi2
 2446 0004 7047     		bx	lr
 2448              		.section	.text.HAL_TIM_OC_GetState,"ax",%progbits
 2449              		.align	1
 2450              		.global	HAL_TIM_OC_GetState
 2451              		.syntax unified
 2452              		.thumb
 2453              		.thumb_func
 2455              	HAL_TIM_OC_GetState:
 2456              		@ args = 0, pretend = 0, frame = 0
 2457              		@ frame_needed = 0, uses_anonymous_args = 0
 2458              		@ link register save eliminated.
 2459 0000 90F83D00 		ldrb	r0, [r0, #61]	@ zero_extendqisi2
 2460 0004 7047     		bx	lr
 2462              		.section	.text.HAL_TIM_PWM_GetState,"ax",%progbits
 2463              		.align	1
 2464              		.global	HAL_TIM_PWM_GetState
 2465              		.syntax unified
ARM GAS  C:\Users\Administrator\AppData\Local\Temp\ccdDcLdm.s 			page 42


 2466              		.thumb
 2467              		.thumb_func
 2469              	HAL_TIM_PWM_GetState:
 2470              		@ args = 0, pretend = 0, frame = 0
 2471              		@ frame_needed = 0, uses_anonymous_args = 0
 2472              		@ link register save eliminated.
 2473 0000 90F83D00 		ldrb	r0, [r0, #61]	@ zero_extendqisi2
 2474 0004 7047     		bx	lr
 2476              		.section	.text.HAL_TIM_IC_GetState,"ax",%progbits
 2477              		.align	1
 2478              		.global	HAL_TIM_IC_GetState
 2479              		.syntax unified
 2480              		.thumb
 2481              		.thumb_func
 2483              	HAL_TIM_IC_GetState:
 2484              		@ args = 0, pretend = 0, frame = 0
 2485              		@ frame_needed = 0, uses_anonymous_args = 0
 2486              		@ link register save eliminated.
 2487 0000 90F83D00 		ldrb	r0, [r0, #61]	@ zero_extendqisi2
 2488 0004 7047     		bx	lr
 2490              		.section	.text.HAL_TIM_OnePulse_GetState,"ax",%progbits
 2491              		.align	1
 2492              		.global	HAL_TIM_OnePulse_GetState
 2493              		.syntax unified
 2494              		.thumb
 2495              		.thumb_func
 2497              	HAL_TIM_OnePulse_GetState:
 2498              		@ args = 0, pretend = 0, frame = 0
 2499              		@ frame_needed = 0, uses_anonymous_args = 0
 2500              		@ link register save eliminated.
 2501 0000 90F83D00 		ldrb	r0, [r0, #61]	@ zero_extendqisi2
 2502 0004 7047     		bx	lr
 2504              		.section	.text.HAL_TIM_Encoder_GetState,"ax",%progbits
 2505              		.align	1
 2506              		.global	HAL_TIM_Encoder_GetState
 2507              		.syntax unified
 2508              		.thumb
 2509              		.thumb_func
 2511              	HAL_TIM_Encoder_GetState:
 2512              		@ args = 0, pretend = 0, frame = 0
 2513              		@ frame_needed = 0, uses_anonymous_args = 0
 2514              		@ link register save eliminated.
 2515 0000 90F83D00 		ldrb	r0, [r0, #61]	@ zero_extendqisi2
 2516 0004 7047     		bx	lr
 2518              		.section	.text.HAL_TIM_GetActiveChannel,"ax",%progbits
 2519              		.align	1
 2520              		.global	HAL_TIM_GetActiveChannel
 2521              		.syntax unified
 2522              		.thumb
 2523              		.thumb_func
 2525              	HAL_TIM_GetActiveChannel:
 2526              		@ args = 0, pretend = 0, frame = 0
 2527              		@ frame_needed = 0, uses_anonymous_args = 0
 2528              		@ link register save eliminated.
 2529 0000 007F     		ldrb	r0, [r0, #28]	@ zero_extendqisi2
 2530 0002 7047     		bx	lr
 2532              		.section	.text.HAL_TIM_GetChannelState,"ax",%progbits
ARM GAS  C:\Users\Administrator\AppData\Local\Temp\ccdDcLdm.s 			page 43


 2533              		.align	1
 2534              		.global	HAL_TIM_GetChannelState
 2535              		.syntax unified
 2536              		.thumb
 2537              		.thumb_func
 2539              	HAL_TIM_GetChannelState:
 2540              		@ args = 0, pretend = 0, frame = 0
 2541              		@ frame_needed = 0, uses_anonymous_args = 0
 2542              		@ link register save eliminated.
 2543 0000 19B9     		cbnz	r1, .L296
 2544 0002 90F83E00 		ldrb	r0, [r0, #62]	@ zero_extendqisi2
 2545 0006 C0B2     		uxtb	r0, r0
 2546 0008 7047     		bx	lr
 2547              	.L296:
 2548 000a 0429     		cmp	r1, #4
 2549 000c 05D0     		beq	.L300
 2550 000e 0829     		cmp	r1, #8
 2551 0010 07D0     		beq	.L301
 2552 0012 90F84100 		ldrb	r0, [r0, #65]	@ zero_extendqisi2
 2553 0016 C0B2     		uxtb	r0, r0
 2554 0018 7047     		bx	lr
 2555              	.L300:
 2556 001a 90F83F00 		ldrb	r0, [r0, #63]	@ zero_extendqisi2
 2557 001e C0B2     		uxtb	r0, r0
 2558 0020 7047     		bx	lr
 2559              	.L301:
 2560 0022 90F84000 		ldrb	r0, [r0, #64]	@ zero_extendqisi2
 2561 0026 C0B2     		uxtb	r0, r0
 2562 0028 7047     		bx	lr
 2564              		.section	.text.HAL_TIM_DMABurstState,"ax",%progbits
 2565              		.align	1
 2566              		.global	HAL_TIM_DMABurstState
 2567              		.syntax unified
 2568              		.thumb
 2569              		.thumb_func
 2571              	HAL_TIM_DMABurstState:
 2572              		@ args = 0, pretend = 0, frame = 0
 2573              		@ frame_needed = 0, uses_anonymous_args = 0
 2574              		@ link register save eliminated.
 2575 0000 90F84600 		ldrb	r0, [r0, #70]	@ zero_extendqisi2
 2576 0004 7047     		bx	lr
 2578              		.section	.text.TIM_Base_SetConfig,"ax",%progbits
 2579              		.align	1
 2580              		.global	TIM_Base_SetConfig
 2581              		.syntax unified
 2582              		.thumb
 2583              		.thumb_func
 2585              	TIM_Base_SetConfig:
 2586              		@ args = 0, pretend = 0, frame = 0
 2587              		@ frame_needed = 0, uses_anonymous_args = 0
 2588              		@ link register save eliminated.
 2589 0000 0368     		ldr	r3, [r0]
 2590 0002 304A     		ldr	r2, .L310
 2591 0004 9042     		cmp	r0, r2
 2592 0006 12D0     		beq	.L304
 2593 0008 B0F1804F 		cmp	r0, #1073741824
 2594 000c 0FD0     		beq	.L304
ARM GAS  C:\Users\Administrator\AppData\Local\Temp\ccdDcLdm.s 			page 44


 2595 000e A2F57C42 		sub	r2, r2, #64512
 2596 0012 9042     		cmp	r0, r2
 2597 0014 0BD0     		beq	.L304
 2598 0016 02F58062 		add	r2, r2, #1024
 2599 001a 9042     		cmp	r0, r2
 2600 001c 07D0     		beq	.L304
 2601 001e 02F58062 		add	r2, r2, #1024
 2602 0022 9042     		cmp	r0, r2
 2603 0024 03D0     		beq	.L304
 2604 0026 02F57842 		add	r2, r2, #63488
 2605 002a 9042     		cmp	r0, r2
 2606 002c 03D1     		bne	.L305
 2607              	.L304:
 2608 002e 23F07003 		bic	r3, r3, #112
 2609 0032 4A68     		ldr	r2, [r1, #4]
 2610 0034 1343     		orrs	r3, r3, r2
 2611              	.L305:
 2612 0036 234A     		ldr	r2, .L310
 2613 0038 9042     		cmp	r0, r2
 2614 003a 2AD0     		beq	.L306
 2615 003c B0F1804F 		cmp	r0, #1073741824
 2616 0040 27D0     		beq	.L306
 2617 0042 A2F57C42 		sub	r2, r2, #64512
 2618 0046 9042     		cmp	r0, r2
 2619 0048 23D0     		beq	.L306
 2620 004a 02F58062 		add	r2, r2, #1024
 2621 004e 9042     		cmp	r0, r2
 2622 0050 1FD0     		beq	.L306
 2623 0052 02F58062 		add	r2, r2, #1024
 2624 0056 9042     		cmp	r0, r2
 2625 0058 1BD0     		beq	.L306
 2626 005a 02F57842 		add	r2, r2, #63488
 2627 005e 9042     		cmp	r0, r2
 2628 0060 17D0     		beq	.L306
 2629 0062 02F57052 		add	r2, r2, #15360
 2630 0066 9042     		cmp	r0, r2
 2631 0068 13D0     		beq	.L306
 2632 006a 02F58062 		add	r2, r2, #1024
 2633 006e 9042     		cmp	r0, r2
 2634 0070 0FD0     		beq	.L306
 2635 0072 02F58062 		add	r2, r2, #1024
 2636 0076 9042     		cmp	r0, r2
 2637 0078 0BD0     		beq	.L306
 2638 007a A2F59832 		sub	r2, r2, #77824
 2639 007e 9042     		cmp	r0, r2
 2640 0080 07D0     		beq	.L306
 2641 0082 02F58062 		add	r2, r2, #1024
 2642 0086 9042     		cmp	r0, r2
 2643 0088 03D0     		beq	.L306
 2644 008a 02F58062 		add	r2, r2, #1024
 2645 008e 9042     		cmp	r0, r2
 2646 0090 03D1     		bne	.L307
 2647              	.L306:
 2648 0092 23F44073 		bic	r3, r3, #768
 2649 0096 CA68     		ldr	r2, [r1, #12]
 2650 0098 1343     		orrs	r3, r3, r2
 2651              	.L307:
ARM GAS  C:\Users\Administrator\AppData\Local\Temp\ccdDcLdm.s 			page 45


 2652 009a 23F08003 		bic	r3, r3, #128
 2653 009e 4A69     		ldr	r2, [r1, #20]
 2654 00a0 1343     		orrs	r3, r3, r2
 2655 00a2 0360     		str	r3, [r0]
 2656 00a4 8B68     		ldr	r3, [r1, #8]
 2657 00a6 C362     		str	r3, [r0, #44]
 2658 00a8 0B68     		ldr	r3, [r1]
 2659 00aa 8362     		str	r3, [r0, #40]
 2660 00ac 054B     		ldr	r3, .L310
 2661 00ae 9842     		cmp	r0, r3
 2662 00b0 03D0     		beq	.L308
 2663 00b2 03F58063 		add	r3, r3, #1024
 2664 00b6 9842     		cmp	r0, r3
 2665 00b8 01D1     		bne	.L309
 2666              	.L308:
 2667 00ba 0B69     		ldr	r3, [r1, #16]
 2668 00bc 0363     		str	r3, [r0, #48]
 2669              	.L309:
 2670 00be 0123     		movs	r3, #1
 2671 00c0 4361     		str	r3, [r0, #20]
 2672 00c2 7047     		bx	lr
 2673              	.L311:
 2674              		.align	2
 2675              	.L310:
 2676 00c4 00000140 		.word	1073807360
 2678              		.section	.text.HAL_TIM_Base_Init,"ax",%progbits
 2679              		.align	1
 2680              		.global	HAL_TIM_Base_Init
 2681              		.syntax unified
 2682              		.thumb
 2683              		.thumb_func
 2685              	HAL_TIM_Base_Init:
 2686              		@ args = 0, pretend = 0, frame = 0
 2687              		@ frame_needed = 0, uses_anonymous_args = 0
 2688 0000 40B3     		cbz	r0, .L315
 2689 0002 10B5     		push	{r4, lr}
 2690 0004 0446     		mov	r4, r0
 2691 0006 90F83D30 		ldrb	r3, [r0, #61]	@ zero_extendqisi2
 2692 000a F3B1     		cbz	r3, .L320
 2693              	.L314:
 2694 000c 0223     		movs	r3, #2
 2695 000e 84F83D30 		strb	r3, [r4, #61]
 2696 0012 2146     		mov	r1, r4
 2697 0014 51F8040B 		ldr	r0, [r1], #4
 2698 0018 FFF7FEFF 		bl	TIM_Base_SetConfig
 2699 001c 0123     		movs	r3, #1
 2700 001e 84F84630 		strb	r3, [r4, #70]
 2701 0022 84F83E30 		strb	r3, [r4, #62]
 2702 0026 84F83F30 		strb	r3, [r4, #63]
 2703 002a 84F84030 		strb	r3, [r4, #64]
 2704 002e 84F84130 		strb	r3, [r4, #65]
 2705 0032 84F84230 		strb	r3, [r4, #66]
 2706 0036 84F84330 		strb	r3, [r4, #67]
 2707 003a 84F84430 		strb	r3, [r4, #68]
 2708 003e 84F84530 		strb	r3, [r4, #69]
 2709 0042 84F83D30 		strb	r3, [r4, #61]
 2710 0046 0020     		movs	r0, #0
ARM GAS  C:\Users\Administrator\AppData\Local\Temp\ccdDcLdm.s 			page 46


 2711 0048 10BD     		pop	{r4, pc}
 2712              	.L320:
 2713 004a 80F83C30 		strb	r3, [r0, #60]
 2714 004e FFF7FEFF 		bl	HAL_TIM_Base_MspInit
 2715 0052 DBE7     		b	.L314
 2716              	.L315:
 2717 0054 0120     		movs	r0, #1
 2718 0056 7047     		bx	lr
 2720              		.section	.text.HAL_TIM_OC_Init,"ax",%progbits
 2721              		.align	1
 2722              		.global	HAL_TIM_OC_Init
 2723              		.syntax unified
 2724              		.thumb
 2725              		.thumb_func
 2727              	HAL_TIM_OC_Init:
 2728              		@ args = 0, pretend = 0, frame = 0
 2729              		@ frame_needed = 0, uses_anonymous_args = 0
 2730 0000 40B3     		cbz	r0, .L324
 2731 0002 10B5     		push	{r4, lr}
 2732 0004 0446     		mov	r4, r0
 2733 0006 90F83D30 		ldrb	r3, [r0, #61]	@ zero_extendqisi2
 2734 000a F3B1     		cbz	r3, .L329
 2735              	.L323:
 2736 000c 0223     		movs	r3, #2
 2737 000e 84F83D30 		strb	r3, [r4, #61]
 2738 0012 2146     		mov	r1, r4
 2739 0014 51F8040B 		ldr	r0, [r1], #4
 2740 0018 FFF7FEFF 		bl	TIM_Base_SetConfig
 2741 001c 0123     		movs	r3, #1
 2742 001e 84F84630 		strb	r3, [r4, #70]
 2743 0022 84F83E30 		strb	r3, [r4, #62]
 2744 0026 84F83F30 		strb	r3, [r4, #63]
 2745 002a 84F84030 		strb	r3, [r4, #64]
 2746 002e 84F84130 		strb	r3, [r4, #65]
 2747 0032 84F84230 		strb	r3, [r4, #66]
 2748 0036 84F84330 		strb	r3, [r4, #67]
 2749 003a 84F84430 		strb	r3, [r4, #68]
 2750 003e 84F84530 		strb	r3, [r4, #69]
 2751 0042 84F83D30 		strb	r3, [r4, #61]
 2752 0046 0020     		movs	r0, #0
 2753 0048 10BD     		pop	{r4, pc}
 2754              	.L329:
 2755 004a 80F83C30 		strb	r3, [r0, #60]
 2756 004e FFF7FEFF 		bl	HAL_TIM_OC_MspInit
 2757 0052 DBE7     		b	.L323
 2758              	.L324:
 2759 0054 0120     		movs	r0, #1
 2760 0056 7047     		bx	lr
 2762              		.section	.text.HAL_TIM_PWM_Init,"ax",%progbits
 2763              		.align	1
 2764              		.global	HAL_TIM_PWM_Init
 2765              		.syntax unified
 2766              		.thumb
 2767              		.thumb_func
 2769              	HAL_TIM_PWM_Init:
 2770              		@ args = 0, pretend = 0, frame = 0
 2771              		@ frame_needed = 0, uses_anonymous_args = 0
ARM GAS  C:\Users\Administrator\AppData\Local\Temp\ccdDcLdm.s 			page 47


 2772 0000 40B3     		cbz	r0, .L333
 2773 0002 10B5     		push	{r4, lr}
 2774 0004 0446     		mov	r4, r0
 2775 0006 90F83D30 		ldrb	r3, [r0, #61]	@ zero_extendqisi2
 2776 000a F3B1     		cbz	r3, .L338
 2777              	.L332:
 2778 000c 0223     		movs	r3, #2
 2779 000e 84F83D30 		strb	r3, [r4, #61]
 2780 0012 2146     		mov	r1, r4
 2781 0014 51F8040B 		ldr	r0, [r1], #4
 2782 0018 FFF7FEFF 		bl	TIM_Base_SetConfig
 2783 001c 0123     		movs	r3, #1
 2784 001e 84F84630 		strb	r3, [r4, #70]
 2785 0022 84F83E30 		strb	r3, [r4, #62]
 2786 0026 84F83F30 		strb	r3, [r4, #63]
 2787 002a 84F84030 		strb	r3, [r4, #64]
 2788 002e 84F84130 		strb	r3, [r4, #65]
 2789 0032 84F84230 		strb	r3, [r4, #66]
 2790 0036 84F84330 		strb	r3, [r4, #67]
 2791 003a 84F84430 		strb	r3, [r4, #68]
 2792 003e 84F84530 		strb	r3, [r4, #69]
 2793 0042 84F83D30 		strb	r3, [r4, #61]
 2794 0046 0020     		movs	r0, #0
 2795 0048 10BD     		pop	{r4, pc}
 2796              	.L338:
 2797 004a 80F83C30 		strb	r3, [r0, #60]
 2798 004e FFF7FEFF 		bl	HAL_TIM_PWM_MspInit
 2799 0052 DBE7     		b	.L332
 2800              	.L333:
 2801 0054 0120     		movs	r0, #1
 2802 0056 7047     		bx	lr
 2804              		.section	.text.HAL_TIM_IC_Init,"ax",%progbits
 2805              		.align	1
 2806              		.global	HAL_TIM_IC_Init
 2807              		.syntax unified
 2808              		.thumb
 2809              		.thumb_func
 2811              	HAL_TIM_IC_Init:
 2812              		@ args = 0, pretend = 0, frame = 0
 2813              		@ frame_needed = 0, uses_anonymous_args = 0
 2814 0000 40B3     		cbz	r0, .L342
 2815 0002 10B5     		push	{r4, lr}
 2816 0004 0446     		mov	r4, r0
 2817 0006 90F83D30 		ldrb	r3, [r0, #61]	@ zero_extendqisi2
 2818 000a F3B1     		cbz	r3, .L347
 2819              	.L341:
 2820 000c 0223     		movs	r3, #2
 2821 000e 84F83D30 		strb	r3, [r4, #61]
 2822 0012 2146     		mov	r1, r4
 2823 0014 51F8040B 		ldr	r0, [r1], #4
 2824 0018 FFF7FEFF 		bl	TIM_Base_SetConfig
 2825 001c 0123     		movs	r3, #1
 2826 001e 84F84630 		strb	r3, [r4, #70]
 2827 0022 84F83E30 		strb	r3, [r4, #62]
 2828 0026 84F83F30 		strb	r3, [r4, #63]
 2829 002a 84F84030 		strb	r3, [r4, #64]
 2830 002e 84F84130 		strb	r3, [r4, #65]
ARM GAS  C:\Users\Administrator\AppData\Local\Temp\ccdDcLdm.s 			page 48


 2831 0032 84F84230 		strb	r3, [r4, #66]
 2832 0036 84F84330 		strb	r3, [r4, #67]
 2833 003a 84F84430 		strb	r3, [r4, #68]
 2834 003e 84F84530 		strb	r3, [r4, #69]
 2835 0042 84F83D30 		strb	r3, [r4, #61]
 2836 0046 0020     		movs	r0, #0
 2837 0048 10BD     		pop	{r4, pc}
 2838              	.L347:
 2839 004a 80F83C30 		strb	r3, [r0, #60]
 2840 004e FFF7FEFF 		bl	HAL_TIM_IC_MspInit
 2841 0052 DBE7     		b	.L341
 2842              	.L342:
 2843 0054 0120     		movs	r0, #1
 2844 0056 7047     		bx	lr
 2846              		.section	.text.HAL_TIM_OnePulse_Init,"ax",%progbits
 2847              		.align	1
 2848              		.global	HAL_TIM_OnePulse_Init
 2849              		.syntax unified
 2850              		.thumb
 2851              		.thumb_func
 2853              	HAL_TIM_OnePulse_Init:
 2854              		@ args = 0, pretend = 0, frame = 0
 2855              		@ frame_needed = 0, uses_anonymous_args = 0
 2856 0000 50B3     		cbz	r0, .L351
 2857 0002 38B5     		push	{r3, r4, r5, lr}
 2858 0004 0D46     		mov	r5, r1
 2859 0006 0446     		mov	r4, r0
 2860 0008 90F83D30 		ldrb	r3, [r0, #61]	@ zero_extendqisi2
 2861 000c FBB1     		cbz	r3, .L356
 2862              	.L350:
 2863 000e 0223     		movs	r3, #2
 2864 0010 84F83D30 		strb	r3, [r4, #61]
 2865 0014 2146     		mov	r1, r4
 2866 0016 51F8040B 		ldr	r0, [r1], #4
 2867 001a FFF7FEFF 		bl	TIM_Base_SetConfig
 2868 001e 2268     		ldr	r2, [r4]
 2869 0020 1368     		ldr	r3, [r2]
 2870 0022 23F00803 		bic	r3, r3, #8
 2871 0026 1360     		str	r3, [r2]
 2872 0028 2268     		ldr	r2, [r4]
 2873 002a 1368     		ldr	r3, [r2]
 2874 002c 2B43     		orrs	r3, r3, r5
 2875 002e 1360     		str	r3, [r2]
 2876 0030 0123     		movs	r3, #1
 2877 0032 84F84630 		strb	r3, [r4, #70]
 2878 0036 84F83E30 		strb	r3, [r4, #62]
 2879 003a 84F83F30 		strb	r3, [r4, #63]
 2880 003e 84F84230 		strb	r3, [r4, #66]
 2881 0042 84F84330 		strb	r3, [r4, #67]
 2882 0046 84F83D30 		strb	r3, [r4, #61]
 2883 004a 0020     		movs	r0, #0
 2884 004c 38BD     		pop	{r3, r4, r5, pc}
 2885              	.L356:
 2886 004e 80F83C30 		strb	r3, [r0, #60]
 2887 0052 FFF7FEFF 		bl	HAL_TIM_OnePulse_MspInit
 2888 0056 DAE7     		b	.L350
 2889              	.L351:
ARM GAS  C:\Users\Administrator\AppData\Local\Temp\ccdDcLdm.s 			page 49


 2890 0058 0120     		movs	r0, #1
 2891 005a 7047     		bx	lr
 2893              		.section	.text.HAL_TIM_Encoder_Init,"ax",%progbits
 2894              		.align	1
 2895              		.global	HAL_TIM_Encoder_Init
 2896              		.syntax unified
 2897              		.thumb
 2898              		.thumb_func
 2900              	HAL_TIM_Encoder_Init:
 2901              		@ args = 0, pretend = 0, frame = 0
 2902              		@ frame_needed = 0, uses_anonymous_args = 0
 2903 0000 0028     		cmp	r0, #0
 2904 0002 55D0     		beq	.L360
 2905 0004 70B5     		push	{r4, r5, r6, lr}
 2906 0006 0D46     		mov	r5, r1
 2907 0008 0446     		mov	r4, r0
 2908 000a 90F83D30 		ldrb	r3, [r0, #61]	@ zero_extendqisi2
 2909 000e 002B     		cmp	r3, #0
 2910 0010 49D0     		beq	.L365
 2911              	.L359:
 2912 0012 0223     		movs	r3, #2
 2913 0014 84F83D30 		strb	r3, [r4, #61]
 2914 0018 2268     		ldr	r2, [r4]
 2915 001a 9368     		ldr	r3, [r2, #8]
 2916 001c 23F48043 		bic	r3, r3, #16384
 2917 0020 23F00703 		bic	r3, r3, #7
 2918 0024 9360     		str	r3, [r2, #8]
 2919 0026 2146     		mov	r1, r4
 2920 0028 51F8040B 		ldr	r0, [r1], #4
 2921 002c FFF7FEFF 		bl	TIM_Base_SetConfig
 2922 0030 2168     		ldr	r1, [r4]
 2923 0032 8B68     		ldr	r3, [r1, #8]
 2924 0034 8A69     		ldr	r2, [r1, #24]
 2925 0036 D1F820C0 		ldr	ip, [r1, #32]
 2926 003a 2868     		ldr	r0, [r5]
 2927 003c 1843     		orrs	r0, r0, r3
 2928 003e 22F44072 		bic	r2, r2, #768
 2929 0042 22F00302 		bic	r2, r2, #3
 2930 0046 AB68     		ldr	r3, [r5, #8]
 2931 0048 AE69     		ldr	r6, [r5, #24]
 2932 004a 43EA0623 		orr	r3, r3, r6, lsl #8
 2933 004e 1343     		orrs	r3, r3, r2
 2934 0050 23F47C43 		bic	r3, r3, #64512
 2935 0054 23F0FC03 		bic	r3, r3, #252
 2936 0058 EA68     		ldr	r2, [r5, #12]
 2937 005a EE69     		ldr	r6, [r5, #28]
 2938 005c 42EA0622 		orr	r2, r2, r6, lsl #8
 2939 0060 1A43     		orrs	r2, r2, r3
 2940 0062 2B6A     		ldr	r3, [r5, #32]
 2941 0064 1B03     		lsls	r3, r3, #12
 2942 0066 2E69     		ldr	r6, [r5, #16]
 2943 0068 43EA0613 		orr	r3, r3, r6, lsl #4
 2944 006c 1343     		orrs	r3, r3, r2
 2945 006e 2CF0AA0C 		bic	ip, ip, #170
 2946 0072 6A68     		ldr	r2, [r5, #4]
 2947 0074 6D69     		ldr	r5, [r5, #20]
 2948 0076 42EA0512 		orr	r2, r2, r5, lsl #4
ARM GAS  C:\Users\Administrator\AppData\Local\Temp\ccdDcLdm.s 			page 50


 2949 007a 42EA0C02 		orr	r2, r2, ip
 2950 007e 8860     		str	r0, [r1, #8]
 2951 0080 2168     		ldr	r1, [r4]
 2952 0082 8B61     		str	r3, [r1, #24]
 2953 0084 2368     		ldr	r3, [r4]
 2954 0086 1A62     		str	r2, [r3, #32]
 2955 0088 0123     		movs	r3, #1
 2956 008a 84F84630 		strb	r3, [r4, #70]
 2957 008e 84F83E30 		strb	r3, [r4, #62]
 2958 0092 84F83F30 		strb	r3, [r4, #63]
 2959 0096 84F84230 		strb	r3, [r4, #66]
 2960 009a 84F84330 		strb	r3, [r4, #67]
 2961 009e 84F83D30 		strb	r3, [r4, #61]
 2962 00a2 0020     		movs	r0, #0
 2963 00a4 70BD     		pop	{r4, r5, r6, pc}
 2964              	.L365:
 2965 00a6 80F83C30 		strb	r3, [r0, #60]
 2966 00aa FFF7FEFF 		bl	HAL_TIM_Encoder_MspInit
 2967 00ae B0E7     		b	.L359
 2968              	.L360:
 2969 00b0 0120     		movs	r0, #1
 2970 00b2 7047     		bx	lr
 2972              		.section	.text.TIM_OC2_SetConfig,"ax",%progbits
 2973              		.align	1
 2974              		.global	TIM_OC2_SetConfig
 2975              		.syntax unified
 2976              		.thumb
 2977              		.thumb_func
 2979              	TIM_OC2_SetConfig:
 2980              		@ args = 0, pretend = 0, frame = 0
 2981              		@ frame_needed = 0, uses_anonymous_args = 0
 2982 0000 10B5     		push	{r4, lr}
 2983 0002 036A     		ldr	r3, [r0, #32]
 2984 0004 23F01003 		bic	r3, r3, #16
 2985 0008 0362     		str	r3, [r0, #32]
 2986 000a 036A     		ldr	r3, [r0, #32]
 2987 000c D0F804C0 		ldr	ip, [r0, #4]
 2988 0010 8269     		ldr	r2, [r0, #24]
 2989 0012 22F4E642 		bic	r2, r2, #29440
 2990 0016 0C68     		ldr	r4, [r1]
 2991 0018 42EA0422 		orr	r2, r2, r4, lsl #8
 2992 001c 23F02003 		bic	r3, r3, #32
 2993 0020 8C68     		ldr	r4, [r1, #8]
 2994 0022 43EA0413 		orr	r3, r3, r4, lsl #4
 2995 0026 DFF84CE0 		ldr	lr, .L372
 2996 002a 7045     		cmp	r0, lr
 2997 002c 03D0     		beq	.L367
 2998 002e 0EF5806E 		add	lr, lr, #1024
 2999 0032 7045     		cmp	r0, lr
 3000 0034 06D1     		bne	.L368
 3001              	.L367:
 3002 0036 23F08003 		bic	r3, r3, #128
 3003 003a CC68     		ldr	r4, [r1, #12]
 3004 003c 43EA0413 		orr	r3, r3, r4, lsl #4
 3005 0040 23F04003 		bic	r3, r3, #64
 3006              	.L368:
 3007 0044 DFF82CE0 		ldr	lr, .L372
ARM GAS  C:\Users\Administrator\AppData\Local\Temp\ccdDcLdm.s 			page 51


 3008 0048 7045     		cmp	r0, lr
 3009 004a 03D0     		beq	.L369
 3010 004c 0EF5806E 		add	lr, lr, #1024
 3011 0050 7045     		cmp	r0, lr
 3012 0052 07D1     		bne	.L370
 3013              	.L369:
 3014 0054 2CF4406C 		bic	ip, ip, #3072
 3015 0058 4C69     		ldr	r4, [r1, #20]
 3016 005a 4CEA840C 		orr	ip, ip, r4, lsl #2
 3017 005e 8C69     		ldr	r4, [r1, #24]
 3018 0060 4CEA840C 		orr	ip, ip, r4, lsl #2
 3019              	.L370:
 3020 0064 C0F804C0 		str	ip, [r0, #4]
 3021 0068 8261     		str	r2, [r0, #24]
 3022 006a 4A68     		ldr	r2, [r1, #4]
 3023 006c 8263     		str	r2, [r0, #56]
 3024 006e 0362     		str	r3, [r0, #32]
 3025 0070 10BD     		pop	{r4, pc}
 3026              	.L373:
 3027 0072 00BF     		.align	2
 3028              	.L372:
 3029 0074 00000140 		.word	1073807360
 3031              		.section	.text.HAL_TIM_OC_ConfigChannel,"ax",%progbits
 3032              		.align	1
 3033              		.global	HAL_TIM_OC_ConfigChannel
 3034              		.syntax unified
 3035              		.thumb
 3036              		.thumb_func
 3038              	HAL_TIM_OC_ConfigChannel:
 3039              		@ args = 0, pretend = 0, frame = 0
 3040              		@ frame_needed = 0, uses_anonymous_args = 0
 3041 0000 90F83C30 		ldrb	r3, [r0, #60]	@ zero_extendqisi2
 3042 0004 012B     		cmp	r3, #1
 3043 0006 27D0     		beq	.L382
 3044 0008 10B5     		push	{r4, lr}
 3045 000a 0446     		mov	r4, r0
 3046 000c 0123     		movs	r3, #1
 3047 000e 80F83C30 		strb	r3, [r0, #60]
 3048 0012 082A     		cmp	r2, #8
 3049 0014 1BD0     		beq	.L376
 3050 0016 09D8     		bhi	.L377
 3051 0018 8AB1     		cbz	r2, .L378
 3052 001a 042A     		cmp	r2, #4
 3053 001c 04D1     		bne	.L387
 3054 001e 0068     		ldr	r0, [r0]
 3055 0020 FFF7FEFF 		bl	TIM_OC2_SetConfig
 3056 0024 0020     		movs	r0, #0
 3057 0026 0EE0     		b	.L380
 3058              	.L387:
 3059 0028 1846     		mov	r0, r3
 3060 002a 0CE0     		b	.L380
 3061              	.L377:
 3062 002c 0C2A     		cmp	r2, #12
 3063 002e 04D1     		bne	.L388
 3064 0030 0068     		ldr	r0, [r0]
 3065 0032 FFF7FEFF 		bl	TIM_OC4_SetConfig
 3066 0036 0020     		movs	r0, #0
ARM GAS  C:\Users\Administrator\AppData\Local\Temp\ccdDcLdm.s 			page 52


 3067 0038 05E0     		b	.L380
 3068              	.L388:
 3069 003a 0120     		movs	r0, #1
 3070 003c 03E0     		b	.L380
 3071              	.L378:
 3072 003e 0068     		ldr	r0, [r0]
 3073 0040 FFF7FEFF 		bl	TIM_OC1_SetConfig
 3074 0044 0020     		movs	r0, #0
 3075              	.L380:
 3076 0046 0023     		movs	r3, #0
 3077 0048 84F83C30 		strb	r3, [r4, #60]
 3078 004c 10BD     		pop	{r4, pc}
 3079              	.L376:
 3080 004e 0068     		ldr	r0, [r0]
 3081 0050 FFF7FEFF 		bl	TIM_OC3_SetConfig
 3082 0054 0020     		movs	r0, #0
 3083 0056 F6E7     		b	.L380
 3084              	.L382:
 3085 0058 0220     		movs	r0, #2
 3086 005a 7047     		bx	lr
 3088              		.section	.text.HAL_TIM_PWM_ConfigChannel,"ax",%progbits
 3089              		.align	1
 3090              		.global	HAL_TIM_PWM_ConfigChannel
 3091              		.syntax unified
 3092              		.thumb
 3093              		.thumb_func
 3095              	HAL_TIM_PWM_ConfigChannel:
 3096              		@ args = 0, pretend = 0, frame = 0
 3097              		@ frame_needed = 0, uses_anonymous_args = 0
 3098 0000 38B5     		push	{r3, r4, r5, lr}
 3099 0002 90F83C30 		ldrb	r3, [r0, #60]	@ zero_extendqisi2
 3100 0006 012B     		cmp	r3, #1
 3101 0008 69D0     		beq	.L397
 3102 000a 0446     		mov	r4, r0
 3103 000c 0123     		movs	r3, #1
 3104 000e 80F83C30 		strb	r3, [r0, #60]
 3105 0012 082A     		cmp	r2, #8
 3106 0014 4ED0     		beq	.L391
 3107 0016 1BD8     		bhi	.L392
 3108 0018 002A     		cmp	r2, #0
 3109 001a 33D0     		beq	.L393
 3110 001c 042A     		cmp	r2, #4
 3111 001e 15D1     		bne	.L399
 3112 0020 0D46     		mov	r5, r1
 3113 0022 0068     		ldr	r0, [r0]
 3114 0024 FFF7FEFF 		bl	TIM_OC2_SetConfig
 3115 0028 2268     		ldr	r2, [r4]
 3116 002a 9369     		ldr	r3, [r2, #24]
 3117 002c 43F40063 		orr	r3, r3, #2048
 3118 0030 9361     		str	r3, [r2, #24]
 3119 0032 2268     		ldr	r2, [r4]
 3120 0034 9369     		ldr	r3, [r2, #24]
 3121 0036 23F48063 		bic	r3, r3, #1024
 3122 003a 9361     		str	r3, [r2, #24]
 3123 003c 2268     		ldr	r2, [r4]
 3124 003e 9369     		ldr	r3, [r2, #24]
 3125 0040 2969     		ldr	r1, [r5, #16]
ARM GAS  C:\Users\Administrator\AppData\Local\Temp\ccdDcLdm.s 			page 53


 3126 0042 43EA0123 		orr	r3, r3, r1, lsl #8
 3127 0046 9361     		str	r3, [r2, #24]
 3128 0048 0020     		movs	r0, #0
 3129 004a 2FE0     		b	.L395
 3130              	.L399:
 3131 004c 1846     		mov	r0, r3
 3132 004e 2DE0     		b	.L395
 3133              	.L392:
 3134 0050 0C2A     		cmp	r2, #12
 3135 0052 15D1     		bne	.L400
 3136 0054 0D46     		mov	r5, r1
 3137 0056 0068     		ldr	r0, [r0]
 3138 0058 FFF7FEFF 		bl	TIM_OC4_SetConfig
 3139 005c 2268     		ldr	r2, [r4]
 3140 005e D369     		ldr	r3, [r2, #28]
 3141 0060 43F40063 		orr	r3, r3, #2048
 3142 0064 D361     		str	r3, [r2, #28]
 3143 0066 2268     		ldr	r2, [r4]
 3144 0068 D369     		ldr	r3, [r2, #28]
 3145 006a 23F48063 		bic	r3, r3, #1024
 3146 006e D361     		str	r3, [r2, #28]
 3147 0070 2268     		ldr	r2, [r4]
 3148 0072 D369     		ldr	r3, [r2, #28]
 3149 0074 2969     		ldr	r1, [r5, #16]
 3150 0076 43EA0123 		orr	r3, r3, r1, lsl #8
 3151 007a D361     		str	r3, [r2, #28]
 3152 007c 0020     		movs	r0, #0
 3153 007e 15E0     		b	.L395
 3154              	.L400:
 3155 0080 0120     		movs	r0, #1
 3156 0082 13E0     		b	.L395
 3157              	.L393:
 3158 0084 0D46     		mov	r5, r1
 3159 0086 0068     		ldr	r0, [r0]
 3160 0088 FFF7FEFF 		bl	TIM_OC1_SetConfig
 3161 008c 2268     		ldr	r2, [r4]
 3162 008e 9369     		ldr	r3, [r2, #24]
 3163 0090 43F00803 		orr	r3, r3, #8
 3164 0094 9361     		str	r3, [r2, #24]
 3165 0096 2268     		ldr	r2, [r4]
 3166 0098 9369     		ldr	r3, [r2, #24]
 3167 009a 23F00403 		bic	r3, r3, #4
 3168 009e 9361     		str	r3, [r2, #24]
 3169 00a0 2268     		ldr	r2, [r4]
 3170 00a2 9369     		ldr	r3, [r2, #24]
 3171 00a4 2969     		ldr	r1, [r5, #16]
 3172 00a6 0B43     		orrs	r3, r3, r1
 3173 00a8 9361     		str	r3, [r2, #24]
 3174 00aa 0020     		movs	r0, #0
 3175              	.L395:
 3176 00ac 0023     		movs	r3, #0
 3177 00ae 84F83C30 		strb	r3, [r4, #60]
 3178              	.L390:
 3179 00b2 38BD     		pop	{r3, r4, r5, pc}
 3180              	.L391:
 3181 00b4 0D46     		mov	r5, r1
 3182 00b6 0068     		ldr	r0, [r0]
ARM GAS  C:\Users\Administrator\AppData\Local\Temp\ccdDcLdm.s 			page 54


 3183 00b8 FFF7FEFF 		bl	TIM_OC3_SetConfig
 3184 00bc 2268     		ldr	r2, [r4]
 3185 00be D369     		ldr	r3, [r2, #28]
 3186 00c0 43F00803 		orr	r3, r3, #8
 3187 00c4 D361     		str	r3, [r2, #28]
 3188 00c6 2268     		ldr	r2, [r4]
 3189 00c8 D369     		ldr	r3, [r2, #28]
 3190 00ca 23F00403 		bic	r3, r3, #4
 3191 00ce D361     		str	r3, [r2, #28]
 3192 00d0 2268     		ldr	r2, [r4]
 3193 00d2 D369     		ldr	r3, [r2, #28]
 3194 00d4 2969     		ldr	r1, [r5, #16]
 3195 00d6 0B43     		orrs	r3, r3, r1
 3196 00d8 D361     		str	r3, [r2, #28]
 3197 00da 0020     		movs	r0, #0
 3198 00dc E6E7     		b	.L395
 3199              	.L397:
 3200 00de 0220     		movs	r0, #2
 3201 00e0 E7E7     		b	.L390
 3203              		.section	.text.TIM_TI1_SetConfig,"ax",%progbits
 3204              		.align	1
 3205              		.global	TIM_TI1_SetConfig
 3206              		.syntax unified
 3207              		.thumb
 3208              		.thumb_func
 3210              	TIM_TI1_SetConfig:
 3211              		@ args = 0, pretend = 0, frame = 0
 3212              		@ frame_needed = 0, uses_anonymous_args = 0
 3213 0000 10B5     		push	{r4, lr}
 3214 0002 1446     		mov	r4, r2
 3215 0004 026A     		ldr	r2, [r0, #32]
 3216 0006 22F00102 		bic	r2, r2, #1
 3217 000a 0262     		str	r2, [r0, #32]
 3218 000c 8269     		ldr	r2, [r0, #24]
 3219 000e D0F820E0 		ldr	lr, [r0, #32]
 3220 0012 DFF864C0 		ldr	ip, .L405
 3221 0016 6045     		cmp	r0, ip
 3222 0018 1DD0     		beq	.L402
 3223 001a B0F1804F 		cmp	r0, #1073741824
 3224 001e 1AD0     		beq	.L402
 3225 0020 ACF57C4C 		sub	ip, ip, #64512
 3226 0024 6045     		cmp	r0, ip
 3227 0026 16D0     		beq	.L402
 3228 0028 0CF5806C 		add	ip, ip, #1024
 3229 002c 6045     		cmp	r0, ip
 3230 002e 12D0     		beq	.L402
 3231 0030 0CF5806C 		add	ip, ip, #1024
 3232 0034 6045     		cmp	r0, ip
 3233 0036 0ED0     		beq	.L402
 3234 0038 0CF5784C 		add	ip, ip, #63488
 3235 003c 6045     		cmp	r0, ip
 3236 003e 0AD0     		beq	.L402
 3237 0040 0CF5705C 		add	ip, ip, #15360
 3238 0044 6045     		cmp	r0, ip
 3239 0046 06D0     		beq	.L402
 3240 0048 ACF5943C 		sub	ip, ip, #75776
 3241 004c 6045     		cmp	r0, ip
ARM GAS  C:\Users\Administrator\AppData\Local\Temp\ccdDcLdm.s 			page 55


 3242 004e 02D0     		beq	.L402
 3243 0050 42F00102 		orr	r2, r2, #1
 3244 0054 02E0     		b	.L403
 3245              	.L402:
 3246 0056 22F00302 		bic	r2, r2, #3
 3247 005a 2243     		orrs	r2, r2, r4
 3248              	.L403:
 3249 005c 22F0F002 		bic	r2, r2, #240
 3250 0060 1B01     		lsls	r3, r3, #4
 3251 0062 DBB2     		uxtb	r3, r3
 3252 0064 1343     		orrs	r3, r3, r2
 3253 0066 2EF00A02 		bic	r2, lr, #10
 3254 006a 01F00A01 		and	r1, r1, #10
 3255 006e 1143     		orrs	r1, r1, r2
 3256 0070 8361     		str	r3, [r0, #24]
 3257 0072 0162     		str	r1, [r0, #32]
 3258 0074 10BD     		pop	{r4, pc}
 3259              	.L406:
 3260 0076 00BF     		.align	2
 3261              	.L405:
 3262 0078 00000140 		.word	1073807360
 3264              		.section	.text.HAL_TIM_IC_ConfigChannel,"ax",%progbits
 3265              		.align	1
 3266              		.global	HAL_TIM_IC_ConfigChannel
 3267              		.syntax unified
 3268              		.thumb
 3269              		.thumb_func
 3271              	HAL_TIM_IC_ConfigChannel:
 3272              		@ args = 0, pretend = 0, frame = 0
 3273              		@ frame_needed = 0, uses_anonymous_args = 0
 3274 0000 38B5     		push	{r3, r4, r5, lr}
 3275 0002 90F83C30 		ldrb	r3, [r0, #60]	@ zero_extendqisi2
 3276 0006 012B     		cmp	r3, #1
 3277 0008 5AD0     		beq	.L413
 3278 000a 0446     		mov	r4, r0
 3279 000c 0D46     		mov	r5, r1
 3280 000e 0123     		movs	r3, #1
 3281 0010 80F83C30 		strb	r3, [r0, #60]
 3282 0014 52B1     		cbz	r2, .L416
 3283 0016 042A     		cmp	r2, #4
 3284 0018 1AD0     		beq	.L417
 3285 001a 082A     		cmp	r2, #8
 3286 001c 2BD0     		beq	.L418
 3287 001e 0C2A     		cmp	r2, #12
 3288 0020 3BD0     		beq	.L419
 3289 0022 0120     		movs	r0, #1
 3290              	.L410:
 3291 0024 0023     		movs	r3, #0
 3292 0026 84F83C30 		strb	r3, [r4, #60]
 3293              	.L408:
 3294 002a 38BD     		pop	{r3, r4, r5, pc}
 3295              	.L416:
 3296 002c CB68     		ldr	r3, [r1, #12]
 3297 002e 4A68     		ldr	r2, [r1, #4]
 3298 0030 0968     		ldr	r1, [r1]
 3299 0032 0068     		ldr	r0, [r0]
 3300 0034 FFF7FEFF 		bl	TIM_TI1_SetConfig
ARM GAS  C:\Users\Administrator\AppData\Local\Temp\ccdDcLdm.s 			page 56


 3301 0038 2268     		ldr	r2, [r4]
 3302 003a 9369     		ldr	r3, [r2, #24]
 3303 003c 23F00C03 		bic	r3, r3, #12
 3304 0040 9361     		str	r3, [r2, #24]
 3305 0042 2268     		ldr	r2, [r4]
 3306 0044 9369     		ldr	r3, [r2, #24]
 3307 0046 A968     		ldr	r1, [r5, #8]
 3308 0048 0B43     		orrs	r3, r3, r1
 3309 004a 9361     		str	r3, [r2, #24]
 3310 004c 0020     		movs	r0, #0
 3311 004e E9E7     		b	.L410
 3312              	.L417:
 3313 0050 CB68     		ldr	r3, [r1, #12]
 3314 0052 4A68     		ldr	r2, [r1, #4]
 3315 0054 0968     		ldr	r1, [r1]
 3316 0056 0068     		ldr	r0, [r0]
 3317 0058 FFF7FEFF 		bl	TIM_TI2_SetConfig
 3318 005c 2268     		ldr	r2, [r4]
 3319 005e 9369     		ldr	r3, [r2, #24]
 3320 0060 23F44063 		bic	r3, r3, #3072
 3321 0064 9361     		str	r3, [r2, #24]
 3322 0066 2268     		ldr	r2, [r4]
 3323 0068 9369     		ldr	r3, [r2, #24]
 3324 006a A968     		ldr	r1, [r5, #8]
 3325 006c 43EA0123 		orr	r3, r3, r1, lsl #8
 3326 0070 9361     		str	r3, [r2, #24]
 3327 0072 0020     		movs	r0, #0
 3328 0074 D6E7     		b	.L410
 3329              	.L418:
 3330 0076 CB68     		ldr	r3, [r1, #12]
 3331 0078 4A68     		ldr	r2, [r1, #4]
 3332 007a 0968     		ldr	r1, [r1]
 3333 007c 0068     		ldr	r0, [r0]
 3334 007e FFF7FEFF 		bl	TIM_TI3_SetConfig
 3335 0082 2268     		ldr	r2, [r4]
 3336 0084 D369     		ldr	r3, [r2, #28]
 3337 0086 23F00C03 		bic	r3, r3, #12
 3338 008a D361     		str	r3, [r2, #28]
 3339 008c 2268     		ldr	r2, [r4]
 3340 008e D369     		ldr	r3, [r2, #28]
 3341 0090 A968     		ldr	r1, [r5, #8]
 3342 0092 0B43     		orrs	r3, r3, r1
 3343 0094 D361     		str	r3, [r2, #28]
 3344 0096 0020     		movs	r0, #0
 3345 0098 C4E7     		b	.L410
 3346              	.L419:
 3347 009a CB68     		ldr	r3, [r1, #12]
 3348 009c 4A68     		ldr	r2, [r1, #4]
 3349 009e 0968     		ldr	r1, [r1]
 3350 00a0 0068     		ldr	r0, [r0]
 3351 00a2 FFF7FEFF 		bl	TIM_TI4_SetConfig
 3352 00a6 2268     		ldr	r2, [r4]
 3353 00a8 D369     		ldr	r3, [r2, #28]
 3354 00aa 23F44063 		bic	r3, r3, #3072
 3355 00ae D361     		str	r3, [r2, #28]
 3356 00b0 2268     		ldr	r2, [r4]
 3357 00b2 D369     		ldr	r3, [r2, #28]
ARM GAS  C:\Users\Administrator\AppData\Local\Temp\ccdDcLdm.s 			page 57


 3358 00b4 A968     		ldr	r1, [r5, #8]
 3359 00b6 43EA0123 		orr	r3, r3, r1, lsl #8
 3360 00ba D361     		str	r3, [r2, #28]
 3361 00bc 0020     		movs	r0, #0
 3362 00be B1E7     		b	.L410
 3363              	.L413:
 3364 00c0 0220     		movs	r0, #2
 3365 00c2 B2E7     		b	.L408
 3367              		.section	.text.HAL_TIM_OnePulse_ConfigChannel,"ax",%progbits
 3368              		.align	1
 3369              		.global	HAL_TIM_OnePulse_ConfigChannel
 3370              		.syntax unified
 3371              		.thumb
 3372              		.thumb_func
 3374              	HAL_TIM_OnePulse_ConfigChannel:
 3375              		@ args = 0, pretend = 0, frame = 32
 3376              		@ frame_needed = 0, uses_anonymous_args = 0
 3377 0000 9A42     		cmp	r2, r3
 3378 0002 76D0     		beq	.L428
 3379 0004 70B5     		push	{r4, r5, r6, lr}
 3380 0006 88B0     		sub	sp, sp, #32
 3381 0008 0446     		mov	r4, r0
 3382 000a 0D46     		mov	r5, r1
 3383 000c 1E46     		mov	r6, r3
 3384 000e 90F83C30 		ldrb	r3, [r0, #60]	@ zero_extendqisi2
 3385 0012 012B     		cmp	r3, #1
 3386 0014 6FD0     		beq	.L429
 3387 0016 0123     		movs	r3, #1
 3388 0018 80F83C30 		strb	r3, [r0, #60]
 3389 001c 0223     		movs	r3, #2
 3390 001e 80F83D30 		strb	r3, [r0, #61]
 3391 0022 0B68     		ldr	r3, [r1]
 3392 0024 0193     		str	r3, [sp, #4]
 3393 0026 4B68     		ldr	r3, [r1, #4]
 3394 0028 0293     		str	r3, [sp, #8]
 3395 002a 8B68     		ldr	r3, [r1, #8]
 3396 002c 0393     		str	r3, [sp, #12]
 3397 002e CB68     		ldr	r3, [r1, #12]
 3398 0030 0493     		str	r3, [sp, #16]
 3399 0032 0B69     		ldr	r3, [r1, #16]
 3400 0034 0693     		str	r3, [sp, #24]
 3401 0036 4B69     		ldr	r3, [r1, #20]
 3402 0038 0793     		str	r3, [sp, #28]
 3403 003a 52B1     		cbz	r2, .L422
 3404 003c 042A     		cmp	r2, #4
 3405 003e 11D0     		beq	.L423
 3406 0040 0120     		movs	r0, #1
 3407              	.L424:
 3408 0042 0123     		movs	r3, #1
 3409 0044 84F83D30 		strb	r3, [r4, #61]
 3410 0048 0023     		movs	r3, #0
 3411 004a 84F83C30 		strb	r3, [r4, #60]
 3412              	.L421:
 3413 004e 08B0     		add	sp, sp, #32
 3414              		@ sp needed
 3415 0050 70BD     		pop	{r4, r5, r6, pc}
 3416              	.L422:
ARM GAS  C:\Users\Administrator\AppData\Local\Temp\ccdDcLdm.s 			page 58


 3417 0052 01A9     		add	r1, sp, #4
 3418 0054 0068     		ldr	r0, [r0]
 3419 0056 FFF7FEFF 		bl	TIM_OC1_SetConfig
 3420              	.L425:
 3421 005a 46B1     		cbz	r6, .L426
 3422 005c 042E     		cmp	r6, #4
 3423 005e 27D0     		beq	.L427
 3424 0060 0120     		movs	r0, #1
 3425 0062 EEE7     		b	.L424
 3426              	.L423:
 3427 0064 01A9     		add	r1, sp, #4
 3428 0066 0068     		ldr	r0, [r0]
 3429 0068 FFF7FEFF 		bl	TIM_OC2_SetConfig
 3430 006c F5E7     		b	.L425
 3431              	.L426:
 3432 006e 2B6A     		ldr	r3, [r5, #32]
 3433 0070 EA69     		ldr	r2, [r5, #28]
 3434 0072 A969     		ldr	r1, [r5, #24]
 3435 0074 2068     		ldr	r0, [r4]
 3436 0076 FFF7FEFF 		bl	TIM_TI1_SetConfig
 3437 007a 2268     		ldr	r2, [r4]
 3438 007c 9369     		ldr	r3, [r2, #24]
 3439 007e 23F00C03 		bic	r3, r3, #12
 3440 0082 9361     		str	r3, [r2, #24]
 3441 0084 2268     		ldr	r2, [r4]
 3442 0086 9368     		ldr	r3, [r2, #8]
 3443 0088 23F07003 		bic	r3, r3, #112
 3444 008c 9360     		str	r3, [r2, #8]
 3445 008e 2268     		ldr	r2, [r4]
 3446 0090 9368     		ldr	r3, [r2, #8]
 3447 0092 43F05003 		orr	r3, r3, #80
 3448 0096 9360     		str	r3, [r2, #8]
 3449 0098 2268     		ldr	r2, [r4]
 3450 009a 9368     		ldr	r3, [r2, #8]
 3451 009c 23F00703 		bic	r3, r3, #7
 3452 00a0 9360     		str	r3, [r2, #8]
 3453 00a2 2268     		ldr	r2, [r4]
 3454 00a4 9368     		ldr	r3, [r2, #8]
 3455 00a6 43F00603 		orr	r3, r3, #6
 3456 00aa 9360     		str	r3, [r2, #8]
 3457 00ac 0020     		movs	r0, #0
 3458 00ae C8E7     		b	.L424
 3459              	.L427:
 3460 00b0 2B6A     		ldr	r3, [r5, #32]
 3461 00b2 EA69     		ldr	r2, [r5, #28]
 3462 00b4 A969     		ldr	r1, [r5, #24]
 3463 00b6 2068     		ldr	r0, [r4]
 3464 00b8 FFF7FEFF 		bl	TIM_TI2_SetConfig
 3465 00bc 2268     		ldr	r2, [r4]
 3466 00be 9369     		ldr	r3, [r2, #24]
 3467 00c0 23F44063 		bic	r3, r3, #3072
 3468 00c4 9361     		str	r3, [r2, #24]
 3469 00c6 2268     		ldr	r2, [r4]
 3470 00c8 9368     		ldr	r3, [r2, #8]
 3471 00ca 23F07003 		bic	r3, r3, #112
 3472 00ce 9360     		str	r3, [r2, #8]
 3473 00d0 2268     		ldr	r2, [r4]
ARM GAS  C:\Users\Administrator\AppData\Local\Temp\ccdDcLdm.s 			page 59


 3474 00d2 9368     		ldr	r3, [r2, #8]
 3475 00d4 43F06003 		orr	r3, r3, #96
 3476 00d8 9360     		str	r3, [r2, #8]
 3477 00da 2268     		ldr	r2, [r4]
 3478 00dc 9368     		ldr	r3, [r2, #8]
 3479 00de 23F00703 		bic	r3, r3, #7
 3480 00e2 9360     		str	r3, [r2, #8]
 3481 00e4 2268     		ldr	r2, [r4]
 3482 00e6 9368     		ldr	r3, [r2, #8]
 3483 00e8 43F00603 		orr	r3, r3, #6
 3484 00ec 9360     		str	r3, [r2, #8]
 3485 00ee 0020     		movs	r0, #0
 3486 00f0 A7E7     		b	.L424
 3487              	.L428:
 3488 00f2 0120     		movs	r0, #1
 3489 00f4 7047     		bx	lr
 3490              	.L429:
 3491 00f6 0220     		movs	r0, #2
 3492 00f8 A9E7     		b	.L421
 3494              		.section	.text.TIM_ETR_SetConfig,"ax",%progbits
 3495              		.align	1
 3496              		.global	TIM_ETR_SetConfig
 3497              		.syntax unified
 3498              		.thumb
 3499              		.thumb_func
 3501              	TIM_ETR_SetConfig:
 3502              		@ args = 0, pretend = 0, frame = 0
 3503              		@ frame_needed = 0, uses_anonymous_args = 0
 3504              		@ link register save eliminated.
 3505 0000 D0F808C0 		ldr	ip, [r0, #8]
 3506 0004 2CF47F4C 		bic	ip, ip, #65280
 3507 0008 42EA0322 		orr	r2, r2, r3, lsl #8
 3508 000c 0A43     		orrs	r2, r2, r1
 3509 000e 42EA0C02 		orr	r2, r2, ip
 3510 0012 8260     		str	r2, [r0, #8]
 3511 0014 7047     		bx	lr
 3513              		.section	.text.HAL_TIM_ConfigOCrefClear,"ax",%progbits
 3514              		.align	1
 3515              		.global	HAL_TIM_ConfigOCrefClear
 3516              		.syntax unified
 3517              		.thumb
 3518              		.thumb_func
 3520              	HAL_TIM_ConfigOCrefClear:
 3521              		@ args = 0, pretend = 0, frame = 0
 3522              		@ frame_needed = 0, uses_anonymous_args = 0
 3523 0000 90F83C30 		ldrb	r3, [r0, #60]	@ zero_extendqisi2
 3524 0004 012B     		cmp	r3, #1
 3525 0006 77D0     		beq	.L451
 3526 0008 70B5     		push	{r4, r5, r6, lr}
 3527 000a 0446     		mov	r4, r0
 3528 000c 0D46     		mov	r5, r1
 3529 000e 1646     		mov	r6, r2
 3530 0010 0123     		movs	r3, #1
 3531 0012 80F83C30 		strb	r3, [r0, #60]
 3532 0016 0223     		movs	r3, #2
 3533 0018 80F83D30 		strb	r3, [r0, #61]
 3534 001c 4B68     		ldr	r3, [r1, #4]
ARM GAS  C:\Users\Administrator\AppData\Local\Temp\ccdDcLdm.s 			page 60


 3535 001e 4BB1     		cbz	r3, .L437
 3536 0020 012B     		cmp	r3, #1
 3537 0022 1CD0     		beq	.L438
 3538 0024 0120     		movs	r0, #1
 3539              	.L439:
 3540 0026 0123     		movs	r3, #1
 3541 0028 84F83D30 		strb	r3, [r4, #61]
 3542 002c 0023     		movs	r3, #0
 3543 002e 84F83C30 		strb	r3, [r4, #60]
 3544              	.L436:
 3545 0032 70BD     		pop	{r4, r5, r6, pc}
 3546              	.L437:
 3547 0034 0268     		ldr	r2, [r0]
 3548 0036 9368     		ldr	r3, [r2, #8]
 3549 0038 23F47F43 		bic	r3, r3, #65280
 3550 003c 9360     		str	r3, [r2, #8]
 3551              	.L440:
 3552 003e 082E     		cmp	r6, #8
 3553 0040 43D0     		beq	.L442
 3554 0042 1DD8     		bhi	.L443
 3555 0044 56B3     		cbz	r6, .L444
 3556 0046 042E     		cmp	r6, #4
 3557 0048 18D1     		bne	.L456
 3558 004a 2B68     		ldr	r3, [r5]
 3559 004c 002B     		cmp	r3, #0
 3560 004e 35D0     		beq	.L448
 3561 0050 2268     		ldr	r2, [r4]
 3562 0052 9369     		ldr	r3, [r2, #24]
 3563 0054 43F40043 		orr	r3, r3, #32768
 3564 0058 9361     		str	r3, [r2, #24]
 3565 005a 0020     		movs	r0, #0
 3566 005c E3E7     		b	.L439
 3567              	.L438:
 3568 005e C968     		ldr	r1, [r1, #12]
 3569 0060 31B1     		cbz	r1, .L441
 3570 0062 0120     		movs	r0, #1
 3571 0064 84F83D00 		strb	r0, [r4, #61]
 3572 0068 0023     		movs	r3, #0
 3573 006a 84F83C30 		strb	r3, [r4, #60]
 3574 006e E0E7     		b	.L436
 3575              	.L441:
 3576 0070 2B69     		ldr	r3, [r5, #16]
 3577 0072 AA68     		ldr	r2, [r5, #8]
 3578 0074 0068     		ldr	r0, [r0]
 3579 0076 FFF7FEFF 		bl	TIM_ETR_SetConfig
 3580 007a E0E7     		b	.L440
 3581              	.L456:
 3582 007c 0020     		movs	r0, #0
 3583 007e D2E7     		b	.L439
 3584              	.L443:
 3585 0080 0C2E     		cmp	r6, #12
 3586 0082 09D1     		bne	.L457
 3587 0084 2B68     		ldr	r3, [r5]
 3588 0086 002B     		cmp	r3, #0
 3589 0088 2FD0     		beq	.L450
 3590 008a 2268     		ldr	r2, [r4]
 3591 008c D369     		ldr	r3, [r2, #28]
ARM GAS  C:\Users\Administrator\AppData\Local\Temp\ccdDcLdm.s 			page 61


 3592 008e 43F40043 		orr	r3, r3, #32768
 3593 0092 D361     		str	r3, [r2, #28]
 3594 0094 0020     		movs	r0, #0
 3595 0096 C6E7     		b	.L439
 3596              	.L457:
 3597 0098 0020     		movs	r0, #0
 3598 009a C4E7     		b	.L439
 3599              	.L444:
 3600 009c 2B68     		ldr	r3, [r5]
 3601 009e 33B1     		cbz	r3, .L447
 3602 00a0 2268     		ldr	r2, [r4]
 3603 00a2 9369     		ldr	r3, [r2, #24]
 3604 00a4 43F08003 		orr	r3, r3, #128
 3605 00a8 9361     		str	r3, [r2, #24]
 3606 00aa 0020     		movs	r0, #0
 3607 00ac BBE7     		b	.L439
 3608              	.L447:
 3609 00ae 2268     		ldr	r2, [r4]
 3610 00b0 9369     		ldr	r3, [r2, #24]
 3611 00b2 23F08003 		bic	r3, r3, #128
 3612 00b6 9361     		str	r3, [r2, #24]
 3613 00b8 0020     		movs	r0, #0
 3614 00ba B4E7     		b	.L439
 3615              	.L448:
 3616 00bc 2268     		ldr	r2, [r4]
 3617 00be 9369     		ldr	r3, [r2, #24]
 3618 00c0 23F40043 		bic	r3, r3, #32768
 3619 00c4 9361     		str	r3, [r2, #24]
 3620 00c6 0020     		movs	r0, #0
 3621 00c8 ADE7     		b	.L439
 3622              	.L442:
 3623 00ca 2B68     		ldr	r3, [r5]
 3624 00cc 33B1     		cbz	r3, .L449
 3625 00ce 2268     		ldr	r2, [r4]
 3626 00d0 D369     		ldr	r3, [r2, #28]
 3627 00d2 43F08003 		orr	r3, r3, #128
 3628 00d6 D361     		str	r3, [r2, #28]
 3629 00d8 0020     		movs	r0, #0
 3630 00da A4E7     		b	.L439
 3631              	.L449:
 3632 00dc 2268     		ldr	r2, [r4]
 3633 00de D369     		ldr	r3, [r2, #28]
 3634 00e0 23F08003 		bic	r3, r3, #128
 3635 00e4 D361     		str	r3, [r2, #28]
 3636 00e6 0020     		movs	r0, #0
 3637 00e8 9DE7     		b	.L439
 3638              	.L450:
 3639 00ea 2268     		ldr	r2, [r4]
 3640 00ec D369     		ldr	r3, [r2, #28]
 3641 00ee 23F40043 		bic	r3, r3, #32768
 3642 00f2 D361     		str	r3, [r2, #28]
 3643 00f4 0020     		movs	r0, #0
 3644 00f6 96E7     		b	.L439
 3645              	.L451:
 3646 00f8 0220     		movs	r0, #2
 3647 00fa 7047     		bx	lr
 3649              		.section	.text.HAL_TIM_ConfigClockSource,"ax",%progbits
ARM GAS  C:\Users\Administrator\AppData\Local\Temp\ccdDcLdm.s 			page 62


 3650              		.align	1
 3651              		.global	HAL_TIM_ConfigClockSource
 3652              		.syntax unified
 3653              		.thumb
 3654              		.thumb_func
 3656              	HAL_TIM_ConfigClockSource:
 3657              		@ args = 0, pretend = 0, frame = 0
 3658              		@ frame_needed = 0, uses_anonymous_args = 0
 3659 0000 90F83C30 		ldrb	r3, [r0, #60]	@ zero_extendqisi2
 3660 0004 012B     		cmp	r3, #1
 3661 0006 78D0     		beq	.L469
 3662 0008 10B5     		push	{r4, lr}
 3663 000a 0446     		mov	r4, r0
 3664 000c 0123     		movs	r3, #1
 3665 000e 80F83C30 		strb	r3, [r0, #60]
 3666 0012 0223     		movs	r3, #2
 3667 0014 80F83D30 		strb	r3, [r0, #61]
 3668 0018 0268     		ldr	r2, [r0]
 3669 001a 9368     		ldr	r3, [r2, #8]
 3670 001c 23F47F43 		bic	r3, r3, #65280
 3671 0020 23F07703 		bic	r3, r3, #119
 3672 0024 9360     		str	r3, [r2, #8]
 3673 0026 0B68     		ldr	r3, [r1]
 3674 0028 602B     		cmp	r3, #96
 3675 002a 4CD0     		beq	.L460
 3676 002c 23D8     		bhi	.L461
 3677 002e 402B     		cmp	r3, #64
 3678 0030 54D0     		beq	.L462
 3679 0032 11D8     		bhi	.L463
 3680 0034 202B     		cmp	r3, #32
 3681 0036 03D0     		beq	.L464
 3682 0038 0AD8     		bhi	.L465
 3683 003a 0BB1     		cbz	r3, .L464
 3684 003c 102B     		cmp	r3, #16
 3685 003e 05D1     		bne	.L476
 3686              	.L464:
 3687 0040 1946     		mov	r1, r3
 3688 0042 2068     		ldr	r0, [r4]
 3689 0044 FFF7FEFF 		bl	TIM_ITRx_SetConfig
 3690 0048 0020     		movs	r0, #0
 3691 004a 28E0     		b	.L466
 3692              	.L476:
 3693 004c 0120     		movs	r0, #1
 3694 004e 26E0     		b	.L466
 3695              	.L465:
 3696 0050 302B     		cmp	r3, #48
 3697 0052 F5D0     		beq	.L464
 3698 0054 0120     		movs	r0, #1
 3699 0056 22E0     		b	.L466
 3700              	.L463:
 3701 0058 502B     		cmp	r3, #80
 3702 005a 0AD1     		bne	.L477
 3703 005c CA68     		ldr	r2, [r1, #12]
 3704 005e 4968     		ldr	r1, [r1, #4]
 3705 0060 0068     		ldr	r0, [r0]
 3706 0062 FFF7FEFF 		bl	TIM_TI1_ConfigInputStage
 3707 0066 5021     		movs	r1, #80
ARM GAS  C:\Users\Administrator\AppData\Local\Temp\ccdDcLdm.s 			page 63


 3708 0068 2068     		ldr	r0, [r4]
 3709 006a FFF7FEFF 		bl	TIM_ITRx_SetConfig
 3710 006e 0020     		movs	r0, #0
 3711 0070 15E0     		b	.L466
 3712              	.L477:
 3713 0072 0120     		movs	r0, #1
 3714 0074 13E0     		b	.L466
 3715              	.L461:
 3716 0076 B3F5805F 		cmp	r3, #4096
 3717 007a 3AD0     		beq	.L470
 3718 007c B3F5005F 		cmp	r3, #8192
 3719 0080 14D0     		beq	.L468
 3720 0082 702B     		cmp	r3, #112
 3721 0084 37D1     		bne	.L471
 3722 0086 CB68     		ldr	r3, [r1, #12]
 3723 0088 4A68     		ldr	r2, [r1, #4]
 3724 008a 8968     		ldr	r1, [r1, #8]
 3725 008c 0068     		ldr	r0, [r0]
 3726 008e FFF7FEFF 		bl	TIM_ETR_SetConfig
 3727 0092 2268     		ldr	r2, [r4]
 3728 0094 9368     		ldr	r3, [r2, #8]
 3729 0096 43F07703 		orr	r3, r3, #119
 3730 009a 9360     		str	r3, [r2, #8]
 3731 009c 0020     		movs	r0, #0
 3732              	.L466:
 3733 009e 0123     		movs	r3, #1
 3734 00a0 84F83D30 		strb	r3, [r4, #61]
 3735 00a4 0023     		movs	r3, #0
 3736 00a6 84F83C30 		strb	r3, [r4, #60]
 3737 00aa 10BD     		pop	{r4, pc}
 3738              	.L468:
 3739 00ac CB68     		ldr	r3, [r1, #12]
 3740 00ae 4A68     		ldr	r2, [r1, #4]
 3741 00b0 8968     		ldr	r1, [r1, #8]
 3742 00b2 0068     		ldr	r0, [r0]
 3743 00b4 FFF7FEFF 		bl	TIM_ETR_SetConfig
 3744 00b8 2268     		ldr	r2, [r4]
 3745 00ba 9368     		ldr	r3, [r2, #8]
 3746 00bc 43F48043 		orr	r3, r3, #16384
 3747 00c0 9360     		str	r3, [r2, #8]
 3748 00c2 0020     		movs	r0, #0
 3749 00c4 EBE7     		b	.L466
 3750              	.L460:
 3751 00c6 CA68     		ldr	r2, [r1, #12]
 3752 00c8 4968     		ldr	r1, [r1, #4]
 3753 00ca 0068     		ldr	r0, [r0]
 3754 00cc FFF7FEFF 		bl	TIM_TI2_ConfigInputStage
 3755 00d0 6021     		movs	r1, #96
 3756 00d2 2068     		ldr	r0, [r4]
 3757 00d4 FFF7FEFF 		bl	TIM_ITRx_SetConfig
 3758 00d8 0020     		movs	r0, #0
 3759 00da E0E7     		b	.L466
 3760              	.L462:
 3761 00dc CA68     		ldr	r2, [r1, #12]
 3762 00de 4968     		ldr	r1, [r1, #4]
 3763 00e0 0068     		ldr	r0, [r0]
 3764 00e2 FFF7FEFF 		bl	TIM_TI1_ConfigInputStage
ARM GAS  C:\Users\Administrator\AppData\Local\Temp\ccdDcLdm.s 			page 64


 3765 00e6 4021     		movs	r1, #64
 3766 00e8 2068     		ldr	r0, [r4]
 3767 00ea FFF7FEFF 		bl	TIM_ITRx_SetConfig
 3768 00ee 0020     		movs	r0, #0
 3769 00f0 D5E7     		b	.L466
 3770              	.L470:
 3771 00f2 0020     		movs	r0, #0
 3772 00f4 D3E7     		b	.L466
 3773              	.L471:
 3774 00f6 0120     		movs	r0, #1
 3775 00f8 D1E7     		b	.L466
 3776              	.L469:
 3777 00fa 0220     		movs	r0, #2
 3778 00fc 7047     		bx	lr
 3780              		.section	.text.TIM_SlaveTimer_SetConfig,"ax",%progbits
 3781              		.align	1
 3782              		.syntax unified
 3783              		.thumb
 3784              		.thumb_func
 3786              	TIM_SlaveTimer_SetConfig:
 3787              		@ args = 0, pretend = 0, frame = 0
 3788              		@ frame_needed = 0, uses_anonymous_args = 0
 3789 0000 08B5     		push	{r3, lr}
 3790 0002 D0F800C0 		ldr	ip, [r0]
 3791 0006 DCF80820 		ldr	r2, [ip, #8]
 3792 000a 22F07002 		bic	r2, r2, #112
 3793 000e 4B68     		ldr	r3, [r1, #4]
 3794 0010 1343     		orrs	r3, r3, r2
 3795 0012 23F00703 		bic	r3, r3, #7
 3796 0016 0A68     		ldr	r2, [r1]
 3797 0018 1A43     		orrs	r2, r2, r3
 3798 001a CCF80820 		str	r2, [ip, #8]
 3799 001e 4B68     		ldr	r3, [r1, #4]
 3800 0020 502B     		cmp	r3, #80
 3801 0022 32D0     		beq	.L479
 3802 0024 0BD9     		bls	.L493
 3803 0026 602B     		cmp	r3, #96
 3804 0028 36D0     		beq	.L484
 3805 002a 702B     		cmp	r3, #112
 3806 002c 45D1     		bne	.L490
 3807 002e 0B69     		ldr	r3, [r1, #16]
 3808 0030 8A68     		ldr	r2, [r1, #8]
 3809 0032 C968     		ldr	r1, [r1, #12]
 3810 0034 0068     		ldr	r0, [r0]
 3811 0036 FFF7FEFF 		bl	TIM_ETR_SetConfig
 3812 003a 0020     		movs	r0, #0
 3813              	.L482:
 3814 003c 08BD     		pop	{r3, pc}
 3815              	.L493:
 3816 003e 402B     		cmp	r3, #64
 3817 0040 0CD0     		beq	.L481
 3818 0042 30D8     		bhi	.L485
 3819 0044 202B     		cmp	r3, #32
 3820 0046 30D0     		beq	.L486
 3821 0048 04D8     		bhi	.L483
 3822 004a 83B3     		cbz	r3, .L487
 3823 004c 102B     		cmp	r3, #16
ARM GAS  C:\Users\Administrator\AppData\Local\Temp\ccdDcLdm.s 			page 65


 3824 004e 30D1     		bne	.L488
 3825 0050 0020     		movs	r0, #0
 3826 0052 F3E7     		b	.L482
 3827              	.L483:
 3828 0054 302B     		cmp	r3, #48
 3829 0056 2ED1     		bne	.L489
 3830 0058 0020     		movs	r0, #0
 3831 005a EFE7     		b	.L482
 3832              	.L481:
 3833 005c 0B68     		ldr	r3, [r1]
 3834 005e 052B     		cmp	r3, #5
 3835 0060 2DD0     		beq	.L491
 3836 0062 0368     		ldr	r3, [r0]
 3837 0064 D3F820C0 		ldr	ip, [r3, #32]
 3838 0068 1A6A     		ldr	r2, [r3, #32]
 3839 006a 22F00102 		bic	r2, r2, #1
 3840 006e 1A62     		str	r2, [r3, #32]
 3841 0070 0268     		ldr	r2, [r0]
 3842 0072 9369     		ldr	r3, [r2, #24]
 3843 0074 23F0F003 		bic	r3, r3, #240
 3844 0078 0969     		ldr	r1, [r1, #16]
 3845 007a 43EA0113 		orr	r3, r3, r1, lsl #4
 3846 007e 9361     		str	r3, [r2, #24]
 3847 0080 0368     		ldr	r3, [r0]
 3848 0082 C3F820C0 		str	ip, [r3, #32]
 3849 0086 0020     		movs	r0, #0
 3850 0088 D8E7     		b	.L482
 3851              	.L479:
 3852 008a 0A69     		ldr	r2, [r1, #16]
 3853 008c 8968     		ldr	r1, [r1, #8]
 3854 008e 0068     		ldr	r0, [r0]
 3855 0090 FFF7FEFF 		bl	TIM_TI1_ConfigInputStage
 3856 0094 0020     		movs	r0, #0
 3857 0096 D1E7     		b	.L482
 3858              	.L484:
 3859 0098 0A69     		ldr	r2, [r1, #16]
 3860 009a 8968     		ldr	r1, [r1, #8]
 3861 009c 0068     		ldr	r0, [r0]
 3862 009e FFF7FEFF 		bl	TIM_TI2_ConfigInputStage
 3863 00a2 0020     		movs	r0, #0
 3864 00a4 CAE7     		b	.L482
 3865              	.L485:
 3866 00a6 0120     		movs	r0, #1
 3867 00a8 C8E7     		b	.L482
 3868              	.L486:
 3869 00aa 0020     		movs	r0, #0
 3870 00ac C6E7     		b	.L482
 3871              	.L487:
 3872 00ae 1846     		mov	r0, r3
 3873 00b0 C4E7     		b	.L482
 3874              	.L488:
 3875 00b2 0120     		movs	r0, #1
 3876 00b4 C2E7     		b	.L482
 3877              	.L489:
 3878 00b6 0120     		movs	r0, #1
 3879 00b8 C0E7     		b	.L482
 3880              	.L490:
ARM GAS  C:\Users\Administrator\AppData\Local\Temp\ccdDcLdm.s 			page 66


 3881 00ba 0120     		movs	r0, #1
 3882 00bc BEE7     		b	.L482
 3883              	.L491:
 3884 00be 0120     		movs	r0, #1
 3885 00c0 BCE7     		b	.L482
 3887              		.section	.text.HAL_TIM_SlaveConfigSynchro,"ax",%progbits
 3888              		.align	1
 3889              		.global	HAL_TIM_SlaveConfigSynchro
 3890              		.syntax unified
 3891              		.thumb
 3892              		.thumb_func
 3894              	HAL_TIM_SlaveConfigSynchro:
 3895              		@ args = 0, pretend = 0, frame = 0
 3896              		@ frame_needed = 0, uses_anonymous_args = 0
 3897 0000 90F83C30 		ldrb	r3, [r0, #60]	@ zero_extendqisi2
 3898 0004 012B     		cmp	r3, #1
 3899 0006 22D0     		beq	.L497
 3900 0008 10B5     		push	{r4, lr}
 3901 000a 0446     		mov	r4, r0
 3902 000c 0123     		movs	r3, #1
 3903 000e 80F83C30 		strb	r3, [r0, #60]
 3904 0012 0223     		movs	r3, #2
 3905 0014 80F83D30 		strb	r3, [r0, #61]
 3906 0018 FFF7FEFF 		bl	TIM_SlaveTimer_SetConfig
 3907 001c 80B9     		cbnz	r0, .L502
 3908 001e 2268     		ldr	r2, [r4]
 3909 0020 D368     		ldr	r3, [r2, #12]
 3910 0022 23F04003 		bic	r3, r3, #64
 3911 0026 D360     		str	r3, [r2, #12]
 3912 0028 2268     		ldr	r2, [r4]
 3913 002a D368     		ldr	r3, [r2, #12]
 3914 002c 23F48043 		bic	r3, r3, #16384
 3915 0030 D360     		str	r3, [r2, #12]
 3916 0032 0123     		movs	r3, #1
 3917 0034 84F83D30 		strb	r3, [r4, #61]
 3918 0038 0023     		movs	r3, #0
 3919 003a 84F83C30 		strb	r3, [r4, #60]
 3920              	.L495:
 3921 003e 10BD     		pop	{r4, pc}
 3922              	.L502:
 3923 0040 0120     		movs	r0, #1
 3924 0042 84F83D00 		strb	r0, [r4, #61]
 3925 0046 0023     		movs	r3, #0
 3926 0048 84F83C30 		strb	r3, [r4, #60]
 3927 004c F7E7     		b	.L495
 3928              	.L497:
 3929 004e 0220     		movs	r0, #2
 3930 0050 7047     		bx	lr
 3932              		.section	.text.HAL_TIM_SlaveConfigSynchro_IT,"ax",%progbits
 3933              		.align	1
 3934              		.global	HAL_TIM_SlaveConfigSynchro_IT
 3935              		.syntax unified
 3936              		.thumb
 3937              		.thumb_func
 3939              	HAL_TIM_SlaveConfigSynchro_IT:
 3940              		@ args = 0, pretend = 0, frame = 0
 3941              		@ frame_needed = 0, uses_anonymous_args = 0
ARM GAS  C:\Users\Administrator\AppData\Local\Temp\ccdDcLdm.s 			page 67


 3942 0000 90F83C30 		ldrb	r3, [r0, #60]	@ zero_extendqisi2
 3943 0004 012B     		cmp	r3, #1
 3944 0006 22D0     		beq	.L506
 3945 0008 10B5     		push	{r4, lr}
 3946 000a 0446     		mov	r4, r0
 3947 000c 0123     		movs	r3, #1
 3948 000e 80F83C30 		strb	r3, [r0, #60]
 3949 0012 0223     		movs	r3, #2
 3950 0014 80F83D30 		strb	r3, [r0, #61]
 3951 0018 FFF7FEFF 		bl	TIM_SlaveTimer_SetConfig
 3952 001c 80B9     		cbnz	r0, .L511
 3953 001e 2268     		ldr	r2, [r4]
 3954 0020 D368     		ldr	r3, [r2, #12]
 3955 0022 43F04003 		orr	r3, r3, #64
 3956 0026 D360     		str	r3, [r2, #12]
 3957 0028 2268     		ldr	r2, [r4]
 3958 002a D368     		ldr	r3, [r2, #12]
 3959 002c 23F48043 		bic	r3, r3, #16384
 3960 0030 D360     		str	r3, [r2, #12]
 3961 0032 0123     		movs	r3, #1
 3962 0034 84F83D30 		strb	r3, [r4, #61]
 3963 0038 0023     		movs	r3, #0
 3964 003a 84F83C30 		strb	r3, [r4, #60]
 3965              	.L504:
 3966 003e 10BD     		pop	{r4, pc}
 3967              	.L511:
 3968 0040 0120     		movs	r0, #1
 3969 0042 84F83D00 		strb	r0, [r4, #61]
 3970 0046 0023     		movs	r3, #0
 3971 0048 84F83C30 		strb	r3, [r4, #60]
 3972 004c F7E7     		b	.L504
 3973              	.L506:
 3974 004e 0220     		movs	r0, #2
 3975 0050 7047     		bx	lr
 3977              		.section	.text.TIM_CCxChannelCmd,"ax",%progbits
 3978              		.align	1
 3979              		.global	TIM_CCxChannelCmd
 3980              		.syntax unified
 3981              		.thumb
 3982              		.thumb_func
 3984              	TIM_CCxChannelCmd:
 3985              		@ args = 0, pretend = 0, frame = 0
 3986              		@ frame_needed = 0, uses_anonymous_args = 0
 3987              		@ link register save eliminated.
 3988 0000 01F01F01 		and	r1, r1, #31
 3989 0004 4FF0010C 		mov	ip, #1
 3990 0008 0CFA01FC 		lsl	ip, ip, r1
 3991 000c 036A     		ldr	r3, [r0, #32]
 3992 000e 23EA0C03 		bic	r3, r3, ip
 3993 0012 0362     		str	r3, [r0, #32]
 3994 0014 036A     		ldr	r3, [r0, #32]
 3995 0016 8A40     		lsls	r2, r2, r1
 3996 0018 1343     		orrs	r3, r3, r2
 3997 001a 0362     		str	r3, [r0, #32]
 3998 001c 7047     		bx	lr
 4000              		.section	.text.HAL_TIM_OC_Start,"ax",%progbits
 4001              		.align	1
ARM GAS  C:\Users\Administrator\AppData\Local\Temp\ccdDcLdm.s 			page 68


 4002              		.global	HAL_TIM_OC_Start
 4003              		.syntax unified
 4004              		.thumb
 4005              		.thumb_func
 4007              	HAL_TIM_OC_Start:
 4008              		@ args = 0, pretend = 0, frame = 0
 4009              		@ frame_needed = 0, uses_anonymous_args = 0
 4010 0000 10B5     		push	{r4, lr}
 4011 0002 0446     		mov	r4, r0
 4012 0004 0846     		mov	r0, r1
 4013 0006 0029     		cmp	r1, #0
 4014 0008 41D1     		bne	.L514
 4015 000a 94F83E30 		ldrb	r3, [r4, #62]	@ zero_extendqisi2
 4016 000e 013B     		subs	r3, r3, #1
 4017 0010 18BF     		it	ne
 4018 0012 0123     		movne	r3, #1
 4019              	.L515:
 4020 0014 002B     		cmp	r3, #0
 4021 0016 6BD1     		bne	.L527
 4022 0018 0028     		cmp	r0, #0
 4023 001a 4ED1     		bne	.L519
 4024 001c 0223     		movs	r3, #2
 4025 001e 84F83E30 		strb	r3, [r4, #62]
 4026              	.L520:
 4027 0022 0122     		movs	r2, #1
 4028 0024 0146     		mov	r1, r0
 4029 0026 2068     		ldr	r0, [r4]
 4030 0028 FFF7FEFF 		bl	TIM_CCxChannelCmd
 4031 002c 2368     		ldr	r3, [r4]
 4032 002e 324A     		ldr	r2, .L534
 4033 0030 9342     		cmp	r3, r2
 4034 0032 03D0     		beq	.L523
 4035 0034 02F58062 		add	r2, r2, #1024
 4036 0038 9342     		cmp	r3, r2
 4037 003a 03D1     		bne	.L524
 4038              	.L523:
 4039 003c 5A6C     		ldr	r2, [r3, #68]
 4040 003e 42F40042 		orr	r2, r2, #32768
 4041 0042 5A64     		str	r2, [r3, #68]
 4042              	.L524:
 4043 0044 2368     		ldr	r3, [r4]
 4044 0046 2C4A     		ldr	r2, .L534
 4045 0048 9342     		cmp	r3, r2
 4046 004a 46D0     		beq	.L525
 4047 004c B3F1804F 		cmp	r3, #1073741824
 4048 0050 43D0     		beq	.L525
 4049 0052 A2F57C42 		sub	r2, r2, #64512
 4050 0056 9342     		cmp	r3, r2
 4051 0058 3FD0     		beq	.L525
 4052 005a 02F58062 		add	r2, r2, #1024
 4053 005e 9342     		cmp	r3, r2
 4054 0060 3BD0     		beq	.L525
 4055 0062 02F58062 		add	r2, r2, #1024
 4056 0066 9342     		cmp	r3, r2
 4057 0068 37D0     		beq	.L525
 4058 006a 02F57842 		add	r2, r2, #63488
 4059 006e 9342     		cmp	r3, r2
ARM GAS  C:\Users\Administrator\AppData\Local\Temp\ccdDcLdm.s 			page 69


 4060 0070 33D0     		beq	.L525
 4061 0072 02F57052 		add	r2, r2, #15360
 4062 0076 9342     		cmp	r3, r2
 4063 0078 2FD0     		beq	.L525
 4064 007a A2F59432 		sub	r2, r2, #75776
 4065 007e 9342     		cmp	r3, r2
 4066 0080 2BD0     		beq	.L525
 4067 0082 1A68     		ldr	r2, [r3]
 4068 0084 42F00102 		orr	r2, r2, #1
 4069 0088 1A60     		str	r2, [r3]
 4070 008a 0020     		movs	r0, #0
 4071 008c 2FE0     		b	.L518
 4072              	.L514:
 4073 008e 0429     		cmp	r1, #4
 4074 0090 07D0     		beq	.L530
 4075 0092 0829     		cmp	r1, #8
 4076 0094 0BD0     		beq	.L531
 4077 0096 94F84130 		ldrb	r3, [r4, #65]	@ zero_extendqisi2
 4078 009a 013B     		subs	r3, r3, #1
 4079 009c 18BF     		it	ne
 4080 009e 0123     		movne	r3, #1
 4081 00a0 B8E7     		b	.L515
 4082              	.L530:
 4083 00a2 94F83F30 		ldrb	r3, [r4, #63]	@ zero_extendqisi2
 4084 00a6 013B     		subs	r3, r3, #1
 4085 00a8 18BF     		it	ne
 4086 00aa 0123     		movne	r3, #1
 4087 00ac B2E7     		b	.L515
 4088              	.L531:
 4089 00ae 94F84030 		ldrb	r3, [r4, #64]	@ zero_extendqisi2
 4090 00b2 013B     		subs	r3, r3, #1
 4091 00b4 18BF     		it	ne
 4092 00b6 0123     		movne	r3, #1
 4093 00b8 ACE7     		b	.L515
 4094              	.L519:
 4095 00ba 0428     		cmp	r0, #4
 4096 00bc 05D0     		beq	.L532
 4097 00be 0828     		cmp	r0, #8
 4098 00c0 07D0     		beq	.L533
 4099 00c2 0223     		movs	r3, #2
 4100 00c4 84F84130 		strb	r3, [r4, #65]
 4101 00c8 ABE7     		b	.L520
 4102              	.L532:
 4103 00ca 0223     		movs	r3, #2
 4104 00cc 84F83F30 		strb	r3, [r4, #63]
 4105 00d0 A7E7     		b	.L520
 4106              	.L533:
 4107 00d2 0223     		movs	r3, #2
 4108 00d4 84F84030 		strb	r3, [r4, #64]
 4109 00d8 A3E7     		b	.L520
 4110              	.L525:
 4111 00da 9A68     		ldr	r2, [r3, #8]
 4112 00dc 02F00702 		and	r2, r2, #7
 4113 00e0 062A     		cmp	r2, #6
 4114 00e2 07D0     		beq	.L528
 4115 00e4 1A68     		ldr	r2, [r3]
 4116 00e6 42F00102 		orr	r2, r2, #1
ARM GAS  C:\Users\Administrator\AppData\Local\Temp\ccdDcLdm.s 			page 70


 4117 00ea 1A60     		str	r2, [r3]
 4118 00ec 0020     		movs	r0, #0
 4119              	.L518:
 4120 00ee 10BD     		pop	{r4, pc}
 4121              	.L527:
 4122 00f0 0120     		movs	r0, #1
 4123 00f2 FCE7     		b	.L518
 4124              	.L528:
 4125 00f4 0020     		movs	r0, #0
 4126 00f6 FAE7     		b	.L518
 4127              	.L535:
 4128              		.align	2
 4129              	.L534:
 4130 00f8 00000140 		.word	1073807360
 4132              		.section	.text.HAL_TIM_OC_Stop,"ax",%progbits
 4133              		.align	1
 4134              		.global	HAL_TIM_OC_Stop
 4135              		.syntax unified
 4136              		.thumb
 4137              		.thumb_func
 4139              	HAL_TIM_OC_Stop:
 4140              		@ args = 0, pretend = 0, frame = 0
 4141              		@ frame_needed = 0, uses_anonymous_args = 0
 4142 0000 38B5     		push	{r3, r4, r5, lr}
 4143 0002 0446     		mov	r4, r0
 4144 0004 0D46     		mov	r5, r1
 4145 0006 0022     		movs	r2, #0
 4146 0008 0068     		ldr	r0, [r0]
 4147 000a FFF7FEFF 		bl	TIM_CCxChannelCmd
 4148 000e 2368     		ldr	r3, [r4]
 4149 0010 1D4A     		ldr	r2, .L547
 4150 0012 9342     		cmp	r3, r2
 4151 0014 18D0     		beq	.L537
 4152 0016 02F58062 		add	r2, r2, #1024
 4153 001a 9342     		cmp	r3, r2
 4154 001c 14D0     		beq	.L537
 4155              	.L538:
 4156 001e 2368     		ldr	r3, [r4]
 4157 0020 196A     		ldr	r1, [r3, #32]
 4158 0022 41F21112 		movw	r2, #4369
 4159 0026 1142     		tst	r1, r2
 4160 0028 08D1     		bne	.L539
 4161 002a 196A     		ldr	r1, [r3, #32]
 4162 002c 40F24442 		movw	r2, #1092
 4163 0030 1142     		tst	r1, r2
 4164 0032 03D1     		bne	.L539
 4165 0034 1A68     		ldr	r2, [r3]
 4166 0036 22F00102 		bic	r2, r2, #1
 4167 003a 1A60     		str	r2, [r3]
 4168              	.L539:
 4169 003c 9DB9     		cbnz	r5, .L540
 4170 003e 0123     		movs	r3, #1
 4171 0040 84F83E30 		strb	r3, [r4, #62]
 4172              	.L541:
 4173 0044 0020     		movs	r0, #0
 4174 0046 38BD     		pop	{r3, r4, r5, pc}
 4175              	.L537:
ARM GAS  C:\Users\Administrator\AppData\Local\Temp\ccdDcLdm.s 			page 71


 4176 0048 196A     		ldr	r1, [r3, #32]
 4177 004a 41F21112 		movw	r2, #4369
 4178 004e 1142     		tst	r1, r2
 4179 0050 E5D1     		bne	.L538
 4180 0052 196A     		ldr	r1, [r3, #32]
 4181 0054 40F24442 		movw	r2, #1092
 4182 0058 1142     		tst	r1, r2
 4183 005a E0D1     		bne	.L538
 4184 005c 5A6C     		ldr	r2, [r3, #68]
 4185 005e 22F40042 		bic	r2, r2, #32768
 4186 0062 5A64     		str	r2, [r3, #68]
 4187 0064 DBE7     		b	.L538
 4188              	.L540:
 4189 0066 042D     		cmp	r5, #4
 4190 0068 05D0     		beq	.L545
 4191 006a 082D     		cmp	r5, #8
 4192 006c 07D0     		beq	.L546
 4193 006e 0123     		movs	r3, #1
 4194 0070 84F84130 		strb	r3, [r4, #65]
 4195 0074 E6E7     		b	.L541
 4196              	.L545:
 4197 0076 0123     		movs	r3, #1
 4198 0078 84F83F30 		strb	r3, [r4, #63]
 4199 007c E2E7     		b	.L541
 4200              	.L546:
 4201 007e 0123     		movs	r3, #1
 4202 0080 84F84030 		strb	r3, [r4, #64]
 4203 0084 DEE7     		b	.L541
 4204              	.L548:
 4205 0086 00BF     		.align	2
 4206              	.L547:
 4207 0088 00000140 		.word	1073807360
 4209              		.section	.text.HAL_TIM_OC_Start_IT,"ax",%progbits
 4210              		.align	1
 4211              		.global	HAL_TIM_OC_Start_IT
 4212              		.syntax unified
 4213              		.thumb
 4214              		.thumb_func
 4216              	HAL_TIM_OC_Start_IT:
 4217              		@ args = 0, pretend = 0, frame = 0
 4218              		@ frame_needed = 0, uses_anonymous_args = 0
 4219 0000 10B5     		push	{r4, lr}
 4220 0002 0446     		mov	r4, r0
 4221 0004 0B46     		mov	r3, r1
 4222 0006 0029     		cmp	r1, #0
 4223 0008 47D1     		bne	.L550
 4224 000a 90F83E20 		ldrb	r2, [r0, #62]	@ zero_extendqisi2
 4225 000e 013A     		subs	r2, r2, #1
 4226 0010 18BF     		it	ne
 4227 0012 0122     		movne	r2, #1
 4228              	.L551:
 4229 0014 002A     		cmp	r2, #0
 4230 0016 40F08D80 		bne	.L568
 4231 001a 002B     		cmp	r3, #0
 4232 001c 53D1     		bne	.L555
 4233 001e 0222     		movs	r2, #2
 4234 0020 84F83E20 		strb	r2, [r4, #62]
ARM GAS  C:\Users\Administrator\AppData\Local\Temp\ccdDcLdm.s 			page 72


 4235              	.L556:
 4236 0024 2168     		ldr	r1, [r4]
 4237 0026 CA68     		ldr	r2, [r1, #12]
 4238 0028 42F00202 		orr	r2, r2, #2
 4239 002c CA60     		str	r2, [r1, #12]
 4240              	.L563:
 4241 002e 0122     		movs	r2, #1
 4242 0030 1946     		mov	r1, r3
 4243 0032 2068     		ldr	r0, [r4]
 4244 0034 FFF7FEFF 		bl	TIM_CCxChannelCmd
 4245 0038 2368     		ldr	r3, [r4]
 4246 003a 404A     		ldr	r2, .L576
 4247 003c 9342     		cmp	r3, r2
 4248 003e 03D0     		beq	.L564
 4249 0040 02F58062 		add	r2, r2, #1024
 4250 0044 9342     		cmp	r3, r2
 4251 0046 03D1     		bne	.L565
 4252              	.L564:
 4253 0048 5A6C     		ldr	r2, [r3, #68]
 4254 004a 42F40042 		orr	r2, r2, #32768
 4255 004e 5A64     		str	r2, [r3, #68]
 4256              	.L565:
 4257 0050 2368     		ldr	r3, [r4]
 4258 0052 3A4A     		ldr	r2, .L576
 4259 0054 9342     		cmp	r3, r2
 4260 0056 62D0     		beq	.L566
 4261 0058 B3F1804F 		cmp	r3, #1073741824
 4262 005c 5FD0     		beq	.L566
 4263 005e A2F57C42 		sub	r2, r2, #64512
 4264 0062 9342     		cmp	r3, r2
 4265 0064 5BD0     		beq	.L566
 4266 0066 02F58062 		add	r2, r2, #1024
 4267 006a 9342     		cmp	r3, r2
 4268 006c 57D0     		beq	.L566
 4269 006e 02F58062 		add	r2, r2, #1024
 4270 0072 9342     		cmp	r3, r2
 4271 0074 53D0     		beq	.L566
 4272 0076 02F57842 		add	r2, r2, #63488
 4273 007a 9342     		cmp	r3, r2
 4274 007c 4FD0     		beq	.L566
 4275 007e 02F57052 		add	r2, r2, #15360
 4276 0082 9342     		cmp	r3, r2
 4277 0084 4BD0     		beq	.L566
 4278 0086 A2F59432 		sub	r2, r2, #75776
 4279 008a 9342     		cmp	r3, r2
 4280 008c 47D0     		beq	.L566
 4281 008e 1A68     		ldr	r2, [r3]
 4282 0090 42F00102 		orr	r2, r2, #1
 4283 0094 1A60     		str	r2, [r3]
 4284 0096 0020     		movs	r0, #0
 4285 0098 4BE0     		b	.L554
 4286              	.L550:
 4287 009a 0429     		cmp	r1, #4
 4288 009c 07D0     		beq	.L571
 4289 009e 0829     		cmp	r1, #8
 4290 00a0 0BD0     		beq	.L572
 4291 00a2 90F84120 		ldrb	r2, [r0, #65]	@ zero_extendqisi2
ARM GAS  C:\Users\Administrator\AppData\Local\Temp\ccdDcLdm.s 			page 73


 4292 00a6 013A     		subs	r2, r2, #1
 4293 00a8 18BF     		it	ne
 4294 00aa 0122     		movne	r2, #1
 4295 00ac B2E7     		b	.L551
 4296              	.L571:
 4297 00ae 90F83F20 		ldrb	r2, [r0, #63]	@ zero_extendqisi2
 4298 00b2 013A     		subs	r2, r2, #1
 4299 00b4 18BF     		it	ne
 4300 00b6 0122     		movne	r2, #1
 4301 00b8 ACE7     		b	.L551
 4302              	.L572:
 4303 00ba 90F84020 		ldrb	r2, [r0, #64]	@ zero_extendqisi2
 4304 00be 013A     		subs	r2, r2, #1
 4305 00c0 18BF     		it	ne
 4306 00c2 0122     		movne	r2, #1
 4307 00c4 A6E7     		b	.L551
 4308              	.L555:
 4309 00c6 042B     		cmp	r3, #4
 4310 00c8 0DD0     		beq	.L573
 4311 00ca 082B     		cmp	r3, #8
 4312 00cc 14D0     		beq	.L574
 4313 00ce 0222     		movs	r2, #2
 4314 00d0 84F84120 		strb	r2, [r4, #65]
 4315 00d4 082B     		cmp	r3, #8
 4316 00d6 12D0     		beq	.L560
 4317 00d8 17D8     		bhi	.L561
 4318 00da 002B     		cmp	r3, #0
 4319 00dc A2D0     		beq	.L556
 4320 00de 042B     		cmp	r3, #4
 4321 00e0 04D0     		beq	.L558
 4322 00e2 0120     		movs	r0, #1
 4323 00e4 25E0     		b	.L554
 4324              	.L573:
 4325 00e6 0222     		movs	r2, #2
 4326 00e8 84F83F20 		strb	r2, [r4, #63]
 4327              	.L558:
 4328 00ec 2168     		ldr	r1, [r4]
 4329 00ee CA68     		ldr	r2, [r1, #12]
 4330 00f0 42F00402 		orr	r2, r2, #4
 4331 00f4 CA60     		str	r2, [r1, #12]
 4332 00f6 9AE7     		b	.L563
 4333              	.L574:
 4334 00f8 0222     		movs	r2, #2
 4335 00fa 84F84020 		strb	r2, [r4, #64]
 4336              	.L560:
 4337 00fe 2168     		ldr	r1, [r4]
 4338 0100 CA68     		ldr	r2, [r1, #12]
 4339 0102 42F00802 		orr	r2, r2, #8
 4340 0106 CA60     		str	r2, [r1, #12]
 4341 0108 91E7     		b	.L563
 4342              	.L561:
 4343 010a 0C2B     		cmp	r3, #12
 4344 010c 05D1     		bne	.L575
 4345 010e 2168     		ldr	r1, [r4]
 4346 0110 CA68     		ldr	r2, [r1, #12]
 4347 0112 42F01002 		orr	r2, r2, #16
 4348 0116 CA60     		str	r2, [r1, #12]
ARM GAS  C:\Users\Administrator\AppData\Local\Temp\ccdDcLdm.s 			page 74


 4349 0118 89E7     		b	.L563
 4350              	.L575:
 4351 011a 0120     		movs	r0, #1
 4352 011c 09E0     		b	.L554
 4353              	.L566:
 4354 011e 9A68     		ldr	r2, [r3, #8]
 4355 0120 02F00702 		and	r2, r2, #7
 4356 0124 062A     		cmp	r2, #6
 4357 0126 07D0     		beq	.L569
 4358 0128 1A68     		ldr	r2, [r3]
 4359 012a 42F00102 		orr	r2, r2, #1
 4360 012e 1A60     		str	r2, [r3]
 4361 0130 0020     		movs	r0, #0
 4362              	.L554:
 4363 0132 10BD     		pop	{r4, pc}
 4364              	.L568:
 4365 0134 0120     		movs	r0, #1
 4366 0136 FCE7     		b	.L554
 4367              	.L569:
 4368 0138 0020     		movs	r0, #0
 4369 013a FAE7     		b	.L554
 4370              	.L577:
 4371              		.align	2
 4372              	.L576:
 4373 013c 00000140 		.word	1073807360
 4375              		.section	.text.HAL_TIM_OC_Stop_IT,"ax",%progbits
 4376              		.align	1
 4377              		.global	HAL_TIM_OC_Stop_IT
 4378              		.syntax unified
 4379              		.thumb
 4380              		.thumb_func
 4382              	HAL_TIM_OC_Stop_IT:
 4383              		@ args = 0, pretend = 0, frame = 0
 4384              		@ frame_needed = 0, uses_anonymous_args = 0
 4385 0000 38B5     		push	{r3, r4, r5, lr}
 4386 0002 0546     		mov	r5, r0
 4387 0004 0C46     		mov	r4, r1
 4388 0006 0829     		cmp	r1, #8
 4389 0008 3CD0     		beq	.L579
 4390 000a 0AD8     		bhi	.L580
 4391 000c 99B1     		cbz	r1, .L581
 4392 000e 0429     		cmp	r1, #4
 4393 0010 05D1     		bne	.L593
 4394 0012 0268     		ldr	r2, [r0]
 4395 0014 D368     		ldr	r3, [r2, #12]
 4396 0016 23F00403 		bic	r3, r3, #4
 4397 001a D360     		str	r3, [r2, #12]
 4398 001c 10E0     		b	.L585
 4399              	.L593:
 4400 001e 0120     		movs	r0, #1
 4401 0020 2FE0     		b	.L583
 4402              	.L580:
 4403 0022 0C29     		cmp	r1, #12
 4404 0024 05D1     		bne	.L594
 4405 0026 0268     		ldr	r2, [r0]
 4406 0028 D368     		ldr	r3, [r2, #12]
 4407 002a 23F01003 		bic	r3, r3, #16
ARM GAS  C:\Users\Administrator\AppData\Local\Temp\ccdDcLdm.s 			page 75


 4408 002e D360     		str	r3, [r2, #12]
 4409 0030 06E0     		b	.L585
 4410              	.L594:
 4411 0032 0120     		movs	r0, #1
 4412 0034 25E0     		b	.L583
 4413              	.L581:
 4414 0036 0268     		ldr	r2, [r0]
 4415 0038 D368     		ldr	r3, [r2, #12]
 4416 003a 23F00203 		bic	r3, r3, #2
 4417 003e D360     		str	r3, [r2, #12]
 4418              	.L585:
 4419 0040 0022     		movs	r2, #0
 4420 0042 2146     		mov	r1, r4
 4421 0044 2868     		ldr	r0, [r5]
 4422 0046 FFF7FEFF 		bl	TIM_CCxChannelCmd
 4423 004a 2B68     		ldr	r3, [r5]
 4424 004c 214A     		ldr	r2, .L597
 4425 004e 9342     		cmp	r3, r2
 4426 0050 1ED0     		beq	.L586
 4427 0052 02F58062 		add	r2, r2, #1024
 4428 0056 9342     		cmp	r3, r2
 4429 0058 1AD0     		beq	.L586
 4430              	.L587:
 4431 005a 2B68     		ldr	r3, [r5]
 4432 005c 196A     		ldr	r1, [r3, #32]
 4433 005e 41F21112 		movw	r2, #4369
 4434 0062 1142     		tst	r1, r2
 4435 0064 08D1     		bne	.L588
 4436 0066 196A     		ldr	r1, [r3, #32]
 4437 0068 40F24442 		movw	r2, #1092
 4438 006c 1142     		tst	r1, r2
 4439 006e 03D1     		bne	.L588
 4440 0070 1A68     		ldr	r2, [r3]
 4441 0072 22F00102 		bic	r2, r2, #1
 4442 0076 1A60     		str	r2, [r3]
 4443              	.L588:
 4444 0078 CCB9     		cbnz	r4, .L589
 4445 007a 0123     		movs	r3, #1
 4446 007c 85F83E30 		strb	r3, [r5, #62]
 4447 0080 2046     		mov	r0, r4
 4448              	.L583:
 4449 0082 38BD     		pop	{r3, r4, r5, pc}
 4450              	.L579:
 4451 0084 0268     		ldr	r2, [r0]
 4452 0086 D368     		ldr	r3, [r2, #12]
 4453 0088 23F00803 		bic	r3, r3, #8
 4454 008c D360     		str	r3, [r2, #12]
 4455 008e D7E7     		b	.L585
 4456              	.L586:
 4457 0090 196A     		ldr	r1, [r3, #32]
 4458 0092 41F21112 		movw	r2, #4369
 4459 0096 1142     		tst	r1, r2
 4460 0098 DFD1     		bne	.L587
 4461 009a 196A     		ldr	r1, [r3, #32]
 4462 009c 40F24442 		movw	r2, #1092
 4463 00a0 1142     		tst	r1, r2
 4464 00a2 DAD1     		bne	.L587
ARM GAS  C:\Users\Administrator\AppData\Local\Temp\ccdDcLdm.s 			page 76


 4465 00a4 5A6C     		ldr	r2, [r3, #68]
 4466 00a6 22F40042 		bic	r2, r2, #32768
 4467 00aa 5A64     		str	r2, [r3, #68]
 4468 00ac D5E7     		b	.L587
 4469              	.L589:
 4470 00ae 042C     		cmp	r4, #4
 4471 00b0 06D0     		beq	.L595
 4472 00b2 082C     		cmp	r4, #8
 4473 00b4 09D0     		beq	.L596
 4474 00b6 0123     		movs	r3, #1
 4475 00b8 85F84130 		strb	r3, [r5, #65]
 4476 00bc 0020     		movs	r0, #0
 4477 00be E0E7     		b	.L583
 4478              	.L595:
 4479 00c0 0123     		movs	r3, #1
 4480 00c2 85F83F30 		strb	r3, [r5, #63]
 4481 00c6 0020     		movs	r0, #0
 4482 00c8 DBE7     		b	.L583
 4483              	.L596:
 4484 00ca 0123     		movs	r3, #1
 4485 00cc 85F84030 		strb	r3, [r5, #64]
 4486 00d0 0020     		movs	r0, #0
 4487 00d2 D6E7     		b	.L583
 4488              	.L598:
 4489              		.align	2
 4490              	.L597:
 4491 00d4 00000140 		.word	1073807360
 4493              		.section	.text.HAL_TIM_OC_Start_DMA,"ax",%progbits
 4494              		.align	1
 4495              		.global	HAL_TIM_OC_Start_DMA
 4496              		.syntax unified
 4497              		.thumb
 4498              		.thumb_func
 4500              	HAL_TIM_OC_Start_DMA:
 4501              		@ args = 0, pretend = 0, frame = 0
 4502              		@ frame_needed = 0, uses_anonymous_args = 0
 4503 0000 38B5     		push	{r3, r4, r5, lr}
 4504 0002 0446     		mov	r4, r0
 4505 0004 9446     		mov	ip, r2
 4506 0006 0D46     		mov	r5, r1
 4507 0008 0029     		cmp	r1, #0
 4508 000a 73D1     		bne	.L600
 4509 000c 90F83E00 		ldrb	r0, [r0, #62]	@ zero_extendqisi2
 4510 0010 0228     		cmp	r0, #2
 4511 0012 14BF     		ite	ne
 4512 0014 0020     		movne	r0, #0
 4513 0016 0120     		moveq	r0, #1
 4514              	.L601:
 4515 0018 0028     		cmp	r0, #0
 4516 001a 40F00C81 		bne	.L623
 4517 001e 002D     		cmp	r5, #0
 4518 0020 40F08180 		bne	.L605
 4519 0024 94F83E20 		ldrb	r2, [r4, #62]	@ zero_extendqisi2
 4520 0028 012A     		cmp	r2, #1
 4521 002a 14BF     		ite	ne
 4522 002c 0022     		movne	r2, #0
 4523 002e 0122     		moveq	r2, #1
ARM GAS  C:\Users\Administrator\AppData\Local\Temp\ccdDcLdm.s 			page 77


 4524              	.L606:
 4525 0030 002A     		cmp	r2, #0
 4526 0032 00F00281 		beq	.L624
 4527 0036 BCF1000F 		cmp	ip, #0
 4528 003a 00F08D80 		beq	.L632
 4529              	.L609:
 4530 003e 002D     		cmp	r5, #0
 4531 0040 40F08F80 		bne	.L610
 4532 0044 0222     		movs	r2, #2
 4533 0046 84F83E20 		strb	r2, [r4, #62]
 4534              	.L611:
 4535 004a 626A     		ldr	r2, [r4, #36]
 4536 004c 8149     		ldr	r1, .L640
 4537 004e D163     		str	r1, [r2, #60]
 4538 0050 626A     		ldr	r2, [r4, #36]
 4539 0052 8149     		ldr	r1, .L640+4
 4540 0054 1164     		str	r1, [r2, #64]
 4541 0056 626A     		ldr	r2, [r4, #36]
 4542 0058 8049     		ldr	r1, .L640+8
 4543 005a D164     		str	r1, [r2, #76]
 4544 005c 2268     		ldr	r2, [r4]
 4545 005e 3432     		adds	r2, r2, #52
 4546 0060 6146     		mov	r1, ip
 4547 0062 606A     		ldr	r0, [r4, #36]
 4548 0064 FFF7FEFF 		bl	HAL_DMA_Start_IT
 4549 0068 0028     		cmp	r0, #0
 4550 006a 40F0E880 		bne	.L626
 4551 006e 2268     		ldr	r2, [r4]
 4552 0070 D368     		ldr	r3, [r2, #12]
 4553 0072 43F40073 		orr	r3, r3, #512
 4554 0076 D360     		str	r3, [r2, #12]
 4555              	.L618:
 4556 0078 0122     		movs	r2, #1
 4557 007a 2946     		mov	r1, r5
 4558 007c 2068     		ldr	r0, [r4]
 4559 007e FFF7FEFF 		bl	TIM_CCxChannelCmd
 4560 0082 2368     		ldr	r3, [r4]
 4561 0084 764A     		ldr	r2, .L640+12
 4562 0086 9342     		cmp	r3, r2
 4563 0088 03D0     		beq	.L619
 4564 008a 02F58062 		add	r2, r2, #1024
 4565 008e 9342     		cmp	r3, r2
 4566 0090 03D1     		bne	.L620
 4567              	.L619:
 4568 0092 5A6C     		ldr	r2, [r3, #68]
 4569 0094 42F40042 		orr	r2, r2, #32768
 4570 0098 5A64     		str	r2, [r3, #68]
 4571              	.L620:
 4572 009a 2368     		ldr	r3, [r4]
 4573 009c 704A     		ldr	r2, .L640+12
 4574 009e 9342     		cmp	r3, r2
 4575 00a0 00F0BE80 		beq	.L621
 4576 00a4 B3F1804F 		cmp	r3, #1073741824
 4577 00a8 00F0BA80 		beq	.L621
 4578 00ac A2F57C42 		sub	r2, r2, #64512
 4579 00b0 9342     		cmp	r3, r2
 4580 00b2 00F0B580 		beq	.L621
ARM GAS  C:\Users\Administrator\AppData\Local\Temp\ccdDcLdm.s 			page 78


 4581 00b6 02F58062 		add	r2, r2, #1024
 4582 00ba 9342     		cmp	r3, r2
 4583 00bc 00F0B080 		beq	.L621
 4584 00c0 02F58062 		add	r2, r2, #1024
 4585 00c4 9342     		cmp	r3, r2
 4586 00c6 00F0AB80 		beq	.L621
 4587 00ca 02F57842 		add	r2, r2, #63488
 4588 00ce 9342     		cmp	r3, r2
 4589 00d0 00F0A680 		beq	.L621
 4590 00d4 02F57052 		add	r2, r2, #15360
 4591 00d8 9342     		cmp	r3, r2
 4592 00da 00F0A180 		beq	.L621
 4593 00de A2F59432 		sub	r2, r2, #75776
 4594 00e2 9342     		cmp	r3, r2
 4595 00e4 00F09C80 		beq	.L621
 4596 00e8 1A68     		ldr	r2, [r3]
 4597 00ea 42F00102 		orr	r2, r2, #1
 4598 00ee 1A60     		str	r2, [r3]
 4599 00f0 0020     		movs	r0, #0
 4600 00f2 A3E0     		b	.L604
 4601              	.L600:
 4602 00f4 0429     		cmp	r1, #4
 4603 00f6 08D0     		beq	.L633
 4604 00f8 0829     		cmp	r1, #8
 4605 00fa 0DD0     		beq	.L634
 4606 00fc 90F84100 		ldrb	r0, [r0, #65]	@ zero_extendqisi2
 4607 0100 0228     		cmp	r0, #2
 4608 0102 14BF     		ite	ne
 4609 0104 0020     		movne	r0, #0
 4610 0106 0120     		moveq	r0, #1
 4611 0108 86E7     		b	.L601
 4612              	.L633:
 4613 010a 90F83F00 		ldrb	r0, [r0, #63]	@ zero_extendqisi2
 4614 010e 0228     		cmp	r0, #2
 4615 0110 14BF     		ite	ne
 4616 0112 0020     		movne	r0, #0
 4617 0114 0120     		moveq	r0, #1
 4618 0116 7FE7     		b	.L601
 4619              	.L634:
 4620 0118 90F84000 		ldrb	r0, [r0, #64]	@ zero_extendqisi2
 4621 011c 0228     		cmp	r0, #2
 4622 011e 14BF     		ite	ne
 4623 0120 0020     		movne	r0, #0
 4624 0122 0120     		moveq	r0, #1
 4625 0124 78E7     		b	.L601
 4626              	.L605:
 4627 0126 042D     		cmp	r5, #4
 4628 0128 08D0     		beq	.L635
 4629 012a 082D     		cmp	r5, #8
 4630 012c 0DD0     		beq	.L636
 4631 012e 94F84120 		ldrb	r2, [r4, #65]	@ zero_extendqisi2
 4632 0132 012A     		cmp	r2, #1
 4633 0134 14BF     		ite	ne
 4634 0136 0022     		movne	r2, #0
 4635 0138 0122     		moveq	r2, #1
 4636 013a 79E7     		b	.L606
 4637              	.L635:
ARM GAS  C:\Users\Administrator\AppData\Local\Temp\ccdDcLdm.s 			page 79


 4638 013c 94F83F20 		ldrb	r2, [r4, #63]	@ zero_extendqisi2
 4639 0140 012A     		cmp	r2, #1
 4640 0142 14BF     		ite	ne
 4641 0144 0022     		movne	r2, #0
 4642 0146 0122     		moveq	r2, #1
 4643 0148 72E7     		b	.L606
 4644              	.L636:
 4645 014a 94F84020 		ldrb	r2, [r4, #64]	@ zero_extendqisi2
 4646 014e 012A     		cmp	r2, #1
 4647 0150 14BF     		ite	ne
 4648 0152 0022     		movne	r2, #0
 4649 0154 0122     		moveq	r2, #1
 4650 0156 6BE7     		b	.L606
 4651              	.L632:
 4652 0158 002B     		cmp	r3, #0
 4653 015a 3FF470AF 		beq	.L609
 4654 015e 0120     		movs	r0, #1
 4655 0160 6CE0     		b	.L604
 4656              	.L610:
 4657 0162 042D     		cmp	r5, #4
 4658 0164 0ED0     		beq	.L637
 4659 0166 082D     		cmp	r5, #8
 4660 0168 26D0     		beq	.L638
 4661 016a 0222     		movs	r2, #2
 4662 016c 84F84120 		strb	r2, [r4, #65]
 4663 0170 082D     		cmp	r5, #8
 4664 0172 24D0     		beq	.L615
 4665 0174 3AD8     		bhi	.L616
 4666 0176 002D     		cmp	r5, #0
 4667 0178 3FF467AF 		beq	.L611
 4668 017c 042D     		cmp	r5, #4
 4669 017e 04D0     		beq	.L613
 4670 0180 0120     		movs	r0, #1
 4671 0182 5BE0     		b	.L604
 4672              	.L637:
 4673 0184 0222     		movs	r2, #2
 4674 0186 84F83F20 		strb	r2, [r4, #63]
 4675              	.L613:
 4676 018a A26A     		ldr	r2, [r4, #40]
 4677 018c 3149     		ldr	r1, .L640
 4678 018e D163     		str	r1, [r2, #60]
 4679 0190 A26A     		ldr	r2, [r4, #40]
 4680 0192 3149     		ldr	r1, .L640+4
 4681 0194 1164     		str	r1, [r2, #64]
 4682 0196 A26A     		ldr	r2, [r4, #40]
 4683 0198 3049     		ldr	r1, .L640+8
 4684 019a D164     		str	r1, [r2, #76]
 4685 019c 2268     		ldr	r2, [r4]
 4686 019e 3832     		adds	r2, r2, #56
 4687 01a0 6146     		mov	r1, ip
 4688 01a2 A06A     		ldr	r0, [r4, #40]
 4689 01a4 FFF7FEFF 		bl	HAL_DMA_Start_IT
 4690 01a8 0028     		cmp	r0, #0
 4691 01aa 4AD1     		bne	.L627
 4692 01ac 2268     		ldr	r2, [r4]
 4693 01ae D368     		ldr	r3, [r2, #12]
 4694 01b0 43F48063 		orr	r3, r3, #1024
ARM GAS  C:\Users\Administrator\AppData\Local\Temp\ccdDcLdm.s 			page 80


 4695 01b4 D360     		str	r3, [r2, #12]
 4696 01b6 5FE7     		b	.L618
 4697              	.L638:
 4698 01b8 0222     		movs	r2, #2
 4699 01ba 84F84020 		strb	r2, [r4, #64]
 4700              	.L615:
 4701 01be E26A     		ldr	r2, [r4, #44]
 4702 01c0 2449     		ldr	r1, .L640
 4703 01c2 D163     		str	r1, [r2, #60]
 4704 01c4 E26A     		ldr	r2, [r4, #44]
 4705 01c6 2449     		ldr	r1, .L640+4
 4706 01c8 1164     		str	r1, [r2, #64]
 4707 01ca E26A     		ldr	r2, [r4, #44]
 4708 01cc 2349     		ldr	r1, .L640+8
 4709 01ce D164     		str	r1, [r2, #76]
 4710 01d0 2268     		ldr	r2, [r4]
 4711 01d2 3C32     		adds	r2, r2, #60
 4712 01d4 6146     		mov	r1, ip
 4713 01d6 E06A     		ldr	r0, [r4, #44]
 4714 01d8 FFF7FEFF 		bl	HAL_DMA_Start_IT
 4715 01dc 0028     		cmp	r0, #0
 4716 01de 32D1     		bne	.L628
 4717 01e0 2268     		ldr	r2, [r4]
 4718 01e2 D368     		ldr	r3, [r2, #12]
 4719 01e4 43F40063 		orr	r3, r3, #2048
 4720 01e8 D360     		str	r3, [r2, #12]
 4721 01ea 45E7     		b	.L618
 4722              	.L616:
 4723 01ec 0C2D     		cmp	r5, #12
 4724 01ee 15D1     		bne	.L639
 4725 01f0 226B     		ldr	r2, [r4, #48]
 4726 01f2 1849     		ldr	r1, .L640
 4727 01f4 D163     		str	r1, [r2, #60]
 4728 01f6 226B     		ldr	r2, [r4, #48]
 4729 01f8 1749     		ldr	r1, .L640+4
 4730 01fa 1164     		str	r1, [r2, #64]
 4731 01fc 226B     		ldr	r2, [r4, #48]
 4732 01fe 1749     		ldr	r1, .L640+8
 4733 0200 D164     		str	r1, [r2, #76]
 4734 0202 2268     		ldr	r2, [r4]
 4735 0204 4032     		adds	r2, r2, #64
 4736 0206 6146     		mov	r1, ip
 4737 0208 206B     		ldr	r0, [r4, #48]
 4738 020a FFF7FEFF 		bl	HAL_DMA_Start_IT
 4739 020e E0B9     		cbnz	r0, .L629
 4740 0210 2268     		ldr	r2, [r4]
 4741 0212 D368     		ldr	r3, [r2, #12]
 4742 0214 43F48053 		orr	r3, r3, #4096
 4743 0218 D360     		str	r3, [r2, #12]
 4744 021a 2DE7     		b	.L618
 4745              	.L639:
 4746 021c 0120     		movs	r0, #1
 4747 021e 0DE0     		b	.L604
 4748              	.L621:
 4749 0220 9A68     		ldr	r2, [r3, #8]
 4750 0222 02F00702 		and	r2, r2, #7
 4751 0226 062A     		cmp	r2, #6
ARM GAS  C:\Users\Administrator\AppData\Local\Temp\ccdDcLdm.s 			page 81


 4752 0228 11D0     		beq	.L630
 4753 022a 1A68     		ldr	r2, [r3]
 4754 022c 42F00102 		orr	r2, r2, #1
 4755 0230 1A60     		str	r2, [r3]
 4756 0232 0020     		movs	r0, #0
 4757 0234 02E0     		b	.L604
 4758              	.L623:
 4759 0236 0220     		movs	r0, #2
 4760 0238 00E0     		b	.L604
 4761              	.L624:
 4762 023a 0120     		movs	r0, #1
 4763              	.L604:
 4764 023c 38BD     		pop	{r3, r4, r5, pc}
 4765              	.L626:
 4766 023e 0120     		movs	r0, #1
 4767 0240 FCE7     		b	.L604
 4768              	.L627:
 4769 0242 0120     		movs	r0, #1
 4770 0244 FAE7     		b	.L604
 4771              	.L628:
 4772 0246 0120     		movs	r0, #1
 4773 0248 F8E7     		b	.L604
 4774              	.L629:
 4775 024a 0120     		movs	r0, #1
 4776 024c F6E7     		b	.L604
 4777              	.L630:
 4778 024e 0020     		movs	r0, #0
 4779 0250 F4E7     		b	.L604
 4780              	.L641:
 4781 0252 00BF     		.align	2
 4782              	.L640:
 4783 0254 00000000 		.word	TIM_DMADelayPulseCplt
 4784 0258 00000000 		.word	TIM_DMADelayPulseHalfCplt
 4785 025c 00000000 		.word	TIM_DMAError
 4786 0260 00000140 		.word	1073807360
 4788              		.section	.text.HAL_TIM_OC_Stop_DMA,"ax",%progbits
 4789              		.align	1
 4790              		.global	HAL_TIM_OC_Stop_DMA
 4791              		.syntax unified
 4792              		.thumb
 4793              		.thumb_func
 4795              	HAL_TIM_OC_Stop_DMA:
 4796              		@ args = 0, pretend = 0, frame = 0
 4797              		@ frame_needed = 0, uses_anonymous_args = 0
 4798 0000 38B5     		push	{r3, r4, r5, lr}
 4799 0002 0546     		mov	r5, r0
 4800 0004 0C46     		mov	r4, r1
 4801 0006 0829     		cmp	r1, #8
 4802 0008 45D0     		beq	.L643
 4803 000a 0DD8     		bhi	.L644
 4804 000c C9B1     		cbz	r1, .L645
 4805 000e 0429     		cmp	r1, #4
 4806 0010 08D1     		bne	.L657
 4807 0012 0268     		ldr	r2, [r0]
 4808 0014 D368     		ldr	r3, [r2, #12]
 4809 0016 23F48063 		bic	r3, r3, #1024
 4810 001a D360     		str	r3, [r2, #12]
ARM GAS  C:\Users\Administrator\AppData\Local\Temp\ccdDcLdm.s 			page 82


 4811 001c 806A     		ldr	r0, [r0, #40]
 4812 001e FFF7FEFF 		bl	HAL_DMA_Abort_IT
 4813 0022 16E0     		b	.L649
 4814              	.L657:
 4815 0024 0120     		movs	r0, #1
 4816 0026 35E0     		b	.L647
 4817              	.L644:
 4818 0028 0C29     		cmp	r1, #12
 4819 002a 08D1     		bne	.L658
 4820 002c 0268     		ldr	r2, [r0]
 4821 002e D368     		ldr	r3, [r2, #12]
 4822 0030 23F48053 		bic	r3, r3, #4096
 4823 0034 D360     		str	r3, [r2, #12]
 4824 0036 006B     		ldr	r0, [r0, #48]
 4825 0038 FFF7FEFF 		bl	HAL_DMA_Abort_IT
 4826 003c 09E0     		b	.L649
 4827              	.L658:
 4828 003e 0120     		movs	r0, #1
 4829 0040 28E0     		b	.L647
 4830              	.L645:
 4831 0042 0268     		ldr	r2, [r0]
 4832 0044 D368     		ldr	r3, [r2, #12]
 4833 0046 23F40073 		bic	r3, r3, #512
 4834 004a D360     		str	r3, [r2, #12]
 4835 004c 406A     		ldr	r0, [r0, #36]
 4836 004e FFF7FEFF 		bl	HAL_DMA_Abort_IT
 4837              	.L649:
 4838 0052 0022     		movs	r2, #0
 4839 0054 2146     		mov	r1, r4
 4840 0056 2868     		ldr	r0, [r5]
 4841 0058 FFF7FEFF 		bl	TIM_CCxChannelCmd
 4842 005c 2B68     		ldr	r3, [r5]
 4843 005e 234A     		ldr	r2, .L661
 4844 0060 9342     		cmp	r3, r2
 4845 0062 21D0     		beq	.L650
 4846 0064 02F58062 		add	r2, r2, #1024
 4847 0068 9342     		cmp	r3, r2
 4848 006a 1DD0     		beq	.L650
 4849              	.L651:
 4850 006c 2B68     		ldr	r3, [r5]
 4851 006e 196A     		ldr	r1, [r3, #32]
 4852 0070 41F21112 		movw	r2, #4369
 4853 0074 1142     		tst	r1, r2
 4854 0076 08D1     		bne	.L652
 4855 0078 196A     		ldr	r1, [r3, #32]
 4856 007a 40F24442 		movw	r2, #1092
 4857 007e 1142     		tst	r1, r2
 4858 0080 03D1     		bne	.L652
 4859 0082 1A68     		ldr	r2, [r3]
 4860 0084 22F00102 		bic	r2, r2, #1
 4861 0088 1A60     		str	r2, [r3]
 4862              	.L652:
 4863 008a E4B9     		cbnz	r4, .L653
 4864 008c 0123     		movs	r3, #1
 4865 008e 85F83E30 		strb	r3, [r5, #62]
 4866 0092 2046     		mov	r0, r4
 4867              	.L647:
ARM GAS  C:\Users\Administrator\AppData\Local\Temp\ccdDcLdm.s 			page 83


 4868 0094 38BD     		pop	{r3, r4, r5, pc}
 4869              	.L643:
 4870 0096 0268     		ldr	r2, [r0]
 4871 0098 D368     		ldr	r3, [r2, #12]
 4872 009a 23F40063 		bic	r3, r3, #2048
 4873 009e D360     		str	r3, [r2, #12]
 4874 00a0 C06A     		ldr	r0, [r0, #44]
 4875 00a2 FFF7FEFF 		bl	HAL_DMA_Abort_IT
 4876 00a6 D4E7     		b	.L649
 4877              	.L650:
 4878 00a8 196A     		ldr	r1, [r3, #32]
 4879 00aa 41F21112 		movw	r2, #4369
 4880 00ae 1142     		tst	r1, r2
 4881 00b0 DCD1     		bne	.L651
 4882 00b2 196A     		ldr	r1, [r3, #32]
 4883 00b4 40F24442 		movw	r2, #1092
 4884 00b8 1142     		tst	r1, r2
 4885 00ba D7D1     		bne	.L651
 4886 00bc 5A6C     		ldr	r2, [r3, #68]
 4887 00be 22F40042 		bic	r2, r2, #32768
 4888 00c2 5A64     		str	r2, [r3, #68]
 4889 00c4 D2E7     		b	.L651
 4890              	.L653:
 4891 00c6 042C     		cmp	r4, #4
 4892 00c8 06D0     		beq	.L659
 4893 00ca 082C     		cmp	r4, #8
 4894 00cc 09D0     		beq	.L660
 4895 00ce 0123     		movs	r3, #1
 4896 00d0 85F84130 		strb	r3, [r5, #65]
 4897 00d4 0020     		movs	r0, #0
 4898 00d6 DDE7     		b	.L647
 4899              	.L659:
 4900 00d8 0123     		movs	r3, #1
 4901 00da 85F83F30 		strb	r3, [r5, #63]
 4902 00de 0020     		movs	r0, #0
 4903 00e0 D8E7     		b	.L647
 4904              	.L660:
 4905 00e2 0123     		movs	r3, #1
 4906 00e4 85F84030 		strb	r3, [r5, #64]
 4907 00e8 0020     		movs	r0, #0
 4908 00ea D3E7     		b	.L647
 4909              	.L662:
 4910              		.align	2
 4911              	.L661:
 4912 00ec 00000140 		.word	1073807360
 4914              		.section	.text.HAL_TIM_PWM_Start,"ax",%progbits
 4915              		.align	1
 4916              		.global	HAL_TIM_PWM_Start
 4917              		.syntax unified
 4918              		.thumb
 4919              		.thumb_func
 4921              	HAL_TIM_PWM_Start:
 4922              		@ args = 0, pretend = 0, frame = 0
 4923              		@ frame_needed = 0, uses_anonymous_args = 0
 4924 0000 10B5     		push	{r4, lr}
 4925 0002 0446     		mov	r4, r0
 4926 0004 0846     		mov	r0, r1
ARM GAS  C:\Users\Administrator\AppData\Local\Temp\ccdDcLdm.s 			page 84


 4927 0006 0029     		cmp	r1, #0
 4928 0008 41D1     		bne	.L664
 4929 000a 94F83E30 		ldrb	r3, [r4, #62]	@ zero_extendqisi2
 4930 000e 013B     		subs	r3, r3, #1
 4931 0010 18BF     		it	ne
 4932 0012 0123     		movne	r3, #1
 4933              	.L665:
 4934 0014 002B     		cmp	r3, #0
 4935 0016 6BD1     		bne	.L677
 4936 0018 0028     		cmp	r0, #0
 4937 001a 4ED1     		bne	.L669
 4938 001c 0223     		movs	r3, #2
 4939 001e 84F83E30 		strb	r3, [r4, #62]
 4940              	.L670:
 4941 0022 0122     		movs	r2, #1
 4942 0024 0146     		mov	r1, r0
 4943 0026 2068     		ldr	r0, [r4]
 4944 0028 FFF7FEFF 		bl	TIM_CCxChannelCmd
 4945 002c 2368     		ldr	r3, [r4]
 4946 002e 324A     		ldr	r2, .L684
 4947 0030 9342     		cmp	r3, r2
 4948 0032 03D0     		beq	.L673
 4949 0034 02F58062 		add	r2, r2, #1024
 4950 0038 9342     		cmp	r3, r2
 4951 003a 03D1     		bne	.L674
 4952              	.L673:
 4953 003c 5A6C     		ldr	r2, [r3, #68]
 4954 003e 42F40042 		orr	r2, r2, #32768
 4955 0042 5A64     		str	r2, [r3, #68]
 4956              	.L674:
 4957 0044 2368     		ldr	r3, [r4]
 4958 0046 2C4A     		ldr	r2, .L684
 4959 0048 9342     		cmp	r3, r2
 4960 004a 46D0     		beq	.L675
 4961 004c B3F1804F 		cmp	r3, #1073741824
 4962 0050 43D0     		beq	.L675
 4963 0052 A2F57C42 		sub	r2, r2, #64512
 4964 0056 9342     		cmp	r3, r2
 4965 0058 3FD0     		beq	.L675
 4966 005a 02F58062 		add	r2, r2, #1024
 4967 005e 9342     		cmp	r3, r2
 4968 0060 3BD0     		beq	.L675
 4969 0062 02F58062 		add	r2, r2, #1024
 4970 0066 9342     		cmp	r3, r2
 4971 0068 37D0     		beq	.L675
 4972 006a 02F57842 		add	r2, r2, #63488
 4973 006e 9342     		cmp	r3, r2
 4974 0070 33D0     		beq	.L675
 4975 0072 02F57052 		add	r2, r2, #15360
 4976 0076 9342     		cmp	r3, r2
 4977 0078 2FD0     		beq	.L675
 4978 007a A2F59432 		sub	r2, r2, #75776
 4979 007e 9342     		cmp	r3, r2
 4980 0080 2BD0     		beq	.L675
 4981 0082 1A68     		ldr	r2, [r3]
 4982 0084 42F00102 		orr	r2, r2, #1
 4983 0088 1A60     		str	r2, [r3]
ARM GAS  C:\Users\Administrator\AppData\Local\Temp\ccdDcLdm.s 			page 85


 4984 008a 0020     		movs	r0, #0
 4985 008c 2FE0     		b	.L668
 4986              	.L664:
 4987 008e 0429     		cmp	r1, #4
 4988 0090 07D0     		beq	.L680
 4989 0092 0829     		cmp	r1, #8
 4990 0094 0BD0     		beq	.L681
 4991 0096 94F84130 		ldrb	r3, [r4, #65]	@ zero_extendqisi2
 4992 009a 013B     		subs	r3, r3, #1
 4993 009c 18BF     		it	ne
 4994 009e 0123     		movne	r3, #1
 4995 00a0 B8E7     		b	.L665
 4996              	.L680:
 4997 00a2 94F83F30 		ldrb	r3, [r4, #63]	@ zero_extendqisi2
 4998 00a6 013B     		subs	r3, r3, #1
 4999 00a8 18BF     		it	ne
 5000 00aa 0123     		movne	r3, #1
 5001 00ac B2E7     		b	.L665
 5002              	.L681:
 5003 00ae 94F84030 		ldrb	r3, [r4, #64]	@ zero_extendqisi2
 5004 00b2 013B     		subs	r3, r3, #1
 5005 00b4 18BF     		it	ne
 5006 00b6 0123     		movne	r3, #1
 5007 00b8 ACE7     		b	.L665
 5008              	.L669:
 5009 00ba 0428     		cmp	r0, #4
 5010 00bc 05D0     		beq	.L682
 5011 00be 0828     		cmp	r0, #8
 5012 00c0 07D0     		beq	.L683
 5013 00c2 0223     		movs	r3, #2
 5014 00c4 84F84130 		strb	r3, [r4, #65]
 5015 00c8 ABE7     		b	.L670
 5016              	.L682:
 5017 00ca 0223     		movs	r3, #2
 5018 00cc 84F83F30 		strb	r3, [r4, #63]
 5019 00d0 A7E7     		b	.L670
 5020              	.L683:
 5021 00d2 0223     		movs	r3, #2
 5022 00d4 84F84030 		strb	r3, [r4, #64]
 5023 00d8 A3E7     		b	.L670
 5024              	.L675:
 5025 00da 9A68     		ldr	r2, [r3, #8]
 5026 00dc 02F00702 		and	r2, r2, #7
 5027 00e0 062A     		cmp	r2, #6
 5028 00e2 07D0     		beq	.L678
 5029 00e4 1A68     		ldr	r2, [r3]
 5030 00e6 42F00102 		orr	r2, r2, #1
 5031 00ea 1A60     		str	r2, [r3]
 5032 00ec 0020     		movs	r0, #0
 5033              	.L668:
 5034 00ee 10BD     		pop	{r4, pc}
 5035              	.L677:
 5036 00f0 0120     		movs	r0, #1
 5037 00f2 FCE7     		b	.L668
 5038              	.L678:
 5039 00f4 0020     		movs	r0, #0
 5040 00f6 FAE7     		b	.L668
ARM GAS  C:\Users\Administrator\AppData\Local\Temp\ccdDcLdm.s 			page 86


 5041              	.L685:
 5042              		.align	2
 5043              	.L684:
 5044 00f8 00000140 		.word	1073807360
 5046              		.section	.text.HAL_TIM_PWM_Stop,"ax",%progbits
 5047              		.align	1
 5048              		.global	HAL_TIM_PWM_Stop
 5049              		.syntax unified
 5050              		.thumb
 5051              		.thumb_func
 5053              	HAL_TIM_PWM_Stop:
 5054              		@ args = 0, pretend = 0, frame = 0
 5055              		@ frame_needed = 0, uses_anonymous_args = 0
 5056 0000 38B5     		push	{r3, r4, r5, lr}
 5057 0002 0446     		mov	r4, r0
 5058 0004 0D46     		mov	r5, r1
 5059 0006 0022     		movs	r2, #0
 5060 0008 0068     		ldr	r0, [r0]
 5061 000a FFF7FEFF 		bl	TIM_CCxChannelCmd
 5062 000e 2368     		ldr	r3, [r4]
 5063 0010 1D4A     		ldr	r2, .L697
 5064 0012 9342     		cmp	r3, r2
 5065 0014 18D0     		beq	.L687
 5066 0016 02F58062 		add	r2, r2, #1024
 5067 001a 9342     		cmp	r3, r2
 5068 001c 14D0     		beq	.L687
 5069              	.L688:
 5070 001e 2368     		ldr	r3, [r4]
 5071 0020 196A     		ldr	r1, [r3, #32]
 5072 0022 41F21112 		movw	r2, #4369
 5073 0026 1142     		tst	r1, r2
 5074 0028 08D1     		bne	.L689
 5075 002a 196A     		ldr	r1, [r3, #32]
 5076 002c 40F24442 		movw	r2, #1092
 5077 0030 1142     		tst	r1, r2
 5078 0032 03D1     		bne	.L689
 5079 0034 1A68     		ldr	r2, [r3]
 5080 0036 22F00102 		bic	r2, r2, #1
 5081 003a 1A60     		str	r2, [r3]
 5082              	.L689:
 5083 003c 9DB9     		cbnz	r5, .L690
 5084 003e 0123     		movs	r3, #1
 5085 0040 84F83E30 		strb	r3, [r4, #62]
 5086              	.L691:
 5087 0044 0020     		movs	r0, #0
 5088 0046 38BD     		pop	{r3, r4, r5, pc}
 5089              	.L687:
 5090 0048 196A     		ldr	r1, [r3, #32]
 5091 004a 41F21112 		movw	r2, #4369
 5092 004e 1142     		tst	r1, r2
 5093 0050 E5D1     		bne	.L688
 5094 0052 196A     		ldr	r1, [r3, #32]
 5095 0054 40F24442 		movw	r2, #1092
 5096 0058 1142     		tst	r1, r2
 5097 005a E0D1     		bne	.L688
 5098 005c 5A6C     		ldr	r2, [r3, #68]
 5099 005e 22F40042 		bic	r2, r2, #32768
ARM GAS  C:\Users\Administrator\AppData\Local\Temp\ccdDcLdm.s 			page 87


 5100 0062 5A64     		str	r2, [r3, #68]
 5101 0064 DBE7     		b	.L688
 5102              	.L690:
 5103 0066 042D     		cmp	r5, #4
 5104 0068 05D0     		beq	.L695
 5105 006a 082D     		cmp	r5, #8
 5106 006c 07D0     		beq	.L696
 5107 006e 0123     		movs	r3, #1
 5108 0070 84F84130 		strb	r3, [r4, #65]
 5109 0074 E6E7     		b	.L691
 5110              	.L695:
 5111 0076 0123     		movs	r3, #1
 5112 0078 84F83F30 		strb	r3, [r4, #63]
 5113 007c E2E7     		b	.L691
 5114              	.L696:
 5115 007e 0123     		movs	r3, #1
 5116 0080 84F84030 		strb	r3, [r4, #64]
 5117 0084 DEE7     		b	.L691
 5118              	.L698:
 5119 0086 00BF     		.align	2
 5120              	.L697:
 5121 0088 00000140 		.word	1073807360
 5123              		.section	.text.HAL_TIM_PWM_Start_IT,"ax",%progbits
 5124              		.align	1
 5125              		.global	HAL_TIM_PWM_Start_IT
 5126              		.syntax unified
 5127              		.thumb
 5128              		.thumb_func
 5130              	HAL_TIM_PWM_Start_IT:
 5131              		@ args = 0, pretend = 0, frame = 0
 5132              		@ frame_needed = 0, uses_anonymous_args = 0
 5133 0000 10B5     		push	{r4, lr}
 5134 0002 0446     		mov	r4, r0
 5135 0004 0B46     		mov	r3, r1
 5136 0006 0029     		cmp	r1, #0
 5137 0008 47D1     		bne	.L700
 5138 000a 90F83E20 		ldrb	r2, [r0, #62]	@ zero_extendqisi2
 5139 000e 013A     		subs	r2, r2, #1
 5140 0010 18BF     		it	ne
 5141 0012 0122     		movne	r2, #1
 5142              	.L701:
 5143 0014 002A     		cmp	r2, #0
 5144 0016 40F08D80 		bne	.L718
 5145 001a 002B     		cmp	r3, #0
 5146 001c 53D1     		bne	.L705
 5147 001e 0222     		movs	r2, #2
 5148 0020 84F83E20 		strb	r2, [r4, #62]
 5149              	.L706:
 5150 0024 2168     		ldr	r1, [r4]
 5151 0026 CA68     		ldr	r2, [r1, #12]
 5152 0028 42F00202 		orr	r2, r2, #2
 5153 002c CA60     		str	r2, [r1, #12]
 5154              	.L713:
 5155 002e 0122     		movs	r2, #1
 5156 0030 1946     		mov	r1, r3
 5157 0032 2068     		ldr	r0, [r4]
 5158 0034 FFF7FEFF 		bl	TIM_CCxChannelCmd
ARM GAS  C:\Users\Administrator\AppData\Local\Temp\ccdDcLdm.s 			page 88


 5159 0038 2368     		ldr	r3, [r4]
 5160 003a 404A     		ldr	r2, .L726
 5161 003c 9342     		cmp	r3, r2
 5162 003e 03D0     		beq	.L714
 5163 0040 02F58062 		add	r2, r2, #1024
 5164 0044 9342     		cmp	r3, r2
 5165 0046 03D1     		bne	.L715
 5166              	.L714:
 5167 0048 5A6C     		ldr	r2, [r3, #68]
 5168 004a 42F40042 		orr	r2, r2, #32768
 5169 004e 5A64     		str	r2, [r3, #68]
 5170              	.L715:
 5171 0050 2368     		ldr	r3, [r4]
 5172 0052 3A4A     		ldr	r2, .L726
 5173 0054 9342     		cmp	r3, r2
 5174 0056 62D0     		beq	.L716
 5175 0058 B3F1804F 		cmp	r3, #1073741824
 5176 005c 5FD0     		beq	.L716
 5177 005e A2F57C42 		sub	r2, r2, #64512
 5178 0062 9342     		cmp	r3, r2
 5179 0064 5BD0     		beq	.L716
 5180 0066 02F58062 		add	r2, r2, #1024
 5181 006a 9342     		cmp	r3, r2
 5182 006c 57D0     		beq	.L716
 5183 006e 02F58062 		add	r2, r2, #1024
 5184 0072 9342     		cmp	r3, r2
 5185 0074 53D0     		beq	.L716
 5186 0076 02F57842 		add	r2, r2, #63488
 5187 007a 9342     		cmp	r3, r2
 5188 007c 4FD0     		beq	.L716
 5189 007e 02F57052 		add	r2, r2, #15360
 5190 0082 9342     		cmp	r3, r2
 5191 0084 4BD0     		beq	.L716
 5192 0086 A2F59432 		sub	r2, r2, #75776
 5193 008a 9342     		cmp	r3, r2
 5194 008c 47D0     		beq	.L716
 5195 008e 1A68     		ldr	r2, [r3]
 5196 0090 42F00102 		orr	r2, r2, #1
 5197 0094 1A60     		str	r2, [r3]
 5198 0096 0020     		movs	r0, #0
 5199 0098 4BE0     		b	.L704
 5200              	.L700:
 5201 009a 0429     		cmp	r1, #4
 5202 009c 07D0     		beq	.L721
 5203 009e 0829     		cmp	r1, #8
 5204 00a0 0BD0     		beq	.L722
 5205 00a2 90F84120 		ldrb	r2, [r0, #65]	@ zero_extendqisi2
 5206 00a6 013A     		subs	r2, r2, #1
 5207 00a8 18BF     		it	ne
 5208 00aa 0122     		movne	r2, #1
 5209 00ac B2E7     		b	.L701
 5210              	.L721:
 5211 00ae 90F83F20 		ldrb	r2, [r0, #63]	@ zero_extendqisi2
 5212 00b2 013A     		subs	r2, r2, #1
 5213 00b4 18BF     		it	ne
 5214 00b6 0122     		movne	r2, #1
 5215 00b8 ACE7     		b	.L701
ARM GAS  C:\Users\Administrator\AppData\Local\Temp\ccdDcLdm.s 			page 89


 5216              	.L722:
 5217 00ba 90F84020 		ldrb	r2, [r0, #64]	@ zero_extendqisi2
 5218 00be 013A     		subs	r2, r2, #1
 5219 00c0 18BF     		it	ne
 5220 00c2 0122     		movne	r2, #1
 5221 00c4 A6E7     		b	.L701
 5222              	.L705:
 5223 00c6 042B     		cmp	r3, #4
 5224 00c8 0DD0     		beq	.L723
 5225 00ca 082B     		cmp	r3, #8
 5226 00cc 14D0     		beq	.L724
 5227 00ce 0222     		movs	r2, #2
 5228 00d0 84F84120 		strb	r2, [r4, #65]
 5229 00d4 082B     		cmp	r3, #8
 5230 00d6 12D0     		beq	.L710
 5231 00d8 17D8     		bhi	.L711
 5232 00da 002B     		cmp	r3, #0
 5233 00dc A2D0     		beq	.L706
 5234 00de 042B     		cmp	r3, #4
 5235 00e0 04D0     		beq	.L708
 5236 00e2 0120     		movs	r0, #1
 5237 00e4 25E0     		b	.L704
 5238              	.L723:
 5239 00e6 0222     		movs	r2, #2
 5240 00e8 84F83F20 		strb	r2, [r4, #63]
 5241              	.L708:
 5242 00ec 2168     		ldr	r1, [r4]
 5243 00ee CA68     		ldr	r2, [r1, #12]
 5244 00f0 42F00402 		orr	r2, r2, #4
 5245 00f4 CA60     		str	r2, [r1, #12]
 5246 00f6 9AE7     		b	.L713
 5247              	.L724:
 5248 00f8 0222     		movs	r2, #2
 5249 00fa 84F84020 		strb	r2, [r4, #64]
 5250              	.L710:
 5251 00fe 2168     		ldr	r1, [r4]
 5252 0100 CA68     		ldr	r2, [r1, #12]
 5253 0102 42F00802 		orr	r2, r2, #8
 5254 0106 CA60     		str	r2, [r1, #12]
 5255 0108 91E7     		b	.L713
 5256              	.L711:
 5257 010a 0C2B     		cmp	r3, #12
 5258 010c 05D1     		bne	.L725
 5259 010e 2168     		ldr	r1, [r4]
 5260 0110 CA68     		ldr	r2, [r1, #12]
 5261 0112 42F01002 		orr	r2, r2, #16
 5262 0116 CA60     		str	r2, [r1, #12]
 5263 0118 89E7     		b	.L713
 5264              	.L725:
 5265 011a 0120     		movs	r0, #1
 5266 011c 09E0     		b	.L704
 5267              	.L716:
 5268 011e 9A68     		ldr	r2, [r3, #8]
 5269 0120 02F00702 		and	r2, r2, #7
 5270 0124 062A     		cmp	r2, #6
 5271 0126 07D0     		beq	.L719
 5272 0128 1A68     		ldr	r2, [r3]
ARM GAS  C:\Users\Administrator\AppData\Local\Temp\ccdDcLdm.s 			page 90


 5273 012a 42F00102 		orr	r2, r2, #1
 5274 012e 1A60     		str	r2, [r3]
 5275 0130 0020     		movs	r0, #0
 5276              	.L704:
 5277 0132 10BD     		pop	{r4, pc}
 5278              	.L718:
 5279 0134 0120     		movs	r0, #1
 5280 0136 FCE7     		b	.L704
 5281              	.L719:
 5282 0138 0020     		movs	r0, #0
 5283 013a FAE7     		b	.L704
 5284              	.L727:
 5285              		.align	2
 5286              	.L726:
 5287 013c 00000140 		.word	1073807360
 5289              		.section	.text.HAL_TIM_PWM_Stop_IT,"ax",%progbits
 5290              		.align	1
 5291              		.global	HAL_TIM_PWM_Stop_IT
 5292              		.syntax unified
 5293              		.thumb
 5294              		.thumb_func
 5296              	HAL_TIM_PWM_Stop_IT:
 5297              		@ args = 0, pretend = 0, frame = 0
 5298              		@ frame_needed = 0, uses_anonymous_args = 0
 5299 0000 38B5     		push	{r3, r4, r5, lr}
 5300 0002 0546     		mov	r5, r0
 5301 0004 0C46     		mov	r4, r1
 5302 0006 0829     		cmp	r1, #8
 5303 0008 3CD0     		beq	.L729
 5304 000a 0AD8     		bhi	.L730
 5305 000c 99B1     		cbz	r1, .L731
 5306 000e 0429     		cmp	r1, #4
 5307 0010 05D1     		bne	.L743
 5308 0012 0268     		ldr	r2, [r0]
 5309 0014 D368     		ldr	r3, [r2, #12]
 5310 0016 23F00403 		bic	r3, r3, #4
 5311 001a D360     		str	r3, [r2, #12]
 5312 001c 10E0     		b	.L735
 5313              	.L743:
 5314 001e 0120     		movs	r0, #1
 5315 0020 2FE0     		b	.L733
 5316              	.L730:
 5317 0022 0C29     		cmp	r1, #12
 5318 0024 05D1     		bne	.L744
 5319 0026 0268     		ldr	r2, [r0]
 5320 0028 D368     		ldr	r3, [r2, #12]
 5321 002a 23F01003 		bic	r3, r3, #16
 5322 002e D360     		str	r3, [r2, #12]
 5323 0030 06E0     		b	.L735
 5324              	.L744:
 5325 0032 0120     		movs	r0, #1
 5326 0034 25E0     		b	.L733
 5327              	.L731:
 5328 0036 0268     		ldr	r2, [r0]
 5329 0038 D368     		ldr	r3, [r2, #12]
 5330 003a 23F00203 		bic	r3, r3, #2
 5331 003e D360     		str	r3, [r2, #12]
ARM GAS  C:\Users\Administrator\AppData\Local\Temp\ccdDcLdm.s 			page 91


 5332              	.L735:
 5333 0040 0022     		movs	r2, #0
 5334 0042 2146     		mov	r1, r4
 5335 0044 2868     		ldr	r0, [r5]
 5336 0046 FFF7FEFF 		bl	TIM_CCxChannelCmd
 5337 004a 2B68     		ldr	r3, [r5]
 5338 004c 214A     		ldr	r2, .L747
 5339 004e 9342     		cmp	r3, r2
 5340 0050 1ED0     		beq	.L736
 5341 0052 02F58062 		add	r2, r2, #1024
 5342 0056 9342     		cmp	r3, r2
 5343 0058 1AD0     		beq	.L736
 5344              	.L737:
 5345 005a 2B68     		ldr	r3, [r5]
 5346 005c 196A     		ldr	r1, [r3, #32]
 5347 005e 41F21112 		movw	r2, #4369
 5348 0062 1142     		tst	r1, r2
 5349 0064 08D1     		bne	.L738
 5350 0066 196A     		ldr	r1, [r3, #32]
 5351 0068 40F24442 		movw	r2, #1092
 5352 006c 1142     		tst	r1, r2
 5353 006e 03D1     		bne	.L738
 5354 0070 1A68     		ldr	r2, [r3]
 5355 0072 22F00102 		bic	r2, r2, #1
 5356 0076 1A60     		str	r2, [r3]
 5357              	.L738:
 5358 0078 CCB9     		cbnz	r4, .L739
 5359 007a 0123     		movs	r3, #1
 5360 007c 85F83E30 		strb	r3, [r5, #62]
 5361 0080 2046     		mov	r0, r4
 5362              	.L733:
 5363 0082 38BD     		pop	{r3, r4, r5, pc}
 5364              	.L729:
 5365 0084 0268     		ldr	r2, [r0]
 5366 0086 D368     		ldr	r3, [r2, #12]
 5367 0088 23F00803 		bic	r3, r3, #8
 5368 008c D360     		str	r3, [r2, #12]
 5369 008e D7E7     		b	.L735
 5370              	.L736:
 5371 0090 196A     		ldr	r1, [r3, #32]
 5372 0092 41F21112 		movw	r2, #4369
 5373 0096 1142     		tst	r1, r2
 5374 0098 DFD1     		bne	.L737
 5375 009a 196A     		ldr	r1, [r3, #32]
 5376 009c 40F24442 		movw	r2, #1092
 5377 00a0 1142     		tst	r1, r2
 5378 00a2 DAD1     		bne	.L737
 5379 00a4 5A6C     		ldr	r2, [r3, #68]
 5380 00a6 22F40042 		bic	r2, r2, #32768
 5381 00aa 5A64     		str	r2, [r3, #68]
 5382 00ac D5E7     		b	.L737
 5383              	.L739:
 5384 00ae 042C     		cmp	r4, #4
 5385 00b0 06D0     		beq	.L745
 5386 00b2 082C     		cmp	r4, #8
 5387 00b4 09D0     		beq	.L746
 5388 00b6 0123     		movs	r3, #1
ARM GAS  C:\Users\Administrator\AppData\Local\Temp\ccdDcLdm.s 			page 92


 5389 00b8 85F84130 		strb	r3, [r5, #65]
 5390 00bc 0020     		movs	r0, #0
 5391 00be E0E7     		b	.L733
 5392              	.L745:
 5393 00c0 0123     		movs	r3, #1
 5394 00c2 85F83F30 		strb	r3, [r5, #63]
 5395 00c6 0020     		movs	r0, #0
 5396 00c8 DBE7     		b	.L733
 5397              	.L746:
 5398 00ca 0123     		movs	r3, #1
 5399 00cc 85F84030 		strb	r3, [r5, #64]
 5400 00d0 0020     		movs	r0, #0
 5401 00d2 D6E7     		b	.L733
 5402              	.L748:
 5403              		.align	2
 5404              	.L747:
 5405 00d4 00000140 		.word	1073807360
 5407              		.section	.text.HAL_TIM_PWM_Start_DMA,"ax",%progbits
 5408              		.align	1
 5409              		.global	HAL_TIM_PWM_Start_DMA
 5410              		.syntax unified
 5411              		.thumb
 5412              		.thumb_func
 5414              	HAL_TIM_PWM_Start_DMA:
 5415              		@ args = 0, pretend = 0, frame = 0
 5416              		@ frame_needed = 0, uses_anonymous_args = 0
 5417 0000 38B5     		push	{r3, r4, r5, lr}
 5418 0002 0446     		mov	r4, r0
 5419 0004 9446     		mov	ip, r2
 5420 0006 0D46     		mov	r5, r1
 5421 0008 0029     		cmp	r1, #0
 5422 000a 73D1     		bne	.L750
 5423 000c 90F83E00 		ldrb	r0, [r0, #62]	@ zero_extendqisi2
 5424 0010 0228     		cmp	r0, #2
 5425 0012 14BF     		ite	ne
 5426 0014 0020     		movne	r0, #0
 5427 0016 0120     		moveq	r0, #1
 5428              	.L751:
 5429 0018 0028     		cmp	r0, #0
 5430 001a 40F00C81 		bne	.L773
 5431 001e 002D     		cmp	r5, #0
 5432 0020 40F08180 		bne	.L755
 5433 0024 94F83E20 		ldrb	r2, [r4, #62]	@ zero_extendqisi2
 5434 0028 012A     		cmp	r2, #1
 5435 002a 14BF     		ite	ne
 5436 002c 0022     		movne	r2, #0
 5437 002e 0122     		moveq	r2, #1
 5438              	.L756:
 5439 0030 002A     		cmp	r2, #0
 5440 0032 00F00281 		beq	.L774
 5441 0036 BCF1000F 		cmp	ip, #0
 5442 003a 00F08D80 		beq	.L782
 5443              	.L759:
 5444 003e 002D     		cmp	r5, #0
 5445 0040 40F08F80 		bne	.L760
 5446 0044 0222     		movs	r2, #2
 5447 0046 84F83E20 		strb	r2, [r4, #62]
ARM GAS  C:\Users\Administrator\AppData\Local\Temp\ccdDcLdm.s 			page 93


 5448              	.L761:
 5449 004a 626A     		ldr	r2, [r4, #36]
 5450 004c 8149     		ldr	r1, .L790
 5451 004e D163     		str	r1, [r2, #60]
 5452 0050 626A     		ldr	r2, [r4, #36]
 5453 0052 8149     		ldr	r1, .L790+4
 5454 0054 1164     		str	r1, [r2, #64]
 5455 0056 626A     		ldr	r2, [r4, #36]
 5456 0058 8049     		ldr	r1, .L790+8
 5457 005a D164     		str	r1, [r2, #76]
 5458 005c 2268     		ldr	r2, [r4]
 5459 005e 3432     		adds	r2, r2, #52
 5460 0060 6146     		mov	r1, ip
 5461 0062 606A     		ldr	r0, [r4, #36]
 5462 0064 FFF7FEFF 		bl	HAL_DMA_Start_IT
 5463 0068 0028     		cmp	r0, #0
 5464 006a 40F0E880 		bne	.L776
 5465 006e 2268     		ldr	r2, [r4]
 5466 0070 D368     		ldr	r3, [r2, #12]
 5467 0072 43F40073 		orr	r3, r3, #512
 5468 0076 D360     		str	r3, [r2, #12]
 5469              	.L768:
 5470 0078 0122     		movs	r2, #1
 5471 007a 2946     		mov	r1, r5
 5472 007c 2068     		ldr	r0, [r4]
 5473 007e FFF7FEFF 		bl	TIM_CCxChannelCmd
 5474 0082 2368     		ldr	r3, [r4]
 5475 0084 764A     		ldr	r2, .L790+12
 5476 0086 9342     		cmp	r3, r2
 5477 0088 03D0     		beq	.L769
 5478 008a 02F58062 		add	r2, r2, #1024
 5479 008e 9342     		cmp	r3, r2
 5480 0090 03D1     		bne	.L770
 5481              	.L769:
 5482 0092 5A6C     		ldr	r2, [r3, #68]
 5483 0094 42F40042 		orr	r2, r2, #32768
 5484 0098 5A64     		str	r2, [r3, #68]
 5485              	.L770:
 5486 009a 2368     		ldr	r3, [r4]
 5487 009c 704A     		ldr	r2, .L790+12
 5488 009e 9342     		cmp	r3, r2
 5489 00a0 00F0BE80 		beq	.L771
 5490 00a4 B3F1804F 		cmp	r3, #1073741824
 5491 00a8 00F0BA80 		beq	.L771
 5492 00ac A2F57C42 		sub	r2, r2, #64512
 5493 00b0 9342     		cmp	r3, r2
 5494 00b2 00F0B580 		beq	.L771
 5495 00b6 02F58062 		add	r2, r2, #1024
 5496 00ba 9342     		cmp	r3, r2
 5497 00bc 00F0B080 		beq	.L771
 5498 00c0 02F58062 		add	r2, r2, #1024
 5499 00c4 9342     		cmp	r3, r2
 5500 00c6 00F0AB80 		beq	.L771
 5501 00ca 02F57842 		add	r2, r2, #63488
 5502 00ce 9342     		cmp	r3, r2
 5503 00d0 00F0A680 		beq	.L771
 5504 00d4 02F57052 		add	r2, r2, #15360
ARM GAS  C:\Users\Administrator\AppData\Local\Temp\ccdDcLdm.s 			page 94


 5505 00d8 9342     		cmp	r3, r2
 5506 00da 00F0A180 		beq	.L771
 5507 00de A2F59432 		sub	r2, r2, #75776
 5508 00e2 9342     		cmp	r3, r2
 5509 00e4 00F09C80 		beq	.L771
 5510 00e8 1A68     		ldr	r2, [r3]
 5511 00ea 42F00102 		orr	r2, r2, #1
 5512 00ee 1A60     		str	r2, [r3]
 5513 00f0 0020     		movs	r0, #0
 5514 00f2 A3E0     		b	.L754
 5515              	.L750:
 5516 00f4 0429     		cmp	r1, #4
 5517 00f6 08D0     		beq	.L783
 5518 00f8 0829     		cmp	r1, #8
 5519 00fa 0DD0     		beq	.L784
 5520 00fc 90F84100 		ldrb	r0, [r0, #65]	@ zero_extendqisi2
 5521 0100 0228     		cmp	r0, #2
 5522 0102 14BF     		ite	ne
 5523 0104 0020     		movne	r0, #0
 5524 0106 0120     		moveq	r0, #1
 5525 0108 86E7     		b	.L751
 5526              	.L783:
 5527 010a 90F83F00 		ldrb	r0, [r0, #63]	@ zero_extendqisi2
 5528 010e 0228     		cmp	r0, #2
 5529 0110 14BF     		ite	ne
 5530 0112 0020     		movne	r0, #0
 5531 0114 0120     		moveq	r0, #1
 5532 0116 7FE7     		b	.L751
 5533              	.L784:
 5534 0118 90F84000 		ldrb	r0, [r0, #64]	@ zero_extendqisi2
 5535 011c 0228     		cmp	r0, #2
 5536 011e 14BF     		ite	ne
 5537 0120 0020     		movne	r0, #0
 5538 0122 0120     		moveq	r0, #1
 5539 0124 78E7     		b	.L751
 5540              	.L755:
 5541 0126 042D     		cmp	r5, #4
 5542 0128 08D0     		beq	.L785
 5543 012a 082D     		cmp	r5, #8
 5544 012c 0DD0     		beq	.L786
 5545 012e 94F84120 		ldrb	r2, [r4, #65]	@ zero_extendqisi2
 5546 0132 012A     		cmp	r2, #1
 5547 0134 14BF     		ite	ne
 5548 0136 0022     		movne	r2, #0
 5549 0138 0122     		moveq	r2, #1
 5550 013a 79E7     		b	.L756
 5551              	.L785:
 5552 013c 94F83F20 		ldrb	r2, [r4, #63]	@ zero_extendqisi2
 5553 0140 012A     		cmp	r2, #1
 5554 0142 14BF     		ite	ne
 5555 0144 0022     		movne	r2, #0
 5556 0146 0122     		moveq	r2, #1
 5557 0148 72E7     		b	.L756
 5558              	.L786:
 5559 014a 94F84020 		ldrb	r2, [r4, #64]	@ zero_extendqisi2
 5560 014e 012A     		cmp	r2, #1
 5561 0150 14BF     		ite	ne
ARM GAS  C:\Users\Administrator\AppData\Local\Temp\ccdDcLdm.s 			page 95


 5562 0152 0022     		movne	r2, #0
 5563 0154 0122     		moveq	r2, #1
 5564 0156 6BE7     		b	.L756
 5565              	.L782:
 5566 0158 002B     		cmp	r3, #0
 5567 015a 3FF470AF 		beq	.L759
 5568 015e 0120     		movs	r0, #1
 5569 0160 6CE0     		b	.L754
 5570              	.L760:
 5571 0162 042D     		cmp	r5, #4
 5572 0164 0ED0     		beq	.L787
 5573 0166 082D     		cmp	r5, #8
 5574 0168 26D0     		beq	.L788
 5575 016a 0222     		movs	r2, #2
 5576 016c 84F84120 		strb	r2, [r4, #65]
 5577 0170 082D     		cmp	r5, #8
 5578 0172 24D0     		beq	.L765
 5579 0174 3AD8     		bhi	.L766
 5580 0176 002D     		cmp	r5, #0
 5581 0178 3FF467AF 		beq	.L761
 5582 017c 042D     		cmp	r5, #4
 5583 017e 04D0     		beq	.L763
 5584 0180 0120     		movs	r0, #1
 5585 0182 5BE0     		b	.L754
 5586              	.L787:
 5587 0184 0222     		movs	r2, #2
 5588 0186 84F83F20 		strb	r2, [r4, #63]
 5589              	.L763:
 5590 018a A26A     		ldr	r2, [r4, #40]
 5591 018c 3149     		ldr	r1, .L790
 5592 018e D163     		str	r1, [r2, #60]
 5593 0190 A26A     		ldr	r2, [r4, #40]
 5594 0192 3149     		ldr	r1, .L790+4
 5595 0194 1164     		str	r1, [r2, #64]
 5596 0196 A26A     		ldr	r2, [r4, #40]
 5597 0198 3049     		ldr	r1, .L790+8
 5598 019a D164     		str	r1, [r2, #76]
 5599 019c 2268     		ldr	r2, [r4]
 5600 019e 3832     		adds	r2, r2, #56
 5601 01a0 6146     		mov	r1, ip
 5602 01a2 A06A     		ldr	r0, [r4, #40]
 5603 01a4 FFF7FEFF 		bl	HAL_DMA_Start_IT
 5604 01a8 0028     		cmp	r0, #0
 5605 01aa 4AD1     		bne	.L777
 5606 01ac 2268     		ldr	r2, [r4]
 5607 01ae D368     		ldr	r3, [r2, #12]
 5608 01b0 43F48063 		orr	r3, r3, #1024
 5609 01b4 D360     		str	r3, [r2, #12]
 5610 01b6 5FE7     		b	.L768
 5611              	.L788:
 5612 01b8 0222     		movs	r2, #2
 5613 01ba 84F84020 		strb	r2, [r4, #64]
 5614              	.L765:
 5615 01be E26A     		ldr	r2, [r4, #44]
 5616 01c0 2449     		ldr	r1, .L790
 5617 01c2 D163     		str	r1, [r2, #60]
 5618 01c4 E26A     		ldr	r2, [r4, #44]
ARM GAS  C:\Users\Administrator\AppData\Local\Temp\ccdDcLdm.s 			page 96


 5619 01c6 2449     		ldr	r1, .L790+4
 5620 01c8 1164     		str	r1, [r2, #64]
 5621 01ca E26A     		ldr	r2, [r4, #44]
 5622 01cc 2349     		ldr	r1, .L790+8
 5623 01ce D164     		str	r1, [r2, #76]
 5624 01d0 2268     		ldr	r2, [r4]
 5625 01d2 3C32     		adds	r2, r2, #60
 5626 01d4 6146     		mov	r1, ip
 5627 01d6 E06A     		ldr	r0, [r4, #44]
 5628 01d8 FFF7FEFF 		bl	HAL_DMA_Start_IT
 5629 01dc 0028     		cmp	r0, #0
 5630 01de 32D1     		bne	.L778
 5631 01e0 2268     		ldr	r2, [r4]
 5632 01e2 D368     		ldr	r3, [r2, #12]
 5633 01e4 43F40063 		orr	r3, r3, #2048
 5634 01e8 D360     		str	r3, [r2, #12]
 5635 01ea 45E7     		b	.L768
 5636              	.L766:
 5637 01ec 0C2D     		cmp	r5, #12
 5638 01ee 15D1     		bne	.L789
 5639 01f0 226B     		ldr	r2, [r4, #48]
 5640 01f2 1849     		ldr	r1, .L790
 5641 01f4 D163     		str	r1, [r2, #60]
 5642 01f6 226B     		ldr	r2, [r4, #48]
 5643 01f8 1749     		ldr	r1, .L790+4
 5644 01fa 1164     		str	r1, [r2, #64]
 5645 01fc 226B     		ldr	r2, [r4, #48]
 5646 01fe 1749     		ldr	r1, .L790+8
 5647 0200 D164     		str	r1, [r2, #76]
 5648 0202 2268     		ldr	r2, [r4]
 5649 0204 4032     		adds	r2, r2, #64
 5650 0206 6146     		mov	r1, ip
 5651 0208 206B     		ldr	r0, [r4, #48]
 5652 020a FFF7FEFF 		bl	HAL_DMA_Start_IT
 5653 020e E0B9     		cbnz	r0, .L779
 5654 0210 2268     		ldr	r2, [r4]
 5655 0212 D368     		ldr	r3, [r2, #12]
 5656 0214 43F48053 		orr	r3, r3, #4096
 5657 0218 D360     		str	r3, [r2, #12]
 5658 021a 2DE7     		b	.L768
 5659              	.L789:
 5660 021c 0120     		movs	r0, #1
 5661 021e 0DE0     		b	.L754
 5662              	.L771:
 5663 0220 9A68     		ldr	r2, [r3, #8]
 5664 0222 02F00702 		and	r2, r2, #7
 5665 0226 062A     		cmp	r2, #6
 5666 0228 11D0     		beq	.L780
 5667 022a 1A68     		ldr	r2, [r3]
 5668 022c 42F00102 		orr	r2, r2, #1
 5669 0230 1A60     		str	r2, [r3]
 5670 0232 0020     		movs	r0, #0
 5671 0234 02E0     		b	.L754
 5672              	.L773:
 5673 0236 0220     		movs	r0, #2
 5674 0238 00E0     		b	.L754
 5675              	.L774:
ARM GAS  C:\Users\Administrator\AppData\Local\Temp\ccdDcLdm.s 			page 97


 5676 023a 0120     		movs	r0, #1
 5677              	.L754:
 5678 023c 38BD     		pop	{r3, r4, r5, pc}
 5679              	.L776:
 5680 023e 0120     		movs	r0, #1
 5681 0240 FCE7     		b	.L754
 5682              	.L777:
 5683 0242 0120     		movs	r0, #1
 5684 0244 FAE7     		b	.L754
 5685              	.L778:
 5686 0246 0120     		movs	r0, #1
 5687 0248 F8E7     		b	.L754
 5688              	.L779:
 5689 024a 0120     		movs	r0, #1
 5690 024c F6E7     		b	.L754
 5691              	.L780:
 5692 024e 0020     		movs	r0, #0
 5693 0250 F4E7     		b	.L754
 5694              	.L791:
 5695 0252 00BF     		.align	2
 5696              	.L790:
 5697 0254 00000000 		.word	TIM_DMADelayPulseCplt
 5698 0258 00000000 		.word	TIM_DMADelayPulseHalfCplt
 5699 025c 00000000 		.word	TIM_DMAError
 5700 0260 00000140 		.word	1073807360
 5702              		.section	.text.HAL_TIM_PWM_Stop_DMA,"ax",%progbits
 5703              		.align	1
 5704              		.global	HAL_TIM_PWM_Stop_DMA
 5705              		.syntax unified
 5706              		.thumb
 5707              		.thumb_func
 5709              	HAL_TIM_PWM_Stop_DMA:
 5710              		@ args = 0, pretend = 0, frame = 0
 5711              		@ frame_needed = 0, uses_anonymous_args = 0
 5712 0000 38B5     		push	{r3, r4, r5, lr}
 5713 0002 0546     		mov	r5, r0
 5714 0004 0C46     		mov	r4, r1
 5715 0006 0829     		cmp	r1, #8
 5716 0008 45D0     		beq	.L793
 5717 000a 0DD8     		bhi	.L794
 5718 000c C9B1     		cbz	r1, .L795
 5719 000e 0429     		cmp	r1, #4
 5720 0010 08D1     		bne	.L807
 5721 0012 0268     		ldr	r2, [r0]
 5722 0014 D368     		ldr	r3, [r2, #12]
 5723 0016 23F48063 		bic	r3, r3, #1024
 5724 001a D360     		str	r3, [r2, #12]
 5725 001c 806A     		ldr	r0, [r0, #40]
 5726 001e FFF7FEFF 		bl	HAL_DMA_Abort_IT
 5727 0022 16E0     		b	.L799
 5728              	.L807:
 5729 0024 0120     		movs	r0, #1
 5730 0026 35E0     		b	.L797
 5731              	.L794:
 5732 0028 0C29     		cmp	r1, #12
 5733 002a 08D1     		bne	.L808
 5734 002c 0268     		ldr	r2, [r0]
ARM GAS  C:\Users\Administrator\AppData\Local\Temp\ccdDcLdm.s 			page 98


 5735 002e D368     		ldr	r3, [r2, #12]
 5736 0030 23F48053 		bic	r3, r3, #4096
 5737 0034 D360     		str	r3, [r2, #12]
 5738 0036 006B     		ldr	r0, [r0, #48]
 5739 0038 FFF7FEFF 		bl	HAL_DMA_Abort_IT
 5740 003c 09E0     		b	.L799
 5741              	.L808:
 5742 003e 0120     		movs	r0, #1
 5743 0040 28E0     		b	.L797
 5744              	.L795:
 5745 0042 0268     		ldr	r2, [r0]
 5746 0044 D368     		ldr	r3, [r2, #12]
 5747 0046 23F40073 		bic	r3, r3, #512
 5748 004a D360     		str	r3, [r2, #12]
 5749 004c 406A     		ldr	r0, [r0, #36]
 5750 004e FFF7FEFF 		bl	HAL_DMA_Abort_IT
 5751              	.L799:
 5752 0052 0022     		movs	r2, #0
 5753 0054 2146     		mov	r1, r4
 5754 0056 2868     		ldr	r0, [r5]
 5755 0058 FFF7FEFF 		bl	TIM_CCxChannelCmd
 5756 005c 2B68     		ldr	r3, [r5]
 5757 005e 234A     		ldr	r2, .L811
 5758 0060 9342     		cmp	r3, r2
 5759 0062 21D0     		beq	.L800
 5760 0064 02F58062 		add	r2, r2, #1024
 5761 0068 9342     		cmp	r3, r2
 5762 006a 1DD0     		beq	.L800
 5763              	.L801:
 5764 006c 2B68     		ldr	r3, [r5]
 5765 006e 196A     		ldr	r1, [r3, #32]
 5766 0070 41F21112 		movw	r2, #4369
 5767 0074 1142     		tst	r1, r2
 5768 0076 08D1     		bne	.L802
 5769 0078 196A     		ldr	r1, [r3, #32]
 5770 007a 40F24442 		movw	r2, #1092
 5771 007e 1142     		tst	r1, r2
 5772 0080 03D1     		bne	.L802
 5773 0082 1A68     		ldr	r2, [r3]
 5774 0084 22F00102 		bic	r2, r2, #1
 5775 0088 1A60     		str	r2, [r3]
 5776              	.L802:
 5777 008a E4B9     		cbnz	r4, .L803
 5778 008c 0123     		movs	r3, #1
 5779 008e 85F83E30 		strb	r3, [r5, #62]
 5780 0092 2046     		mov	r0, r4
 5781              	.L797:
 5782 0094 38BD     		pop	{r3, r4, r5, pc}
 5783              	.L793:
 5784 0096 0268     		ldr	r2, [r0]
 5785 0098 D368     		ldr	r3, [r2, #12]
 5786 009a 23F40063 		bic	r3, r3, #2048
 5787 009e D360     		str	r3, [r2, #12]
 5788 00a0 C06A     		ldr	r0, [r0, #44]
 5789 00a2 FFF7FEFF 		bl	HAL_DMA_Abort_IT
 5790 00a6 D4E7     		b	.L799
 5791              	.L800:
ARM GAS  C:\Users\Administrator\AppData\Local\Temp\ccdDcLdm.s 			page 99


 5792 00a8 196A     		ldr	r1, [r3, #32]
 5793 00aa 41F21112 		movw	r2, #4369
 5794 00ae 1142     		tst	r1, r2
 5795 00b0 DCD1     		bne	.L801
 5796 00b2 196A     		ldr	r1, [r3, #32]
 5797 00b4 40F24442 		movw	r2, #1092
 5798 00b8 1142     		tst	r1, r2
 5799 00ba D7D1     		bne	.L801
 5800 00bc 5A6C     		ldr	r2, [r3, #68]
 5801 00be 22F40042 		bic	r2, r2, #32768
 5802 00c2 5A64     		str	r2, [r3, #68]
 5803 00c4 D2E7     		b	.L801
 5804              	.L803:
 5805 00c6 042C     		cmp	r4, #4
 5806 00c8 06D0     		beq	.L809
 5807 00ca 082C     		cmp	r4, #8
 5808 00cc 09D0     		beq	.L810
 5809 00ce 0123     		movs	r3, #1
 5810 00d0 85F84130 		strb	r3, [r5, #65]
 5811 00d4 0020     		movs	r0, #0
 5812 00d6 DDE7     		b	.L797
 5813              	.L809:
 5814 00d8 0123     		movs	r3, #1
 5815 00da 85F83F30 		strb	r3, [r5, #63]
 5816 00de 0020     		movs	r0, #0
 5817 00e0 D8E7     		b	.L797
 5818              	.L810:
 5819 00e2 0123     		movs	r3, #1
 5820 00e4 85F84030 		strb	r3, [r5, #64]
 5821 00e8 0020     		movs	r0, #0
 5822 00ea D3E7     		b	.L797
 5823              	.L812:
 5824              		.align	2
 5825              	.L811:
 5826 00ec 00000140 		.word	1073807360
 5828              		.section	.text.HAL_TIM_IC_Start,"ax",%progbits
 5829              		.align	1
 5830              		.global	HAL_TIM_IC_Start
 5831              		.syntax unified
 5832              		.thumb
 5833              		.thumb_func
 5835              	HAL_TIM_IC_Start:
 5836              		@ args = 0, pretend = 0, frame = 0
 5837              		@ frame_needed = 0, uses_anonymous_args = 0
 5838 0000 10B5     		push	{r4, lr}
 5839 0002 0446     		mov	r4, r0
 5840 0004 0B46     		mov	r3, r1
 5841 0006 0029     		cmp	r1, #0
 5842 0008 3AD1     		bne	.L814
 5843 000a 90F83E00 		ldrb	r0, [r0, #62]	@ zero_extendqisi2
 5844 000e C0B2     		uxtb	r0, r0
 5845 0010 94F84220 		ldrb	r2, [r4, #66]	@ zero_extendqisi2
 5846 0014 D2B2     		uxtb	r2, r2
 5847              	.L815:
 5848 0016 0128     		cmp	r0, #1
 5849 0018 7BD1     		bne	.L831
 5850 001a 012A     		cmp	r2, #1
ARM GAS  C:\Users\Administrator\AppData\Local\Temp\ccdDcLdm.s 			page 100


 5851 001c 7AD1     		bne	.L821
 5852 001e 002B     		cmp	r3, #0
 5853 0020 4DD1     		bne	.L822
 5854 0022 0222     		movs	r2, #2
 5855 0024 84F83E20 		strb	r2, [r4, #62]
 5856 0028 84F84220 		strb	r2, [r4, #66]
 5857              	.L823:
 5858 002c 0122     		movs	r2, #1
 5859 002e 1946     		mov	r1, r3
 5860 0030 2068     		ldr	r0, [r4]
 5861 0032 FFF7FEFF 		bl	TIM_CCxChannelCmd
 5862 0036 2368     		ldr	r3, [r4]
 5863 0038 384A     		ldr	r2, .L842
 5864 003a 9342     		cmp	r3, r2
 5865 003c 5ED0     		beq	.L829
 5866 003e B3F1804F 		cmp	r3, #1073741824
 5867 0042 5BD0     		beq	.L829
 5868 0044 A2F57C42 		sub	r2, r2, #64512
 5869 0048 9342     		cmp	r3, r2
 5870 004a 57D0     		beq	.L829
 5871 004c 02F58062 		add	r2, r2, #1024
 5872 0050 9342     		cmp	r3, r2
 5873 0052 53D0     		beq	.L829
 5874 0054 02F58062 		add	r2, r2, #1024
 5875 0058 9342     		cmp	r3, r2
 5876 005a 4FD0     		beq	.L829
 5877 005c 02F57842 		add	r2, r2, #63488
 5878 0060 9342     		cmp	r3, r2
 5879 0062 4BD0     		beq	.L829
 5880 0064 02F57052 		add	r2, r2, #15360
 5881 0068 9342     		cmp	r3, r2
 5882 006a 47D0     		beq	.L829
 5883 006c A2F59432 		sub	r2, r2, #75776
 5884 0070 9342     		cmp	r3, r2
 5885 0072 43D0     		beq	.L829
 5886 0074 1A68     		ldr	r2, [r3]
 5887 0076 42F00102 		orr	r2, r2, #1
 5888 007a 1A60     		str	r2, [r3]
 5889 007c 0020     		movs	r0, #0
 5890 007e 49E0     		b	.L821
 5891              	.L814:
 5892 0080 0429     		cmp	r1, #4
 5893 0082 0CD0     		beq	.L834
 5894 0084 0829     		cmp	r1, #8
 5895 0086 0ED0     		beq	.L835
 5896 0088 90F84100 		ldrb	r0, [r0, #65]	@ zero_extendqisi2
 5897 008c C0B2     		uxtb	r0, r0
 5898              	.L817:
 5899 008e 042B     		cmp	r3, #4
 5900 0090 0DD0     		beq	.L836
 5901 0092 082B     		cmp	r3, #8
 5902 0094 0FD0     		beq	.L837
 5903 0096 94F84520 		ldrb	r2, [r4, #69]	@ zero_extendqisi2
 5904 009a D2B2     		uxtb	r2, r2
 5905 009c BBE7     		b	.L815
 5906              	.L834:
 5907 009e 90F83F00 		ldrb	r0, [r0, #63]	@ zero_extendqisi2
ARM GAS  C:\Users\Administrator\AppData\Local\Temp\ccdDcLdm.s 			page 101


 5908 00a2 C0B2     		uxtb	r0, r0
 5909 00a4 F3E7     		b	.L817
 5910              	.L835:
 5911 00a6 90F84000 		ldrb	r0, [r0, #64]	@ zero_extendqisi2
 5912 00aa C0B2     		uxtb	r0, r0
 5913 00ac EFE7     		b	.L817
 5914              	.L836:
 5915 00ae 94F84320 		ldrb	r2, [r4, #67]	@ zero_extendqisi2
 5916 00b2 D2B2     		uxtb	r2, r2
 5917 00b4 AFE7     		b	.L815
 5918              	.L837:
 5919 00b6 94F84420 		ldrb	r2, [r4, #68]	@ zero_extendqisi2
 5920 00ba D2B2     		uxtb	r2, r2
 5921 00bc ABE7     		b	.L815
 5922              	.L822:
 5923 00be 042B     		cmp	r3, #4
 5924 00c0 0CD0     		beq	.L838
 5925 00c2 082B     		cmp	r3, #8
 5926 00c4 0ED0     		beq	.L839
 5927 00c6 0222     		movs	r2, #2
 5928 00c8 84F84120 		strb	r2, [r4, #65]
 5929              	.L825:
 5930 00cc 042B     		cmp	r3, #4
 5931 00ce 0DD0     		beq	.L840
 5932 00d0 082B     		cmp	r3, #8
 5933 00d2 0FD0     		beq	.L841
 5934 00d4 0222     		movs	r2, #2
 5935 00d6 84F84520 		strb	r2, [r4, #69]
 5936 00da A7E7     		b	.L823
 5937              	.L838:
 5938 00dc 0222     		movs	r2, #2
 5939 00de 84F83F20 		strb	r2, [r4, #63]
 5940 00e2 F3E7     		b	.L825
 5941              	.L839:
 5942 00e4 0222     		movs	r2, #2
 5943 00e6 84F84020 		strb	r2, [r4, #64]
 5944 00ea EFE7     		b	.L825
 5945              	.L840:
 5946 00ec 0222     		movs	r2, #2
 5947 00ee 84F84320 		strb	r2, [r4, #67]
 5948 00f2 9BE7     		b	.L823
 5949              	.L841:
 5950 00f4 0222     		movs	r2, #2
 5951 00f6 84F84420 		strb	r2, [r4, #68]
 5952 00fa 97E7     		b	.L823
 5953              	.L829:
 5954 00fc 9A68     		ldr	r2, [r3, #8]
 5955 00fe 02F00702 		and	r2, r2, #7
 5956 0102 062A     		cmp	r2, #6
 5957 0104 07D0     		beq	.L832
 5958 0106 1A68     		ldr	r2, [r3]
 5959 0108 42F00102 		orr	r2, r2, #1
 5960 010c 1A60     		str	r2, [r3]
 5961 010e 0020     		movs	r0, #0
 5962 0110 00E0     		b	.L821
 5963              	.L831:
 5964 0112 0120     		movs	r0, #1
ARM GAS  C:\Users\Administrator\AppData\Local\Temp\ccdDcLdm.s 			page 102


 5965              	.L821:
 5966 0114 10BD     		pop	{r4, pc}
 5967              	.L832:
 5968 0116 0020     		movs	r0, #0
 5969 0118 FCE7     		b	.L821
 5970              	.L843:
 5971 011a 00BF     		.align	2
 5972              	.L842:
 5973 011c 00000140 		.word	1073807360
 5975              		.section	.text.HAL_TIM_IC_Stop,"ax",%progbits
 5976              		.align	1
 5977              		.global	HAL_TIM_IC_Stop
 5978              		.syntax unified
 5979              		.thumb
 5980              		.thumb_func
 5982              	HAL_TIM_IC_Stop:
 5983              		@ args = 0, pretend = 0, frame = 0
 5984              		@ frame_needed = 0, uses_anonymous_args = 0
 5985 0000 38B5     		push	{r3, r4, r5, lr}
 5986 0002 0446     		mov	r4, r0
 5987 0004 0D46     		mov	r5, r1
 5988 0006 0022     		movs	r2, #0
 5989 0008 0068     		ldr	r0, [r0]
 5990 000a FFF7FEFF 		bl	TIM_CCxChannelCmd
 5991 000e 2368     		ldr	r3, [r4]
 5992 0010 196A     		ldr	r1, [r3, #32]
 5993 0012 41F21112 		movw	r2, #4369
 5994 0016 1142     		tst	r1, r2
 5995 0018 08D1     		bne	.L845
 5996 001a 196A     		ldr	r1, [r3, #32]
 5997 001c 40F24442 		movw	r2, #1092
 5998 0020 1142     		tst	r1, r2
 5999 0022 03D1     		bne	.L845
 6000 0024 1A68     		ldr	r2, [r3]
 6001 0026 22F00102 		bic	r2, r2, #1
 6002 002a 1A60     		str	r2, [r3]
 6003              	.L845:
 6004 002c 35B9     		cbnz	r5, .L846
 6005 002e 0123     		movs	r3, #1
 6006 0030 84F83E30 		strb	r3, [r4, #62]
 6007 0034 84F84230 		strb	r3, [r4, #66]
 6008              	.L847:
 6009 0038 0020     		movs	r0, #0
 6010 003a 38BD     		pop	{r3, r4, r5, pc}
 6011              	.L846:
 6012 003c 042D     		cmp	r5, #4
 6013 003e 0CD0     		beq	.L854
 6014 0040 082D     		cmp	r5, #8
 6015 0042 0ED0     		beq	.L855
 6016 0044 0123     		movs	r3, #1
 6017 0046 84F84130 		strb	r3, [r4, #65]
 6018              	.L849:
 6019 004a 042D     		cmp	r5, #4
 6020 004c 0DD0     		beq	.L856
 6021 004e 082D     		cmp	r5, #8
 6022 0050 0FD0     		beq	.L857
 6023 0052 0123     		movs	r3, #1
ARM GAS  C:\Users\Administrator\AppData\Local\Temp\ccdDcLdm.s 			page 103


 6024 0054 84F84530 		strb	r3, [r4, #69]
 6025 0058 EEE7     		b	.L847
 6026              	.L854:
 6027 005a 0123     		movs	r3, #1
 6028 005c 84F83F30 		strb	r3, [r4, #63]
 6029 0060 F3E7     		b	.L849
 6030              	.L855:
 6031 0062 0123     		movs	r3, #1
 6032 0064 84F84030 		strb	r3, [r4, #64]
 6033 0068 EFE7     		b	.L849
 6034              	.L856:
 6035 006a 0123     		movs	r3, #1
 6036 006c 84F84330 		strb	r3, [r4, #67]
 6037 0070 E2E7     		b	.L847
 6038              	.L857:
 6039 0072 0123     		movs	r3, #1
 6040 0074 84F84430 		strb	r3, [r4, #68]
 6041 0078 DEE7     		b	.L847
 6043              		.section	.text.HAL_TIM_IC_Start_IT,"ax",%progbits
 6044              		.align	1
 6045              		.global	HAL_TIM_IC_Start_IT
 6046              		.syntax unified
 6047              		.thumb
 6048              		.thumb_func
 6050              	HAL_TIM_IC_Start_IT:
 6051              		@ args = 0, pretend = 0, frame = 0
 6052              		@ frame_needed = 0, uses_anonymous_args = 0
 6053 0000 10B5     		push	{r4, lr}
 6054 0002 0446     		mov	r4, r0
 6055 0004 0B46     		mov	r3, r1
 6056 0006 0029     		cmp	r1, #0
 6057 0008 41D1     		bne	.L859
 6058 000a 90F83E00 		ldrb	r0, [r0, #62]	@ zero_extendqisi2
 6059 000e C0B2     		uxtb	r0, r0
 6060 0010 94F84220 		ldrb	r2, [r4, #66]	@ zero_extendqisi2
 6061 0014 D2B2     		uxtb	r2, r2
 6062              	.L860:
 6063 0016 0128     		cmp	r0, #1
 6064 0018 40F09E80 		bne	.L881
 6065 001c 012A     		cmp	r2, #1
 6066 001e 40F09C80 		bne	.L866
 6067 0022 002B     		cmp	r3, #0
 6068 0024 52D1     		bne	.L867
 6069 0026 0222     		movs	r2, #2
 6070 0028 84F83E20 		strb	r2, [r4, #62]
 6071 002c 84F84220 		strb	r2, [r4, #66]
 6072              	.L868:
 6073 0030 2168     		ldr	r1, [r4]
 6074 0032 CA68     		ldr	r2, [r1, #12]
 6075 0034 42F00202 		orr	r2, r2, #2
 6076 0038 CA60     		str	r2, [r1, #12]
 6077              	.L878:
 6078 003a 0122     		movs	r2, #1
 6079 003c 1946     		mov	r1, r3
 6080 003e 2068     		ldr	r0, [r4]
 6081 0040 FFF7FEFF 		bl	TIM_CCxChannelCmd
 6082 0044 2368     		ldr	r3, [r4]
ARM GAS  C:\Users\Administrator\AppData\Local\Temp\ccdDcLdm.s 			page 104


 6083 0046 464A     		ldr	r2, .L893
 6084 0048 9342     		cmp	r3, r2
 6085 004a 7AD0     		beq	.L879
 6086 004c B3F1804F 		cmp	r3, #1073741824
 6087 0050 77D0     		beq	.L879
 6088 0052 A2F57C42 		sub	r2, r2, #64512
 6089 0056 9342     		cmp	r3, r2
 6090 0058 73D0     		beq	.L879
 6091 005a 02F58062 		add	r2, r2, #1024
 6092 005e 9342     		cmp	r3, r2
 6093 0060 6FD0     		beq	.L879
 6094 0062 02F58062 		add	r2, r2, #1024
 6095 0066 9342     		cmp	r3, r2
 6096 0068 6BD0     		beq	.L879
 6097 006a 02F57842 		add	r2, r2, #63488
 6098 006e 9342     		cmp	r3, r2
 6099 0070 67D0     		beq	.L879
 6100 0072 02F57052 		add	r2, r2, #15360
 6101 0076 9342     		cmp	r3, r2
 6102 0078 63D0     		beq	.L879
 6103 007a A2F59432 		sub	r2, r2, #75776
 6104 007e 9342     		cmp	r3, r2
 6105 0080 5FD0     		beq	.L879
 6106 0082 1A68     		ldr	r2, [r3]
 6107 0084 42F00102 		orr	r2, r2, #1
 6108 0088 1A60     		str	r2, [r3]
 6109 008a 0020     		movs	r0, #0
 6110 008c 65E0     		b	.L866
 6111              	.L859:
 6112 008e 0429     		cmp	r1, #4
 6113 0090 0CD0     		beq	.L884
 6114 0092 0829     		cmp	r1, #8
 6115 0094 0ED0     		beq	.L885
 6116 0096 90F84100 		ldrb	r0, [r0, #65]	@ zero_extendqisi2
 6117 009a C0B2     		uxtb	r0, r0
 6118              	.L862:
 6119 009c 042B     		cmp	r3, #4
 6120 009e 0DD0     		beq	.L886
 6121 00a0 082B     		cmp	r3, #8
 6122 00a2 0FD0     		beq	.L887
 6123 00a4 94F84520 		ldrb	r2, [r4, #69]	@ zero_extendqisi2
 6124 00a8 D2B2     		uxtb	r2, r2
 6125 00aa B4E7     		b	.L860
 6126              	.L884:
 6127 00ac 90F83F00 		ldrb	r0, [r0, #63]	@ zero_extendqisi2
 6128 00b0 C0B2     		uxtb	r0, r0
 6129 00b2 F3E7     		b	.L862
 6130              	.L885:
 6131 00b4 90F84000 		ldrb	r0, [r0, #64]	@ zero_extendqisi2
 6132 00b8 C0B2     		uxtb	r0, r0
 6133 00ba EFE7     		b	.L862
 6134              	.L886:
 6135 00bc 94F84320 		ldrb	r2, [r4, #67]	@ zero_extendqisi2
 6136 00c0 D2B2     		uxtb	r2, r2
 6137 00c2 A8E7     		b	.L860
 6138              	.L887:
 6139 00c4 94F84420 		ldrb	r2, [r4, #68]	@ zero_extendqisi2
ARM GAS  C:\Users\Administrator\AppData\Local\Temp\ccdDcLdm.s 			page 105


 6140 00c8 D2B2     		uxtb	r2, r2
 6141 00ca A4E7     		b	.L860
 6142              	.L867:
 6143 00cc 042B     		cmp	r3, #4
 6144 00ce 14D0     		beq	.L888
 6145 00d0 082B     		cmp	r3, #8
 6146 00d2 16D0     		beq	.L889
 6147 00d4 0221     		movs	r1, #2
 6148 00d6 84F84110 		strb	r1, [r4, #65]
 6149              	.L870:
 6150 00da 042B     		cmp	r3, #4
 6151 00dc 15D0     		beq	.L890
 6152 00de 082B     		cmp	r3, #8
 6153 00e0 1CD0     		beq	.L891
 6154 00e2 0221     		movs	r1, #2
 6155 00e4 84F84510 		strb	r1, [r4, #69]
 6156 00e8 082B     		cmp	r3, #8
 6157 00ea 1AD0     		beq	.L875
 6158 00ec 1FD8     		bhi	.L876
 6159 00ee 002B     		cmp	r3, #0
 6160 00f0 9ED0     		beq	.L868
 6161 00f2 042B     		cmp	r3, #4
 6162 00f4 0CD0     		beq	.L873
 6163 00f6 1046     		mov	r0, r2
 6164 00f8 2FE0     		b	.L866
 6165              	.L888:
 6166 00fa 0221     		movs	r1, #2
 6167 00fc 84F83F10 		strb	r1, [r4, #63]
 6168 0100 EBE7     		b	.L870
 6169              	.L889:
 6170 0102 0221     		movs	r1, #2
 6171 0104 84F84010 		strb	r1, [r4, #64]
 6172 0108 E7E7     		b	.L870
 6173              	.L890:
 6174 010a 0222     		movs	r2, #2
 6175 010c 84F84320 		strb	r2, [r4, #67]
 6176              	.L873:
 6177 0110 2168     		ldr	r1, [r4]
 6178 0112 CA68     		ldr	r2, [r1, #12]
 6179 0114 42F00402 		orr	r2, r2, #4
 6180 0118 CA60     		str	r2, [r1, #12]
 6181 011a 8EE7     		b	.L878
 6182              	.L891:
 6183 011c 0222     		movs	r2, #2
 6184 011e 84F84420 		strb	r2, [r4, #68]
 6185              	.L875:
 6186 0122 2168     		ldr	r1, [r4]
 6187 0124 CA68     		ldr	r2, [r1, #12]
 6188 0126 42F00802 		orr	r2, r2, #8
 6189 012a CA60     		str	r2, [r1, #12]
 6190 012c 85E7     		b	.L878
 6191              	.L876:
 6192 012e 0C2B     		cmp	r3, #12
 6193 0130 05D1     		bne	.L892
 6194 0132 2168     		ldr	r1, [r4]
 6195 0134 CA68     		ldr	r2, [r1, #12]
 6196 0136 42F01002 		orr	r2, r2, #16
ARM GAS  C:\Users\Administrator\AppData\Local\Temp\ccdDcLdm.s 			page 106


 6197 013a CA60     		str	r2, [r1, #12]
 6198 013c 7DE7     		b	.L878
 6199              	.L892:
 6200 013e 1046     		mov	r0, r2
 6201 0140 0BE0     		b	.L866
 6202              	.L879:
 6203 0142 9A68     		ldr	r2, [r3, #8]
 6204 0144 02F00702 		and	r2, r2, #7
 6205 0148 062A     		cmp	r2, #6
 6206 014a 07D0     		beq	.L882
 6207 014c 1A68     		ldr	r2, [r3]
 6208 014e 42F00102 		orr	r2, r2, #1
 6209 0152 1A60     		str	r2, [r3]
 6210 0154 0020     		movs	r0, #0
 6211 0156 00E0     		b	.L866
 6212              	.L881:
 6213 0158 0120     		movs	r0, #1
 6214              	.L866:
 6215 015a 10BD     		pop	{r4, pc}
 6216              	.L882:
 6217 015c 0020     		movs	r0, #0
 6218 015e FCE7     		b	.L866
 6219              	.L894:
 6220              		.align	2
 6221              	.L893:
 6222 0160 00000140 		.word	1073807360
 6224              		.section	.text.HAL_TIM_IC_Stop_IT,"ax",%progbits
 6225              		.align	1
 6226              		.global	HAL_TIM_IC_Stop_IT
 6227              		.syntax unified
 6228              		.thumb
 6229              		.thumb_func
 6231              	HAL_TIM_IC_Stop_IT:
 6232              		@ args = 0, pretend = 0, frame = 0
 6233              		@ frame_needed = 0, uses_anonymous_args = 0
 6234 0000 38B5     		push	{r3, r4, r5, lr}
 6235 0002 0546     		mov	r5, r0
 6236 0004 0C46     		mov	r4, r1
 6237 0006 0829     		cmp	r1, #8
 6238 0008 36D0     		beq	.L896
 6239 000a 0AD8     		bhi	.L897
 6240 000c 99B1     		cbz	r1, .L898
 6241 000e 0429     		cmp	r1, #4
 6242 0010 05D1     		bne	.L911
 6243 0012 0268     		ldr	r2, [r0]
 6244 0014 D368     		ldr	r3, [r2, #12]
 6245 0016 23F00403 		bic	r3, r3, #4
 6246 001a D360     		str	r3, [r2, #12]
 6247 001c 10E0     		b	.L902
 6248              	.L911:
 6249 001e 0120     		movs	r0, #1
 6250 0020 29E0     		b	.L900
 6251              	.L897:
 6252 0022 0C29     		cmp	r1, #12
 6253 0024 05D1     		bne	.L912
 6254 0026 0268     		ldr	r2, [r0]
 6255 0028 D368     		ldr	r3, [r2, #12]
ARM GAS  C:\Users\Administrator\AppData\Local\Temp\ccdDcLdm.s 			page 107


 6256 002a 23F01003 		bic	r3, r3, #16
 6257 002e D360     		str	r3, [r2, #12]
 6258 0030 06E0     		b	.L902
 6259              	.L912:
 6260 0032 0120     		movs	r0, #1
 6261 0034 1FE0     		b	.L900
 6262              	.L898:
 6263 0036 0268     		ldr	r2, [r0]
 6264 0038 D368     		ldr	r3, [r2, #12]
 6265 003a 23F00203 		bic	r3, r3, #2
 6266 003e D360     		str	r3, [r2, #12]
 6267              	.L902:
 6268 0040 0022     		movs	r2, #0
 6269 0042 2146     		mov	r1, r4
 6270 0044 2868     		ldr	r0, [r5]
 6271 0046 FFF7FEFF 		bl	TIM_CCxChannelCmd
 6272 004a 2B68     		ldr	r3, [r5]
 6273 004c 196A     		ldr	r1, [r3, #32]
 6274 004e 41F21112 		movw	r2, #4369
 6275 0052 1142     		tst	r1, r2
 6276 0054 08D1     		bne	.L903
 6277 0056 196A     		ldr	r1, [r3, #32]
 6278 0058 40F24442 		movw	r2, #1092
 6279 005c 1142     		tst	r1, r2
 6280 005e 03D1     		bne	.L903
 6281 0060 1A68     		ldr	r2, [r3]
 6282 0062 22F00102 		bic	r2, r2, #1
 6283 0066 1A60     		str	r2, [r3]
 6284              	.L903:
 6285 0068 64B9     		cbnz	r4, .L904
 6286 006a 0123     		movs	r3, #1
 6287 006c 85F83E30 		strb	r3, [r5, #62]
 6288 0070 85F84230 		strb	r3, [r5, #66]
 6289 0074 2046     		mov	r0, r4
 6290              	.L900:
 6291 0076 38BD     		pop	{r3, r4, r5, pc}
 6292              	.L896:
 6293 0078 0268     		ldr	r2, [r0]
 6294 007a D368     		ldr	r3, [r2, #12]
 6295 007c 23F00803 		bic	r3, r3, #8
 6296 0080 D360     		str	r3, [r2, #12]
 6297 0082 DDE7     		b	.L902
 6298              	.L904:
 6299 0084 042C     		cmp	r4, #4
 6300 0086 0DD0     		beq	.L913
 6301 0088 082C     		cmp	r4, #8
 6302 008a 0FD0     		beq	.L914
 6303 008c 0123     		movs	r3, #1
 6304 008e 85F84130 		strb	r3, [r5, #65]
 6305              	.L906:
 6306 0092 042C     		cmp	r4, #4
 6307 0094 0ED0     		beq	.L915
 6308 0096 082C     		cmp	r4, #8
 6309 0098 11D0     		beq	.L916
 6310 009a 0123     		movs	r3, #1
 6311 009c 85F84530 		strb	r3, [r5, #69]
 6312 00a0 0020     		movs	r0, #0
ARM GAS  C:\Users\Administrator\AppData\Local\Temp\ccdDcLdm.s 			page 108


 6313 00a2 E8E7     		b	.L900
 6314              	.L913:
 6315 00a4 0123     		movs	r3, #1
 6316 00a6 85F83F30 		strb	r3, [r5, #63]
 6317 00aa F2E7     		b	.L906
 6318              	.L914:
 6319 00ac 0123     		movs	r3, #1
 6320 00ae 85F84030 		strb	r3, [r5, #64]
 6321 00b2 EEE7     		b	.L906
 6322              	.L915:
 6323 00b4 0123     		movs	r3, #1
 6324 00b6 85F84330 		strb	r3, [r5, #67]
 6325 00ba 0020     		movs	r0, #0
 6326 00bc DBE7     		b	.L900
 6327              	.L916:
 6328 00be 0123     		movs	r3, #1
 6329 00c0 85F84430 		strb	r3, [r5, #68]
 6330 00c4 0020     		movs	r0, #0
 6331 00c6 D6E7     		b	.L900
 6333              		.section	.text.HAL_TIM_IC_Start_DMA,"ax",%progbits
 6334              		.align	1
 6335              		.global	HAL_TIM_IC_Start_DMA
 6336              		.syntax unified
 6337              		.thumb
 6338              		.thumb_func
 6340              	HAL_TIM_IC_Start_DMA:
 6341              		@ args = 0, pretend = 0, frame = 0
 6342              		@ frame_needed = 0, uses_anonymous_args = 0
 6343 0000 2DE9F041 		push	{r4, r5, r6, r7, r8, lr}
 6344 0004 0446     		mov	r4, r0
 6345 0006 1746     		mov	r7, r2
 6346 0008 9846     		mov	r8, r3
 6347 000a 0E46     		mov	r6, r1
 6348 000c 0029     		cmp	r1, #0
 6349 000e 40D1     		bne	.L918
 6350 0010 90F83E00 		ldrb	r0, [r0, #62]	@ zero_extendqisi2
 6351 0014 C0B2     		uxtb	r0, r0
 6352 0016 94F84250 		ldrb	r5, [r4, #66]	@ zero_extendqisi2
 6353 001a EDB2     		uxtb	r5, r5
 6354              	.L919:
 6355 001c 0228     		cmp	r0, #2
 6356 001e 00F0F880 		beq	.L925
 6357 0022 022D     		cmp	r5, #2
 6358 0024 00F0F280 		beq	.L942
 6359 0028 0128     		cmp	r0, #1
 6360 002a 40F0F180 		bne	.L943
 6361 002e 012D     		cmp	r5, #1
 6362 0030 40F0EF80 		bne	.L925
 6363 0034 002F     		cmp	r7, #0
 6364 0036 4BD0     		beq	.L950
 6365              	.L926:
 6366 0038 002E     		cmp	r6, #0
 6367 003a 4ED1     		bne	.L927
 6368 003c 0223     		movs	r3, #2
 6369 003e 84F83E30 		strb	r3, [r4, #62]
 6370 0042 84F84230 		strb	r3, [r4, #66]
 6371              	.L928:
ARM GAS  C:\Users\Administrator\AppData\Local\Temp\ccdDcLdm.s 			page 109


 6372 0046 0122     		movs	r2, #1
 6373 0048 3146     		mov	r1, r6
 6374 004a 2068     		ldr	r0, [r4]
 6375 004c FFF7FEFF 		bl	TIM_CCxChannelCmd
 6376 0050 082E     		cmp	r6, #8
 6377 0052 00F0BA80 		beq	.L934
 6378 0056 61D8     		bhi	.L935
 6379 0058 002E     		cmp	r6, #0
 6380 005a 7BD0     		beq	.L936
 6381 005c 042E     		cmp	r6, #4
 6382 005e 5BD1     		bne	.L951
 6383 0060 A36A     		ldr	r3, [r4, #40]
 6384 0062 714A     		ldr	r2, .L961
 6385 0064 DA63     		str	r2, [r3, #60]
 6386 0066 A36A     		ldr	r3, [r4, #40]
 6387 0068 704A     		ldr	r2, .L961+4
 6388 006a 1A64     		str	r2, [r3, #64]
 6389 006c A36A     		ldr	r3, [r4, #40]
 6390 006e 704A     		ldr	r2, .L961+8
 6391 0070 DA64     		str	r2, [r3, #76]
 6392 0072 2168     		ldr	r1, [r4]
 6393 0074 4346     		mov	r3, r8
 6394 0076 3A46     		mov	r2, r7
 6395 0078 3831     		adds	r1, r1, #56
 6396 007a A06A     		ldr	r0, [r4, #40]
 6397 007c FFF7FEFF 		bl	HAL_DMA_Start_IT
 6398 0080 0028     		cmp	r0, #0
 6399 0082 40F0CA80 		bne	.L946
 6400 0086 2268     		ldr	r2, [r4]
 6401 0088 D368     		ldr	r3, [r2, #12]
 6402 008a 43F48063 		orr	r3, r3, #1024
 6403 008e D360     		str	r3, [r2, #12]
 6404 0090 77E0     		b	.L938
 6405              	.L918:
 6406 0092 0429     		cmp	r1, #4
 6407 0094 0CD0     		beq	.L952
 6408 0096 0829     		cmp	r1, #8
 6409 0098 0ED0     		beq	.L953
 6410 009a 90F84100 		ldrb	r0, [r0, #65]	@ zero_extendqisi2
 6411 009e C0B2     		uxtb	r0, r0
 6412              	.L921:
 6413 00a0 042E     		cmp	r6, #4
 6414 00a2 0DD0     		beq	.L954
 6415 00a4 082E     		cmp	r6, #8
 6416 00a6 0FD0     		beq	.L955
 6417 00a8 94F84550 		ldrb	r5, [r4, #69]	@ zero_extendqisi2
 6418 00ac EDB2     		uxtb	r5, r5
 6419 00ae B5E7     		b	.L919
 6420              	.L952:
 6421 00b0 90F83F00 		ldrb	r0, [r0, #63]	@ zero_extendqisi2
 6422 00b4 C0B2     		uxtb	r0, r0
 6423 00b6 F3E7     		b	.L921
 6424              	.L953:
 6425 00b8 90F84000 		ldrb	r0, [r0, #64]	@ zero_extendqisi2
 6426 00bc C0B2     		uxtb	r0, r0
 6427 00be EFE7     		b	.L921
 6428              	.L954:
ARM GAS  C:\Users\Administrator\AppData\Local\Temp\ccdDcLdm.s 			page 110


 6429 00c0 94F84350 		ldrb	r5, [r4, #67]	@ zero_extendqisi2
 6430 00c4 EDB2     		uxtb	r5, r5
 6431 00c6 A9E7     		b	.L919
 6432              	.L955:
 6433 00c8 94F84450 		ldrb	r5, [r4, #68]	@ zero_extendqisi2
 6434 00cc EDB2     		uxtb	r5, r5
 6435 00ce A5E7     		b	.L919
 6436              	.L950:
 6437 00d0 4346     		mov	r3, r8
 6438 00d2 002B     		cmp	r3, #0
 6439 00d4 B0D0     		beq	.L926
 6440 00d6 2846     		mov	r0, r5
 6441 00d8 9BE0     		b	.L925
 6442              	.L927:
 6443 00da 042E     		cmp	r6, #4
 6444 00dc 0CD0     		beq	.L956
 6445 00de 082E     		cmp	r6, #8
 6446 00e0 0ED0     		beq	.L957
 6447 00e2 0223     		movs	r3, #2
 6448 00e4 84F84130 		strb	r3, [r4, #65]
 6449              	.L930:
 6450 00e8 042E     		cmp	r6, #4
 6451 00ea 0DD0     		beq	.L958
 6452 00ec 082E     		cmp	r6, #8
 6453 00ee 0FD0     		beq	.L959
 6454 00f0 0223     		movs	r3, #2
 6455 00f2 84F84530 		strb	r3, [r4, #69]
 6456 00f6 A6E7     		b	.L928
 6457              	.L956:
 6458 00f8 0223     		movs	r3, #2
 6459 00fa 84F83F30 		strb	r3, [r4, #63]
 6460 00fe F3E7     		b	.L930
 6461              	.L957:
 6462 0100 0223     		movs	r3, #2
 6463 0102 84F84030 		strb	r3, [r4, #64]
 6464 0106 EFE7     		b	.L930
 6465              	.L958:
 6466 0108 0223     		movs	r3, #2
 6467 010a 84F84330 		strb	r3, [r4, #67]
 6468 010e 9AE7     		b	.L928
 6469              	.L959:
 6470 0110 0223     		movs	r3, #2
 6471 0112 84F84430 		strb	r3, [r4, #68]
 6472 0116 96E7     		b	.L928
 6473              	.L951:
 6474 0118 2846     		mov	r0, r5
 6475 011a 32E0     		b	.L938
 6476              	.L935:
 6477 011c 0C2E     		cmp	r6, #12
 6478 011e 17D1     		bne	.L960
 6479 0120 236B     		ldr	r3, [r4, #48]
 6480 0122 414A     		ldr	r2, .L961
 6481 0124 DA63     		str	r2, [r3, #60]
 6482 0126 236B     		ldr	r3, [r4, #48]
 6483 0128 404A     		ldr	r2, .L961+4
 6484 012a 1A64     		str	r2, [r3, #64]
 6485 012c 236B     		ldr	r3, [r4, #48]
ARM GAS  C:\Users\Administrator\AppData\Local\Temp\ccdDcLdm.s 			page 111


 6486 012e 404A     		ldr	r2, .L961+8
 6487 0130 DA64     		str	r2, [r3, #76]
 6488 0132 2168     		ldr	r1, [r4]
 6489 0134 4346     		mov	r3, r8
 6490 0136 3A46     		mov	r2, r7
 6491 0138 4031     		adds	r1, r1, #64
 6492 013a 206B     		ldr	r0, [r4, #48]
 6493 013c FFF7FEFF 		bl	HAL_DMA_Start_IT
 6494 0140 0028     		cmp	r0, #0
 6495 0142 6ED1     		bne	.L948
 6496 0144 2268     		ldr	r2, [r4]
 6497 0146 D368     		ldr	r3, [r2, #12]
 6498 0148 43F48053 		orr	r3, r3, #4096
 6499 014c D360     		str	r3, [r2, #12]
 6500 014e 18E0     		b	.L938
 6501              	.L960:
 6502 0150 2846     		mov	r0, r5
 6503 0152 16E0     		b	.L938
 6504              	.L936:
 6505 0154 636A     		ldr	r3, [r4, #36]
 6506 0156 344A     		ldr	r2, .L961
 6507 0158 DA63     		str	r2, [r3, #60]
 6508 015a 636A     		ldr	r3, [r4, #36]
 6509 015c 334A     		ldr	r2, .L961+4
 6510 015e 1A64     		str	r2, [r3, #64]
 6511 0160 636A     		ldr	r3, [r4, #36]
 6512 0162 334A     		ldr	r2, .L961+8
 6513 0164 DA64     		str	r2, [r3, #76]
 6514 0166 2168     		ldr	r1, [r4]
 6515 0168 4346     		mov	r3, r8
 6516 016a 3A46     		mov	r2, r7
 6517 016c 3431     		adds	r1, r1, #52
 6518 016e 606A     		ldr	r0, [r4, #36]
 6519 0170 FFF7FEFF 		bl	HAL_DMA_Start_IT
 6520 0174 0028     		cmp	r0, #0
 6521 0176 4ED1     		bne	.L945
 6522 0178 2268     		ldr	r2, [r4]
 6523 017a D368     		ldr	r3, [r2, #12]
 6524 017c 43F40073 		orr	r3, r3, #512
 6525 0180 D360     		str	r3, [r2, #12]
 6526              	.L938:
 6527 0182 2368     		ldr	r3, [r4]
 6528 0184 2B4A     		ldr	r2, .L961+12
 6529 0186 9342     		cmp	r3, r2
 6530 0188 36D0     		beq	.L940
 6531 018a B3F1804F 		cmp	r3, #1073741824
 6532 018e 33D0     		beq	.L940
 6533 0190 A2F57C42 		sub	r2, r2, #64512
 6534 0194 9342     		cmp	r3, r2
 6535 0196 2FD0     		beq	.L940
 6536 0198 02F58062 		add	r2, r2, #1024
 6537 019c 9342     		cmp	r3, r2
 6538 019e 2BD0     		beq	.L940
 6539 01a0 02F58062 		add	r2, r2, #1024
 6540 01a4 9342     		cmp	r3, r2
 6541 01a6 27D0     		beq	.L940
 6542 01a8 02F57842 		add	r2, r2, #63488
ARM GAS  C:\Users\Administrator\AppData\Local\Temp\ccdDcLdm.s 			page 112


 6543 01ac 9342     		cmp	r3, r2
 6544 01ae 23D0     		beq	.L940
 6545 01b0 02F57052 		add	r2, r2, #15360
 6546 01b4 9342     		cmp	r3, r2
 6547 01b6 1FD0     		beq	.L940
 6548 01b8 A2F59432 		sub	r2, r2, #75776
 6549 01bc 9342     		cmp	r3, r2
 6550 01be 1BD0     		beq	.L940
 6551 01c0 1A68     		ldr	r2, [r3]
 6552 01c2 42F00102 		orr	r2, r2, #1
 6553 01c6 1A60     		str	r2, [r3]
 6554 01c8 23E0     		b	.L925
 6555              	.L934:
 6556 01ca E36A     		ldr	r3, [r4, #44]
 6557 01cc 164A     		ldr	r2, .L961
 6558 01ce DA63     		str	r2, [r3, #60]
 6559 01d0 E36A     		ldr	r3, [r4, #44]
 6560 01d2 164A     		ldr	r2, .L961+4
 6561 01d4 1A64     		str	r2, [r3, #64]
 6562 01d6 E36A     		ldr	r3, [r4, #44]
 6563 01d8 154A     		ldr	r2, .L961+8
 6564 01da DA64     		str	r2, [r3, #76]
 6565 01dc 2168     		ldr	r1, [r4]
 6566 01de 4346     		mov	r3, r8
 6567 01e0 3A46     		mov	r2, r7
 6568 01e2 3C31     		adds	r1, r1, #60
 6569 01e4 E06A     		ldr	r0, [r4, #44]
 6570 01e6 FFF7FEFF 		bl	HAL_DMA_Start_IT
 6571 01ea C0B9     		cbnz	r0, .L947
 6572 01ec 2268     		ldr	r2, [r4]
 6573 01ee D368     		ldr	r3, [r2, #12]
 6574 01f0 43F40063 		orr	r3, r3, #2048
 6575 01f4 D360     		str	r3, [r2, #12]
 6576 01f6 C4E7     		b	.L938
 6577              	.L940:
 6578 01f8 9A68     		ldr	r2, [r3, #8]
 6579 01fa 02F00702 		and	r2, r2, #7
 6580 01fe 062A     		cmp	r2, #6
 6581 0200 07D0     		beq	.L925
 6582 0202 1A68     		ldr	r2, [r3]
 6583 0204 42F00102 		orr	r2, r2, #1
 6584 0208 1A60     		str	r2, [r3]
 6585 020a 02E0     		b	.L925
 6586              	.L942:
 6587 020c 2846     		mov	r0, r5
 6588 020e 00E0     		b	.L925
 6589              	.L943:
 6590 0210 0120     		movs	r0, #1
 6591              	.L925:
 6592 0212 BDE8F081 		pop	{r4, r5, r6, r7, r8, pc}
 6593              	.L945:
 6594 0216 2846     		mov	r0, r5
 6595 0218 FBE7     		b	.L925
 6596              	.L946:
 6597 021a 2846     		mov	r0, r5
 6598 021c F9E7     		b	.L925
 6599              	.L947:
ARM GAS  C:\Users\Administrator\AppData\Local\Temp\ccdDcLdm.s 			page 113


 6600 021e 2846     		mov	r0, r5
 6601 0220 F7E7     		b	.L925
 6602              	.L948:
 6603 0222 2846     		mov	r0, r5
 6604 0224 F5E7     		b	.L925
 6605              	.L962:
 6606 0226 00BF     		.align	2
 6607              	.L961:
 6608 0228 00000000 		.word	TIM_DMACaptureCplt
 6609 022c 00000000 		.word	TIM_DMACaptureHalfCplt
 6610 0230 00000000 		.word	TIM_DMAError
 6611 0234 00000140 		.word	1073807360
 6613              		.section	.text.HAL_TIM_IC_Stop_DMA,"ax",%progbits
 6614              		.align	1
 6615              		.global	HAL_TIM_IC_Stop_DMA
 6616              		.syntax unified
 6617              		.thumb
 6618              		.thumb_func
 6620              	HAL_TIM_IC_Stop_DMA:
 6621              		@ args = 0, pretend = 0, frame = 0
 6622              		@ frame_needed = 0, uses_anonymous_args = 0
 6623 0000 38B5     		push	{r3, r4, r5, lr}
 6624 0002 0546     		mov	r5, r0
 6625 0004 0C46     		mov	r4, r1
 6626 0006 0022     		movs	r2, #0
 6627 0008 0068     		ldr	r0, [r0]
 6628 000a FFF7FEFF 		bl	TIM_CCxChannelCmd
 6629 000e 082C     		cmp	r4, #8
 6630 0010 3AD0     		beq	.L964
 6631 0012 0DD8     		bhi	.L965
 6632 0014 CCB1     		cbz	r4, .L966
 6633 0016 042C     		cmp	r4, #4
 6634 0018 08D1     		bne	.L979
 6635 001a 2A68     		ldr	r2, [r5]
 6636 001c D368     		ldr	r3, [r2, #12]
 6637 001e 23F48063 		bic	r3, r3, #1024
 6638 0022 D360     		str	r3, [r2, #12]
 6639 0024 A86A     		ldr	r0, [r5, #40]
 6640 0026 FFF7FEFF 		bl	HAL_DMA_Abort_IT
 6641 002a 16E0     		b	.L970
 6642              	.L979:
 6643 002c 0120     		movs	r0, #1
 6644 002e 2AE0     		b	.L968
 6645              	.L965:
 6646 0030 0C2C     		cmp	r4, #12
 6647 0032 08D1     		bne	.L980
 6648 0034 2A68     		ldr	r2, [r5]
 6649 0036 D368     		ldr	r3, [r2, #12]
 6650 0038 23F48053 		bic	r3, r3, #4096
 6651 003c D360     		str	r3, [r2, #12]
 6652 003e 286B     		ldr	r0, [r5, #48]
 6653 0040 FFF7FEFF 		bl	HAL_DMA_Abort_IT
 6654 0044 09E0     		b	.L970
 6655              	.L980:
 6656 0046 0120     		movs	r0, #1
 6657 0048 1DE0     		b	.L968
 6658              	.L966:
ARM GAS  C:\Users\Administrator\AppData\Local\Temp\ccdDcLdm.s 			page 114


 6659 004a 2A68     		ldr	r2, [r5]
 6660 004c D368     		ldr	r3, [r2, #12]
 6661 004e 23F40073 		bic	r3, r3, #512
 6662 0052 D360     		str	r3, [r2, #12]
 6663 0054 686A     		ldr	r0, [r5, #36]
 6664 0056 FFF7FEFF 		bl	HAL_DMA_Abort_IT
 6665              	.L970:
 6666 005a 2B68     		ldr	r3, [r5]
 6667 005c 196A     		ldr	r1, [r3, #32]
 6668 005e 41F21112 		movw	r2, #4369
 6669 0062 1142     		tst	r1, r2
 6670 0064 08D1     		bne	.L971
 6671 0066 196A     		ldr	r1, [r3, #32]
 6672 0068 40F24442 		movw	r2, #1092
 6673 006c 1142     		tst	r1, r2
 6674 006e 03D1     		bne	.L971
 6675 0070 1A68     		ldr	r2, [r3]
 6676 0072 22F00102 		bic	r2, r2, #1
 6677 0076 1A60     		str	r2, [r3]
 6678              	.L971:
 6679 0078 7CB9     		cbnz	r4, .L972
 6680 007a 0123     		movs	r3, #1
 6681 007c 85F83E30 		strb	r3, [r5, #62]
 6682 0080 85F84230 		strb	r3, [r5, #66]
 6683 0084 2046     		mov	r0, r4
 6684              	.L968:
 6685 0086 38BD     		pop	{r3, r4, r5, pc}
 6686              	.L964:
 6687 0088 2A68     		ldr	r2, [r5]
 6688 008a D368     		ldr	r3, [r2, #12]
 6689 008c 23F40063 		bic	r3, r3, #2048
 6690 0090 D360     		str	r3, [r2, #12]
 6691 0092 E86A     		ldr	r0, [r5, #44]
 6692 0094 FFF7FEFF 		bl	HAL_DMA_Abort_IT
 6693 0098 DFE7     		b	.L970
 6694              	.L972:
 6695 009a 042C     		cmp	r4, #4
 6696 009c 0DD0     		beq	.L981
 6697 009e 082C     		cmp	r4, #8
 6698 00a0 0FD0     		beq	.L982
 6699 00a2 0123     		movs	r3, #1
 6700 00a4 85F84130 		strb	r3, [r5, #65]
 6701              	.L974:
 6702 00a8 042C     		cmp	r4, #4
 6703 00aa 0ED0     		beq	.L983
 6704 00ac 082C     		cmp	r4, #8
 6705 00ae 11D0     		beq	.L984
 6706 00b0 0123     		movs	r3, #1
 6707 00b2 85F84530 		strb	r3, [r5, #69]
 6708 00b6 0020     		movs	r0, #0
 6709 00b8 E5E7     		b	.L968
 6710              	.L981:
 6711 00ba 0123     		movs	r3, #1
 6712 00bc 85F83F30 		strb	r3, [r5, #63]
 6713 00c0 F2E7     		b	.L974
 6714              	.L982:
 6715 00c2 0123     		movs	r3, #1
ARM GAS  C:\Users\Administrator\AppData\Local\Temp\ccdDcLdm.s 			page 115


 6716 00c4 85F84030 		strb	r3, [r5, #64]
 6717 00c8 EEE7     		b	.L974
 6718              	.L983:
 6719 00ca 0123     		movs	r3, #1
 6720 00cc 85F84330 		strb	r3, [r5, #67]
 6721 00d0 0020     		movs	r0, #0
 6722 00d2 D8E7     		b	.L968
 6723              	.L984:
 6724 00d4 0123     		movs	r3, #1
 6725 00d6 85F84430 		strb	r3, [r5, #68]
 6726 00da 0020     		movs	r0, #0
 6727 00dc D3E7     		b	.L968
 6729              		.section	.text.HAL_TIM_OnePulse_Start,"ax",%progbits
 6730              		.align	1
 6731              		.global	HAL_TIM_OnePulse_Start
 6732              		.syntax unified
 6733              		.thumb
 6734              		.thumb_func
 6736              	HAL_TIM_OnePulse_Start:
 6737              		@ args = 0, pretend = 0, frame = 0
 6738              		@ frame_needed = 0, uses_anonymous_args = 0
 6739 0000 10B5     		push	{r4, lr}
 6740 0002 0446     		mov	r4, r0
 6741 0004 90F83EC0 		ldrb	ip, [r0, #62]	@ zero_extendqisi2
 6742 0008 90F83F30 		ldrb	r3, [r0, #63]	@ zero_extendqisi2
 6743 000c 90F84220 		ldrb	r2, [r0, #66]	@ zero_extendqisi2
 6744 0010 90F84310 		ldrb	r1, [r0, #67]	@ zero_extendqisi2
 6745 0014 BCF1010F 		cmp	ip, #1
 6746 0018 2ED1     		bne	.L988
 6747 001a 5FFA8CF0 		uxtb	r0, ip
 6748 001e DBB2     		uxtb	r3, r3
 6749 0020 D2B2     		uxtb	r2, r2
 6750 0022 C9B2     		uxtb	r1, r1
 6751 0024 012B     		cmp	r3, #1
 6752 0026 28D1     		bne	.L986
 6753 0028 012A     		cmp	r2, #1
 6754 002a 27D1     		bne	.L989
 6755 002c 0129     		cmp	r1, #1
 6756 002e 01D0     		beq	.L993
 6757 0030 1046     		mov	r0, r2
 6758 0032 22E0     		b	.L986
 6759              	.L993:
 6760 0034 0223     		movs	r3, #2
 6761 0036 84F83E30 		strb	r3, [r4, #62]
 6762 003a 84F83F30 		strb	r3, [r4, #63]
 6763 003e 84F84230 		strb	r3, [r4, #66]
 6764 0042 84F84330 		strb	r3, [r4, #67]
 6765 0046 0021     		movs	r1, #0
 6766 0048 2068     		ldr	r0, [r4]
 6767 004a FFF7FEFF 		bl	TIM_CCxChannelCmd
 6768 004e 0122     		movs	r2, #1
 6769 0050 0421     		movs	r1, #4
 6770 0052 2068     		ldr	r0, [r4]
 6771 0054 FFF7FEFF 		bl	TIM_CCxChannelCmd
 6772 0058 2368     		ldr	r3, [r4]
 6773 005a 094A     		ldr	r2, .L994
 6774 005c 9342     		cmp	r3, r2
ARM GAS  C:\Users\Administrator\AppData\Local\Temp\ccdDcLdm.s 			page 116


 6775 005e 05D0     		beq	.L987
 6776 0060 02F58062 		add	r2, r2, #1024
 6777 0064 9342     		cmp	r3, r2
 6778 0066 01D0     		beq	.L987
 6779 0068 0020     		movs	r0, #0
 6780 006a 06E0     		b	.L986
 6781              	.L987:
 6782 006c 5A6C     		ldr	r2, [r3, #68]
 6783 006e 42F40042 		orr	r2, r2, #32768
 6784 0072 5A64     		str	r2, [r3, #68]
 6785 0074 0020     		movs	r0, #0
 6786 0076 00E0     		b	.L986
 6787              	.L988:
 6788 0078 0120     		movs	r0, #1
 6789              	.L986:
 6790 007a 10BD     		pop	{r4, pc}
 6791              	.L989:
 6792 007c 1846     		mov	r0, r3
 6793 007e FCE7     		b	.L986
 6794              	.L995:
 6795              		.align	2
 6796              	.L994:
 6797 0080 00000140 		.word	1073807360
 6799              		.section	.text.HAL_TIM_OnePulse_Stop,"ax",%progbits
 6800              		.align	1
 6801              		.global	HAL_TIM_OnePulse_Stop
 6802              		.syntax unified
 6803              		.thumb
 6804              		.thumb_func
 6806              	HAL_TIM_OnePulse_Stop:
 6807              		@ args = 0, pretend = 0, frame = 0
 6808              		@ frame_needed = 0, uses_anonymous_args = 0
 6809 0000 10B5     		push	{r4, lr}
 6810 0002 0446     		mov	r4, r0
 6811 0004 0022     		movs	r2, #0
 6812 0006 1146     		mov	r1, r2
 6813 0008 0068     		ldr	r0, [r0]
 6814 000a FFF7FEFF 		bl	TIM_CCxChannelCmd
 6815 000e 0022     		movs	r2, #0
 6816 0010 0421     		movs	r1, #4
 6817 0012 2068     		ldr	r0, [r4]
 6818 0014 FFF7FEFF 		bl	TIM_CCxChannelCmd
 6819 0018 2368     		ldr	r3, [r4]
 6820 001a 184A     		ldr	r2, .L1001
 6821 001c 9342     		cmp	r3, r2
 6822 001e 1DD0     		beq	.L997
 6823 0020 02F58062 		add	r2, r2, #1024
 6824 0024 9342     		cmp	r3, r2
 6825 0026 19D0     		beq	.L997
 6826              	.L998:
 6827 0028 2368     		ldr	r3, [r4]
 6828 002a 196A     		ldr	r1, [r3, #32]
 6829 002c 41F21112 		movw	r2, #4369
 6830 0030 1142     		tst	r1, r2
 6831 0032 08D1     		bne	.L999
 6832 0034 196A     		ldr	r1, [r3, #32]
 6833 0036 40F24442 		movw	r2, #1092
ARM GAS  C:\Users\Administrator\AppData\Local\Temp\ccdDcLdm.s 			page 117


 6834 003a 1142     		tst	r1, r2
 6835 003c 03D1     		bne	.L999
 6836 003e 1A68     		ldr	r2, [r3]
 6837 0040 22F00102 		bic	r2, r2, #1
 6838 0044 1A60     		str	r2, [r3]
 6839              	.L999:
 6840 0046 0123     		movs	r3, #1
 6841 0048 84F83E30 		strb	r3, [r4, #62]
 6842 004c 84F83F30 		strb	r3, [r4, #63]
 6843 0050 84F84230 		strb	r3, [r4, #66]
 6844 0054 84F84330 		strb	r3, [r4, #67]
 6845 0058 0020     		movs	r0, #0
 6846 005a 10BD     		pop	{r4, pc}
 6847              	.L997:
 6848 005c 196A     		ldr	r1, [r3, #32]
 6849 005e 41F21112 		movw	r2, #4369
 6850 0062 1142     		tst	r1, r2
 6851 0064 E0D1     		bne	.L998
 6852 0066 196A     		ldr	r1, [r3, #32]
 6853 0068 40F24442 		movw	r2, #1092
 6854 006c 1142     		tst	r1, r2
 6855 006e DBD1     		bne	.L998
 6856 0070 5A6C     		ldr	r2, [r3, #68]
 6857 0072 22F40042 		bic	r2, r2, #32768
 6858 0076 5A64     		str	r2, [r3, #68]
 6859 0078 D6E7     		b	.L998
 6860              	.L1002:
 6861 007a 00BF     		.align	2
 6862              	.L1001:
 6863 007c 00000140 		.word	1073807360
 6865              		.section	.text.HAL_TIM_OnePulse_Start_IT,"ax",%progbits
 6866              		.align	1
 6867              		.global	HAL_TIM_OnePulse_Start_IT
 6868              		.syntax unified
 6869              		.thumb
 6870              		.thumb_func
 6872              	HAL_TIM_OnePulse_Start_IT:
 6873              		@ args = 0, pretend = 0, frame = 0
 6874              		@ frame_needed = 0, uses_anonymous_args = 0
 6875 0000 10B5     		push	{r4, lr}
 6876 0002 0446     		mov	r4, r0
 6877 0004 90F83EC0 		ldrb	ip, [r0, #62]	@ zero_extendqisi2
 6878 0008 90F83F30 		ldrb	r3, [r0, #63]	@ zero_extendqisi2
 6879 000c 90F84220 		ldrb	r2, [r0, #66]	@ zero_extendqisi2
 6880 0010 90F84310 		ldrb	r1, [r0, #67]	@ zero_extendqisi2
 6881 0014 BCF1010F 		cmp	ip, #1
 6882 0018 39D1     		bne	.L1006
 6883 001a 5FFA8CF0 		uxtb	r0, ip
 6884 001e DBB2     		uxtb	r3, r3
 6885 0020 D2B2     		uxtb	r2, r2
 6886 0022 C9B2     		uxtb	r1, r1
 6887 0024 012B     		cmp	r3, #1
 6888 0026 33D1     		bne	.L1004
 6889 0028 012A     		cmp	r2, #1
 6890 002a 32D1     		bne	.L1007
 6891 002c 0129     		cmp	r1, #1
 6892 002e 01D0     		beq	.L1011
ARM GAS  C:\Users\Administrator\AppData\Local\Temp\ccdDcLdm.s 			page 118


 6893 0030 1046     		mov	r0, r2
 6894 0032 2DE0     		b	.L1004
 6895              	.L1011:
 6896 0034 0223     		movs	r3, #2
 6897 0036 84F83E30 		strb	r3, [r4, #62]
 6898 003a 84F83F30 		strb	r3, [r4, #63]
 6899 003e 84F84230 		strb	r3, [r4, #66]
 6900 0042 84F84330 		strb	r3, [r4, #67]
 6901 0046 2268     		ldr	r2, [r4]
 6902 0048 D368     		ldr	r3, [r2, #12]
 6903 004a 43F00203 		orr	r3, r3, #2
 6904 004e D360     		str	r3, [r2, #12]
 6905 0050 2268     		ldr	r2, [r4]
 6906 0052 D368     		ldr	r3, [r2, #12]
 6907 0054 43F00403 		orr	r3, r3, #4
 6908 0058 D360     		str	r3, [r2, #12]
 6909 005a 0122     		movs	r2, #1
 6910 005c 0021     		movs	r1, #0
 6911 005e 2068     		ldr	r0, [r4]
 6912 0060 FFF7FEFF 		bl	TIM_CCxChannelCmd
 6913 0064 0122     		movs	r2, #1
 6914 0066 0421     		movs	r1, #4
 6915 0068 2068     		ldr	r0, [r4]
 6916 006a FFF7FEFF 		bl	TIM_CCxChannelCmd
 6917 006e 2368     		ldr	r3, [r4]
 6918 0070 094A     		ldr	r2, .L1012
 6919 0072 9342     		cmp	r3, r2
 6920 0074 05D0     		beq	.L1005
 6921 0076 02F58062 		add	r2, r2, #1024
 6922 007a 9342     		cmp	r3, r2
 6923 007c 01D0     		beq	.L1005
 6924 007e 0020     		movs	r0, #0
 6925 0080 06E0     		b	.L1004
 6926              	.L1005:
 6927 0082 5A6C     		ldr	r2, [r3, #68]
 6928 0084 42F40042 		orr	r2, r2, #32768
 6929 0088 5A64     		str	r2, [r3, #68]
 6930 008a 0020     		movs	r0, #0
 6931 008c 00E0     		b	.L1004
 6932              	.L1006:
 6933 008e 0120     		movs	r0, #1
 6934              	.L1004:
 6935 0090 10BD     		pop	{r4, pc}
 6936              	.L1007:
 6937 0092 1846     		mov	r0, r3
 6938 0094 FCE7     		b	.L1004
 6939              	.L1013:
 6940 0096 00BF     		.align	2
 6941              	.L1012:
 6942 0098 00000140 		.word	1073807360
 6944              		.section	.text.HAL_TIM_OnePulse_Stop_IT,"ax",%progbits
 6945              		.align	1
 6946              		.global	HAL_TIM_OnePulse_Stop_IT
 6947              		.syntax unified
 6948              		.thumb
 6949              		.thumb_func
 6951              	HAL_TIM_OnePulse_Stop_IT:
ARM GAS  C:\Users\Administrator\AppData\Local\Temp\ccdDcLdm.s 			page 119


 6952              		@ args = 0, pretend = 0, frame = 0
 6953              		@ frame_needed = 0, uses_anonymous_args = 0
 6954 0000 10B5     		push	{r4, lr}
 6955 0002 0446     		mov	r4, r0
 6956 0004 0268     		ldr	r2, [r0]
 6957 0006 D368     		ldr	r3, [r2, #12]
 6958 0008 23F00203 		bic	r3, r3, #2
 6959 000c D360     		str	r3, [r2, #12]
 6960 000e 0268     		ldr	r2, [r0]
 6961 0010 D368     		ldr	r3, [r2, #12]
 6962 0012 23F00403 		bic	r3, r3, #4
 6963 0016 D360     		str	r3, [r2, #12]
 6964 0018 0022     		movs	r2, #0
 6965 001a 1146     		mov	r1, r2
 6966 001c 0068     		ldr	r0, [r0]
 6967 001e FFF7FEFF 		bl	TIM_CCxChannelCmd
 6968 0022 0022     		movs	r2, #0
 6969 0024 0421     		movs	r1, #4
 6970 0026 2068     		ldr	r0, [r4]
 6971 0028 FFF7FEFF 		bl	TIM_CCxChannelCmd
 6972 002c 2368     		ldr	r3, [r4]
 6973 002e 184A     		ldr	r2, .L1019
 6974 0030 9342     		cmp	r3, r2
 6975 0032 1DD0     		beq	.L1015
 6976 0034 02F58062 		add	r2, r2, #1024
 6977 0038 9342     		cmp	r3, r2
 6978 003a 19D0     		beq	.L1015
 6979              	.L1016:
 6980 003c 2368     		ldr	r3, [r4]
 6981 003e 196A     		ldr	r1, [r3, #32]
 6982 0040 41F21112 		movw	r2, #4369
 6983 0044 1142     		tst	r1, r2
 6984 0046 08D1     		bne	.L1017
 6985 0048 196A     		ldr	r1, [r3, #32]
 6986 004a 40F24442 		movw	r2, #1092
 6987 004e 1142     		tst	r1, r2
 6988 0050 03D1     		bne	.L1017
 6989 0052 1A68     		ldr	r2, [r3]
 6990 0054 22F00102 		bic	r2, r2, #1
 6991 0058 1A60     		str	r2, [r3]
 6992              	.L1017:
 6993 005a 0123     		movs	r3, #1
 6994 005c 84F83E30 		strb	r3, [r4, #62]
 6995 0060 84F83F30 		strb	r3, [r4, #63]
 6996 0064 84F84230 		strb	r3, [r4, #66]
 6997 0068 84F84330 		strb	r3, [r4, #67]
 6998 006c 0020     		movs	r0, #0
 6999 006e 10BD     		pop	{r4, pc}
 7000              	.L1015:
 7001 0070 196A     		ldr	r1, [r3, #32]
 7002 0072 41F21112 		movw	r2, #4369
 7003 0076 1142     		tst	r1, r2
 7004 0078 E0D1     		bne	.L1016
 7005 007a 196A     		ldr	r1, [r3, #32]
 7006 007c 40F24442 		movw	r2, #1092
 7007 0080 1142     		tst	r1, r2
 7008 0082 DBD1     		bne	.L1016
ARM GAS  C:\Users\Administrator\AppData\Local\Temp\ccdDcLdm.s 			page 120


 7009 0084 5A6C     		ldr	r2, [r3, #68]
 7010 0086 22F40042 		bic	r2, r2, #32768
 7011 008a 5A64     		str	r2, [r3, #68]
 7012 008c D6E7     		b	.L1016
 7013              	.L1020:
 7014 008e 00BF     		.align	2
 7015              	.L1019:
 7016 0090 00000140 		.word	1073807360
 7018              		.section	.text.HAL_TIM_Encoder_Start,"ax",%progbits
 7019              		.align	1
 7020              		.global	HAL_TIM_Encoder_Start
 7021              		.syntax unified
 7022              		.thumb
 7023              		.thumb_func
 7025              	HAL_TIM_Encoder_Start:
 7026              		@ args = 0, pretend = 0, frame = 0
 7027              		@ frame_needed = 0, uses_anonymous_args = 0
 7028 0000 10B5     		push	{r4, lr}
 7029 0002 0446     		mov	r4, r0
 7030 0004 90F83E00 		ldrb	r0, [r0, #62]	@ zero_extendqisi2
 7031 0008 C0B2     		uxtb	r0, r0
 7032 000a 94F83F30 		ldrb	r3, [r4, #63]	@ zero_extendqisi2
 7033 000e 94F84220 		ldrb	r2, [r4, #66]	@ zero_extendqisi2
 7034 0012 D2B2     		uxtb	r2, r2
 7035 0014 94F843C0 		ldrb	ip, [r4, #67]	@ zero_extendqisi2
 7036 0018 8E46     		mov	lr, r1
 7037 001a C9B9     		cbnz	r1, .L1022
 7038 001c 0128     		cmp	r0, #1
 7039 001e 4CD1     		bne	.L1030
 7040 0020 012A     		cmp	r2, #1
 7041 0022 4BD1     		bne	.L1023
 7042 0024 0223     		movs	r3, #2
 7043 0026 84F83E30 		strb	r3, [r4, #62]
 7044 002a 84F84230 		strb	r3, [r4, #66]
 7045              	.L1024:
 7046 002e BEF1000F 		cmp	lr, #0
 7047 0032 30D0     		beq	.L1026
 7048 0034 BEF1040F 		cmp	lr, #4
 7049 0038 39D0     		beq	.L1027
 7050 003a 0122     		movs	r2, #1
 7051 003c 0021     		movs	r1, #0
 7052 003e 2068     		ldr	r0, [r4]
 7053 0040 FFF7FEFF 		bl	TIM_CCxChannelCmd
 7054 0044 0122     		movs	r2, #1
 7055 0046 0421     		movs	r1, #4
 7056 0048 2068     		ldr	r0, [r4]
 7057 004a FFF7FEFF 		bl	TIM_CCxChannelCmd
 7058 004e 27E0     		b	.L1029
 7059              	.L1022:
 7060 0050 DBB2     		uxtb	r3, r3
 7061 0052 5FFA8CFC 		uxtb	ip, ip
 7062 0056 0429     		cmp	r1, #4
 7063 0058 12D0     		beq	.L1038
 7064 005a 0128     		cmp	r0, #1
 7065 005c 33D1     		bne	.L1033
 7066 005e 012B     		cmp	r3, #1
 7067 0060 2CD1     		bne	.L1023
ARM GAS  C:\Users\Administrator\AppData\Local\Temp\ccdDcLdm.s 			page 121


 7068 0062 012A     		cmp	r2, #1
 7069 0064 31D1     		bne	.L1034
 7070 0066 BCF1010F 		cmp	ip, #1
 7071 006a 30D1     		bne	.L1035
 7072 006c 0223     		movs	r3, #2
 7073 006e 84F83E30 		strb	r3, [r4, #62]
 7074 0072 84F83F30 		strb	r3, [r4, #63]
 7075 0076 84F84230 		strb	r3, [r4, #66]
 7076 007a 84F84330 		strb	r3, [r4, #67]
 7077 007e D6E7     		b	.L1024
 7078              	.L1038:
 7079 0080 012B     		cmp	r3, #1
 7080 0082 1CD1     		bne	.L1031
 7081 0084 BCF1010F 		cmp	ip, #1
 7082 0088 1BD1     		bne	.L1032
 7083 008a 0223     		movs	r3, #2
 7084 008c 84F83F30 		strb	r3, [r4, #63]
 7085 0090 84F84330 		strb	r3, [r4, #67]
 7086 0094 CBE7     		b	.L1024
 7087              	.L1026:
 7088 0096 0122     		movs	r2, #1
 7089 0098 7146     		mov	r1, lr
 7090 009a 2068     		ldr	r0, [r4]
 7091 009c FFF7FEFF 		bl	TIM_CCxChannelCmd
 7092              	.L1029:
 7093 00a0 2268     		ldr	r2, [r4]
 7094 00a2 1368     		ldr	r3, [r2]
 7095 00a4 43F00103 		orr	r3, r3, #1
 7096 00a8 1360     		str	r3, [r2]
 7097 00aa 0020     		movs	r0, #0
 7098 00ac 06E0     		b	.L1023
 7099              	.L1027:
 7100 00ae 0122     		movs	r2, #1
 7101 00b0 0421     		movs	r1, #4
 7102 00b2 2068     		ldr	r0, [r4]
 7103 00b4 FFF7FEFF 		bl	TIM_CCxChannelCmd
 7104 00b8 F2E7     		b	.L1029
 7105              	.L1030:
 7106 00ba 0120     		movs	r0, #1
 7107              	.L1023:
 7108 00bc 10BD     		pop	{r4, pc}
 7109              	.L1031:
 7110 00be 0120     		movs	r0, #1
 7111 00c0 FCE7     		b	.L1023
 7112              	.L1032:
 7113 00c2 1846     		mov	r0, r3
 7114 00c4 FAE7     		b	.L1023
 7115              	.L1033:
 7116 00c6 0120     		movs	r0, #1
 7117 00c8 F8E7     		b	.L1023
 7118              	.L1034:
 7119 00ca 1846     		mov	r0, r3
 7120 00cc F6E7     		b	.L1023
 7121              	.L1035:
 7122 00ce 1046     		mov	r0, r2
 7123 00d0 F4E7     		b	.L1023
 7125              		.section	.text.HAL_TIM_Encoder_Stop,"ax",%progbits
ARM GAS  C:\Users\Administrator\AppData\Local\Temp\ccdDcLdm.s 			page 122


 7126              		.align	1
 7127              		.global	HAL_TIM_Encoder_Stop
 7128              		.syntax unified
 7129              		.thumb
 7130              		.thumb_func
 7132              	HAL_TIM_Encoder_Stop:
 7133              		@ args = 0, pretend = 0, frame = 0
 7134              		@ frame_needed = 0, uses_anonymous_args = 0
 7135 0000 38B5     		push	{r3, r4, r5, lr}
 7136 0002 0446     		mov	r4, r0
 7137 0004 0D46     		mov	r5, r1
 7138 0006 61B1     		cbz	r1, .L1040
 7139 0008 0429     		cmp	r1, #4
 7140 000a 2AD0     		beq	.L1041
 7141 000c 0022     		movs	r2, #0
 7142 000e 1146     		mov	r1, r2
 7143 0010 0068     		ldr	r0, [r0]
 7144 0012 FFF7FEFF 		bl	TIM_CCxChannelCmd
 7145 0016 0022     		movs	r2, #0
 7146 0018 0421     		movs	r1, #4
 7147 001a 2068     		ldr	r0, [r4]
 7148 001c FFF7FEFF 		bl	TIM_CCxChannelCmd
 7149 0020 03E0     		b	.L1043
 7150              	.L1040:
 7151 0022 0A46     		mov	r2, r1
 7152 0024 0068     		ldr	r0, [r0]
 7153 0026 FFF7FEFF 		bl	TIM_CCxChannelCmd
 7154              	.L1043:
 7155 002a 2368     		ldr	r3, [r4]
 7156 002c 196A     		ldr	r1, [r3, #32]
 7157 002e 41F21112 		movw	r2, #4369
 7158 0032 1142     		tst	r1, r2
 7159 0034 08D1     		bne	.L1044
 7160 0036 196A     		ldr	r1, [r3, #32]
 7161 0038 40F24442 		movw	r2, #1092
 7162 003c 1142     		tst	r1, r2
 7163 003e 03D1     		bne	.L1044
 7164 0040 1A68     		ldr	r2, [r3]
 7165 0042 22F00102 		bic	r2, r2, #1
 7166 0046 1A60     		str	r2, [r3]
 7167              	.L1044:
 7168 0048 8DB1     		cbz	r5, .L1045
 7169 004a 042D     		cmp	r5, #4
 7170 004c 16D0     		beq	.L1052
 7171 004e 0123     		movs	r3, #1
 7172 0050 84F83E30 		strb	r3, [r4, #62]
 7173 0054 84F83F30 		strb	r3, [r4, #63]
 7174 0058 84F84230 		strb	r3, [r4, #66]
 7175 005c 84F84330 		strb	r3, [r4, #67]
 7176 0060 0AE0     		b	.L1048
 7177              	.L1041:
 7178 0062 0022     		movs	r2, #0
 7179 0064 0421     		movs	r1, #4
 7180 0066 0068     		ldr	r0, [r0]
 7181 0068 FFF7FEFF 		bl	TIM_CCxChannelCmd
 7182 006c DDE7     		b	.L1043
 7183              	.L1045:
ARM GAS  C:\Users\Administrator\AppData\Local\Temp\ccdDcLdm.s 			page 123


 7184 006e 0123     		movs	r3, #1
 7185 0070 84F83E30 		strb	r3, [r4, #62]
 7186 0074 84F84230 		strb	r3, [r4, #66]
 7187              	.L1048:
 7188 0078 0020     		movs	r0, #0
 7189 007a 38BD     		pop	{r3, r4, r5, pc}
 7190              	.L1052:
 7191 007c 0123     		movs	r3, #1
 7192 007e 84F83F30 		strb	r3, [r4, #63]
 7193 0082 84F84330 		strb	r3, [r4, #67]
 7194 0086 F7E7     		b	.L1048
 7196              		.section	.text.HAL_TIM_Encoder_Start_IT,"ax",%progbits
 7197              		.align	1
 7198              		.global	HAL_TIM_Encoder_Start_IT
 7199              		.syntax unified
 7200              		.thumb
 7201              		.thumb_func
 7203              	HAL_TIM_Encoder_Start_IT:
 7204              		@ args = 0, pretend = 0, frame = 0
 7205              		@ frame_needed = 0, uses_anonymous_args = 0
 7206 0000 10B5     		push	{r4, lr}
 7207 0002 0446     		mov	r4, r0
 7208 0004 90F83E00 		ldrb	r0, [r0, #62]	@ zero_extendqisi2
 7209 0008 C0B2     		uxtb	r0, r0
 7210 000a 94F83F30 		ldrb	r3, [r4, #63]	@ zero_extendqisi2
 7211 000e 94F84220 		ldrb	r2, [r4, #66]	@ zero_extendqisi2
 7212 0012 D2B2     		uxtb	r2, r2
 7213 0014 94F843C0 		ldrb	ip, [r4, #67]	@ zero_extendqisi2
 7214 0018 8E46     		mov	lr, r1
 7215 001a 19BB     		cbnz	r1, .L1054
 7216 001c 0128     		cmp	r0, #1
 7217 001e 60D1     		bne	.L1062
 7218 0020 012A     		cmp	r2, #1
 7219 0022 5FD1     		bne	.L1055
 7220 0024 0223     		movs	r3, #2
 7221 0026 84F83E30 		strb	r3, [r4, #62]
 7222 002a 84F84230 		strb	r3, [r4, #66]
 7223              	.L1056:
 7224 002e BEF1000F 		cmp	lr, #0
 7225 0032 3AD0     		beq	.L1058
 7226 0034 BEF1040F 		cmp	lr, #4
 7227 0038 48D0     		beq	.L1059
 7228 003a 0122     		movs	r2, #1
 7229 003c 0021     		movs	r1, #0
 7230 003e 2068     		ldr	r0, [r4]
 7231 0040 FFF7FEFF 		bl	TIM_CCxChannelCmd
 7232 0044 0122     		movs	r2, #1
 7233 0046 0421     		movs	r1, #4
 7234 0048 2068     		ldr	r0, [r4]
 7235 004a FFF7FEFF 		bl	TIM_CCxChannelCmd
 7236 004e 2268     		ldr	r2, [r4]
 7237 0050 D368     		ldr	r3, [r2, #12]
 7238 0052 43F00203 		orr	r3, r3, #2
 7239 0056 D360     		str	r3, [r2, #12]
 7240 0058 2268     		ldr	r2, [r4]
 7241 005a D368     		ldr	r3, [r2, #12]
 7242 005c 43F00403 		orr	r3, r3, #4
ARM GAS  C:\Users\Administrator\AppData\Local\Temp\ccdDcLdm.s 			page 124


 7243 0060 D360     		str	r3, [r2, #12]
 7244 0062 2CE0     		b	.L1061
 7245              	.L1054:
 7246 0064 DBB2     		uxtb	r3, r3
 7247 0066 5FFA8CFC 		uxtb	ip, ip
 7248 006a 0429     		cmp	r1, #4
 7249 006c 12D0     		beq	.L1070
 7250 006e 0128     		cmp	r0, #1
 7251 0070 3DD1     		bne	.L1065
 7252 0072 012B     		cmp	r3, #1
 7253 0074 36D1     		bne	.L1055
 7254 0076 012A     		cmp	r2, #1
 7255 0078 3BD1     		bne	.L1066
 7256 007a BCF1010F 		cmp	ip, #1
 7257 007e 3AD1     		bne	.L1067
 7258 0080 0223     		movs	r3, #2
 7259 0082 84F83E30 		strb	r3, [r4, #62]
 7260 0086 84F83F30 		strb	r3, [r4, #63]
 7261 008a 84F84230 		strb	r3, [r4, #66]
 7262 008e 84F84330 		strb	r3, [r4, #67]
 7263 0092 CCE7     		b	.L1056
 7264              	.L1070:
 7265 0094 012B     		cmp	r3, #1
 7266 0096 26D1     		bne	.L1063
 7267 0098 BCF1010F 		cmp	ip, #1
 7268 009c 25D1     		bne	.L1064
 7269 009e 0223     		movs	r3, #2
 7270 00a0 84F83F30 		strb	r3, [r4, #63]
 7271 00a4 84F84330 		strb	r3, [r4, #67]
 7272 00a8 C1E7     		b	.L1056
 7273              	.L1058:
 7274 00aa 0122     		movs	r2, #1
 7275 00ac 7146     		mov	r1, lr
 7276 00ae 2068     		ldr	r0, [r4]
 7277 00b0 FFF7FEFF 		bl	TIM_CCxChannelCmd
 7278 00b4 2268     		ldr	r2, [r4]
 7279 00b6 D368     		ldr	r3, [r2, #12]
 7280 00b8 43F00203 		orr	r3, r3, #2
 7281 00bc D360     		str	r3, [r2, #12]
 7282              	.L1061:
 7283 00be 2268     		ldr	r2, [r4]
 7284 00c0 1368     		ldr	r3, [r2]
 7285 00c2 43F00103 		orr	r3, r3, #1
 7286 00c6 1360     		str	r3, [r2]
 7287 00c8 0020     		movs	r0, #0
 7288 00ca 0BE0     		b	.L1055
 7289              	.L1059:
 7290 00cc 0122     		movs	r2, #1
 7291 00ce 0421     		movs	r1, #4
 7292 00d0 2068     		ldr	r0, [r4]
 7293 00d2 FFF7FEFF 		bl	TIM_CCxChannelCmd
 7294 00d6 2268     		ldr	r2, [r4]
 7295 00d8 D368     		ldr	r3, [r2, #12]
 7296 00da 43F00403 		orr	r3, r3, #4
 7297 00de D360     		str	r3, [r2, #12]
 7298 00e0 EDE7     		b	.L1061
 7299              	.L1062:
ARM GAS  C:\Users\Administrator\AppData\Local\Temp\ccdDcLdm.s 			page 125


 7300 00e2 0120     		movs	r0, #1
 7301              	.L1055:
 7302 00e4 10BD     		pop	{r4, pc}
 7303              	.L1063:
 7304 00e6 0120     		movs	r0, #1
 7305 00e8 FCE7     		b	.L1055
 7306              	.L1064:
 7307 00ea 1846     		mov	r0, r3
 7308 00ec FAE7     		b	.L1055
 7309              	.L1065:
 7310 00ee 0120     		movs	r0, #1
 7311 00f0 F8E7     		b	.L1055
 7312              	.L1066:
 7313 00f2 1846     		mov	r0, r3
 7314 00f4 F6E7     		b	.L1055
 7315              	.L1067:
 7316 00f6 1046     		mov	r0, r2
 7317 00f8 F4E7     		b	.L1055
 7319              		.section	.text.HAL_TIM_Encoder_Stop_IT,"ax",%progbits
 7320              		.align	1
 7321              		.global	HAL_TIM_Encoder_Stop_IT
 7322              		.syntax unified
 7323              		.thumb
 7324              		.thumb_func
 7326              	HAL_TIM_Encoder_Stop_IT:
 7327              		@ args = 0, pretend = 0, frame = 0
 7328              		@ frame_needed = 0, uses_anonymous_args = 0
 7329 0000 38B5     		push	{r3, r4, r5, lr}
 7330 0002 0446     		mov	r4, r0
 7331 0004 0D46     		mov	r5, r1
 7332 0006 0029     		cmp	r1, #0
 7333 0008 31D0     		beq	.L1082
 7334 000a 0429     		cmp	r1, #4
 7335 000c 39D0     		beq	.L1083
 7336 000e 0022     		movs	r2, #0
 7337 0010 1146     		mov	r1, r2
 7338 0012 0068     		ldr	r0, [r0]
 7339 0014 FFF7FEFF 		bl	TIM_CCxChannelCmd
 7340 0018 0022     		movs	r2, #0
 7341 001a 0421     		movs	r1, #4
 7342 001c 2068     		ldr	r0, [r4]
 7343 001e FFF7FEFF 		bl	TIM_CCxChannelCmd
 7344 0022 2268     		ldr	r2, [r4]
 7345 0024 D368     		ldr	r3, [r2, #12]
 7346 0026 23F00203 		bic	r3, r3, #2
 7347 002a D360     		str	r3, [r2, #12]
 7348 002c 2268     		ldr	r2, [r4]
 7349 002e D368     		ldr	r3, [r2, #12]
 7350 0030 23F00403 		bic	r3, r3, #4
 7351 0034 D360     		str	r3, [r2, #12]
 7352              	.L1073:
 7353 0036 2368     		ldr	r3, [r4]
 7354 0038 196A     		ldr	r1, [r3, #32]
 7355 003a 41F21112 		movw	r2, #4369
 7356 003e 1142     		tst	r1, r2
 7357 0040 08D1     		bne	.L1075
 7358 0042 196A     		ldr	r1, [r3, #32]
ARM GAS  C:\Users\Administrator\AppData\Local\Temp\ccdDcLdm.s 			page 126


 7359 0044 40F24442 		movw	r2, #1092
 7360 0048 1142     		tst	r1, r2
 7361 004a 03D1     		bne	.L1075
 7362 004c 1A68     		ldr	r2, [r3]
 7363 004e 22F00102 		bic	r2, r2, #1
 7364 0052 1A60     		str	r2, [r3]
 7365              	.L1075:
 7366 0054 05B3     		cbz	r5, .L1076
 7367 0056 042D     		cmp	r5, #4
 7368 0058 25D0     		beq	.L1084
 7369 005a 0123     		movs	r3, #1
 7370 005c 84F83E30 		strb	r3, [r4, #62]
 7371 0060 84F83F30 		strb	r3, [r4, #63]
 7372 0064 84F84230 		strb	r3, [r4, #66]
 7373 0068 84F84330 		strb	r3, [r4, #67]
 7374 006c 19E0     		b	.L1079
 7375              	.L1082:
 7376 006e 0A46     		mov	r2, r1
 7377 0070 0068     		ldr	r0, [r0]
 7378 0072 FFF7FEFF 		bl	TIM_CCxChannelCmd
 7379 0076 2268     		ldr	r2, [r4]
 7380 0078 D368     		ldr	r3, [r2, #12]
 7381 007a 23F00203 		bic	r3, r3, #2
 7382 007e D360     		str	r3, [r2, #12]
 7383 0080 D9E7     		b	.L1073
 7384              	.L1083:
 7385 0082 0022     		movs	r2, #0
 7386 0084 0421     		movs	r1, #4
 7387 0086 0068     		ldr	r0, [r0]
 7388 0088 FFF7FEFF 		bl	TIM_CCxChannelCmd
 7389 008c 2268     		ldr	r2, [r4]
 7390 008e D368     		ldr	r3, [r2, #12]
 7391 0090 23F00403 		bic	r3, r3, #4
 7392 0094 D360     		str	r3, [r2, #12]
 7393 0096 CEE7     		b	.L1073
 7394              	.L1076:
 7395 0098 0123     		movs	r3, #1
 7396 009a 84F83E30 		strb	r3, [r4, #62]
 7397 009e 84F84230 		strb	r3, [r4, #66]
 7398              	.L1079:
 7399 00a2 0020     		movs	r0, #0
 7400 00a4 38BD     		pop	{r3, r4, r5, pc}
 7401              	.L1084:
 7402 00a6 0123     		movs	r3, #1
 7403 00a8 84F83F30 		strb	r3, [r4, #63]
 7404 00ac 84F84330 		strb	r3, [r4, #67]
 7405 00b0 F7E7     		b	.L1079
 7407              		.section	.text.HAL_TIM_Encoder_Start_DMA,"ax",%progbits
 7408              		.align	1
 7409              		.global	HAL_TIM_Encoder_Start_DMA
 7410              		.syntax unified
 7411              		.thumb
 7412              		.thumb_func
 7414              	HAL_TIM_Encoder_Start_DMA:
 7415              		@ args = 4, pretend = 0, frame = 0
 7416              		@ frame_needed = 0, uses_anonymous_args = 0
 7417 0000 F8B5     		push	{r3, r4, r5, r6, r7, lr}
ARM GAS  C:\Users\Administrator\AppData\Local\Temp\ccdDcLdm.s 			page 127


 7418 0002 0446     		mov	r4, r0
 7419 0004 1F46     		mov	r7, r3
 7420 0006 BDF81830 		ldrh	r3, [sp, #24]
 7421 000a 1E46     		mov	r6, r3
 7422 000c 90F83E50 		ldrb	r5, [r0, #62]	@ zero_extendqisi2
 7423 0010 EDB2     		uxtb	r5, r5
 7424 0012 90F83F00 		ldrb	r0, [r0, #63]	@ zero_extendqisi2
 7425 0016 5FFA80FC 		uxtb	ip, r0
 7426 001a 94F84200 		ldrb	r0, [r4, #66]	@ zero_extendqisi2
 7427 001e C0B2     		uxtb	r0, r0
 7428 0020 94F84330 		ldrb	r3, [r4, #67]	@ zero_extendqisi2
 7429 0024 8E46     		mov	lr, r1
 7430 0026 0029     		cmp	r1, #0
 7431 0028 30D1     		bne	.L1086
 7432 002a 022D     		cmp	r5, #2
 7433 002c 00F0EC80 		beq	.L1087
 7434 0030 0228     		cmp	r0, #2
 7435 0032 00F0E680 		beq	.L1097
 7436 0036 012D     		cmp	r5, #1
 7437 0038 40F0E580 		bne	.L1098
 7438 003c 0128     		cmp	r0, #1
 7439 003e 40F0E380 		bne	.L1087
 7440 0042 FAB1     		cbz	r2, .L1118
 7441              	.L1088:
 7442 0044 0223     		movs	r3, #2
 7443 0046 84F83E30 		strb	r3, [r4, #62]
 7444 004a 84F84230 		strb	r3, [r4, #66]
 7445              	.L1089:
 7446 004e BEF1000F 		cmp	lr, #0
 7447 0052 61D0     		beq	.L1094
 7448 0054 BEF1040F 		cmp	lr, #4
 7449 0058 00F08180 		beq	.L1095
 7450 005c 636A     		ldr	r3, [r4, #36]
 7451 005e 7549     		ldr	r1, .L1125
 7452 0060 D963     		str	r1, [r3, #60]
 7453 0062 636A     		ldr	r3, [r4, #36]
 7454 0064 7449     		ldr	r1, .L1125+4
 7455 0066 1964     		str	r1, [r3, #64]
 7456 0068 636A     		ldr	r3, [r4, #36]
 7457 006a 7449     		ldr	r1, .L1125+8
 7458 006c D964     		str	r1, [r3, #76]
 7459 006e 2168     		ldr	r1, [r4]
 7460 0070 3346     		mov	r3, r6
 7461 0072 3431     		adds	r1, r1, #52
 7462 0074 606A     		ldr	r0, [r4, #36]
 7463 0076 FFF7FEFF 		bl	HAL_DMA_Start_IT
 7464 007a 0028     		cmp	r0, #0
 7465 007c 00F09380 		beq	.L1119
 7466 0080 0125     		movs	r5, #1
 7467 0082 C1E0     		b	.L1087
 7468              	.L1118:
 7469 0084 002E     		cmp	r6, #0
 7470 0086 DDD0     		beq	.L1088
 7471 0088 0546     		mov	r5, r0
 7472 008a BDE0     		b	.L1087
 7473              	.L1086:
 7474 008c DBB2     		uxtb	r3, r3
ARM GAS  C:\Users\Administrator\AppData\Local\Temp\ccdDcLdm.s 			page 128


 7475 008e 0429     		cmp	r1, #4
 7476 0090 25D0     		beq	.L1120
 7477 0092 022D     		cmp	r5, #2
 7478 0094 00F0B880 		beq	.L1087
 7479 0098 BCF1020F 		cmp	ip, #2
 7480 009c 00F0BE80 		beq	.L1105
 7481 00a0 0228     		cmp	r0, #2
 7482 00a2 00F0BD80 		beq	.L1106
 7483 00a6 022B     		cmp	r3, #2
 7484 00a8 00F0BC80 		beq	.L1107
 7485 00ac 012D     		cmp	r5, #1
 7486 00ae 40F0BB80 		bne	.L1108
 7487 00b2 BCF1010F 		cmp	ip, #1
 7488 00b6 40F0A780 		bne	.L1087
 7489 00ba 0128     		cmp	r0, #1
 7490 00bc 40F0B680 		bne	.L1109
 7491 00c0 012B     		cmp	r3, #1
 7492 00c2 40F0B580 		bne	.L1110
 7493 00c6 1AB3     		cbz	r2, .L1092
 7494 00c8 17B3     		cbz	r7, .L1092
 7495              	.L1093:
 7496 00ca 0223     		movs	r3, #2
 7497 00cc 84F83E30 		strb	r3, [r4, #62]
 7498 00d0 84F83F30 		strb	r3, [r4, #63]
 7499 00d4 84F84230 		strb	r3, [r4, #66]
 7500 00d8 84F84330 		strb	r3, [r4, #67]
 7501 00dc B7E7     		b	.L1089
 7502              	.L1120:
 7503 00de BCF1020F 		cmp	ip, #2
 7504 00e2 00F09380 		beq	.L1100
 7505 00e6 022B     		cmp	r3, #2
 7506 00e8 00F09280 		beq	.L1101
 7507 00ec BCF1010F 		cmp	ip, #1
 7508 00f0 40F09080 		bne	.L1102
 7509 00f4 012B     		cmp	r3, #1
 7510 00f6 40F08F80 		bne	.L1103
 7511 00fa 2FB1     		cbz	r7, .L1121
 7512              	.L1091:
 7513 00fc 0223     		movs	r3, #2
 7514 00fe 84F83F30 		strb	r3, [r4, #63]
 7515 0102 84F84330 		strb	r3, [r4, #67]
 7516 0106 A2E7     		b	.L1089
 7517              	.L1121:
 7518 0108 002E     		cmp	r6, #0
 7519 010a F7D0     		beq	.L1091
 7520 010c 1D46     		mov	r5, r3
 7521 010e 7BE0     		b	.L1087
 7522              	.L1092:
 7523 0110 002E     		cmp	r6, #0
 7524 0112 DAD0     		beq	.L1093
 7525 0114 1D46     		mov	r5, r3
 7526 0116 77E0     		b	.L1087
 7527              	.L1094:
 7528 0118 636A     		ldr	r3, [r4, #36]
 7529 011a 4649     		ldr	r1, .L1125
 7530 011c D963     		str	r1, [r3, #60]
 7531 011e 636A     		ldr	r3, [r4, #36]
ARM GAS  C:\Users\Administrator\AppData\Local\Temp\ccdDcLdm.s 			page 129


 7532 0120 4549     		ldr	r1, .L1125+4
 7533 0122 1964     		str	r1, [r3, #64]
 7534 0124 636A     		ldr	r3, [r4, #36]
 7535 0126 4549     		ldr	r1, .L1125+8
 7536 0128 D964     		str	r1, [r3, #76]
 7537 012a 2168     		ldr	r1, [r4]
 7538 012c 3346     		mov	r3, r6
 7539 012e 3431     		adds	r1, r1, #52
 7540 0130 606A     		ldr	r0, [r4, #36]
 7541 0132 FFF7FEFF 		bl	HAL_DMA_Start_IT
 7542 0136 0546     		mov	r5, r0
 7543 0138 08B1     		cbz	r0, .L1122
 7544 013a 0125     		movs	r5, #1
 7545 013c 64E0     		b	.L1087
 7546              	.L1122:
 7547 013e 2268     		ldr	r2, [r4]
 7548 0140 D368     		ldr	r3, [r2, #12]
 7549 0142 43F40073 		orr	r3, r3, #512
 7550 0146 D360     		str	r3, [r2, #12]
 7551 0148 0122     		movs	r2, #1
 7552 014a 0146     		mov	r1, r0
 7553 014c 2068     		ldr	r0, [r4]
 7554 014e FFF7FEFF 		bl	TIM_CCxChannelCmd
 7555 0152 2268     		ldr	r2, [r4]
 7556 0154 1368     		ldr	r3, [r2]
 7557 0156 43F00103 		orr	r3, r3, #1
 7558 015a 1360     		str	r3, [r2]
 7559 015c 54E0     		b	.L1087
 7560              	.L1095:
 7561 015e A36A     		ldr	r3, [r4, #40]
 7562 0160 344A     		ldr	r2, .L1125
 7563 0162 DA63     		str	r2, [r3, #60]
 7564 0164 A36A     		ldr	r3, [r4, #40]
 7565 0166 344A     		ldr	r2, .L1125+4
 7566 0168 1A64     		str	r2, [r3, #64]
 7567 016a A36A     		ldr	r3, [r4, #40]
 7568 016c 334A     		ldr	r2, .L1125+8
 7569 016e DA64     		str	r2, [r3, #76]
 7570 0170 2168     		ldr	r1, [r4]
 7571 0172 3346     		mov	r3, r6
 7572 0174 3A46     		mov	r2, r7
 7573 0176 3831     		adds	r1, r1, #56
 7574 0178 A06A     		ldr	r0, [r4, #40]
 7575 017a FFF7FEFF 		bl	HAL_DMA_Start_IT
 7576 017e 0546     		mov	r5, r0
 7577 0180 08B1     		cbz	r0, .L1123
 7578 0182 0125     		movs	r5, #1
 7579 0184 40E0     		b	.L1087
 7580              	.L1123:
 7581 0186 2268     		ldr	r2, [r4]
 7582 0188 D368     		ldr	r3, [r2, #12]
 7583 018a 43F48063 		orr	r3, r3, #1024
 7584 018e D360     		str	r3, [r2, #12]
 7585 0190 0122     		movs	r2, #1
 7586 0192 0421     		movs	r1, #4
 7587 0194 2068     		ldr	r0, [r4]
 7588 0196 FFF7FEFF 		bl	TIM_CCxChannelCmd
ARM GAS  C:\Users\Administrator\AppData\Local\Temp\ccdDcLdm.s 			page 130


 7589 019a 2268     		ldr	r2, [r4]
 7590 019c 1368     		ldr	r3, [r2]
 7591 019e 43F00103 		orr	r3, r3, #1
 7592 01a2 1360     		str	r3, [r2]
 7593 01a4 30E0     		b	.L1087
 7594              	.L1119:
 7595 01a6 A36A     		ldr	r3, [r4, #40]
 7596 01a8 224A     		ldr	r2, .L1125
 7597 01aa DA63     		str	r2, [r3, #60]
 7598 01ac A36A     		ldr	r3, [r4, #40]
 7599 01ae 224A     		ldr	r2, .L1125+4
 7600 01b0 1A64     		str	r2, [r3, #64]
 7601 01b2 A36A     		ldr	r3, [r4, #40]
 7602 01b4 214A     		ldr	r2, .L1125+8
 7603 01b6 DA64     		str	r2, [r3, #76]
 7604 01b8 2168     		ldr	r1, [r4]
 7605 01ba 3346     		mov	r3, r6
 7606 01bc 3A46     		mov	r2, r7
 7607 01be 3831     		adds	r1, r1, #56
 7608 01c0 A06A     		ldr	r0, [r4, #40]
 7609 01c2 FFF7FEFF 		bl	HAL_DMA_Start_IT
 7610 01c6 0546     		mov	r5, r0
 7611 01c8 08B1     		cbz	r0, .L1124
 7612 01ca 0125     		movs	r5, #1
 7613 01cc 1CE0     		b	.L1087
 7614              	.L1124:
 7615 01ce 2268     		ldr	r2, [r4]
 7616 01d0 D368     		ldr	r3, [r2, #12]
 7617 01d2 43F40073 		orr	r3, r3, #512
 7618 01d6 D360     		str	r3, [r2, #12]
 7619 01d8 2268     		ldr	r2, [r4]
 7620 01da D368     		ldr	r3, [r2, #12]
 7621 01dc 43F48063 		orr	r3, r3, #1024
 7622 01e0 D360     		str	r3, [r2, #12]
 7623 01e2 0122     		movs	r2, #1
 7624 01e4 0146     		mov	r1, r0
 7625 01e6 2068     		ldr	r0, [r4]
 7626 01e8 FFF7FEFF 		bl	TIM_CCxChannelCmd
 7627 01ec 0122     		movs	r2, #1
 7628 01ee 0421     		movs	r1, #4
 7629 01f0 2068     		ldr	r0, [r4]
 7630 01f2 FFF7FEFF 		bl	TIM_CCxChannelCmd
 7631 01f6 2268     		ldr	r2, [r4]
 7632 01f8 1368     		ldr	r3, [r2]
 7633 01fa 43F00103 		orr	r3, r3, #1
 7634 01fe 1360     		str	r3, [r2]
 7635 0200 02E0     		b	.L1087
 7636              	.L1097:
 7637 0202 0546     		mov	r5, r0
 7638 0204 00E0     		b	.L1087
 7639              	.L1098:
 7640 0206 0125     		movs	r5, #1
 7641              	.L1087:
 7642 0208 2846     		mov	r0, r5
 7643 020a F8BD     		pop	{r3, r4, r5, r6, r7, pc}
 7644              	.L1100:
 7645 020c 6546     		mov	r5, ip
ARM GAS  C:\Users\Administrator\AppData\Local\Temp\ccdDcLdm.s 			page 131


 7646 020e FBE7     		b	.L1087
 7647              	.L1101:
 7648 0210 1D46     		mov	r5, r3
 7649 0212 F9E7     		b	.L1087
 7650              	.L1102:
 7651 0214 0125     		movs	r5, #1
 7652 0216 F7E7     		b	.L1087
 7653              	.L1103:
 7654 0218 6546     		mov	r5, ip
 7655 021a F5E7     		b	.L1087
 7656              	.L1105:
 7657 021c 6546     		mov	r5, ip
 7658 021e F3E7     		b	.L1087
 7659              	.L1106:
 7660 0220 0546     		mov	r5, r0
 7661 0222 F1E7     		b	.L1087
 7662              	.L1107:
 7663 0224 1D46     		mov	r5, r3
 7664 0226 EFE7     		b	.L1087
 7665              	.L1108:
 7666 0228 0125     		movs	r5, #1
 7667 022a EDE7     		b	.L1087
 7668              	.L1109:
 7669 022c 6546     		mov	r5, ip
 7670 022e EBE7     		b	.L1087
 7671              	.L1110:
 7672 0230 0546     		mov	r5, r0
 7673 0232 E9E7     		b	.L1087
 7674              	.L1126:
 7675              		.align	2
 7676              	.L1125:
 7677 0234 00000000 		.word	TIM_DMACaptureCplt
 7678 0238 00000000 		.word	TIM_DMACaptureHalfCplt
 7679 023c 00000000 		.word	TIM_DMAError
 7681              		.section	.text.HAL_TIM_Encoder_Stop_DMA,"ax",%progbits
 7682              		.align	1
 7683              		.global	HAL_TIM_Encoder_Stop_DMA
 7684              		.syntax unified
 7685              		.thumb
 7686              		.thumb_func
 7688              	HAL_TIM_Encoder_Stop_DMA:
 7689              		@ args = 0, pretend = 0, frame = 0
 7690              		@ frame_needed = 0, uses_anonymous_args = 0
 7691 0000 38B5     		push	{r3, r4, r5, lr}
 7692 0002 0446     		mov	r4, r0
 7693 0004 0D46     		mov	r5, r1
 7694 0006 0029     		cmp	r1, #0
 7695 0008 37D0     		beq	.L1138
 7696 000a 0429     		cmp	r1, #4
 7697 000c 42D0     		beq	.L1139
 7698 000e 0022     		movs	r2, #0
 7699 0010 1146     		mov	r1, r2
 7700 0012 0068     		ldr	r0, [r0]
 7701 0014 FFF7FEFF 		bl	TIM_CCxChannelCmd
 7702 0018 0022     		movs	r2, #0
 7703 001a 0421     		movs	r1, #4
 7704 001c 2068     		ldr	r0, [r4]
ARM GAS  C:\Users\Administrator\AppData\Local\Temp\ccdDcLdm.s 			page 132


 7705 001e FFF7FEFF 		bl	TIM_CCxChannelCmd
 7706 0022 2268     		ldr	r2, [r4]
 7707 0024 D368     		ldr	r3, [r2, #12]
 7708 0026 23F40073 		bic	r3, r3, #512
 7709 002a D360     		str	r3, [r2, #12]
 7710 002c 2268     		ldr	r2, [r4]
 7711 002e D368     		ldr	r3, [r2, #12]
 7712 0030 23F48063 		bic	r3, r3, #1024
 7713 0034 D360     		str	r3, [r2, #12]
 7714 0036 606A     		ldr	r0, [r4, #36]
 7715 0038 FFF7FEFF 		bl	HAL_DMA_Abort_IT
 7716 003c A06A     		ldr	r0, [r4, #40]
 7717 003e FFF7FEFF 		bl	HAL_DMA_Abort_IT
 7718              	.L1129:
 7719 0042 2368     		ldr	r3, [r4]
 7720 0044 196A     		ldr	r1, [r3, #32]
 7721 0046 41F21112 		movw	r2, #4369
 7722 004a 1142     		tst	r1, r2
 7723 004c 08D1     		bne	.L1131
 7724 004e 196A     		ldr	r1, [r3, #32]
 7725 0050 40F24442 		movw	r2, #1092
 7726 0054 1142     		tst	r1, r2
 7727 0056 03D1     		bne	.L1131
 7728 0058 1A68     		ldr	r2, [r3]
 7729 005a 22F00102 		bic	r2, r2, #1
 7730 005e 1A60     		str	r2, [r3]
 7731              	.L1131:
 7732 0060 35B3     		cbz	r5, .L1132
 7733 0062 042D     		cmp	r5, #4
 7734 0064 2BD0     		beq	.L1140
 7735 0066 0123     		movs	r3, #1
 7736 0068 84F83E30 		strb	r3, [r4, #62]
 7737 006c 84F83F30 		strb	r3, [r4, #63]
 7738 0070 84F84230 		strb	r3, [r4, #66]
 7739 0074 84F84330 		strb	r3, [r4, #67]
 7740 0078 1FE0     		b	.L1135
 7741              	.L1138:
 7742 007a 0A46     		mov	r2, r1
 7743 007c 0068     		ldr	r0, [r0]
 7744 007e FFF7FEFF 		bl	TIM_CCxChannelCmd
 7745 0082 2268     		ldr	r2, [r4]
 7746 0084 D368     		ldr	r3, [r2, #12]
 7747 0086 23F40073 		bic	r3, r3, #512
 7748 008a D360     		str	r3, [r2, #12]
 7749 008c 606A     		ldr	r0, [r4, #36]
 7750 008e FFF7FEFF 		bl	HAL_DMA_Abort_IT
 7751 0092 D6E7     		b	.L1129
 7752              	.L1139:
 7753 0094 0022     		movs	r2, #0
 7754 0096 0421     		movs	r1, #4
 7755 0098 0068     		ldr	r0, [r0]
 7756 009a FFF7FEFF 		bl	TIM_CCxChannelCmd
 7757 009e 2268     		ldr	r2, [r4]
 7758 00a0 D368     		ldr	r3, [r2, #12]
 7759 00a2 23F48063 		bic	r3, r3, #1024
 7760 00a6 D360     		str	r3, [r2, #12]
 7761 00a8 A06A     		ldr	r0, [r4, #40]
ARM GAS  C:\Users\Administrator\AppData\Local\Temp\ccdDcLdm.s 			page 133


 7762 00aa FFF7FEFF 		bl	HAL_DMA_Abort_IT
 7763 00ae C8E7     		b	.L1129
 7764              	.L1132:
 7765 00b0 0123     		movs	r3, #1
 7766 00b2 84F83E30 		strb	r3, [r4, #62]
 7767 00b6 84F84230 		strb	r3, [r4, #66]
 7768              	.L1135:
 7769 00ba 0020     		movs	r0, #0
 7770 00bc 38BD     		pop	{r3, r4, r5, pc}
 7771              	.L1140:
 7772 00be 0123     		movs	r3, #1
 7773 00c0 84F83F30 		strb	r3, [r4, #63]
 7774 00c4 84F84330 		strb	r3, [r4, #67]
 7775 00c8 F7E7     		b	.L1135
 7777              		.ident	"GCC: (xPack GNU Arm Embedded GCC x86_64) 15.2.1 20251203"
ARM GAS  C:\Users\Administrator\AppData\Local\Temp\ccdDcLdm.s 			page 134


DEFINED SYMBOLS
                            *ABS*:00000000 stm32f4xx_hal_tim.c
C:\Users\Administrator\AppData\Local\Temp\ccdDcLdm.s:18     .text.TIM_OC1_SetConfig:00000000 $t
C:\Users\Administrator\AppData\Local\Temp\ccdDcLdm.s:23     .text.TIM_OC1_SetConfig:00000000 TIM_OC1_SetConfig
C:\Users\Administrator\AppData\Local\Temp\ccdDcLdm.s:73     .text.TIM_OC1_SetConfig:00000070 $d
C:\Users\Administrator\AppData\Local\Temp\ccdDcLdm.s:76     .text.TIM_OC3_SetConfig:00000000 $t
C:\Users\Administrator\AppData\Local\Temp\ccdDcLdm.s:81     .text.TIM_OC3_SetConfig:00000000 TIM_OC3_SetConfig
C:\Users\Administrator\AppData\Local\Temp\ccdDcLdm.s:131    .text.TIM_OC3_SetConfig:00000074 $d
C:\Users\Administrator\AppData\Local\Temp\ccdDcLdm.s:134    .text.TIM_OC4_SetConfig:00000000 $t
C:\Users\Administrator\AppData\Local\Temp\ccdDcLdm.s:139    .text.TIM_OC4_SetConfig:00000000 TIM_OC4_SetConfig
C:\Users\Administrator\AppData\Local\Temp\ccdDcLdm.s:175    .text.TIM_OC4_SetConfig:00000050 $d
C:\Users\Administrator\AppData\Local\Temp\ccdDcLdm.s:178    .text.TIM_TI1_ConfigInputStage:00000000 $t
C:\Users\Administrator\AppData\Local\Temp\ccdDcLdm.s:183    .text.TIM_TI1_ConfigInputStage:00000000 TIM_TI1_ConfigInputStage
C:\Users\Administrator\AppData\Local\Temp\ccdDcLdm.s:201    .text.TIM_TI2_SetConfig:00000000 $t
C:\Users\Administrator\AppData\Local\Temp\ccdDcLdm.s:206    .text.TIM_TI2_SetConfig:00000000 TIM_TI2_SetConfig
C:\Users\Administrator\AppData\Local\Temp\ccdDcLdm.s:230    .text.TIM_TI2_ConfigInputStage:00000000 $t
C:\Users\Administrator\AppData\Local\Temp\ccdDcLdm.s:235    .text.TIM_TI2_ConfigInputStage:00000000 TIM_TI2_ConfigInputStage
C:\Users\Administrator\AppData\Local\Temp\ccdDcLdm.s:253    .text.TIM_TI3_SetConfig:00000000 $t
C:\Users\Administrator\AppData\Local\Temp\ccdDcLdm.s:258    .text.TIM_TI3_SetConfig:00000000 TIM_TI3_SetConfig
C:\Users\Administrator\AppData\Local\Temp\ccdDcLdm.s:282    .text.TIM_TI4_SetConfig:00000000 $t
C:\Users\Administrator\AppData\Local\Temp\ccdDcLdm.s:287    .text.TIM_TI4_SetConfig:00000000 TIM_TI4_SetConfig
C:\Users\Administrator\AppData\Local\Temp\ccdDcLdm.s:311    .text.TIM_ITRx_SetConfig:00000000 $t
C:\Users\Administrator\AppData\Local\Temp\ccdDcLdm.s:316    .text.TIM_ITRx_SetConfig:00000000 TIM_ITRx_SetConfig
C:\Users\Administrator\AppData\Local\Temp\ccdDcLdm.s:328    .text.HAL_TIM_Base_MspInit:00000000 $t
C:\Users\Administrator\AppData\Local\Temp\ccdDcLdm.s:334    .text.HAL_TIM_Base_MspInit:00000000 HAL_TIM_Base_MspInit
C:\Users\Administrator\AppData\Local\Temp\ccdDcLdm.s:341    .text.HAL_TIM_Base_MspDeInit:00000000 $t
C:\Users\Administrator\AppData\Local\Temp\ccdDcLdm.s:347    .text.HAL_TIM_Base_MspDeInit:00000000 HAL_TIM_Base_MspDeInit
C:\Users\Administrator\AppData\Local\Temp\ccdDcLdm.s:354    .text.HAL_TIM_Base_DeInit:00000000 $t
C:\Users\Administrator\AppData\Local\Temp\ccdDcLdm.s:360    .text.HAL_TIM_Base_DeInit:00000000 HAL_TIM_Base_DeInit
C:\Users\Administrator\AppData\Local\Temp\ccdDcLdm.s:397    .text.HAL_TIM_Base_Start:00000000 $t
C:\Users\Administrator\AppData\Local\Temp\ccdDcLdm.s:403    .text.HAL_TIM_Base_Start:00000000 HAL_TIM_Base_Start
C:\Users\Administrator\AppData\Local\Temp\ccdDcLdm.s:460    .text.HAL_TIM_Base_Start:00000078 $d
C:\Users\Administrator\AppData\Local\Temp\ccdDcLdm.s:463    .text.HAL_TIM_Base_Stop:00000000 $t
C:\Users\Administrator\AppData\Local\Temp\ccdDcLdm.s:469    .text.HAL_TIM_Base_Stop:00000000 HAL_TIM_Base_Stop
C:\Users\Administrator\AppData\Local\Temp\ccdDcLdm.s:492    .text.HAL_TIM_Base_Start_IT:00000000 $t
C:\Users\Administrator\AppData\Local\Temp\ccdDcLdm.s:498    .text.HAL_TIM_Base_Start_IT:00000000 HAL_TIM_Base_Start_IT
C:\Users\Administrator\AppData\Local\Temp\ccdDcLdm.s:559    .text.HAL_TIM_Base_Start_IT:00000080 $d
C:\Users\Administrator\AppData\Local\Temp\ccdDcLdm.s:562    .text.HAL_TIM_Base_Stop_IT:00000000 $t
C:\Users\Administrator\AppData\Local\Temp\ccdDcLdm.s:568    .text.HAL_TIM_Base_Stop_IT:00000000 HAL_TIM_Base_Stop_IT
C:\Users\Administrator\AppData\Local\Temp\ccdDcLdm.s:595    .text.HAL_TIM_Base_Start_DMA:00000000 $t
C:\Users\Administrator\AppData\Local\Temp\ccdDcLdm.s:601    .text.HAL_TIM_Base_Start_DMA:00000000 HAL_TIM_Base_Start_DMA
C:\Users\Administrator\AppData\Local\Temp\ccdDcLdm.s:694    .text.HAL_TIM_Base_Start_DMA:000000c4 $d
C:\Users\Administrator\AppData\Local\Temp\ccdDcLdm.s:1796   .text.TIM_DMAPeriodElapsedCplt:00000000 TIM_DMAPeriodElapsedCplt
C:\Users\Administrator\AppData\Local\Temp\ccdDcLdm.s:1829   .text.TIM_DMAPeriodElapsedHalfCplt:00000000 TIM_DMAPeriodElapsedHalfCplt
C:\Users\Administrator\AppData\Local\Temp\ccdDcLdm.s:2385   .text.TIM_DMAError:00000000 TIM_DMAError
C:\Users\Administrator\AppData\Local\Temp\ccdDcLdm.s:700    .text.HAL_TIM_Base_Stop_DMA:00000000 $t
C:\Users\Administrator\AppData\Local\Temp\ccdDcLdm.s:706    .text.HAL_TIM_Base_Stop_DMA:00000000 HAL_TIM_Base_Stop_DMA
C:\Users\Administrator\AppData\Local\Temp\ccdDcLdm.s:736    .text.HAL_TIM_OC_MspInit:00000000 $t
C:\Users\Administrator\AppData\Local\Temp\ccdDcLdm.s:742    .text.HAL_TIM_OC_MspInit:00000000 HAL_TIM_OC_MspInit
C:\Users\Administrator\AppData\Local\Temp\ccdDcLdm.s:749    .text.HAL_TIM_OC_MspDeInit:00000000 $t
C:\Users\Administrator\AppData\Local\Temp\ccdDcLdm.s:755    .text.HAL_TIM_OC_MspDeInit:00000000 HAL_TIM_OC_MspDeInit
C:\Users\Administrator\AppData\Local\Temp\ccdDcLdm.s:762    .text.HAL_TIM_OC_DeInit:00000000 $t
C:\Users\Administrator\AppData\Local\Temp\ccdDcLdm.s:768    .text.HAL_TIM_OC_DeInit:00000000 HAL_TIM_OC_DeInit
C:\Users\Administrator\AppData\Local\Temp\ccdDcLdm.s:805    .text.HAL_TIM_PWM_MspInit:00000000 $t
C:\Users\Administrator\AppData\Local\Temp\ccdDcLdm.s:811    .text.HAL_TIM_PWM_MspInit:00000000 HAL_TIM_PWM_MspInit
C:\Users\Administrator\AppData\Local\Temp\ccdDcLdm.s:818    .text.HAL_TIM_PWM_MspDeInit:00000000 $t
C:\Users\Administrator\AppData\Local\Temp\ccdDcLdm.s:824    .text.HAL_TIM_PWM_MspDeInit:00000000 HAL_TIM_PWM_MspDeInit
ARM GAS  C:\Users\Administrator\AppData\Local\Temp\ccdDcLdm.s 			page 135


C:\Users\Administrator\AppData\Local\Temp\ccdDcLdm.s:831    .text.HAL_TIM_PWM_DeInit:00000000 $t
C:\Users\Administrator\AppData\Local\Temp\ccdDcLdm.s:837    .text.HAL_TIM_PWM_DeInit:00000000 HAL_TIM_PWM_DeInit
C:\Users\Administrator\AppData\Local\Temp\ccdDcLdm.s:874    .text.HAL_TIM_IC_MspInit:00000000 $t
C:\Users\Administrator\AppData\Local\Temp\ccdDcLdm.s:880    .text.HAL_TIM_IC_MspInit:00000000 HAL_TIM_IC_MspInit
C:\Users\Administrator\AppData\Local\Temp\ccdDcLdm.s:887    .text.HAL_TIM_IC_MspDeInit:00000000 $t
C:\Users\Administrator\AppData\Local\Temp\ccdDcLdm.s:893    .text.HAL_TIM_IC_MspDeInit:00000000 HAL_TIM_IC_MspDeInit
C:\Users\Administrator\AppData\Local\Temp\ccdDcLdm.s:900    .text.HAL_TIM_IC_DeInit:00000000 $t
C:\Users\Administrator\AppData\Local\Temp\ccdDcLdm.s:906    .text.HAL_TIM_IC_DeInit:00000000 HAL_TIM_IC_DeInit
C:\Users\Administrator\AppData\Local\Temp\ccdDcLdm.s:943    .text.HAL_TIM_OnePulse_MspInit:00000000 $t
C:\Users\Administrator\AppData\Local\Temp\ccdDcLdm.s:949    .text.HAL_TIM_OnePulse_MspInit:00000000 HAL_TIM_OnePulse_MspInit
C:\Users\Administrator\AppData\Local\Temp\ccdDcLdm.s:956    .text.HAL_TIM_OnePulse_MspDeInit:00000000 $t
C:\Users\Administrator\AppData\Local\Temp\ccdDcLdm.s:962    .text.HAL_TIM_OnePulse_MspDeInit:00000000 HAL_TIM_OnePulse_MspDeInit
C:\Users\Administrator\AppData\Local\Temp\ccdDcLdm.s:969    .text.HAL_TIM_OnePulse_DeInit:00000000 $t
C:\Users\Administrator\AppData\Local\Temp\ccdDcLdm.s:975    .text.HAL_TIM_OnePulse_DeInit:00000000 HAL_TIM_OnePulse_DeInit
C:\Users\Administrator\AppData\Local\Temp\ccdDcLdm.s:1008   .text.HAL_TIM_Encoder_MspInit:00000000 $t
C:\Users\Administrator\AppData\Local\Temp\ccdDcLdm.s:1014   .text.HAL_TIM_Encoder_MspInit:00000000 HAL_TIM_Encoder_MspInit
C:\Users\Administrator\AppData\Local\Temp\ccdDcLdm.s:1021   .text.HAL_TIM_Encoder_MspDeInit:00000000 $t
C:\Users\Administrator\AppData\Local\Temp\ccdDcLdm.s:1027   .text.HAL_TIM_Encoder_MspDeInit:00000000 HAL_TIM_Encoder_MspDeInit
C:\Users\Administrator\AppData\Local\Temp\ccdDcLdm.s:1034   .text.HAL_TIM_Encoder_DeInit:00000000 $t
C:\Users\Administrator\AppData\Local\Temp\ccdDcLdm.s:1040   .text.HAL_TIM_Encoder_DeInit:00000000 HAL_TIM_Encoder_DeInit
C:\Users\Administrator\AppData\Local\Temp\ccdDcLdm.s:1073   .text.HAL_TIM_DMABurst_MultiWriteStart:00000000 $t
C:\Users\Administrator\AppData\Local\Temp\ccdDcLdm.s:1079   .text.HAL_TIM_DMABurst_MultiWriteStart:00000000 HAL_TIM_DMABurst_MultiWriteStart
C:\Users\Administrator\AppData\Local\Temp\ccdDcLdm.s:1277   .text.HAL_TIM_DMABurst_MultiWriteStart:00000188 $d
C:\Users\Administrator\AppData\Local\Temp\ccdDcLdm.s:2011   .text.TIM_DMADelayPulseCplt:00000000 TIM_DMADelayPulseCplt
C:\Users\Administrator\AppData\Local\Temp\ccdDcLdm.s:2091   .text.TIM_DMADelayPulseHalfCplt:00000000 TIM_DMADelayPulseHalfCplt
C:\Users\Administrator\AppData\Local\Temp\ccdDcLdm.s:2324   .text.TIM_DMATriggerCplt:00000000 TIM_DMATriggerCplt
C:\Users\Administrator\AppData\Local\Temp\ccdDcLdm.s:2357   .text.TIM_DMATriggerHalfCplt:00000000 TIM_DMATriggerHalfCplt
C:\Users\Administrator\AppData\Local\Temp\ccdDcLdm.s:1288   .text.HAL_TIM_DMABurst_WriteStart:00000000 $t
C:\Users\Administrator\AppData\Local\Temp\ccdDcLdm.s:1294   .text.HAL_TIM_DMABurst_WriteStart:00000000 HAL_TIM_DMABurst_WriteStart
C:\Users\Administrator\AppData\Local\Temp\ccdDcLdm.s:1310   .text.HAL_TIM_DMABurst_WriteStop:00000000 $t
C:\Users\Administrator\AppData\Local\Temp\ccdDcLdm.s:1316   .text.HAL_TIM_DMABurst_WriteStop:00000000 HAL_TIM_DMABurst_WriteStop
C:\Users\Administrator\AppData\Local\Temp\ccdDcLdm.s:1381   .text.HAL_TIM_DMABurst_MultiReadStart:00000000 $t
C:\Users\Administrator\AppData\Local\Temp\ccdDcLdm.s:1387   .text.HAL_TIM_DMABurst_MultiReadStart:00000000 HAL_TIM_DMABurst_MultiReadStart
C:\Users\Administrator\AppData\Local\Temp\ccdDcLdm.s:1585   .text.HAL_TIM_DMABurst_MultiReadStart:00000188 $d
C:\Users\Administrator\AppData\Local\Temp\ccdDcLdm.s:1870   .text.TIM_DMACaptureCplt:00000000 TIM_DMACaptureCplt
C:\Users\Administrator\AppData\Local\Temp\ccdDcLdm.s:1954   .text.TIM_DMACaptureHalfCplt:00000000 TIM_DMACaptureHalfCplt
C:\Users\Administrator\AppData\Local\Temp\ccdDcLdm.s:1596   .text.HAL_TIM_DMABurst_ReadStart:00000000 $t
C:\Users\Administrator\AppData\Local\Temp\ccdDcLdm.s:1602   .text.HAL_TIM_DMABurst_ReadStart:00000000 HAL_TIM_DMABurst_ReadStart
C:\Users\Administrator\AppData\Local\Temp\ccdDcLdm.s:1618   .text.HAL_TIM_DMABurst_ReadStop:00000000 $t
C:\Users\Administrator\AppData\Local\Temp\ccdDcLdm.s:1624   .text.HAL_TIM_DMABurst_ReadStop:00000000 HAL_TIM_DMABurst_ReadStop
C:\Users\Administrator\AppData\Local\Temp\ccdDcLdm.s:1689   .text.HAL_TIM_GenerateEvent:00000000 $t
C:\Users\Administrator\AppData\Local\Temp\ccdDcLdm.s:1695   .text.HAL_TIM_GenerateEvent:00000000 HAL_TIM_GenerateEvent
C:\Users\Administrator\AppData\Local\Temp\ccdDcLdm.s:1718   .text.HAL_TIM_ConfigTI1Input:00000000 $t
C:\Users\Administrator\AppData\Local\Temp\ccdDcLdm.s:1724   .text.HAL_TIM_ConfigTI1Input:00000000 HAL_TIM_ConfigTI1Input
C:\Users\Administrator\AppData\Local\Temp\ccdDcLdm.s:1737   .text.HAL_TIM_ReadCapturedValue:00000000 $t
C:\Users\Administrator\AppData\Local\Temp\ccdDcLdm.s:1743   .text.HAL_TIM_ReadCapturedValue:00000000 HAL_TIM_ReadCapturedValue
C:\Users\Administrator\AppData\Local\Temp\ccdDcLdm.s:1778   .text.HAL_TIM_PeriodElapsedCallback:00000000 $t
C:\Users\Administrator\AppData\Local\Temp\ccdDcLdm.s:1784   .text.HAL_TIM_PeriodElapsedCallback:00000000 HAL_TIM_PeriodElapsedCallback
C:\Users\Administrator\AppData\Local\Temp\ccdDcLdm.s:1791   .text.TIM_DMAPeriodElapsedCplt:00000000 $t
C:\Users\Administrator\AppData\Local\Temp\ccdDcLdm.s:1811   .text.HAL_TIM_PeriodElapsedHalfCpltCallback:00000000 $t
C:\Users\Administrator\AppData\Local\Temp\ccdDcLdm.s:1817   .text.HAL_TIM_PeriodElapsedHalfCpltCallback:00000000 HAL_TIM_PeriodElapsedHalfCpltCallback
C:\Users\Administrator\AppData\Local\Temp\ccdDcLdm.s:1824   .text.TIM_DMAPeriodElapsedHalfCplt:00000000 $t
C:\Users\Administrator\AppData\Local\Temp\ccdDcLdm.s:1838   .text.HAL_TIM_OC_DelayElapsedCallback:00000000 $t
C:\Users\Administrator\AppData\Local\Temp\ccdDcLdm.s:1844   .text.HAL_TIM_OC_DelayElapsedCallback:00000000 HAL_TIM_OC_DelayElapsedCallback
C:\Users\Administrator\AppData\Local\Temp\ccdDcLdm.s:1851   .text.HAL_TIM_IC_CaptureCallback:00000000 $t
C:\Users\Administrator\AppData\Local\Temp\ccdDcLdm.s:1857   .text.HAL_TIM_IC_CaptureCallback:00000000 HAL_TIM_IC_CaptureCallback
C:\Users\Administrator\AppData\Local\Temp\ccdDcLdm.s:1864   .text.TIM_DMACaptureCplt:00000000 $t
ARM GAS  C:\Users\Administrator\AppData\Local\Temp\ccdDcLdm.s 			page 136


C:\Users\Administrator\AppData\Local\Temp\ccdDcLdm.s:1935   .text.HAL_TIM_IC_CaptureHalfCpltCallback:00000000 $t
C:\Users\Administrator\AppData\Local\Temp\ccdDcLdm.s:1941   .text.HAL_TIM_IC_CaptureHalfCpltCallback:00000000 HAL_TIM_IC_CaptureHalfCpltCallback
C:\Users\Administrator\AppData\Local\Temp\ccdDcLdm.s:1948   .text.TIM_DMACaptureHalfCplt:00000000 $t
C:\Users\Administrator\AppData\Local\Temp\ccdDcLdm.s:1993   .text.HAL_TIM_PWM_PulseFinishedCallback:00000000 $t
C:\Users\Administrator\AppData\Local\Temp\ccdDcLdm.s:1999   .text.HAL_TIM_PWM_PulseFinishedCallback:00000000 HAL_TIM_PWM_PulseFinishedCallback
C:\Users\Administrator\AppData\Local\Temp\ccdDcLdm.s:2006   .text.TIM_DMADelayPulseCplt:00000000 $t
C:\Users\Administrator\AppData\Local\Temp\ccdDcLdm.s:2072   .text.HAL_TIM_PWM_PulseFinishedHalfCpltCallback:00000000 $t
C:\Users\Administrator\AppData\Local\Temp\ccdDcLdm.s:2078   .text.HAL_TIM_PWM_PulseFinishedHalfCpltCallback:00000000 HAL_TIM_PWM_PulseFinishedHalfCpltCallback
C:\Users\Administrator\AppData\Local\Temp\ccdDcLdm.s:2085   .text.TIM_DMADelayPulseHalfCplt:00000000 $t
C:\Users\Administrator\AppData\Local\Temp\ccdDcLdm.s:2130   .text.HAL_TIM_TriggerCallback:00000000 $t
C:\Users\Administrator\AppData\Local\Temp\ccdDcLdm.s:2136   .text.HAL_TIM_TriggerCallback:00000000 HAL_TIM_TriggerCallback
C:\Users\Administrator\AppData\Local\Temp\ccdDcLdm.s:2143   .text.HAL_TIM_IRQHandler:00000000 $t
C:\Users\Administrator\AppData\Local\Temp\ccdDcLdm.s:2149   .text.HAL_TIM_IRQHandler:00000000 HAL_TIM_IRQHandler
C:\Users\Administrator\AppData\Local\Temp\ccdDcLdm.s:2319   .text.TIM_DMATriggerCplt:00000000 $t
C:\Users\Administrator\AppData\Local\Temp\ccdDcLdm.s:2339   .text.HAL_TIM_TriggerHalfCpltCallback:00000000 $t
C:\Users\Administrator\AppData\Local\Temp\ccdDcLdm.s:2345   .text.HAL_TIM_TriggerHalfCpltCallback:00000000 HAL_TIM_TriggerHalfCpltCallback
C:\Users\Administrator\AppData\Local\Temp\ccdDcLdm.s:2352   .text.TIM_DMATriggerHalfCplt:00000000 $t
C:\Users\Administrator\AppData\Local\Temp\ccdDcLdm.s:2366   .text.HAL_TIM_ErrorCallback:00000000 $t
C:\Users\Administrator\AppData\Local\Temp\ccdDcLdm.s:2372   .text.HAL_TIM_ErrorCallback:00000000 HAL_TIM_ErrorCallback
C:\Users\Administrator\AppData\Local\Temp\ccdDcLdm.s:2379   .text.TIM_DMAError:00000000 $t
C:\Users\Administrator\AppData\Local\Temp\ccdDcLdm.s:2435   .text.HAL_TIM_Base_GetState:00000000 $t
C:\Users\Administrator\AppData\Local\Temp\ccdDcLdm.s:2441   .text.HAL_TIM_Base_GetState:00000000 HAL_TIM_Base_GetState
C:\Users\Administrator\AppData\Local\Temp\ccdDcLdm.s:2449   .text.HAL_TIM_OC_GetState:00000000 $t
C:\Users\Administrator\AppData\Local\Temp\ccdDcLdm.s:2455   .text.HAL_TIM_OC_GetState:00000000 HAL_TIM_OC_GetState
C:\Users\Administrator\AppData\Local\Temp\ccdDcLdm.s:2463   .text.HAL_TIM_PWM_GetState:00000000 $t
C:\Users\Administrator\AppData\Local\Temp\ccdDcLdm.s:2469   .text.HAL_TIM_PWM_GetState:00000000 HAL_TIM_PWM_GetState
C:\Users\Administrator\AppData\Local\Temp\ccdDcLdm.s:2477   .text.HAL_TIM_IC_GetState:00000000 $t
C:\Users\Administrator\AppData\Local\Temp\ccdDcLdm.s:2483   .text.HAL_TIM_IC_GetState:00000000 HAL_TIM_IC_GetState
C:\Users\Administrator\AppData\Local\Temp\ccdDcLdm.s:2491   .text.HAL_TIM_OnePulse_GetState:00000000 $t
C:\Users\Administrator\AppData\Local\Temp\ccdDcLdm.s:2497   .text.HAL_TIM_OnePulse_GetState:00000000 HAL_TIM_OnePulse_GetState
C:\Users\Administrator\AppData\Local\Temp\ccdDcLdm.s:2505   .text.HAL_TIM_Encoder_GetState:00000000 $t
C:\Users\Administrator\AppData\Local\Temp\ccdDcLdm.s:2511   .text.HAL_TIM_Encoder_GetState:00000000 HAL_TIM_Encoder_GetState
C:\Users\Administrator\AppData\Local\Temp\ccdDcLdm.s:2519   .text.HAL_TIM_GetActiveChannel:00000000 $t
C:\Users\Administrator\AppData\Local\Temp\ccdDcLdm.s:2525   .text.HAL_TIM_GetActiveChannel:00000000 HAL_TIM_GetActiveChannel
C:\Users\Administrator\AppData\Local\Temp\ccdDcLdm.s:2533   .text.HAL_TIM_GetChannelState:00000000 $t
C:\Users\Administrator\AppData\Local\Temp\ccdDcLdm.s:2539   .text.HAL_TIM_GetChannelState:00000000 HAL_TIM_GetChannelState
C:\Users\Administrator\AppData\Local\Temp\ccdDcLdm.s:2565   .text.HAL_TIM_DMABurstState:00000000 $t
C:\Users\Administrator\AppData\Local\Temp\ccdDcLdm.s:2571   .text.HAL_TIM_DMABurstState:00000000 HAL_TIM_DMABurstState
C:\Users\Administrator\AppData\Local\Temp\ccdDcLdm.s:2579   .text.TIM_Base_SetConfig:00000000 $t
C:\Users\Administrator\AppData\Local\Temp\ccdDcLdm.s:2585   .text.TIM_Base_SetConfig:00000000 TIM_Base_SetConfig
C:\Users\Administrator\AppData\Local\Temp\ccdDcLdm.s:2676   .text.TIM_Base_SetConfig:000000c4 $d
C:\Users\Administrator\AppData\Local\Temp\ccdDcLdm.s:2679   .text.HAL_TIM_Base_Init:00000000 $t
C:\Users\Administrator\AppData\Local\Temp\ccdDcLdm.s:2685   .text.HAL_TIM_Base_Init:00000000 HAL_TIM_Base_Init
C:\Users\Administrator\AppData\Local\Temp\ccdDcLdm.s:2721   .text.HAL_TIM_OC_Init:00000000 $t
C:\Users\Administrator\AppData\Local\Temp\ccdDcLdm.s:2727   .text.HAL_TIM_OC_Init:00000000 HAL_TIM_OC_Init
C:\Users\Administrator\AppData\Local\Temp\ccdDcLdm.s:2763   .text.HAL_TIM_PWM_Init:00000000 $t
C:\Users\Administrator\AppData\Local\Temp\ccdDcLdm.s:2769   .text.HAL_TIM_PWM_Init:00000000 HAL_TIM_PWM_Init
C:\Users\Administrator\AppData\Local\Temp\ccdDcLdm.s:2805   .text.HAL_TIM_IC_Init:00000000 $t
C:\Users\Administrator\AppData\Local\Temp\ccdDcLdm.s:2811   .text.HAL_TIM_IC_Init:00000000 HAL_TIM_IC_Init
C:\Users\Administrator\AppData\Local\Temp\ccdDcLdm.s:2847   .text.HAL_TIM_OnePulse_Init:00000000 $t
C:\Users\Administrator\AppData\Local\Temp\ccdDcLdm.s:2853   .text.HAL_TIM_OnePulse_Init:00000000 HAL_TIM_OnePulse_Init
C:\Users\Administrator\AppData\Local\Temp\ccdDcLdm.s:2894   .text.HAL_TIM_Encoder_Init:00000000 $t
C:\Users\Administrator\AppData\Local\Temp\ccdDcLdm.s:2900   .text.HAL_TIM_Encoder_Init:00000000 HAL_TIM_Encoder_Init
C:\Users\Administrator\AppData\Local\Temp\ccdDcLdm.s:2973   .text.TIM_OC2_SetConfig:00000000 $t
C:\Users\Administrator\AppData\Local\Temp\ccdDcLdm.s:2979   .text.TIM_OC2_SetConfig:00000000 TIM_OC2_SetConfig
C:\Users\Administrator\AppData\Local\Temp\ccdDcLdm.s:3029   .text.TIM_OC2_SetConfig:00000074 $d
C:\Users\Administrator\AppData\Local\Temp\ccdDcLdm.s:3032   .text.HAL_TIM_OC_ConfigChannel:00000000 $t
ARM GAS  C:\Users\Administrator\AppData\Local\Temp\ccdDcLdm.s 			page 137


C:\Users\Administrator\AppData\Local\Temp\ccdDcLdm.s:3038   .text.HAL_TIM_OC_ConfigChannel:00000000 HAL_TIM_OC_ConfigChannel
C:\Users\Administrator\AppData\Local\Temp\ccdDcLdm.s:3089   .text.HAL_TIM_PWM_ConfigChannel:00000000 $t
C:\Users\Administrator\AppData\Local\Temp\ccdDcLdm.s:3095   .text.HAL_TIM_PWM_ConfigChannel:00000000 HAL_TIM_PWM_ConfigChannel
C:\Users\Administrator\AppData\Local\Temp\ccdDcLdm.s:3204   .text.TIM_TI1_SetConfig:00000000 $t
C:\Users\Administrator\AppData\Local\Temp\ccdDcLdm.s:3210   .text.TIM_TI1_SetConfig:00000000 TIM_TI1_SetConfig
C:\Users\Administrator\AppData\Local\Temp\ccdDcLdm.s:3262   .text.TIM_TI1_SetConfig:00000078 $d
C:\Users\Administrator\AppData\Local\Temp\ccdDcLdm.s:3265   .text.HAL_TIM_IC_ConfigChannel:00000000 $t
C:\Users\Administrator\AppData\Local\Temp\ccdDcLdm.s:3271   .text.HAL_TIM_IC_ConfigChannel:00000000 HAL_TIM_IC_ConfigChannel
C:\Users\Administrator\AppData\Local\Temp\ccdDcLdm.s:3368   .text.HAL_TIM_OnePulse_ConfigChannel:00000000 $t
C:\Users\Administrator\AppData\Local\Temp\ccdDcLdm.s:3374   .text.HAL_TIM_OnePulse_ConfigChannel:00000000 HAL_TIM_OnePulse_ConfigChannel
C:\Users\Administrator\AppData\Local\Temp\ccdDcLdm.s:3495   .text.TIM_ETR_SetConfig:00000000 $t
C:\Users\Administrator\AppData\Local\Temp\ccdDcLdm.s:3501   .text.TIM_ETR_SetConfig:00000000 TIM_ETR_SetConfig
C:\Users\Administrator\AppData\Local\Temp\ccdDcLdm.s:3514   .text.HAL_TIM_ConfigOCrefClear:00000000 $t
C:\Users\Administrator\AppData\Local\Temp\ccdDcLdm.s:3520   .text.HAL_TIM_ConfigOCrefClear:00000000 HAL_TIM_ConfigOCrefClear
C:\Users\Administrator\AppData\Local\Temp\ccdDcLdm.s:3650   .text.HAL_TIM_ConfigClockSource:00000000 $t
C:\Users\Administrator\AppData\Local\Temp\ccdDcLdm.s:3656   .text.HAL_TIM_ConfigClockSource:00000000 HAL_TIM_ConfigClockSource
C:\Users\Administrator\AppData\Local\Temp\ccdDcLdm.s:3781   .text.TIM_SlaveTimer_SetConfig:00000000 $t
C:\Users\Administrator\AppData\Local\Temp\ccdDcLdm.s:3786   .text.TIM_SlaveTimer_SetConfig:00000000 TIM_SlaveTimer_SetConfig
C:\Users\Administrator\AppData\Local\Temp\ccdDcLdm.s:3888   .text.HAL_TIM_SlaveConfigSynchro:00000000 $t
C:\Users\Administrator\AppData\Local\Temp\ccdDcLdm.s:3894   .text.HAL_TIM_SlaveConfigSynchro:00000000 HAL_TIM_SlaveConfigSynchro
C:\Users\Administrator\AppData\Local\Temp\ccdDcLdm.s:3933   .text.HAL_TIM_SlaveConfigSynchro_IT:00000000 $t
C:\Users\Administrator\AppData\Local\Temp\ccdDcLdm.s:3939   .text.HAL_TIM_SlaveConfigSynchro_IT:00000000 HAL_TIM_SlaveConfigSynchro_IT
C:\Users\Administrator\AppData\Local\Temp\ccdDcLdm.s:3978   .text.TIM_CCxChannelCmd:00000000 $t
C:\Users\Administrator\AppData\Local\Temp\ccdDcLdm.s:3984   .text.TIM_CCxChannelCmd:00000000 TIM_CCxChannelCmd
C:\Users\Administrator\AppData\Local\Temp\ccdDcLdm.s:4001   .text.HAL_TIM_OC_Start:00000000 $t
C:\Users\Administrator\AppData\Local\Temp\ccdDcLdm.s:4007   .text.HAL_TIM_OC_Start:00000000 HAL_TIM_OC_Start
C:\Users\Administrator\AppData\Local\Temp\ccdDcLdm.s:4130   .text.HAL_TIM_OC_Start:000000f8 $d
C:\Users\Administrator\AppData\Local\Temp\ccdDcLdm.s:4133   .text.HAL_TIM_OC_Stop:00000000 $t
C:\Users\Administrator\AppData\Local\Temp\ccdDcLdm.s:4139   .text.HAL_TIM_OC_Stop:00000000 HAL_TIM_OC_Stop
C:\Users\Administrator\AppData\Local\Temp\ccdDcLdm.s:4207   .text.HAL_TIM_OC_Stop:00000088 $d
C:\Users\Administrator\AppData\Local\Temp\ccdDcLdm.s:4210   .text.HAL_TIM_OC_Start_IT:00000000 $t
C:\Users\Administrator\AppData\Local\Temp\ccdDcLdm.s:4216   .text.HAL_TIM_OC_Start_IT:00000000 HAL_TIM_OC_Start_IT
C:\Users\Administrator\AppData\Local\Temp\ccdDcLdm.s:4373   .text.HAL_TIM_OC_Start_IT:0000013c $d
C:\Users\Administrator\AppData\Local\Temp\ccdDcLdm.s:4376   .text.HAL_TIM_OC_Stop_IT:00000000 $t
C:\Users\Administrator\AppData\Local\Temp\ccdDcLdm.s:4382   .text.HAL_TIM_OC_Stop_IT:00000000 HAL_TIM_OC_Stop_IT
C:\Users\Administrator\AppData\Local\Temp\ccdDcLdm.s:4491   .text.HAL_TIM_OC_Stop_IT:000000d4 $d
C:\Users\Administrator\AppData\Local\Temp\ccdDcLdm.s:4494   .text.HAL_TIM_OC_Start_DMA:00000000 $t
C:\Users\Administrator\AppData\Local\Temp\ccdDcLdm.s:4500   .text.HAL_TIM_OC_Start_DMA:00000000 HAL_TIM_OC_Start_DMA
C:\Users\Administrator\AppData\Local\Temp\ccdDcLdm.s:4783   .text.HAL_TIM_OC_Start_DMA:00000254 $d
C:\Users\Administrator\AppData\Local\Temp\ccdDcLdm.s:4789   .text.HAL_TIM_OC_Stop_DMA:00000000 $t
C:\Users\Administrator\AppData\Local\Temp\ccdDcLdm.s:4795   .text.HAL_TIM_OC_Stop_DMA:00000000 HAL_TIM_OC_Stop_DMA
C:\Users\Administrator\AppData\Local\Temp\ccdDcLdm.s:4912   .text.HAL_TIM_OC_Stop_DMA:000000ec $d
C:\Users\Administrator\AppData\Local\Temp\ccdDcLdm.s:4915   .text.HAL_TIM_PWM_Start:00000000 $t
C:\Users\Administrator\AppData\Local\Temp\ccdDcLdm.s:4921   .text.HAL_TIM_PWM_Start:00000000 HAL_TIM_PWM_Start
C:\Users\Administrator\AppData\Local\Temp\ccdDcLdm.s:5044   .text.HAL_TIM_PWM_Start:000000f8 $d
C:\Users\Administrator\AppData\Local\Temp\ccdDcLdm.s:5047   .text.HAL_TIM_PWM_Stop:00000000 $t
C:\Users\Administrator\AppData\Local\Temp\ccdDcLdm.s:5053   .text.HAL_TIM_PWM_Stop:00000000 HAL_TIM_PWM_Stop
C:\Users\Administrator\AppData\Local\Temp\ccdDcLdm.s:5121   .text.HAL_TIM_PWM_Stop:00000088 $d
C:\Users\Administrator\AppData\Local\Temp\ccdDcLdm.s:5124   .text.HAL_TIM_PWM_Start_IT:00000000 $t
C:\Users\Administrator\AppData\Local\Temp\ccdDcLdm.s:5130   .text.HAL_TIM_PWM_Start_IT:00000000 HAL_TIM_PWM_Start_IT
C:\Users\Administrator\AppData\Local\Temp\ccdDcLdm.s:5287   .text.HAL_TIM_PWM_Start_IT:0000013c $d
C:\Users\Administrator\AppData\Local\Temp\ccdDcLdm.s:5290   .text.HAL_TIM_PWM_Stop_IT:00000000 $t
C:\Users\Administrator\AppData\Local\Temp\ccdDcLdm.s:5296   .text.HAL_TIM_PWM_Stop_IT:00000000 HAL_TIM_PWM_Stop_IT
C:\Users\Administrator\AppData\Local\Temp\ccdDcLdm.s:5405   .text.HAL_TIM_PWM_Stop_IT:000000d4 $d
C:\Users\Administrator\AppData\Local\Temp\ccdDcLdm.s:5408   .text.HAL_TIM_PWM_Start_DMA:00000000 $t
C:\Users\Administrator\AppData\Local\Temp\ccdDcLdm.s:5414   .text.HAL_TIM_PWM_Start_DMA:00000000 HAL_TIM_PWM_Start_DMA
C:\Users\Administrator\AppData\Local\Temp\ccdDcLdm.s:5697   .text.HAL_TIM_PWM_Start_DMA:00000254 $d
ARM GAS  C:\Users\Administrator\AppData\Local\Temp\ccdDcLdm.s 			page 138


C:\Users\Administrator\AppData\Local\Temp\ccdDcLdm.s:5703   .text.HAL_TIM_PWM_Stop_DMA:00000000 $t
C:\Users\Administrator\AppData\Local\Temp\ccdDcLdm.s:5709   .text.HAL_TIM_PWM_Stop_DMA:00000000 HAL_TIM_PWM_Stop_DMA
C:\Users\Administrator\AppData\Local\Temp\ccdDcLdm.s:5826   .text.HAL_TIM_PWM_Stop_DMA:000000ec $d
C:\Users\Administrator\AppData\Local\Temp\ccdDcLdm.s:5829   .text.HAL_TIM_IC_Start:00000000 $t
C:\Users\Administrator\AppData\Local\Temp\ccdDcLdm.s:5835   .text.HAL_TIM_IC_Start:00000000 HAL_TIM_IC_Start
C:\Users\Administrator\AppData\Local\Temp\ccdDcLdm.s:5973   .text.HAL_TIM_IC_Start:0000011c $d
C:\Users\Administrator\AppData\Local\Temp\ccdDcLdm.s:5976   .text.HAL_TIM_IC_Stop:00000000 $t
C:\Users\Administrator\AppData\Local\Temp\ccdDcLdm.s:5982   .text.HAL_TIM_IC_Stop:00000000 HAL_TIM_IC_Stop
C:\Users\Administrator\AppData\Local\Temp\ccdDcLdm.s:6044   .text.HAL_TIM_IC_Start_IT:00000000 $t
C:\Users\Administrator\AppData\Local\Temp\ccdDcLdm.s:6050   .text.HAL_TIM_IC_Start_IT:00000000 HAL_TIM_IC_Start_IT
C:\Users\Administrator\AppData\Local\Temp\ccdDcLdm.s:6222   .text.HAL_TIM_IC_Start_IT:00000160 $d
C:\Users\Administrator\AppData\Local\Temp\ccdDcLdm.s:6225   .text.HAL_TIM_IC_Stop_IT:00000000 $t
C:\Users\Administrator\AppData\Local\Temp\ccdDcLdm.s:6231   .text.HAL_TIM_IC_Stop_IT:00000000 HAL_TIM_IC_Stop_IT
C:\Users\Administrator\AppData\Local\Temp\ccdDcLdm.s:6334   .text.HAL_TIM_IC_Start_DMA:00000000 $t
C:\Users\Administrator\AppData\Local\Temp\ccdDcLdm.s:6340   .text.HAL_TIM_IC_Start_DMA:00000000 HAL_TIM_IC_Start_DMA
C:\Users\Administrator\AppData\Local\Temp\ccdDcLdm.s:6608   .text.HAL_TIM_IC_Start_DMA:00000228 $d
C:\Users\Administrator\AppData\Local\Temp\ccdDcLdm.s:6614   .text.HAL_TIM_IC_Stop_DMA:00000000 $t
C:\Users\Administrator\AppData\Local\Temp\ccdDcLdm.s:6620   .text.HAL_TIM_IC_Stop_DMA:00000000 HAL_TIM_IC_Stop_DMA
C:\Users\Administrator\AppData\Local\Temp\ccdDcLdm.s:6730   .text.HAL_TIM_OnePulse_Start:00000000 $t
C:\Users\Administrator\AppData\Local\Temp\ccdDcLdm.s:6736   .text.HAL_TIM_OnePulse_Start:00000000 HAL_TIM_OnePulse_Start
C:\Users\Administrator\AppData\Local\Temp\ccdDcLdm.s:6797   .text.HAL_TIM_OnePulse_Start:00000080 $d
C:\Users\Administrator\AppData\Local\Temp\ccdDcLdm.s:6800   .text.HAL_TIM_OnePulse_Stop:00000000 $t
C:\Users\Administrator\AppData\Local\Temp\ccdDcLdm.s:6806   .text.HAL_TIM_OnePulse_Stop:00000000 HAL_TIM_OnePulse_Stop
C:\Users\Administrator\AppData\Local\Temp\ccdDcLdm.s:6863   .text.HAL_TIM_OnePulse_Stop:0000007c $d
C:\Users\Administrator\AppData\Local\Temp\ccdDcLdm.s:6866   .text.HAL_TIM_OnePulse_Start_IT:00000000 $t
C:\Users\Administrator\AppData\Local\Temp\ccdDcLdm.s:6872   .text.HAL_TIM_OnePulse_Start_IT:00000000 HAL_TIM_OnePulse_Start_IT
C:\Users\Administrator\AppData\Local\Temp\ccdDcLdm.s:6942   .text.HAL_TIM_OnePulse_Start_IT:00000098 $d
C:\Users\Administrator\AppData\Local\Temp\ccdDcLdm.s:6945   .text.HAL_TIM_OnePulse_Stop_IT:00000000 $t
C:\Users\Administrator\AppData\Local\Temp\ccdDcLdm.s:6951   .text.HAL_TIM_OnePulse_Stop_IT:00000000 HAL_TIM_OnePulse_Stop_IT
C:\Users\Administrator\AppData\Local\Temp\ccdDcLdm.s:7016   .text.HAL_TIM_OnePulse_Stop_IT:00000090 $d
C:\Users\Administrator\AppData\Local\Temp\ccdDcLdm.s:7019   .text.HAL_TIM_Encoder_Start:00000000 $t
C:\Users\Administrator\AppData\Local\Temp\ccdDcLdm.s:7025   .text.HAL_TIM_Encoder_Start:00000000 HAL_TIM_Encoder_Start
C:\Users\Administrator\AppData\Local\Temp\ccdDcLdm.s:7126   .text.HAL_TIM_Encoder_Stop:00000000 $t
C:\Users\Administrator\AppData\Local\Temp\ccdDcLdm.s:7132   .text.HAL_TIM_Encoder_Stop:00000000 HAL_TIM_Encoder_Stop
C:\Users\Administrator\AppData\Local\Temp\ccdDcLdm.s:7197   .text.HAL_TIM_Encoder_Start_IT:00000000 $t
C:\Users\Administrator\AppData\Local\Temp\ccdDcLdm.s:7203   .text.HAL_TIM_Encoder_Start_IT:00000000 HAL_TIM_Encoder_Start_IT
C:\Users\Administrator\AppData\Local\Temp\ccdDcLdm.s:7320   .text.HAL_TIM_Encoder_Stop_IT:00000000 $t
C:\Users\Administrator\AppData\Local\Temp\ccdDcLdm.s:7326   .text.HAL_TIM_Encoder_Stop_IT:00000000 HAL_TIM_Encoder_Stop_IT
C:\Users\Administrator\AppData\Local\Temp\ccdDcLdm.s:7408   .text.HAL_TIM_Encoder_Start_DMA:00000000 $t
C:\Users\Administrator\AppData\Local\Temp\ccdDcLdm.s:7414   .text.HAL_TIM_Encoder_Start_DMA:00000000 HAL_TIM_Encoder_Start_DMA
C:\Users\Administrator\AppData\Local\Temp\ccdDcLdm.s:7677   .text.HAL_TIM_Encoder_Start_DMA:00000234 $d
C:\Users\Administrator\AppData\Local\Temp\ccdDcLdm.s:7682   .text.HAL_TIM_Encoder_Stop_DMA:00000000 $t
C:\Users\Administrator\AppData\Local\Temp\ccdDcLdm.s:7688   .text.HAL_TIM_Encoder_Stop_DMA:00000000 HAL_TIM_Encoder_Stop_DMA

UNDEFINED SYMBOLS
HAL_DMA_Start_IT
HAL_DMA_Abort_IT
TIMEx_DMACommutationCplt
TIMEx_DMACommutationHalfCplt
HAL_TIMEx_BreakCallback
HAL_TIMEx_CommutCallback
