ARM GAS  C:\Users\Administrator\AppData\Local\Temp\ccVnDQ9c.s 			page 1


   1              		.cpu cortex-m4
   2              		.arch armv7e-m
   3              		.fpu fpv4-sp-d16
   4              		.eabi_attribute 27, 1
   5              		.eabi_attribute 28, 1
   6              		.eabi_attribute 20, 1
   7              		.eabi_attribute 21, 1
   8              		.eabi_attribute 23, 3
   9              		.eabi_attribute 24, 1
  10              		.eabi_attribute 25, 1
  11              		.eabi_attribute 26, 1
  12              		.eabi_attribute 30, 1
  13              		.eabi_attribute 34, 1
  14              		.eabi_attribute 18, 4
  15              		.file	"usart.c"
  16              		.text
  17              		.section	.text.MX_USART1_UART_Init,"ax",%progbits
  18              		.align	1
  19              		.global	MX_USART1_UART_Init
  20              		.syntax unified
  21              		.thumb
  22              		.thumb_func
  24              	MX_USART1_UART_Init:
  25              		@ args = 0, pretend = 0, frame = 0
  26              		@ frame_needed = 0, uses_anonymous_args = 0
  27 0000 08B5     		push	{r3, lr}
  28 0002 0A48     		ldr	r0, .L5
  29 0004 0A4B     		ldr	r3, .L5+4
  30 0006 0360     		str	r3, [r0]
  31 0008 4FF46123 		mov	r3, #921600
  32 000c 4360     		str	r3, [r0, #4]
  33 000e 0023     		movs	r3, #0
  34 0010 8360     		str	r3, [r0, #8]
  35 0012 C360     		str	r3, [r0, #12]
  36 0014 0361     		str	r3, [r0, #16]
  37 0016 0C22     		movs	r2, #12
  38 0018 4261     		str	r2, [r0, #20]
  39 001a 8361     		str	r3, [r0, #24]
  40 001c C361     		str	r3, [r0, #28]
  41 001e FFF7FEFF 		bl	HAL_UART_Init
  42 0022 00B9     		cbnz	r0, .L4
  43              	.L1:
  44 0024 08BD     		pop	{r3, pc}
  45              	.L4:
  46 0026 FFF7FEFF 		bl	Error_Handler
  47 002a FBE7     		b	.L1
  48              	.L6:
  49              		.align	2
  50              	.L5:
  51 002c 00000000 		.word	huart1
  52 0030 00100140 		.word	1073811456
  54              		.section	.text.MX_USART3_UART_Init,"ax",%progbits
  55              		.align	1
  56              		.global	MX_USART3_UART_Init
  57              		.syntax unified
  58              		.thumb
  59              		.thumb_func
ARM GAS  C:\Users\Administrator\AppData\Local\Temp\ccVnDQ9c.s 			page 2


  61              	MX_USART3_UART_Init:
  62              		@ args = 0, pretend = 0, frame = 0
  63              		@ frame_needed = 0, uses_anonymous_args = 0
  64 0000 08B5     		push	{r3, lr}
  65 0002 0C48     		ldr	r0, .L11
  66 0004 0C4B     		ldr	r3, .L11+4
  67 0006 0360     		str	r3, [r0]
  68 0008 0C4B     		ldr	r3, .L11+8
  69 000a 4360     		str	r3, [r0, #4]
  70 000c 4FF48053 		mov	r3, #4096
  71 0010 8360     		str	r3, [r0, #8]
  72 0012 0023     		movs	r3, #0
  73 0014 C360     		str	r3, [r0, #12]
  74 0016 4FF48062 		mov	r2, #1024
  75 001a 0261     		str	r2, [r0, #16]
  76 001c 0C22     		movs	r2, #12
  77 001e 4261     		str	r2, [r0, #20]
  78 0020 8361     		str	r3, [r0, #24]
  79 0022 C361     		str	r3, [r0, #28]
  80 0024 FFF7FEFF 		bl	HAL_UART_Init
  81 0028 00B9     		cbnz	r0, .L10
  82              	.L7:
  83 002a 08BD     		pop	{r3, pc}
  84              	.L10:
  85 002c FFF7FEFF 		bl	Error_Handler
  86 0030 FBE7     		b	.L7
  87              	.L12:
  88 0032 00BF     		.align	2
  89              	.L11:
  90 0034 00000000 		.word	huart3
  91 0038 00480040 		.word	1073760256
  92 003c A0860100 		.word	100000
  94              		.section	.text.MX_USART6_UART_Init,"ax",%progbits
  95              		.align	1
  96              		.global	MX_USART6_UART_Init
  97              		.syntax unified
  98              		.thumb
  99              		.thumb_func
 101              	MX_USART6_UART_Init:
 102              		@ args = 0, pretend = 0, frame = 0
 103              		@ frame_needed = 0, uses_anonymous_args = 0
 104 0000 08B5     		push	{r3, lr}
 105 0002 0A48     		ldr	r0, .L17
 106 0004 0A4B     		ldr	r3, .L17+4
 107 0006 0360     		str	r3, [r0]
 108 0008 4FF4E133 		mov	r3, #115200
 109 000c 4360     		str	r3, [r0, #4]
 110 000e 0023     		movs	r3, #0
 111 0010 8360     		str	r3, [r0, #8]
 112 0012 C360     		str	r3, [r0, #12]
 113 0014 0361     		str	r3, [r0, #16]
 114 0016 0C22     		movs	r2, #12
 115 0018 4261     		str	r2, [r0, #20]
 116 001a 8361     		str	r3, [r0, #24]
 117 001c C361     		str	r3, [r0, #28]
 118 001e FFF7FEFF 		bl	HAL_UART_Init
 119 0022 00B9     		cbnz	r0, .L16
ARM GAS  C:\Users\Administrator\AppData\Local\Temp\ccVnDQ9c.s 			page 3


 120              	.L13:
 121 0024 08BD     		pop	{r3, pc}
 122              	.L16:
 123 0026 FFF7FEFF 		bl	Error_Handler
 124 002a FBE7     		b	.L13
 125              	.L18:
 126              		.align	2
 127              	.L17:
 128 002c 00000000 		.word	huart6
 129 0030 00140140 		.word	1073812480
 131              		.section	.text.HAL_UART_MspInit,"ax",%progbits
 132              		.align	1
 133              		.global	HAL_UART_MspInit
 134              		.syntax unified
 135              		.thumb
 136              		.thumb_func
 138              	HAL_UART_MspInit:
 139              		@ args = 0, pretend = 0, frame = 48
 140              		@ frame_needed = 0, uses_anonymous_args = 0
 141 0000 F0B5     		push	{r4, r5, r6, r7, lr}
 142 0002 8DB0     		sub	sp, sp, #52
 143 0004 0446     		mov	r4, r0
 144 0006 0023     		movs	r3, #0
 145 0008 0793     		str	r3, [sp, #28]
 146 000a 0893     		str	r3, [sp, #32]
 147 000c 0993     		str	r3, [sp, #36]
 148 000e 0A93     		str	r3, [sp, #40]
 149 0010 0B93     		str	r3, [sp, #44]
 150 0012 0368     		ldr	r3, [r0]
 151 0014 9B4A     		ldr	r2, .L37
 152 0016 9342     		cmp	r3, r2
 153 0018 08D0     		beq	.L29
 154 001a 9B4A     		ldr	r2, .L37+4
 155 001c 9342     		cmp	r3, r2
 156 001e 7ED0     		beq	.L30
 157 0020 9A4A     		ldr	r2, .L37+8
 158 0022 9342     		cmp	r3, r2
 159 0024 00F0C080 		beq	.L31
 160              	.L19:
 161 0028 0DB0     		add	sp, sp, #52
 162              		@ sp needed
 163 002a F0BD     		pop	{r4, r5, r6, r7, pc}
 164              	.L29:
 165 002c 0025     		movs	r5, #0
 166 002e 0095     		str	r5, [sp]
 167 0030 974B     		ldr	r3, .L37+12
 168 0032 5A6C     		ldr	r2, [r3, #68]
 169 0034 42F01002 		orr	r2, r2, #16
 170 0038 5A64     		str	r2, [r3, #68]
 171 003a 5A6C     		ldr	r2, [r3, #68]
 172 003c 02F01002 		and	r2, r2, #16
 173 0040 0092     		str	r2, [sp]
 174 0042 009A     		ldr	r2, [sp]
 175 0044 0195     		str	r5, [sp, #4]
 176 0046 1A6B     		ldr	r2, [r3, #48]
 177 0048 42F00202 		orr	r2, r2, #2
 178 004c 1A63     		str	r2, [r3, #48]
ARM GAS  C:\Users\Administrator\AppData\Local\Temp\ccVnDQ9c.s 			page 4


 179 004e 1A6B     		ldr	r2, [r3, #48]
 180 0050 02F00202 		and	r2, r2, #2
 181 0054 0192     		str	r2, [sp, #4]
 182 0056 019A     		ldr	r2, [sp, #4]
 183 0058 0295     		str	r5, [sp, #8]
 184 005a 1A6B     		ldr	r2, [r3, #48]
 185 005c 42F00102 		orr	r2, r2, #1
 186 0060 1A63     		str	r2, [r3, #48]
 187 0062 1B6B     		ldr	r3, [r3, #48]
 188 0064 03F00103 		and	r3, r3, #1
 189 0068 0293     		str	r3, [sp, #8]
 190 006a 029B     		ldr	r3, [sp, #8]
 191 006c 8023     		movs	r3, #128
 192 006e 0793     		str	r3, [sp, #28]
 193 0070 0226     		movs	r6, #2
 194 0072 0896     		str	r6, [sp, #32]
 195 0074 0327     		movs	r7, #3
 196 0076 0A97     		str	r7, [sp, #40]
 197 0078 0723     		movs	r3, #7
 198 007a 0B93     		str	r3, [sp, #44]
 199 007c 07A9     		add	r1, sp, #28
 200 007e 8548     		ldr	r0, .L37+16
 201 0080 FFF7FEFF 		bl	HAL_GPIO_Init
 202 0084 4FF40073 		mov	r3, #512
 203 0088 0793     		str	r3, [sp, #28]
 204 008a 0896     		str	r6, [sp, #32]
 205 008c 0995     		str	r5, [sp, #36]
 206 008e 0A97     		str	r7, [sp, #40]
 207 0090 0723     		movs	r3, #7
 208 0092 0B93     		str	r3, [sp, #44]
 209 0094 07A9     		add	r1, sp, #28
 210 0096 8048     		ldr	r0, .L37+20
 211 0098 FFF7FEFF 		bl	HAL_GPIO_Init
 212 009c 7F48     		ldr	r0, .L37+24
 213 009e 804B     		ldr	r3, .L37+28
 214 00a0 0360     		str	r3, [r0]
 215 00a2 4FF00063 		mov	r3, #134217728
 216 00a6 4360     		str	r3, [r0, #4]
 217 00a8 4023     		movs	r3, #64
 218 00aa 8360     		str	r3, [r0, #8]
 219 00ac C560     		str	r5, [r0, #12]
 220 00ae 4FF48063 		mov	r3, #1024
 221 00b2 0361     		str	r3, [r0, #16]
 222 00b4 4561     		str	r5, [r0, #20]
 223 00b6 8561     		str	r5, [r0, #24]
 224 00b8 C561     		str	r5, [r0, #28]
 225 00ba 4FF44033 		mov	r3, #196608
 226 00be 0362     		str	r3, [r0, #32]
 227 00c0 4562     		str	r5, [r0, #36]
 228 00c2 FFF7FEFF 		bl	HAL_DMA_Init
 229 00c6 20BB     		cbnz	r0, .L32
 230              	.L21:
 231 00c8 744B     		ldr	r3, .L37+24
 232 00ca 6363     		str	r3, [r4, #52]
 233 00cc 9C63     		str	r4, [r3, #56]
 234 00ce 7548     		ldr	r0, .L37+32
 235 00d0 754B     		ldr	r3, .L37+36
ARM GAS  C:\Users\Administrator\AppData\Local\Temp\ccVnDQ9c.s 			page 5


 236 00d2 0360     		str	r3, [r0]
 237 00d4 4FF00063 		mov	r3, #134217728
 238 00d8 4360     		str	r3, [r0, #4]
 239 00da 0023     		movs	r3, #0
 240 00dc 8360     		str	r3, [r0, #8]
 241 00de C360     		str	r3, [r0, #12]
 242 00e0 4FF48062 		mov	r2, #1024
 243 00e4 0261     		str	r2, [r0, #16]
 244 00e6 4361     		str	r3, [r0, #20]
 245 00e8 8361     		str	r3, [r0, #24]
 246 00ea C361     		str	r3, [r0, #28]
 247 00ec 4FF44032 		mov	r2, #196608
 248 00f0 0262     		str	r2, [r0, #32]
 249 00f2 4362     		str	r3, [r0, #36]
 250 00f4 FFF7FEFF 		bl	HAL_DMA_Init
 251 00f8 70B9     		cbnz	r0, .L33
 252              	.L22:
 253 00fa 6A4B     		ldr	r3, .L37+32
 254 00fc A363     		str	r3, [r4, #56]
 255 00fe 9C63     		str	r4, [r3, #56]
 256 0100 0022     		movs	r2, #0
 257 0102 0521     		movs	r1, #5
 258 0104 2520     		movs	r0, #37
 259 0106 FFF7FEFF 		bl	HAL_NVIC_SetPriority
 260 010a 2520     		movs	r0, #37
 261 010c FFF7FEFF 		bl	HAL_NVIC_EnableIRQ
 262 0110 8AE7     		b	.L19
 263              	.L32:
 264 0112 FFF7FEFF 		bl	Error_Handler
 265 0116 D7E7     		b	.L21
 266              	.L33:
 267 0118 FFF7FEFF 		bl	Error_Handler
 268 011c EDE7     		b	.L22
 269              	.L30:
 270 011e 0025     		movs	r5, #0
 271 0120 0395     		str	r5, [sp, #12]
 272 0122 5B4B     		ldr	r3, .L37+12
 273 0124 1A6C     		ldr	r2, [r3, #64]
 274 0126 42F48022 		orr	r2, r2, #262144
 275 012a 1A64     		str	r2, [r3, #64]
 276 012c 1A6C     		ldr	r2, [r3, #64]
 277 012e 02F48022 		and	r2, r2, #262144
 278 0132 0392     		str	r2, [sp, #12]
 279 0134 039A     		ldr	r2, [sp, #12]
 280 0136 0495     		str	r5, [sp, #16]
 281 0138 1A6B     		ldr	r2, [r3, #48]
 282 013a 42F00402 		orr	r2, r2, #4
 283 013e 1A63     		str	r2, [r3, #48]
 284 0140 1B6B     		ldr	r3, [r3, #48]
 285 0142 03F00403 		and	r3, r3, #4
 286 0146 0493     		str	r3, [sp, #16]
 287 0148 049B     		ldr	r3, [sp, #16]
 288 014a 4FF44063 		mov	r3, #3072
 289 014e 0793     		str	r3, [sp, #28]
 290 0150 0223     		movs	r3, #2
 291 0152 0893     		str	r3, [sp, #32]
 292 0154 0323     		movs	r3, #3
ARM GAS  C:\Users\Administrator\AppData\Local\Temp\ccVnDQ9c.s 			page 6


 293 0156 0A93     		str	r3, [sp, #40]
 294 0158 0723     		movs	r3, #7
 295 015a 0B93     		str	r3, [sp, #44]
 296 015c 07A9     		add	r1, sp, #28
 297 015e 5348     		ldr	r0, .L37+40
 298 0160 FFF7FEFF 		bl	HAL_GPIO_Init
 299 0164 5248     		ldr	r0, .L37+44
 300 0166 534B     		ldr	r3, .L37+48
 301 0168 0360     		str	r3, [r0]
 302 016a 4FF00063 		mov	r3, #134217728
 303 016e 4360     		str	r3, [r0, #4]
 304 0170 8560     		str	r5, [r0, #8]
 305 0172 C560     		str	r5, [r0, #12]
 306 0174 4FF48063 		mov	r3, #1024
 307 0178 0361     		str	r3, [r0, #16]
 308 017a 4561     		str	r5, [r0, #20]
 309 017c 8561     		str	r5, [r0, #24]
 310 017e C561     		str	r5, [r0, #28]
 311 0180 0562     		str	r5, [r0, #32]
 312 0182 4562     		str	r5, [r0, #36]
 313 0184 FFF7FEFF 		bl	HAL_DMA_Init
 314 0188 58B9     		cbnz	r0, .L34
 315              	.L25:
 316 018a 494B     		ldr	r3, .L37+44
 317 018c A363     		str	r3, [r4, #56]
 318 018e 9C63     		str	r4, [r3, #56]
 319 0190 0022     		movs	r2, #0
 320 0192 0521     		movs	r1, #5
 321 0194 2720     		movs	r0, #39
 322 0196 FFF7FEFF 		bl	HAL_NVIC_SetPriority
 323 019a 2720     		movs	r0, #39
 324 019c FFF7FEFF 		bl	HAL_NVIC_EnableIRQ
 325 01a0 42E7     		b	.L19
 326              	.L34:
 327 01a2 FFF7FEFF 		bl	Error_Handler
 328 01a6 F0E7     		b	.L25
 329              	.L31:
 330 01a8 0025     		movs	r5, #0
 331 01aa 0595     		str	r5, [sp, #20]
 332 01ac 384B     		ldr	r3, .L37+12
 333 01ae 5A6C     		ldr	r2, [r3, #68]
 334 01b0 42F02002 		orr	r2, r2, #32
 335 01b4 5A64     		str	r2, [r3, #68]
 336 01b6 5A6C     		ldr	r2, [r3, #68]
 337 01b8 02F02002 		and	r2, r2, #32
 338 01bc 0592     		str	r2, [sp, #20]
 339 01be 059A     		ldr	r2, [sp, #20]
 340 01c0 0695     		str	r5, [sp, #24]
 341 01c2 1A6B     		ldr	r2, [r3, #48]
 342 01c4 42F04002 		orr	r2, r2, #64
 343 01c8 1A63     		str	r2, [r3, #48]
 344 01ca 1B6B     		ldr	r3, [r3, #48]
 345 01cc 03F04003 		and	r3, r3, #64
 346 01d0 0693     		str	r3, [sp, #24]
 347 01d2 069B     		ldr	r3, [sp, #24]
 348 01d4 4FF48443 		mov	r3, #16896
 349 01d8 0793     		str	r3, [sp, #28]
ARM GAS  C:\Users\Administrator\AppData\Local\Temp\ccVnDQ9c.s 			page 7


 350 01da 0223     		movs	r3, #2
 351 01dc 0893     		str	r3, [sp, #32]
 352 01de 0326     		movs	r6, #3
 353 01e0 0A96     		str	r6, [sp, #40]
 354 01e2 0823     		movs	r3, #8
 355 01e4 0B93     		str	r3, [sp, #44]
 356 01e6 07A9     		add	r1, sp, #28
 357 01e8 3348     		ldr	r0, .L37+52
 358 01ea FFF7FEFF 		bl	HAL_GPIO_Init
 359 01ee 3348     		ldr	r0, .L37+56
 360 01f0 334B     		ldr	r3, .L37+60
 361 01f2 0360     		str	r3, [r0]
 362 01f4 4FF02063 		mov	r3, #167772160
 363 01f8 4360     		str	r3, [r0, #4]
 364 01fa 8560     		str	r5, [r0, #8]
 365 01fc C560     		str	r5, [r0, #12]
 366 01fe 4FF48063 		mov	r3, #1024
 367 0202 0361     		str	r3, [r0, #16]
 368 0204 4561     		str	r5, [r0, #20]
 369 0206 8561     		str	r5, [r0, #24]
 370 0208 C561     		str	r5, [r0, #28]
 371 020a 4FF40033 		mov	r3, #131072
 372 020e 0362     		str	r3, [r0, #32]
 373 0210 0423     		movs	r3, #4
 374 0212 4362     		str	r3, [r0, #36]
 375 0214 8662     		str	r6, [r0, #40]
 376 0216 C562     		str	r5, [r0, #44]
 377 0218 0563     		str	r5, [r0, #48]
 378 021a FFF7FEFF 		bl	HAL_DMA_Init
 379 021e 50BB     		cbnz	r0, .L35
 380              	.L26:
 381 0220 264B     		ldr	r3, .L37+56
 382 0222 A363     		str	r3, [r4, #56]
 383 0224 9C63     		str	r4, [r3, #56]
 384 0226 2748     		ldr	r0, .L37+64
 385 0228 274B     		ldr	r3, .L37+68
 386 022a 0360     		str	r3, [r0]
 387 022c 4FF02063 		mov	r3, #167772160
 388 0230 4360     		str	r3, [r0, #4]
 389 0232 4023     		movs	r3, #64
 390 0234 8360     		str	r3, [r0, #8]
 391 0236 0023     		movs	r3, #0
 392 0238 C360     		str	r3, [r0, #12]
 393 023a 4FF48062 		mov	r2, #1024
 394 023e 0261     		str	r2, [r0, #16]
 395 0240 4361     		str	r3, [r0, #20]
 396 0242 8361     		str	r3, [r0, #24]
 397 0244 C361     		str	r3, [r0, #28]
 398 0246 4FF40032 		mov	r2, #131072
 399 024a 0262     		str	r2, [r0, #32]
 400 024c 0422     		movs	r2, #4
 401 024e 4262     		str	r2, [r0, #36]
 402 0250 0322     		movs	r2, #3
 403 0252 8262     		str	r2, [r0, #40]
 404 0254 C362     		str	r3, [r0, #44]
 405 0256 0363     		str	r3, [r0, #48]
 406 0258 FFF7FEFF 		bl	HAL_DMA_Init
ARM GAS  C:\Users\Administrator\AppData\Local\Temp\ccVnDQ9c.s 			page 8


 407 025c 70B9     		cbnz	r0, .L36
 408              	.L27:
 409 025e 194B     		ldr	r3, .L37+64
 410 0260 6363     		str	r3, [r4, #52]
 411 0262 9C63     		str	r4, [r3, #56]
 412 0264 0022     		movs	r2, #0
 413 0266 0521     		movs	r1, #5
 414 0268 4720     		movs	r0, #71
 415 026a FFF7FEFF 		bl	HAL_NVIC_SetPriority
 416 026e 4720     		movs	r0, #71
 417 0270 FFF7FEFF 		bl	HAL_NVIC_EnableIRQ
 418 0274 D8E6     		b	.L19
 419              	.L35:
 420 0276 FFF7FEFF 		bl	Error_Handler
 421 027a D1E7     		b	.L26
 422              	.L36:
 423 027c FFF7FEFF 		bl	Error_Handler
 424 0280 EDE7     		b	.L27
 425              	.L38:
 426 0282 00BF     		.align	2
 427              	.L37:
 428 0284 00100140 		.word	1073811456
 429 0288 00480040 		.word	1073760256
 430 028c 00140140 		.word	1073812480
 431 0290 00380240 		.word	1073887232
 432 0294 00040240 		.word	1073873920
 433 0298 00000240 		.word	1073872896
 434 029c 00000000 		.word	hdma_usart1_tx
 435 02a0 B8640240 		.word	1073898680
 436 02a4 00000000 		.word	hdma_usart1_rx
 437 02a8 88640240 		.word	1073898632
 438 02ac 00080240 		.word	1073874944
 439 02b0 00000000 		.word	hdma_usart3_rx
 440 02b4 28600240 		.word	1073897512
 441 02b8 00180240 		.word	1073879040
 442 02bc 00000000 		.word	hdma_usart6_rx
 443 02c0 40640240 		.word	1073898560
 444 02c4 00000000 		.word	hdma_usart6_tx
 445 02c8 A0640240 		.word	1073898656
 447              		.section	.text.HAL_UART_MspDeInit,"ax",%progbits
 448              		.align	1
 449              		.global	HAL_UART_MspDeInit
 450              		.syntax unified
 451              		.thumb
 452              		.thumb_func
 454              	HAL_UART_MspDeInit:
 455              		@ args = 0, pretend = 0, frame = 0
 456              		@ frame_needed = 0, uses_anonymous_args = 0
 457 0000 10B5     		push	{r4, lr}
 458 0002 0446     		mov	r4, r0
 459 0004 0368     		ldr	r3, [r0]
 460 0006 254A     		ldr	r2, .L47
 461 0008 9342     		cmp	r3, r2
 462 000a 06D0     		beq	.L44
 463 000c 244A     		ldr	r2, .L47+4
 464 000e 9342     		cmp	r3, r2
 465 0010 1CD0     		beq	.L45
ARM GAS  C:\Users\Administrator\AppData\Local\Temp\ccVnDQ9c.s 			page 9


 466 0012 244A     		ldr	r2, .L47+8
 467 0014 9342     		cmp	r3, r2
 468 0016 2BD0     		beq	.L46
 469              	.L39:
 470 0018 10BD     		pop	{r4, pc}
 471              	.L44:
 472 001a 02F59432 		add	r2, r2, #75776
 473 001e 536C     		ldr	r3, [r2, #68]
 474 0020 23F01003 		bic	r3, r3, #16
 475 0024 5364     		str	r3, [r2, #68]
 476 0026 8021     		movs	r1, #128
 477 0028 1F48     		ldr	r0, .L47+12
 478 002a FFF7FEFF 		bl	HAL_GPIO_DeInit
 479 002e 4FF40071 		mov	r1, #512
 480 0032 1E48     		ldr	r0, .L47+16
 481 0034 FFF7FEFF 		bl	HAL_GPIO_DeInit
 482 0038 606B     		ldr	r0, [r4, #52]
 483 003a FFF7FEFF 		bl	HAL_DMA_DeInit
 484 003e A06B     		ldr	r0, [r4, #56]
 485 0040 FFF7FEFF 		bl	HAL_DMA_DeInit
 486 0044 2520     		movs	r0, #37
 487 0046 FFF7FEFF 		bl	HAL_NVIC_DisableIRQ
 488 004a E5E7     		b	.L39
 489              	.L45:
 490 004c 02F5F832 		add	r2, r2, #126976
 491 0050 136C     		ldr	r3, [r2, #64]
 492 0052 23F48023 		bic	r3, r3, #262144
 493 0056 1364     		str	r3, [r2, #64]
 494 0058 4FF44061 		mov	r1, #3072
 495 005c 1448     		ldr	r0, .L47+20
 496 005e FFF7FEFF 		bl	HAL_GPIO_DeInit
 497 0062 A06B     		ldr	r0, [r4, #56]
 498 0064 FFF7FEFF 		bl	HAL_DMA_DeInit
 499 0068 2720     		movs	r0, #39
 500 006a FFF7FEFF 		bl	HAL_NVIC_DisableIRQ
 501 006e D3E7     		b	.L39
 502              	.L46:
 503 0070 02F59232 		add	r2, r2, #74752
 504 0074 536C     		ldr	r3, [r2, #68]
 505 0076 23F02003 		bic	r3, r3, #32
 506 007a 5364     		str	r3, [r2, #68]
 507 007c 4FF48441 		mov	r1, #16896
 508 0080 0C48     		ldr	r0, .L47+24
 509 0082 FFF7FEFF 		bl	HAL_GPIO_DeInit
 510 0086 A06B     		ldr	r0, [r4, #56]
 511 0088 FFF7FEFF 		bl	HAL_DMA_DeInit
 512 008c 606B     		ldr	r0, [r4, #52]
 513 008e FFF7FEFF 		bl	HAL_DMA_DeInit
 514 0092 4720     		movs	r0, #71
 515 0094 FFF7FEFF 		bl	HAL_NVIC_DisableIRQ
 516 0098 BEE7     		b	.L39
 517              	.L48:
 518 009a 00BF     		.align	2
 519              	.L47:
 520 009c 00100140 		.word	1073811456
 521 00a0 00480040 		.word	1073760256
 522 00a4 00140140 		.word	1073812480
ARM GAS  C:\Users\Administrator\AppData\Local\Temp\ccVnDQ9c.s 			page 10


 523 00a8 00040240 		.word	1073873920
 524 00ac 00000240 		.word	1073872896
 525 00b0 00080240 		.word	1073874944
 526 00b4 00180240 		.word	1073879040
 528              		.global	hdma_usart6_tx
 529              		.section	.bss.hdma_usart6_tx,"aw",%nobits
 530              		.align	2
 533              	hdma_usart6_tx:
 534 0000 00000000 		.space	96
 534      00000000 
 534      00000000 
 534      00000000 
 534      00000000 
 535              		.global	hdma_usart6_rx
 536              		.section	.bss.hdma_usart6_rx,"aw",%nobits
 537              		.align	2
 540              	hdma_usart6_rx:
 541 0000 00000000 		.space	96
 541      00000000 
 541      00000000 
 541      00000000 
 541      00000000 
 542              		.global	hdma_usart3_rx
 543              		.section	.bss.hdma_usart3_rx,"aw",%nobits
 544              		.align	2
 547              	hdma_usart3_rx:
 548 0000 00000000 		.space	96
 548      00000000 
 548      00000000 
 548      00000000 
 548      00000000 
 549              		.global	hdma_usart1_rx
 550              		.section	.bss.hdma_usart1_rx,"aw",%nobits
 551              		.align	2
 554              	hdma_usart1_rx:
 555 0000 00000000 		.space	96
 555      00000000 
 555      00000000 
 555      00000000 
 555      00000000 
 556              		.global	hdma_usart1_tx
 557              		.section	.bss.hdma_usart1_tx,"aw",%nobits
 558              		.align	2
 561              	hdma_usart1_tx:
 562 0000 00000000 		.space	96
 562      00000000 
 562      00000000 
 562      00000000 
 562      00000000 
 563              		.global	huart6
 564              		.section	.bss.huart6,"aw",%nobits
 565              		.align	2
 568              	huart6:
 569 0000 00000000 		.space	68
 569      00000000 
 569      00000000 
 569      00000000 
ARM GAS  C:\Users\Administrator\AppData\Local\Temp\ccVnDQ9c.s 			page 11


 569      00000000 
 570              		.global	huart3
 571              		.section	.bss.huart3,"aw",%nobits
 572              		.align	2
 575              	huart3:
 576 0000 00000000 		.space	68
 576      00000000 
 576      00000000 
 576      00000000 
 576      00000000 
 577              		.global	huart1
 578              		.section	.bss.huart1,"aw",%nobits
 579              		.align	2
 582              	huart1:
 583 0000 00000000 		.space	68
 583      00000000 
 583      00000000 
 583      00000000 
 583      00000000 
 584              		.ident	"GCC: (xPack GNU Arm Embedded GCC x86_64) 15.2.1 20251203"
ARM GAS  C:\Users\Administrator\AppData\Local\Temp\ccVnDQ9c.s 			page 12

