ARM GAS  C:\Users\Administrator\AppData\Local\Temp\ccmzNNSg.s 			page 1


   1              		.cpu cortex-m4
   2              		.arch armv7e-m
   3              		.fpu fpv4-sp-d16
   4              		.eabi_attribute 27, 1
   5              		.eabi_attribute 28, 1
   6              		.eabi_attribute 20, 1
   7              		.eabi_attribute 21, 1
   8              		.eabi_attribute 23, 3
   9              		.eabi_attribute 24, 1
  10              		.eabi_attribute 25, 1
  11              		.eabi_attribute 26, 1
  12              		.eabi_attribute 30, 1
  13              		.eabi_attribute 34, 1
  14              		.eabi_attribute 18, 4
  15              		.file	"usbd_cdc_if.c"
  16              		.text
  17              		.section	.text.CDC_DeInit_FS,"ax",%progbits
  18              		.align	1
  19              		.syntax unified
  20              		.thumb
  21              		.thumb_func
  23              	CDC_DeInit_FS:
  24              		@ args = 0, pretend = 0, frame = 0
  25              		@ frame_needed = 0, uses_anonymous_args = 0
  26              		@ link register save eliminated.
  27 0000 0020     		movs	r0, #0
  28 0002 7047     		bx	lr
  30              		.section	.text.CDC_Control_FS,"ax",%progbits
  31              		.align	1
  32              		.syntax unified
  33              		.thumb
  34              		.thumb_func
  36              	CDC_Control_FS:
  37              		@ args = 0, pretend = 0, frame = 0
  38              		@ frame_needed = 0, uses_anonymous_args = 0
  39              		@ link register save eliminated.
  40 0000 0020     		movs	r0, #0
  41 0002 7047     		bx	lr
  43              		.section	.text.CDC_TransmitCplt_FS,"ax",%progbits
  44              		.align	1
  45              		.syntax unified
  46              		.thumb
  47              		.thumb_func
  49              	CDC_TransmitCplt_FS:
  50              		@ args = 0, pretend = 0, frame = 0
  51              		@ frame_needed = 0, uses_anonymous_args = 0
  52 0000 08B5     		push	{r3, lr}
  53 0002 034B     		ldr	r3, .L6
  54 0004 1B68     		ldr	r3, [r3]
  55 0006 0BB1     		cbz	r3, .L4
  56 0008 0888     		ldrh	r0, [r1]
  57 000a 9847     		blx	r3
  58              	.L4:
  59 000c 0020     		movs	r0, #0
  60 000e 08BD     		pop	{r3, pc}
  61              	.L7:
  62              		.align	2
ARM GAS  C:\Users\Administrator\AppData\Local\Temp\ccmzNNSg.s 			page 2


  63              	.L6:
  64 0010 00000000 		.word	tx_cbk
  66              		.section	.text.CDC_Receive_FS,"ax",%progbits
  67              		.align	1
  68              		.syntax unified
  69              		.thumb
  70              		.thumb_func
  72              	CDC_Receive_FS:
  73              		@ args = 0, pretend = 0, frame = 0
  74              		@ frame_needed = 0, uses_anonymous_args = 0
  75 0000 38B5     		push	{r3, r4, r5, lr}
  76 0002 0D46     		mov	r5, r1
  77 0004 074C     		ldr	r4, .L11
  78 0006 0146     		mov	r1, r0
  79 0008 2046     		mov	r0, r4
  80 000a FFF7FEFF 		bl	USBD_CDC_SetRxBuffer
  81 000e 2046     		mov	r0, r4
  82 0010 FFF7FEFF 		bl	USBD_CDC_ReceivePacket
  83 0014 044B     		ldr	r3, .L11+4
  84 0016 1B68     		ldr	r3, [r3]
  85 0018 0BB1     		cbz	r3, .L9
  86 001a 2888     		ldrh	r0, [r5]
  87 001c 9847     		blx	r3
  88              	.L9:
  89 001e 0020     		movs	r0, #0
  90 0020 38BD     		pop	{r3, r4, r5, pc}
  91              	.L12:
  92 0022 00BF     		.align	2
  93              	.L11:
  94 0024 00000000 		.word	hUsbDeviceFS
  95 0028 00000000 		.word	rx_cbk
  97              		.section	.text.CDC_Init_FS,"ax",%progbits
  98              		.align	1
  99              		.syntax unified
 100              		.thumb
 101              		.thumb_func
 103              	CDC_Init_FS:
 104              		@ args = 0, pretend = 0, frame = 0
 105              		@ frame_needed = 0, uses_anonymous_args = 0
 106 0000 10B5     		push	{r4, lr}
 107 0002 064C     		ldr	r4, .L15
 108 0004 0022     		movs	r2, #0
 109 0006 0649     		ldr	r1, .L15+4
 110 0008 2046     		mov	r0, r4
 111 000a FFF7FEFF 		bl	USBD_CDC_SetTxBuffer
 112 000e 0549     		ldr	r1, .L15+8
 113 0010 2046     		mov	r0, r4
 114 0012 FFF7FEFF 		bl	USBD_CDC_SetRxBuffer
 115 0016 0020     		movs	r0, #0
 116 0018 10BD     		pop	{r4, pc}
 117              	.L16:
 118 001a 00BF     		.align	2
 119              	.L15:
 120 001c 00000000 		.word	hUsbDeviceFS
 121 0020 00000000 		.word	UserTxBufferFS
 122 0024 00000000 		.word	UserRxBufferFS
 124              		.section	.text.CDC_Transmit_FS,"ax",%progbits
ARM GAS  C:\Users\Administrator\AppData\Local\Temp\ccmzNNSg.s 			page 3


 125              		.align	1
 126              		.global	CDC_Transmit_FS
 127              		.syntax unified
 128              		.thumb
 129              		.thumb_func
 131              	CDC_Transmit_FS:
 132              		@ args = 0, pretend = 0, frame = 0
 133              		@ frame_needed = 0, uses_anonymous_args = 0
 134 0000 08B5     		push	{r3, lr}
 135 0002 084B     		ldr	r3, .L22
 136 0004 D3F8BC32 		ldr	r3, [r3, #700]
 137 0008 D3F81432 		ldr	r3, [r3, #532]
 138 000c 0BB1     		cbz	r3, .L21
 139 000e 0120     		movs	r0, #1
 140              	.L18:
 141 0010 08BD     		pop	{r3, pc}
 142              	.L21:
 143 0012 0A46     		mov	r2, r1
 144 0014 0146     		mov	r1, r0
 145 0016 0348     		ldr	r0, .L22
 146 0018 FFF7FEFF 		bl	USBD_CDC_SetTxBuffer
 147 001c 0148     		ldr	r0, .L22
 148 001e FFF7FEFF 		bl	USBD_CDC_TransmitPacket
 149 0022 F5E7     		b	.L18
 150              	.L23:
 151              		.align	2
 152              	.L22:
 153 0024 00000000 		.word	hUsbDeviceFS
 155              		.section	.text.CDCInitRxbufferNcallback,"ax",%progbits
 156              		.align	1
 157              		.global	CDCInitRxbufferNcallback
 158              		.syntax unified
 159              		.thumb
 160              		.thumb_func
 162              	CDCInitRxbufferNcallback:
 163              		@ args = 0, pretend = 0, frame = 0
 164              		@ frame_needed = 0, uses_anonymous_args = 0
 165              		@ link register save eliminated.
 166 0000 024B     		ldr	r3, .L25
 167 0002 1860     		str	r0, [r3]
 168 0004 024B     		ldr	r3, .L25+4
 169 0006 1960     		str	r1, [r3]
 170 0008 0248     		ldr	r0, .L25+8
 171 000a 7047     		bx	lr
 172              	.L26:
 173              		.align	2
 174              	.L25:
 175 000c 00000000 		.word	tx_cbk
 176 0010 00000000 		.word	rx_cbk
 177 0014 00000000 		.word	UserRxBufferFS
 179              		.global	USBD_Interface_fops_FS
 180              		.section	.data.USBD_Interface_fops_FS,"aw"
 181              		.align	2
 184              	USBD_Interface_fops_FS:
 185 0000 00000000 		.word	CDC_Init_FS
 186 0004 00000000 		.word	CDC_DeInit_FS
 187 0008 00000000 		.word	CDC_Control_FS
ARM GAS  C:\Users\Administrator\AppData\Local\Temp\ccmzNNSg.s 			page 4


 188 000c 00000000 		.word	CDC_Receive_FS
 189 0010 00000000 		.word	CDC_TransmitCplt_FS
 190              		.global	UserTxBufferFS
 191              		.section	.bss.UserTxBufferFS,"aw",%nobits
 192              		.align	2
 195              	UserTxBufferFS:
 196 0000 00000000 		.space	2048
 196      00000000 
 196      00000000 
 196      00000000 
 196      00000000 
 197              		.global	UserRxBufferFS
 198              		.section	.bss.UserRxBufferFS,"aw",%nobits
 199              		.align	2
 202              	UserRxBufferFS:
 203 0000 00000000 		.space	2048
 203      00000000 
 203      00000000 
 203      00000000 
 203      00000000 
 204              		.section	.bss.rx_cbk,"aw",%nobits
 205              		.align	2
 208              	rx_cbk:
 209 0000 00000000 		.space	4
 210              		.section	.bss.tx_cbk,"aw",%nobits
 211              		.align	2
 214              	tx_cbk:
 215 0000 00000000 		.space	4
 216              		.ident	"GCC: (xPack GNU Arm Embedded GCC x86_64) 15.2.1 20251203"
ARM GAS  C:\Users\Administrator\AppData\Local\Temp\ccmzNNSg.s 			page 5

