ARM GAS  C:\Users\Administrator\AppData\Local\Temp\ccoprpl5.s 			page 1


   1              		.cpu cortex-m4
   2              		.arch armv7e-m
   3              		.fpu fpv4-sp-d16
   4              		.eabi_attribute 27, 1
   5              		.eabi_attribute 28, 1
   6              		.eabi_attribute 20, 1
   7              		.eabi_attribute 21, 1
   8              		.eabi_attribute 23, 3
   9              		.eabi_attribute 24, 1
  10              		.eabi_attribute 25, 1
  11              		.eabi_attribute 26, 1
  12              		.eabi_attribute 30, 1
  13              		.eabi_attribute 34, 1
  14              		.eabi_attribute 18, 4
  15              		.file	"main.c"
  16              		.text
  17              	.Ltext0:
  18              		.cfi_sections	.debug_frame
  19              		.file 1 "Src/main.c"
  20              		.section	.text.HAL_TIM_PeriodElapsedCallback,"ax",%progbits
  21              		.align	1
  22              		.global	HAL_TIM_PeriodElapsedCallback
  23              		.syntax unified
  24              		.thumb
  25              		.thumb_func
  27              	HAL_TIM_PeriodElapsedCallback:
  28              	.LVL0:
  29              	.LFB246:
   1:Src/main.c    **** /* USER CODE BEGIN Header */
   2:Src/main.c    **** /**
   3:Src/main.c    ****   ******************************************************************************
   4:Src/main.c    ****   * @file           : main.c
   5:Src/main.c    ****   * @brief          : Main program body
   6:Src/main.c    ****   ******************************************************************************
   7:Src/main.c    ****   * @attention
   8:Src/main.c    ****   *
   9:Src/main.c    ****   * Copyright (c) 2023 STMicroelectronics.
  10:Src/main.c    ****   * All rights reserved.
  11:Src/main.c    ****   *
  12:Src/main.c    ****   * This software is licensed under terms that can be found in the LICENSE file
  13:Src/main.c    ****   * in the root directory of this software component.
  14:Src/main.c    ****   * If no LICENSE file comes with this software, it is provided AS-IS.
  15:Src/main.c    ****   *
  16:Src/main.c    ****   ******************************************************************************
  17:Src/main.c    ****   */
  18:Src/main.c    **** /* USER CODE END Header */
  19:Src/main.c    **** /* Includes ------------------------------------------------------------------*/
  20:Src/main.c    **** #include "main.h"
  21:Src/main.c    **** #include "cmsis_os.h"
  22:Src/main.c    **** #include "adc.h"
  23:Src/main.c    **** #include "can.h"
  24:Src/main.c    **** #include "crc.h"
  25:Src/main.c    **** #include "dac.h"
  26:Src/main.c    **** #include "dma.h"
  27:Src/main.c    **** #include "i2c.h"
  28:Src/main.c    **** #include "rng.h"
  29:Src/main.c    **** #include "rtc.h"
ARM GAS  C:\Users\Administrator\AppData\Local\Temp\ccoprpl5.s 			page 2


  30:Src/main.c    **** #include "spi.h"
  31:Src/main.c    **** #include "tim.h"
  32:Src/main.c    **** #include "usart.h"
  33:Src/main.c    **** #include "usb_device.h"
  34:Src/main.c    **** #include "gpio.h"
  35:Src/main.c    **** 
  36:Src/main.c    **** /* Private includes ----------------------------------------------------------*/
  37:Src/main.c    **** /* USER CODE BEGIN Includes */
  38:Src/main.c    **** #include "robot.h"
  39:Src/main.c    **** #include "bsp_log.h"
  40:Src/main.c    **** /* USER CODE END Includes */
  41:Src/main.c    **** 
  42:Src/main.c    **** /* Private typedef -----------------------------------------------------------*/
  43:Src/main.c    **** /* USER CODE BEGIN PTD */
  44:Src/main.c    **** 
  45:Src/main.c    **** /* USER CODE END PTD */
  46:Src/main.c    **** 
  47:Src/main.c    **** /* Private define ------------------------------------------------------------*/
  48:Src/main.c    **** /* USER CODE BEGIN PD */
  49:Src/main.c    **** /* USER CODE END PD */
  50:Src/main.c    **** 
  51:Src/main.c    **** /* Private macro -------------------------------------------------------------*/
  52:Src/main.c    **** /* USER CODE BEGIN PM */
  53:Src/main.c    **** 
  54:Src/main.c    **** /* USER CODE END PM */
  55:Src/main.c    **** 
  56:Src/main.c    **** /* Private variables ---------------------------------------------------------*/
  57:Src/main.c    **** 
  58:Src/main.c    **** /* USER CODE BEGIN PV */
  59:Src/main.c    **** 
  60:Src/main.c    **** /* USER CODE END PV */
  61:Src/main.c    **** 
  62:Src/main.c    **** /* Private function prototypes -----------------------------------------------*/
  63:Src/main.c    **** void SystemClock_Config(void);
  64:Src/main.c    **** void MX_FREERTOS_Init(void);
  65:Src/main.c    **** /* USER CODE BEGIN PFP */
  66:Src/main.c    **** 
  67:Src/main.c    **** /* USER CODE END PFP */
  68:Src/main.c    **** 
  69:Src/main.c    **** /* Private user code ---------------------------------------------------------*/
  70:Src/main.c    **** /* USER CODE BEGIN 0 */
  71:Src/main.c    **** 
  72:Src/main.c    **** /* USER CODE END 0 */
  73:Src/main.c    **** 
  74:Src/main.c    **** /**
  75:Src/main.c    ****   * @brief  The application entry point.
  76:Src/main.c    ****   * @retval int
  77:Src/main.c    ****   */
  78:Src/main.c    **** int main(void)
  79:Src/main.c    **** {
  80:Src/main.c    ****   /* USER CODE BEGIN 1 */
  81:Src/main.c    **** 
  82:Src/main.c    ****   /* USER CODE END 1 */
  83:Src/main.c    **** 
  84:Src/main.c    ****   /* MCU Configuration--------------------------------------------------------*/
  85:Src/main.c    **** 
  86:Src/main.c    ****   /* Reset of all peripherals, Initializes the Flash interface and the Systick. */
ARM GAS  C:\Users\Administrator\AppData\Local\Temp\ccoprpl5.s 			page 3


  87:Src/main.c    ****   HAL_Init();
  88:Src/main.c    **** 
  89:Src/main.c    ****   /* USER CODE BEGIN Init */
  90:Src/main.c    **** 
  91:Src/main.c    ****   /* USER CODE END Init */
  92:Src/main.c    **** 
  93:Src/main.c    ****   /* Configure the system clock */
  94:Src/main.c    ****   SystemClock_Config();
  95:Src/main.c    **** 
  96:Src/main.c    ****   /* USER CODE BEGIN SysInit */
  97:Src/main.c    **** 
  98:Src/main.c    ****   /* USER CODE END SysInit */
  99:Src/main.c    **** 
 100:Src/main.c    ****   /* Initialize all configured peripherals */
 101:Src/main.c    ****   MX_GPIO_Init();
 102:Src/main.c    ****   MX_DMA_Init();
 103:Src/main.c    ****   MX_ADC1_Init();
 104:Src/main.c    ****   MX_CAN1_Init();
 105:Src/main.c    ****   MX_CAN2_Init();
 106:Src/main.c    ****   MX_SPI1_Init();
 107:Src/main.c    ****   MX_TIM4_Init();
 108:Src/main.c    ****   MX_TIM5_Init();
 109:Src/main.c    ****   MX_USART3_UART_Init();
 110:Src/main.c    ****   MX_RNG_Init();
 111:Src/main.c    ****   MX_RTC_Init();
 112:Src/main.c    ****   MX_TIM1_Init();
 113:Src/main.c    ****   MX_TIM10_Init();
 114:Src/main.c    ****   MX_USART1_UART_Init();
 115:Src/main.c    ****   MX_USART6_UART_Init();
 116:Src/main.c    ****   MX_TIM8_Init();
 117:Src/main.c    ****   MX_I2C2_Init();
 118:Src/main.c    ****   MX_I2C3_Init();
 119:Src/main.c    ****   MX_SPI2_Init();
 120:Src/main.c    ****   MX_CRC_Init();
 121:Src/main.c    ****   MX_DAC_Init();
 122:Src/main.c    ****   /* USER CODE BEGIN 2 */
 123:Src/main.c    **** 	RobotInit(); // 唯一的初始化函数
 124:Src/main.c    ****   LOGINFO("[main] SystemInit() and RobotInit() done");
 125:Src/main.c    ****   /* USER CODE END 2 */
 126:Src/main.c    **** 
 127:Src/main.c    ****   /* Call init function for freertos objects (in freertos.c) */
 128:Src/main.c    ****   MX_FREERTOS_Init();
 129:Src/main.c    **** 
 130:Src/main.c    ****   /* Start scheduler */
 131:Src/main.c    ****   osKernelStart();
 132:Src/main.c    **** 
 133:Src/main.c    ****   /* We should never get here as control is now taken by the scheduler */
 134:Src/main.c    ****   /* Infinite loop */
 135:Src/main.c    ****   /* USER CODE BEGIN WHILE */
 136:Src/main.c    ****   while (1)
 137:Src/main.c    ****   {
 138:Src/main.c    ****     /* USER CODE END WHILE */
 139:Src/main.c    **** 
 140:Src/main.c    ****     /* USER CODE BEGIN 3 */
 141:Src/main.c    ****   }
 142:Src/main.c    ****   /* USER CODE END 3 */
 143:Src/main.c    **** }
ARM GAS  C:\Users\Administrator\AppData\Local\Temp\ccoprpl5.s 			page 4


 144:Src/main.c    **** 
 145:Src/main.c    **** /**
 146:Src/main.c    ****   * @brief System Clock Configuration
 147:Src/main.c    ****   * @retval None
 148:Src/main.c    ****   */
 149:Src/main.c    **** void SystemClock_Config(void)
 150:Src/main.c    **** {
 151:Src/main.c    ****   RCC_OscInitTypeDef RCC_OscInitStruct = {0};
 152:Src/main.c    ****   RCC_ClkInitTypeDef RCC_ClkInitStruct = {0};
 153:Src/main.c    **** 
 154:Src/main.c    ****   /** Configure the main internal regulator output voltage
 155:Src/main.c    ****   */
 156:Src/main.c    ****   __HAL_RCC_PWR_CLK_ENABLE();
 157:Src/main.c    ****   __HAL_PWR_VOLTAGESCALING_CONFIG(PWR_REGULATOR_VOLTAGE_SCALE1);
 158:Src/main.c    **** 
 159:Src/main.c    ****   /** Initializes the RCC Oscillators according to the specified parameters
 160:Src/main.c    ****   * in the RCC_OscInitTypeDef structure.
 161:Src/main.c    ****   */
 162:Src/main.c    ****   RCC_OscInitStruct.OscillatorType = RCC_OSCILLATORTYPE_HSE;
 163:Src/main.c    ****   RCC_OscInitStruct.HSEState = RCC_HSE_ON;
 164:Src/main.c    ****   RCC_OscInitStruct.PLL.PLLState = RCC_PLL_ON;
 165:Src/main.c    ****   RCC_OscInitStruct.PLL.PLLSource = RCC_PLLSOURCE_HSE;
 166:Src/main.c    ****   RCC_OscInitStruct.PLL.PLLM = 6;
 167:Src/main.c    ****   RCC_OscInitStruct.PLL.PLLN = 168;
 168:Src/main.c    ****   RCC_OscInitStruct.PLL.PLLP = RCC_PLLP_DIV2;
 169:Src/main.c    ****   RCC_OscInitStruct.PLL.PLLQ = 7;
 170:Src/main.c    ****   if (HAL_RCC_OscConfig(&RCC_OscInitStruct) != HAL_OK)
 171:Src/main.c    ****   {
 172:Src/main.c    ****     Error_Handler();
 173:Src/main.c    ****   }
 174:Src/main.c    **** 
 175:Src/main.c    ****   /** Initializes the CPU, AHB and APB buses clocks
 176:Src/main.c    ****   */
 177:Src/main.c    ****   RCC_ClkInitStruct.ClockType = RCC_CLOCKTYPE_HCLK|RCC_CLOCKTYPE_SYSCLK
 178:Src/main.c    ****                               |RCC_CLOCKTYPE_PCLK1|RCC_CLOCKTYPE_PCLK2;
 179:Src/main.c    ****   RCC_ClkInitStruct.SYSCLKSource = RCC_SYSCLKSOURCE_PLLCLK;
 180:Src/main.c    ****   RCC_ClkInitStruct.AHBCLKDivider = RCC_SYSCLK_DIV1;
 181:Src/main.c    ****   RCC_ClkInitStruct.APB1CLKDivider = RCC_HCLK_DIV4;
 182:Src/main.c    ****   RCC_ClkInitStruct.APB2CLKDivider = RCC_HCLK_DIV2;
 183:Src/main.c    **** 
 184:Src/main.c    ****   if (HAL_RCC_ClockConfig(&RCC_ClkInitStruct, FLASH_LATENCY_5) != HAL_OK)
 185:Src/main.c    ****   {
 186:Src/main.c    ****     Error_Handler();
 187:Src/main.c    ****   }
 188:Src/main.c    **** }
 189:Src/main.c    **** 
 190:Src/main.c    **** /* USER CODE BEGIN 4 */
 191:Src/main.c    **** 
 192:Src/main.c    **** /* USER CODE END 4 */
 193:Src/main.c    **** 
 194:Src/main.c    **** /**
 195:Src/main.c    ****   * @brief  Period elapsed callback in non blocking mode
 196:Src/main.c    ****   * @note   This function is called  when TIM14 interrupt took place, inside
 197:Src/main.c    ****   * HAL_TIM_IRQHandler(). It makes a direct call to HAL_IncTick() to increment
 198:Src/main.c    ****   * a global variable "uwTick" used as application time base.
 199:Src/main.c    ****   * @param  htim : TIM handle
 200:Src/main.c    ****   * @retval None
ARM GAS  C:\Users\Administrator\AppData\Local\Temp\ccoprpl5.s 			page 5


 201:Src/main.c    ****   */
 202:Src/main.c    **** void HAL_TIM_PeriodElapsedCallback(TIM_HandleTypeDef *htim)
 203:Src/main.c    **** {
  30              		.loc 1 203 1 view -0
  31              		.cfi_startproc
  32              		@ args = 0, pretend = 0, frame = 0
  33              		@ frame_needed = 0, uses_anonymous_args = 0
  34              		.loc 1 203 1 is_stmt 0 view .LVU1
  35 0000 08B5     		push	{r3, lr}
  36              	.LCFI0:
  37              		.cfi_def_cfa_offset 8
  38              		.cfi_offset 3, -8
  39              		.cfi_offset 14, -4
 204:Src/main.c    ****   /* USER CODE BEGIN Callback 0 */
 205:Src/main.c    **** 
 206:Src/main.c    ****   /* USER CODE END Callback 0 */
 207:Src/main.c    ****   if (htim->Instance == TIM14) {
  40              		.loc 1 207 3 is_stmt 1 view .LVU2
  41              		.loc 1 207 11 is_stmt 0 view .LVU3
  42 0002 0268     		ldr	r2, [r0]
  43              		.loc 1 207 6 view .LVU4
  44 0004 034B     		ldr	r3, .L5
  45 0006 9A42     		cmp	r2, r3
  46 0008 00D0     		beq	.L4
  47              	.LVL1:
  48              	.L1:
 208:Src/main.c    ****     HAL_IncTick();
 209:Src/main.c    ****   }
 210:Src/main.c    ****   /* USER CODE BEGIN Callback 1 */
 211:Src/main.c    **** 
 212:Src/main.c    ****   /* USER CODE END Callback 1 */
 213:Src/main.c    **** }
  49              		.loc 1 213 1 view .LVU5
  50 000a 08BD     		pop	{r3, pc}
  51              	.LVL2:
  52              	.L4:
 208:Src/main.c    ****     HAL_IncTick();
  53              		.loc 1 208 5 is_stmt 1 view .LVU6
  54 000c FFF7FEFF 		bl	HAL_IncTick
  55              	.LVL3:
  56              		.loc 1 213 1 is_stmt 0 view .LVU7
  57 0010 FBE7     		b	.L1
  58              	.L6:
  59 0012 00BF     		.align	2
  60              	.L5:
  61 0014 00200040 		.word	1073750016
  62              		.cfi_endproc
  63              	.LFE246:
  65              		.section	.text.Error_Handler,"ax",%progbits
  66              		.align	1
  67              		.global	Error_Handler
  68              		.syntax unified
  69              		.thumb
  70              		.thumb_func
  72              	Error_Handler:
  73              	.LFB247:
 214:Src/main.c    **** 
ARM GAS  C:\Users\Administrator\AppData\Local\Temp\ccoprpl5.s 			page 6


 215:Src/main.c    **** /**
 216:Src/main.c    ****   * @brief  This function is executed in case of error occurrence.
 217:Src/main.c    ****   * @retval None
 218:Src/main.c    ****   */
 219:Src/main.c    **** void Error_Handler(void)
 220:Src/main.c    **** {
  74              		.loc 1 220 1 is_stmt 1 view -0
  75              		.cfi_startproc
  76              		@ Volatile: function does not return.
  77              		@ args = 0, pretend = 0, frame = 0
  78              		@ frame_needed = 0, uses_anonymous_args = 0
  79              		@ link register save eliminated.
 221:Src/main.c    ****   /* USER CODE BEGIN Error_Handler_Debug */
 222:Src/main.c    ****   /* User can add his own implementation to report the HAL error return state */
 223:Src/main.c    ****   __disable_irq();
  80              		.loc 1 223 3 view .LVU9
  81              	.LBB4:
  82              	.LBI4:
  83              		.file 2 "Drivers/CMSIS/Include/cmsis_gcc.h"
   1:Drivers/CMSIS/Include/cmsis_gcc.h **** /**************************************************************************//**
   2:Drivers/CMSIS/Include/cmsis_gcc.h ****  * @file     cmsis_gcc.h
   3:Drivers/CMSIS/Include/cmsis_gcc.h ****  * @brief    CMSIS compiler GCC header file
   4:Drivers/CMSIS/Include/cmsis_gcc.h ****  * @version  V5.0.4
   5:Drivers/CMSIS/Include/cmsis_gcc.h ****  * @date     09. April 2018
   6:Drivers/CMSIS/Include/cmsis_gcc.h ****  ******************************************************************************/
   7:Drivers/CMSIS/Include/cmsis_gcc.h **** /*
   8:Drivers/CMSIS/Include/cmsis_gcc.h ****  * Copyright (c) 2009-2018 Arm Limited. All rights reserved.
   9:Drivers/CMSIS/Include/cmsis_gcc.h ****  *
  10:Drivers/CMSIS/Include/cmsis_gcc.h ****  * SPDX-License-Identifier: Apache-2.0
  11:Drivers/CMSIS/Include/cmsis_gcc.h ****  *
  12:Drivers/CMSIS/Include/cmsis_gcc.h ****  * Licensed under the Apache License, Version 2.0 (the License); you may
  13:Drivers/CMSIS/Include/cmsis_gcc.h ****  * not use this file except in compliance with the License.
  14:Drivers/CMSIS/Include/cmsis_gcc.h ****  * You may obtain a copy of the License at
  15:Drivers/CMSIS/Include/cmsis_gcc.h ****  *
  16:Drivers/CMSIS/Include/cmsis_gcc.h ****  * www.apache.org/licenses/LICENSE-2.0
  17:Drivers/CMSIS/Include/cmsis_gcc.h ****  *
  18:Drivers/CMSIS/Include/cmsis_gcc.h ****  * Unless required by applicable law or agreed to in writing, software
  19:Drivers/CMSIS/Include/cmsis_gcc.h ****  * distributed under the License is distributed on an AS IS BASIS, WITHOUT
  20:Drivers/CMSIS/Include/cmsis_gcc.h ****  * WARRANTIES OR CONDITIONS OF ANY KIND, either express or implied.
  21:Drivers/CMSIS/Include/cmsis_gcc.h ****  * See the License for the specific language governing permissions and
  22:Drivers/CMSIS/Include/cmsis_gcc.h ****  * limitations under the License.
  23:Drivers/CMSIS/Include/cmsis_gcc.h ****  */
  24:Drivers/CMSIS/Include/cmsis_gcc.h **** 
  25:Drivers/CMSIS/Include/cmsis_gcc.h **** #ifndef __CMSIS_GCC_H
  26:Drivers/CMSIS/Include/cmsis_gcc.h **** #define __CMSIS_GCC_H
  27:Drivers/CMSIS/Include/cmsis_gcc.h **** 
  28:Drivers/CMSIS/Include/cmsis_gcc.h **** /* ignore some GCC warnings */
  29:Drivers/CMSIS/Include/cmsis_gcc.h **** #pragma GCC diagnostic push
  30:Drivers/CMSIS/Include/cmsis_gcc.h **** #pragma GCC diagnostic ignored "-Wsign-conversion"
  31:Drivers/CMSIS/Include/cmsis_gcc.h **** #pragma GCC diagnostic ignored "-Wconversion"
  32:Drivers/CMSIS/Include/cmsis_gcc.h **** #pragma GCC diagnostic ignored "-Wunused-parameter"
  33:Drivers/CMSIS/Include/cmsis_gcc.h **** 
  34:Drivers/CMSIS/Include/cmsis_gcc.h **** /* Fallback for __has_builtin */
  35:Drivers/CMSIS/Include/cmsis_gcc.h **** #ifndef __has_builtin
  36:Drivers/CMSIS/Include/cmsis_gcc.h ****   #define __has_builtin(x) (0)
  37:Drivers/CMSIS/Include/cmsis_gcc.h **** #endif
  38:Drivers/CMSIS/Include/cmsis_gcc.h **** 
ARM GAS  C:\Users\Administrator\AppData\Local\Temp\ccoprpl5.s 			page 7


  39:Drivers/CMSIS/Include/cmsis_gcc.h **** /* CMSIS compiler specific defines */
  40:Drivers/CMSIS/Include/cmsis_gcc.h **** #ifndef   __ASM
  41:Drivers/CMSIS/Include/cmsis_gcc.h ****   #define __ASM                                  __asm
  42:Drivers/CMSIS/Include/cmsis_gcc.h **** #endif
  43:Drivers/CMSIS/Include/cmsis_gcc.h **** #ifndef   __INLINE
  44:Drivers/CMSIS/Include/cmsis_gcc.h ****   #define __INLINE                               inline
  45:Drivers/CMSIS/Include/cmsis_gcc.h **** #endif
  46:Drivers/CMSIS/Include/cmsis_gcc.h **** #ifndef   __STATIC_INLINE
  47:Drivers/CMSIS/Include/cmsis_gcc.h ****   #define __STATIC_INLINE                        static inline
  48:Drivers/CMSIS/Include/cmsis_gcc.h **** #endif
  49:Drivers/CMSIS/Include/cmsis_gcc.h **** #ifndef   __STATIC_FORCEINLINE                 
  50:Drivers/CMSIS/Include/cmsis_gcc.h ****   #define __STATIC_FORCEINLINE                   __attribute__((always_inline)) static inline
  51:Drivers/CMSIS/Include/cmsis_gcc.h **** #endif                                           
  52:Drivers/CMSIS/Include/cmsis_gcc.h **** #ifndef   __NO_RETURN
  53:Drivers/CMSIS/Include/cmsis_gcc.h ****   #define __NO_RETURN                            __attribute__((__noreturn__))
  54:Drivers/CMSIS/Include/cmsis_gcc.h **** #endif
  55:Drivers/CMSIS/Include/cmsis_gcc.h **** #ifndef   __USED
  56:Drivers/CMSIS/Include/cmsis_gcc.h ****   #define __USED                                 __attribute__((used))
  57:Drivers/CMSIS/Include/cmsis_gcc.h **** #endif
  58:Drivers/CMSIS/Include/cmsis_gcc.h **** #ifndef   __WEAK
  59:Drivers/CMSIS/Include/cmsis_gcc.h ****   #define __WEAK                                 __attribute__((weak))
  60:Drivers/CMSIS/Include/cmsis_gcc.h **** #endif
  61:Drivers/CMSIS/Include/cmsis_gcc.h **** #ifndef   __PACKED
  62:Drivers/CMSIS/Include/cmsis_gcc.h ****   #define __PACKED                               __attribute__((packed, aligned(1)))
  63:Drivers/CMSIS/Include/cmsis_gcc.h **** #endif
  64:Drivers/CMSIS/Include/cmsis_gcc.h **** #ifndef   __PACKED_STRUCT
  65:Drivers/CMSIS/Include/cmsis_gcc.h ****   #define __PACKED_STRUCT                        struct __attribute__((packed, aligned(1)))
  66:Drivers/CMSIS/Include/cmsis_gcc.h **** #endif
  67:Drivers/CMSIS/Include/cmsis_gcc.h **** #ifndef   __PACKED_UNION
  68:Drivers/CMSIS/Include/cmsis_gcc.h ****   #define __PACKED_UNION                         union __attribute__((packed, aligned(1)))
  69:Drivers/CMSIS/Include/cmsis_gcc.h **** #endif
  70:Drivers/CMSIS/Include/cmsis_gcc.h **** #ifndef   __UNALIGNED_UINT32        /* deprecated */
  71:Drivers/CMSIS/Include/cmsis_gcc.h ****   #pragma GCC diagnostic push
  72:Drivers/CMSIS/Include/cmsis_gcc.h ****   #pragma GCC diagnostic ignored "-Wpacked"
  73:Drivers/CMSIS/Include/cmsis_gcc.h ****   #pragma GCC diagnostic ignored "-Wattributes"
  74:Drivers/CMSIS/Include/cmsis_gcc.h ****   struct __attribute__((packed)) T_UINT32 { uint32_t v; };
  75:Drivers/CMSIS/Include/cmsis_gcc.h ****   #pragma GCC diagnostic pop
  76:Drivers/CMSIS/Include/cmsis_gcc.h ****   #define __UNALIGNED_UINT32(x)                  (((struct T_UINT32 *)(x))->v)
  77:Drivers/CMSIS/Include/cmsis_gcc.h **** #endif
  78:Drivers/CMSIS/Include/cmsis_gcc.h **** #ifndef   __UNALIGNED_UINT16_WRITE
  79:Drivers/CMSIS/Include/cmsis_gcc.h ****   #pragma GCC diagnostic push
  80:Drivers/CMSIS/Include/cmsis_gcc.h ****   #pragma GCC diagnostic ignored "-Wpacked"
  81:Drivers/CMSIS/Include/cmsis_gcc.h ****   #pragma GCC diagnostic ignored "-Wattributes"
  82:Drivers/CMSIS/Include/cmsis_gcc.h ****   __PACKED_STRUCT T_UINT16_WRITE { uint16_t v; };
  83:Drivers/CMSIS/Include/cmsis_gcc.h ****   #pragma GCC diagnostic pop
  84:Drivers/CMSIS/Include/cmsis_gcc.h ****   #define __UNALIGNED_UINT16_WRITE(addr, val)    (void)((((struct T_UINT16_WRITE *)(void *)(addr))-
  85:Drivers/CMSIS/Include/cmsis_gcc.h **** #endif
  86:Drivers/CMSIS/Include/cmsis_gcc.h **** #ifndef   __UNALIGNED_UINT16_READ
  87:Drivers/CMSIS/Include/cmsis_gcc.h ****   #pragma GCC diagnostic push
  88:Drivers/CMSIS/Include/cmsis_gcc.h ****   #pragma GCC diagnostic ignored "-Wpacked"
  89:Drivers/CMSIS/Include/cmsis_gcc.h ****   #pragma GCC diagnostic ignored "-Wattributes"
  90:Drivers/CMSIS/Include/cmsis_gcc.h ****   __PACKED_STRUCT T_UINT16_READ { uint16_t v; };
  91:Drivers/CMSIS/Include/cmsis_gcc.h ****   #pragma GCC diagnostic pop
  92:Drivers/CMSIS/Include/cmsis_gcc.h ****   #define __UNALIGNED_UINT16_READ(addr)          (((const struct T_UINT16_READ *)(const void *)(add
  93:Drivers/CMSIS/Include/cmsis_gcc.h **** #endif
  94:Drivers/CMSIS/Include/cmsis_gcc.h **** #ifndef   __UNALIGNED_UINT32_WRITE
  95:Drivers/CMSIS/Include/cmsis_gcc.h ****   #pragma GCC diagnostic push
ARM GAS  C:\Users\Administrator\AppData\Local\Temp\ccoprpl5.s 			page 8


  96:Drivers/CMSIS/Include/cmsis_gcc.h ****   #pragma GCC diagnostic ignored "-Wpacked"
  97:Drivers/CMSIS/Include/cmsis_gcc.h ****   #pragma GCC diagnostic ignored "-Wattributes"
  98:Drivers/CMSIS/Include/cmsis_gcc.h ****   __PACKED_STRUCT T_UINT32_WRITE { uint32_t v; };
  99:Drivers/CMSIS/Include/cmsis_gcc.h ****   #pragma GCC diagnostic pop
 100:Drivers/CMSIS/Include/cmsis_gcc.h ****   #define __UNALIGNED_UINT32_WRITE(addr, val)    (void)((((struct T_UINT32_WRITE *)(void *)(addr))-
 101:Drivers/CMSIS/Include/cmsis_gcc.h **** #endif
 102:Drivers/CMSIS/Include/cmsis_gcc.h **** #ifndef   __UNALIGNED_UINT32_READ
 103:Drivers/CMSIS/Include/cmsis_gcc.h ****   #pragma GCC diagnostic push
 104:Drivers/CMSIS/Include/cmsis_gcc.h ****   #pragma GCC diagnostic ignored "-Wpacked"
 105:Drivers/CMSIS/Include/cmsis_gcc.h ****   #pragma GCC diagnostic ignored "-Wattributes"
 106:Drivers/CMSIS/Include/cmsis_gcc.h ****   __PACKED_STRUCT T_UINT32_READ { uint32_t v; };
 107:Drivers/CMSIS/Include/cmsis_gcc.h ****   #pragma GCC diagnostic pop
 108:Drivers/CMSIS/Include/cmsis_gcc.h ****   #define __UNALIGNED_UINT32_READ(addr)          (((const struct T_UINT32_READ *)(const void *)(add
 109:Drivers/CMSIS/Include/cmsis_gcc.h **** #endif
 110:Drivers/CMSIS/Include/cmsis_gcc.h **** #ifndef   __ALIGNED
 111:Drivers/CMSIS/Include/cmsis_gcc.h ****   #define __ALIGNED(x)                           __attribute__((aligned(x)))
 112:Drivers/CMSIS/Include/cmsis_gcc.h **** #endif
 113:Drivers/CMSIS/Include/cmsis_gcc.h **** #ifndef   __RESTRICT
 114:Drivers/CMSIS/Include/cmsis_gcc.h ****   #define __RESTRICT                             __restrict
 115:Drivers/CMSIS/Include/cmsis_gcc.h **** #endif
 116:Drivers/CMSIS/Include/cmsis_gcc.h **** 
 117:Drivers/CMSIS/Include/cmsis_gcc.h **** 
 118:Drivers/CMSIS/Include/cmsis_gcc.h **** /* ###########################  Core Function Access  ########################### */
 119:Drivers/CMSIS/Include/cmsis_gcc.h **** /** \ingroup  CMSIS_Core_FunctionInterface
 120:Drivers/CMSIS/Include/cmsis_gcc.h ****     \defgroup CMSIS_Core_RegAccFunctions CMSIS Core Register Access Functions
 121:Drivers/CMSIS/Include/cmsis_gcc.h ****   @{
 122:Drivers/CMSIS/Include/cmsis_gcc.h ****  */
 123:Drivers/CMSIS/Include/cmsis_gcc.h **** 
 124:Drivers/CMSIS/Include/cmsis_gcc.h **** /**
 125:Drivers/CMSIS/Include/cmsis_gcc.h ****   \brief   Enable IRQ Interrupts
 126:Drivers/CMSIS/Include/cmsis_gcc.h ****   \details Enables IRQ interrupts by clearing the I-bit in the CPSR.
 127:Drivers/CMSIS/Include/cmsis_gcc.h ****            Can only be executed in Privileged modes.
 128:Drivers/CMSIS/Include/cmsis_gcc.h ****  */
 129:Drivers/CMSIS/Include/cmsis_gcc.h **** __STATIC_FORCEINLINE void __enable_irq(void)
 130:Drivers/CMSIS/Include/cmsis_gcc.h **** {
 131:Drivers/CMSIS/Include/cmsis_gcc.h ****   __ASM volatile ("cpsie i" : : : "memory");
 132:Drivers/CMSIS/Include/cmsis_gcc.h **** }
 133:Drivers/CMSIS/Include/cmsis_gcc.h **** 
 134:Drivers/CMSIS/Include/cmsis_gcc.h **** 
 135:Drivers/CMSIS/Include/cmsis_gcc.h **** /**
 136:Drivers/CMSIS/Include/cmsis_gcc.h ****   \brief   Disable IRQ Interrupts
 137:Drivers/CMSIS/Include/cmsis_gcc.h ****   \details Disables IRQ interrupts by setting the I-bit in the CPSR.
 138:Drivers/CMSIS/Include/cmsis_gcc.h ****            Can only be executed in Privileged modes.
 139:Drivers/CMSIS/Include/cmsis_gcc.h ****  */
 140:Drivers/CMSIS/Include/cmsis_gcc.h **** __STATIC_FORCEINLINE void __disable_irq(void)
  84              		.loc 2 140 27 view .LVU10
  85              	.LBB5:
 141:Drivers/CMSIS/Include/cmsis_gcc.h **** {
 142:Drivers/CMSIS/Include/cmsis_gcc.h ****   __ASM volatile ("cpsid i" : : : "memory");
  86              		.loc 2 142 3 view .LVU11
  87              		.syntax unified
  88              	@ 142 "Drivers/CMSIS/Include/cmsis_gcc.h" 1
  89 0000 72B6     		cpsid i
  90              	@ 0 "" 2
  91              		.thumb
  92              		.syntax unified
  93              	.L8:
ARM GAS  C:\Users\Administrator\AppData\Local\Temp\ccoprpl5.s 			page 9


  94              	.LBE5:
  95              	.LBE4:
 224:Src/main.c    ****   while (1)
  96              		.loc 1 224 3 view .LVU12
 225:Src/main.c    ****   {
 226:Src/main.c    ****   }
  97              		.loc 1 226 3 view .LVU13
 224:Src/main.c    ****   while (1)
  98              		.loc 1 224 9 view .LVU14
  99 0002 FEE7     		b	.L8
 100              		.cfi_endproc
 101              	.LFE247:
 103              		.section	.text.SystemClock_Config,"ax",%progbits
 104              		.align	1
 105              		.global	SystemClock_Config
 106              		.syntax unified
 107              		.thumb
 108              		.thumb_func
 110              	SystemClock_Config:
 111              	.LFB245:
 150:Src/main.c    ****   RCC_OscInitTypeDef RCC_OscInitStruct = {0};
 112              		.loc 1 150 1 view -0
 113              		.cfi_startproc
 114              		@ args = 0, pretend = 0, frame = 80
 115              		@ frame_needed = 0, uses_anonymous_args = 0
 116 0000 10B5     		push	{r4, lr}
 117              	.LCFI1:
 118              		.cfi_def_cfa_offset 8
 119              		.cfi_offset 4, -8
 120              		.cfi_offset 14, -4
 121 0002 94B0     		sub	sp, sp, #80
 122              	.LCFI2:
 123              		.cfi_def_cfa_offset 88
 151:Src/main.c    ****   RCC_ClkInitTypeDef RCC_ClkInitStruct = {0};
 124              		.loc 1 151 3 view .LVU16
 151:Src/main.c    ****   RCC_ClkInitTypeDef RCC_ClkInitStruct = {0};
 125              		.loc 1 151 22 is_stmt 0 view .LVU17
 126 0004 08AC     		add	r4, sp, #32
 127 0006 3022     		movs	r2, #48
 128 0008 0021     		movs	r1, #0
 129 000a 2046     		mov	r0, r4
 130 000c FFF7FEFF 		bl	memset
 131              	.LVL4:
 152:Src/main.c    **** 
 132              		.loc 1 152 3 is_stmt 1 view .LVU18
 152:Src/main.c    **** 
 133              		.loc 1 152 22 is_stmt 0 view .LVU19
 134 0010 0023     		movs	r3, #0
 135 0012 0393     		str	r3, [sp, #12]
 136 0014 0493     		str	r3, [sp, #16]
 137 0016 0593     		str	r3, [sp, #20]
 138 0018 0693     		str	r3, [sp, #24]
 139 001a 0793     		str	r3, [sp, #28]
 156:Src/main.c    ****   __HAL_PWR_VOLTAGESCALING_CONFIG(PWR_REGULATOR_VOLTAGE_SCALE1);
 140              		.loc 1 156 3 is_stmt 1 view .LVU20
 141              	.LBB6:
 156:Src/main.c    ****   __HAL_PWR_VOLTAGESCALING_CONFIG(PWR_REGULATOR_VOLTAGE_SCALE1);
ARM GAS  C:\Users\Administrator\AppData\Local\Temp\ccoprpl5.s 			page 10


 142              		.loc 1 156 3 view .LVU21
 143 001c 0193     		str	r3, [sp, #4]
 156:Src/main.c    ****   __HAL_PWR_VOLTAGESCALING_CONFIG(PWR_REGULATOR_VOLTAGE_SCALE1);
 144              		.loc 1 156 3 view .LVU22
 145 001e 204A     		ldr	r2, .L15
 146 0020 116C     		ldr	r1, [r2, #64]
 147 0022 41F08051 		orr	r1, r1, #268435456
 148 0026 1164     		str	r1, [r2, #64]
 156:Src/main.c    ****   __HAL_PWR_VOLTAGESCALING_CONFIG(PWR_REGULATOR_VOLTAGE_SCALE1);
 149              		.loc 1 156 3 view .LVU23
 150 0028 126C     		ldr	r2, [r2, #64]
 151 002a 02F08052 		and	r2, r2, #268435456
 152 002e 0192     		str	r2, [sp, #4]
 156:Src/main.c    ****   __HAL_PWR_VOLTAGESCALING_CONFIG(PWR_REGULATOR_VOLTAGE_SCALE1);
 153              		.loc 1 156 3 view .LVU24
 154 0030 019A     		ldr	r2, [sp, #4]
 155              	.LBE6:
 156:Src/main.c    ****   __HAL_PWR_VOLTAGESCALING_CONFIG(PWR_REGULATOR_VOLTAGE_SCALE1);
 156              		.loc 1 156 3 view .LVU25
 157:Src/main.c    **** 
 157              		.loc 1 157 3 view .LVU26
 158              	.LBB7:
 157:Src/main.c    **** 
 159              		.loc 1 157 3 view .LVU27
 160 0032 0293     		str	r3, [sp, #8]
 157:Src/main.c    **** 
 161              		.loc 1 157 3 view .LVU28
 162 0034 1B4B     		ldr	r3, .L15+4
 163 0036 1A68     		ldr	r2, [r3]
 164 0038 42F48042 		orr	r2, r2, #16384
 165 003c 1A60     		str	r2, [r3]
 157:Src/main.c    **** 
 166              		.loc 1 157 3 view .LVU29
 167 003e 1B68     		ldr	r3, [r3]
 168 0040 03F48043 		and	r3, r3, #16384
 169 0044 0293     		str	r3, [sp, #8]
 157:Src/main.c    **** 
 170              		.loc 1 157 3 view .LVU30
 171 0046 029B     		ldr	r3, [sp, #8]
 172              	.LBE7:
 157:Src/main.c    **** 
 173              		.loc 1 157 3 view .LVU31
 162:Src/main.c    ****   RCC_OscInitStruct.HSEState = RCC_HSE_ON;
 174              		.loc 1 162 3 view .LVU32
 162:Src/main.c    ****   RCC_OscInitStruct.HSEState = RCC_HSE_ON;
 175              		.loc 1 162 36 is_stmt 0 view .LVU33
 176 0048 0123     		movs	r3, #1
 177 004a 0893     		str	r3, [sp, #32]
 163:Src/main.c    ****   RCC_OscInitStruct.PLL.PLLState = RCC_PLL_ON;
 178              		.loc 1 163 3 is_stmt 1 view .LVU34
 163:Src/main.c    ****   RCC_OscInitStruct.PLL.PLLState = RCC_PLL_ON;
 179              		.loc 1 163 30 is_stmt 0 view .LVU35
 180 004c 4FF48033 		mov	r3, #65536
 181 0050 0993     		str	r3, [sp, #36]
 164:Src/main.c    ****   RCC_OscInitStruct.PLL.PLLSource = RCC_PLLSOURCE_HSE;
 182              		.loc 1 164 3 is_stmt 1 view .LVU36
 164:Src/main.c    ****   RCC_OscInitStruct.PLL.PLLSource = RCC_PLLSOURCE_HSE;
ARM GAS  C:\Users\Administrator\AppData\Local\Temp\ccoprpl5.s 			page 11


 183              		.loc 1 164 34 is_stmt 0 view .LVU37
 184 0052 0223     		movs	r3, #2
 185 0054 0E93     		str	r3, [sp, #56]
 165:Src/main.c    ****   RCC_OscInitStruct.PLL.PLLM = 6;
 186              		.loc 1 165 3 is_stmt 1 view .LVU38
 165:Src/main.c    ****   RCC_OscInitStruct.PLL.PLLM = 6;
 187              		.loc 1 165 35 is_stmt 0 view .LVU39
 188 0056 4FF48002 		mov	r2, #4194304
 189 005a 0F92     		str	r2, [sp, #60]
 166:Src/main.c    ****   RCC_OscInitStruct.PLL.PLLN = 168;
 190              		.loc 1 166 3 is_stmt 1 view .LVU40
 166:Src/main.c    ****   RCC_OscInitStruct.PLL.PLLN = 168;
 191              		.loc 1 166 30 is_stmt 0 view .LVU41
 192 005c 0622     		movs	r2, #6
 193 005e 1092     		str	r2, [sp, #64]
 167:Src/main.c    ****   RCC_OscInitStruct.PLL.PLLP = RCC_PLLP_DIV2;
 194              		.loc 1 167 3 is_stmt 1 view .LVU42
 167:Src/main.c    ****   RCC_OscInitStruct.PLL.PLLP = RCC_PLLP_DIV2;
 195              		.loc 1 167 30 is_stmt 0 view .LVU43
 196 0060 A822     		movs	r2, #168
 197 0062 1192     		str	r2, [sp, #68]
 168:Src/main.c    ****   RCC_OscInitStruct.PLL.PLLQ = 7;
 198              		.loc 1 168 3 is_stmt 1 view .LVU44
 168:Src/main.c    ****   RCC_OscInitStruct.PLL.PLLQ = 7;
 199              		.loc 1 168 30 is_stmt 0 view .LVU45
 200 0064 1293     		str	r3, [sp, #72]
 169:Src/main.c    ****   if (HAL_RCC_OscConfig(&RCC_OscInitStruct) != HAL_OK)
 201              		.loc 1 169 3 is_stmt 1 view .LVU46
 169:Src/main.c    ****   if (HAL_RCC_OscConfig(&RCC_OscInitStruct) != HAL_OK)
 202              		.loc 1 169 30 is_stmt 0 view .LVU47
 203 0066 0723     		movs	r3, #7
 204 0068 1393     		str	r3, [sp, #76]
 170:Src/main.c    ****   {
 205              		.loc 1 170 3 is_stmt 1 view .LVU48
 170:Src/main.c    ****   {
 206              		.loc 1 170 7 is_stmt 0 view .LVU49
 207 006a 2046     		mov	r0, r4
 208 006c FFF7FEFF 		bl	HAL_RCC_OscConfig
 209              	.LVL5:
 170:Src/main.c    ****   {
 210              		.loc 1 170 6 discriminator 1 view .LVU50
 211 0070 88B9     		cbnz	r0, .L13
 177:Src/main.c    ****                               |RCC_CLOCKTYPE_PCLK1|RCC_CLOCKTYPE_PCLK2;
 212              		.loc 1 177 3 is_stmt 1 view .LVU51
 177:Src/main.c    ****                               |RCC_CLOCKTYPE_PCLK1|RCC_CLOCKTYPE_PCLK2;
 213              		.loc 1 177 31 is_stmt 0 view .LVU52
 214 0072 0F23     		movs	r3, #15
 215 0074 0393     		str	r3, [sp, #12]
 179:Src/main.c    ****   RCC_ClkInitStruct.AHBCLKDivider = RCC_SYSCLK_DIV1;
 216              		.loc 1 179 3 is_stmt 1 view .LVU53
 179:Src/main.c    ****   RCC_ClkInitStruct.AHBCLKDivider = RCC_SYSCLK_DIV1;
 217              		.loc 1 179 34 is_stmt 0 view .LVU54
 218 0076 0223     		movs	r3, #2
 219 0078 0493     		str	r3, [sp, #16]
 180:Src/main.c    ****   RCC_ClkInitStruct.APB1CLKDivider = RCC_HCLK_DIV4;
 220              		.loc 1 180 3 is_stmt 1 view .LVU55
 180:Src/main.c    ****   RCC_ClkInitStruct.APB1CLKDivider = RCC_HCLK_DIV4;
ARM GAS  C:\Users\Administrator\AppData\Local\Temp\ccoprpl5.s 			page 12


 221              		.loc 1 180 35 is_stmt 0 view .LVU56
 222 007a 0590     		str	r0, [sp, #20]
 181:Src/main.c    ****   RCC_ClkInitStruct.APB2CLKDivider = RCC_HCLK_DIV2;
 223              		.loc 1 181 3 is_stmt 1 view .LVU57
 181:Src/main.c    ****   RCC_ClkInitStruct.APB2CLKDivider = RCC_HCLK_DIV2;
 224              		.loc 1 181 36 is_stmt 0 view .LVU58
 225 007c 4FF4A053 		mov	r3, #5120
 226 0080 0693     		str	r3, [sp, #24]
 182:Src/main.c    **** 
 227              		.loc 1 182 3 is_stmt 1 view .LVU59
 182:Src/main.c    **** 
 228              		.loc 1 182 36 is_stmt 0 view .LVU60
 229 0082 4FF48053 		mov	r3, #4096
 230 0086 0793     		str	r3, [sp, #28]
 184:Src/main.c    ****   {
 231              		.loc 1 184 3 is_stmt 1 view .LVU61
 184:Src/main.c    ****   {
 232              		.loc 1 184 7 is_stmt 0 view .LVU62
 233 0088 0521     		movs	r1, #5
 234 008a 03A8     		add	r0, sp, #12
 235 008c FFF7FEFF 		bl	HAL_RCC_ClockConfig
 236              	.LVL6:
 184:Src/main.c    ****   {
 237              		.loc 1 184 6 discriminator 1 view .LVU63
 238 0090 18B9     		cbnz	r0, .L14
 188:Src/main.c    **** 
 239              		.loc 1 188 1 view .LVU64
 240 0092 14B0     		add	sp, sp, #80
 241              	.LCFI3:
 242              		.cfi_remember_state
 243              		.cfi_def_cfa_offset 8
 244              		@ sp needed
 245 0094 10BD     		pop	{r4, pc}
 246              	.L13:
 247              	.LCFI4:
 248              		.cfi_restore_state
 172:Src/main.c    ****   }
 249              		.loc 1 172 5 is_stmt 1 view .LVU65
 250 0096 FFF7FEFF 		bl	Error_Handler
 251              	.LVL7:
 252              	.L14:
 186:Src/main.c    ****   }
 253              		.loc 1 186 5 view .LVU66
 254 009a FFF7FEFF 		bl	Error_Handler
 255              	.LVL8:
 256              	.L16:
 257 009e 00BF     		.align	2
 258              	.L15:
 259 00a0 00380240 		.word	1073887232
 260 00a4 00700040 		.word	1073770496
 261              		.cfi_endproc
 262              	.LFE245:
 264              		.section	.text.main,"ax",%progbits
 265              		.align	1
 266              		.global	main
 267              		.syntax unified
 268              		.thumb
ARM GAS  C:\Users\Administrator\AppData\Local\Temp\ccoprpl5.s 			page 13


 269              		.thumb_func
 271              	main:
 272              	.LFB244:
  79:Src/main.c    ****   /* USER CODE BEGIN 1 */
 273              		.loc 1 79 1 view -0
 274              		.cfi_startproc
 275              		@ Volatile: function does not return.
 276              		@ args = 0, pretend = 0, frame = 0
 277              		@ frame_needed = 0, uses_anonymous_args = 0
 278 0000 08B5     		push	{r3, lr}
 279              	.LCFI5:
 280              		.cfi_def_cfa_offset 8
 281              		.cfi_offset 3, -8
 282              		.cfi_offset 14, -4
  87:Src/main.c    **** 
 283              		.loc 1 87 3 view .LVU68
 284 0002 FFF7FEFF 		bl	HAL_Init
 285              	.LVL9:
  94:Src/main.c    **** 
 286              		.loc 1 94 3 view .LVU69
 287 0006 FFF7FEFF 		bl	SystemClock_Config
 288              	.LVL10:
 101:Src/main.c    ****   MX_DMA_Init();
 289              		.loc 1 101 3 view .LVU70
 290 000a FFF7FEFF 		bl	MX_GPIO_Init
 291              	.LVL11:
 102:Src/main.c    ****   MX_ADC1_Init();
 292              		.loc 1 102 3 view .LVU71
 293 000e FFF7FEFF 		bl	MX_DMA_Init
 294              	.LVL12:
 103:Src/main.c    ****   MX_CAN1_Init();
 295              		.loc 1 103 3 view .LVU72
 296 0012 FFF7FEFF 		bl	MX_ADC1_Init
 297              	.LVL13:
 104:Src/main.c    ****   MX_CAN2_Init();
 298              		.loc 1 104 3 view .LVU73
 299 0016 FFF7FEFF 		bl	MX_CAN1_Init
 300              	.LVL14:
 105:Src/main.c    ****   MX_SPI1_Init();
 301              		.loc 1 105 3 view .LVU74
 302 001a FFF7FEFF 		bl	MX_CAN2_Init
 303              	.LVL15:
 106:Src/main.c    ****   MX_TIM4_Init();
 304              		.loc 1 106 3 view .LVU75
 305 001e FFF7FEFF 		bl	MX_SPI1_Init
 306              	.LVL16:
 107:Src/main.c    ****   MX_TIM5_Init();
 307              		.loc 1 107 3 view .LVU76
 308 0022 FFF7FEFF 		bl	MX_TIM4_Init
 309              	.LVL17:
 108:Src/main.c    ****   MX_USART3_UART_Init();
 310              		.loc 1 108 3 view .LVU77
 311 0026 FFF7FEFF 		bl	MX_TIM5_Init
 312              	.LVL18:
 109:Src/main.c    ****   MX_RNG_Init();
 313              		.loc 1 109 3 view .LVU78
 314 002a FFF7FEFF 		bl	MX_USART3_UART_Init
ARM GAS  C:\Users\Administrator\AppData\Local\Temp\ccoprpl5.s 			page 14


 315              	.LVL19:
 110:Src/main.c    ****   MX_RTC_Init();
 316              		.loc 1 110 3 view .LVU79
 317 002e FFF7FEFF 		bl	MX_RNG_Init
 318              	.LVL20:
 111:Src/main.c    ****   MX_TIM1_Init();
 319              		.loc 1 111 3 view .LVU80
 320 0032 FFF7FEFF 		bl	MX_RTC_Init
 321              	.LVL21:
 112:Src/main.c    ****   MX_TIM10_Init();
 322              		.loc 1 112 3 view .LVU81
 323 0036 FFF7FEFF 		bl	MX_TIM1_Init
 324              	.LVL22:
 113:Src/main.c    ****   MX_USART1_UART_Init();
 325              		.loc 1 113 3 view .LVU82
 326 003a FFF7FEFF 		bl	MX_TIM10_Init
 327              	.LVL23:
 114:Src/main.c    ****   MX_USART6_UART_Init();
 328              		.loc 1 114 3 view .LVU83
 329 003e FFF7FEFF 		bl	MX_USART1_UART_Init
 330              	.LVL24:
 115:Src/main.c    ****   MX_TIM8_Init();
 331              		.loc 1 115 3 view .LVU84
 332 0042 FFF7FEFF 		bl	MX_USART6_UART_Init
 333              	.LVL25:
 116:Src/main.c    ****   MX_I2C2_Init();
 334              		.loc 1 116 3 view .LVU85
 335 0046 FFF7FEFF 		bl	MX_TIM8_Init
 336              	.LVL26:
 117:Src/main.c    ****   MX_I2C3_Init();
 337              		.loc 1 117 3 view .LVU86
 338 004a FFF7FEFF 		bl	MX_I2C2_Init
 339              	.LVL27:
 118:Src/main.c    ****   MX_SPI2_Init();
 340              		.loc 1 118 3 view .LVU87
 341 004e FFF7FEFF 		bl	MX_I2C3_Init
 342              	.LVL28:
 119:Src/main.c    ****   MX_CRC_Init();
 343              		.loc 1 119 3 view .LVU88
 344 0052 FFF7FEFF 		bl	MX_SPI2_Init
 345              	.LVL29:
 120:Src/main.c    ****   MX_DAC_Init();
 346              		.loc 1 120 3 view .LVU89
 347 0056 FFF7FEFF 		bl	MX_CRC_Init
 348              	.LVL30:
 121:Src/main.c    ****   /* USER CODE BEGIN 2 */
 349              		.loc 1 121 3 view .LVU90
 350 005a FFF7FEFF 		bl	MX_DAC_Init
 351              	.LVL31:
 123:Src/main.c    ****   LOGINFO("[main] SystemInit() and RobotInit() done");
 352              		.loc 1 123 2 view .LVU91
 353 005e FFF7FEFF 		bl	RobotInit
 354              	.LVL32:
 124:Src/main.c    ****   /* USER CODE END 2 */
 355              		.loc 1 124 54 view .LVU92
 128:Src/main.c    **** 
 356              		.loc 1 128 3 view .LVU93
ARM GAS  C:\Users\Administrator\AppData\Local\Temp\ccoprpl5.s 			page 15


 357 0062 FFF7FEFF 		bl	MX_FREERTOS_Init
 358              	.LVL33:
 131:Src/main.c    **** 
 359              		.loc 1 131 3 view .LVU94
 360 0066 FFF7FEFF 		bl	osKernelStart
 361              	.LVL34:
 362              	.L18:
 136:Src/main.c    ****   {
 363              		.loc 1 136 3 view .LVU95
 141:Src/main.c    ****   /* USER CODE END 3 */
 364              		.loc 1 141 3 view .LVU96
 136:Src/main.c    ****   {
 365              		.loc 1 136 9 view .LVU97
 366 006a FEE7     		b	.L18
 367              		.cfi_endproc
 368              	.LFE244:
 370              		.text
 371              	.Letext0:
 372              		.file 3 "C:/Users/Administrator/AppData/Roaming/Code/User/globalStorage/bmd.stm32-for-vscode/@xpac
 373              		.file 4 "C:/Users/Administrator/AppData/Roaming/Code/User/globalStorage/bmd.stm32-for-vscode/@xpac
 374              		.file 5 "Drivers/CMSIS/Device/ST/STM32F4xx/Include/stm32f407xx.h"
 375              		.file 6 "Drivers/STM32F4xx_HAL_Driver/Inc/stm32f4xx_hal_def.h"
 376              		.file 7 "Drivers/STM32F4xx_HAL_Driver/Inc/stm32f4xx_hal_rcc_ex.h"
 377              		.file 8 "Drivers/STM32F4xx_HAL_Driver/Inc/stm32f4xx_hal_rcc.h"
 378              		.file 9 "Drivers/STM32F4xx_HAL_Driver/Inc/stm32f4xx_hal_dma.h"
 379              		.file 10 "Drivers/STM32F4xx_HAL_Driver/Inc/stm32f4xx_hal_tim.h"
 380              		.file 11 "Middlewares/Third_Party/FreeRTOS/Source/CMSIS_RTOS/cmsis_os.h"
 381              		.file 12 "Drivers/STM32F4xx_HAL_Driver/Inc/stm32f4xx_hal.h"
 382              		.file 13 "application/robot.h"
 383              		.file 14 "Inc/dac.h"
 384              		.file 15 "Inc/crc.h"
 385              		.file 16 "Inc/spi.h"
 386              		.file 17 "Inc/i2c.h"
 387              		.file 18 "Inc/tim.h"
 388              		.file 19 "Inc/usart.h"
 389              		.file 20 "Inc/rtc.h"
 390              		.file 21 "Inc/rng.h"
 391              		.file 22 "Inc/can.h"
 392              		.file 23 "Inc/adc.h"
 393              		.file 24 "Inc/dma.h"
 394              		.file 25 "Inc/gpio.h"
 395              		.file 26 "<built-in>"
ARM GAS  C:\Users\Administrator\AppData\Local\Temp\ccoprpl5.s 			page 16

