ARM GAS  C:\Users\Administrator\AppData\Local\Temp\ccNqWoEF.s 			page 1


   1              		.cpu cortex-m4
   2              		.arch armv7e-m
   3              		.fpu fpv4-sp-d16
   4              		.eabi_attribute 27, 1
   5              		.eabi_attribute 28, 1
   6              		.eabi_attribute 20, 1
   7              		.eabi_attribute 21, 1
   8              		.eabi_attribute 23, 3
   9              		.eabi_attribute 24, 1
  10              		.eabi_attribute 25, 1
  11              		.eabi_attribute 26, 1
  12              		.eabi_attribute 30, 1
  13              		.eabi_attribute 34, 1
  14              		.eabi_attribute 18, 4
  15              		.file	"robot_cmd.c"
  16              		.text
  17              	.Ltext0:
  18              		.cfi_sections	.debug_frame
  19              		.file 1 "application/cmd/robot_cmd.c"
  20              		.section	.text.CalcOffsetAngle,"ax",%progbits
  21              		.align	1
  22              		.syntax unified
  23              		.thumb
  24              		.thumb_func
  26              	CalcOffsetAngle:
  27              	.LFB277:
   1:application/cmd/robot_cmd.c **** // app
   2:application/cmd/robot_cmd.c **** #include "robot_def.h"
   3:application/cmd/robot_cmd.c **** #include "robot_cmd.h"
   4:application/cmd/robot_cmd.c **** // module
   5:application/cmd/robot_cmd.c **** #include "remote_control.h"
   6:application/cmd/robot_cmd.c **** #include "ins_task.h"
   7:application/cmd/robot_cmd.c **** #include "referee_task.h"
   8:application/cmd/robot_cmd.c **** #include "referee_UI.h"
   9:application/cmd/robot_cmd.c **** #include "master_process.h"
  10:application/cmd/robot_cmd.c **** #include "message_center.h"
  11:application/cmd/robot_cmd.c **** #include "general_def.h"
  12:application/cmd/robot_cmd.c **** #include "dji_motor.h"
  13:application/cmd/robot_cmd.c **** #include "bmi088.h"
  14:application/cmd/robot_cmd.c **** #include "buzzer.h"
  15:application/cmd/robot_cmd.c **** #include "led.h"
  16:application/cmd/robot_cmd.c **** #include "user_lib.h"
  17:application/cmd/robot_cmd.c **** // bsp
  18:application/cmd/robot_cmd.c **** #include "bsp_dwt.h"
  19:application/cmd/robot_cmd.c **** #include "bsp_log.h"
  20:application/cmd/robot_cmd.c **** 
  21:application/cmd/robot_cmd.c **** /* µĀ╣µŹ«remote_control.hõĖŁńÜäķĆÜķüōÕĆ╝Ķć¬ÕŖ©Ķ«Īń«ŚńÜäÕÅéµĢ░ */
  22:application/cmd/robot_cmd.c **** #define HALF_RC_CH_MAX ((RC_CH_VALUE_MAX - RC_CH_VALUE_MIN) / 2.0f)
  23:application/cmd/robot_cmd.c **** #define RAD_TO_DEG 57.295779513f
  24:application/cmd/robot_cmd.c **** #define DEG_TO_RAD (1.0f / 57.295779513f)
  25:application/cmd/robot_cmd.c **** #define YAW_GEAR_RATIO 1.25f  // yawĶĮ┤ńÜ«ÕĖ”õ╝ĀÕŖ©µ»ö 1:1.25
  26:application/cmd/robot_cmd.c **** #define PITCH_ZERO_OFFSET 0.0f  // pitchĶĮ┤ķøČńé╣ÕüÅń¦╗’╝īĶ░āµĢ┤µŁżÕĆ╝õĮ┐õĖŖõĮŹµ£║ÕÅæķĆü0µŚČõ║æÕÅ░µ
  27:application/cmd/robot_cmd.c **** 
  28:application/cmd/robot_cmd.c **** /* cmdÕ║öńö©ÕīģÕÉ½ńÜäµ©ĪÕØŚÕ«×õŠŗµīćķÆłÕÆīõ║żõ║Æõ┐Īµü»ÕŁśÕé©*/
  29:application/cmd/robot_cmd.c **** static Robot_Config_s *robot_config;
  30:application/cmd/robot_cmd.c **** 
  31:application/cmd/robot_cmd.c **** #ifdef GIMBAL_BOARD // Õ»╣ÕÅīµØ┐ńÜäÕģ╝Õ«╣,µØĪõ╗Čń╝¢Ķ»æ
ARM GAS  C:\Users\Administrator\AppData\Local\Temp\ccNqWoEF.s 			page 2


  32:application/cmd/robot_cmd.c **** #include "can_comm.h"
  33:application/cmd/robot_cmd.c **** static CANCommInstance *cmd_can_comm; // ÕÅīµØ┐ķĆÜõ┐Ī
  34:application/cmd/robot_cmd.c **** #endif
  35:application/cmd/robot_cmd.c **** #ifdef ONE_BOARD
  36:application/cmd/robot_cmd.c **** static Publisher_t *chassis_cmd_pub;   // Õ║ĢńøśµÄ¦ÕłČµČłµü»ÕÅæÕĖāĶĆģ
  37:application/cmd/robot_cmd.c **** static Subscriber_t *chassis_feed_sub; // Õ║ĢńøśÕÅŹķ”łõ┐Īµü»Ķ«óķśģĶĆģ
  38:application/cmd/robot_cmd.c **** #endif                                 // ONE_BOARD
  39:application/cmd/robot_cmd.c **** 
  40:application/cmd/robot_cmd.c **** static Chassis_Ctrl_Cmd_s chassis_cmd_send;      // ÕÅæķĆüń╗ÖÕ║ĢńøśÕ║öńö©ńÜäõ┐Īµü»,Õīģµŗ¼µÄ¦ÕłČõ┐Īµ
  41:application/cmd/robot_cmd.c **** static Chassis_Upload_Data_s chassis_fetch_data; // õ╗ÄÕ║ĢńøśÕ║öńö©µÄźµöČńÜäÕÅŹķ”łõ┐Īµü»õ┐Īµü»,Õ║Ģń
  42:application/cmd/robot_cmd.c **** 
  43:application/cmd/robot_cmd.c **** static RC_ctrl_t *rc_data;              // ķüźµÄ¦ÕÖ©µĢ░µŹ«,ÕłØÕ¦ŗÕī¢µŚČĶ┐öÕø×
  44:application/cmd/robot_cmd.c **** static Vision_Recv_s *vision_recv_data; // Ķ¦åĶ¦ēµÄźµöČµĢ░µŹ«µīćķÆł,ÕłØÕ¦ŗÕī¢µŚČĶ┐öÕø×
  45:application/cmd/robot_cmd.c **** static Vision_Send_s vision_send_data;  // Ķ¦åĶ¦ēÕÅæķĆüµĢ░µŹ«
  46:application/cmd/robot_cmd.c **** 
  47:application/cmd/robot_cmd.c **** static Publisher_t *gimbal_cmd_pub;            // õ║æÕÅ░µÄ¦ÕłČµČłµü»ÕÅæÕĖāĶĆģ
  48:application/cmd/robot_cmd.c **** static Subscriber_t *gimbal_feed_sub;          // õ║æÕÅ░ÕÅŹķ”łõ┐Īµü»Ķ«óķśģĶĆģ
  49:application/cmd/robot_cmd.c **** static Gimbal_Ctrl_Cmd_s gimbal_cmd_send;      // õ╝ĀķĆÆń╗Öõ║æÕÅ░ńÜäµÄ¦ÕłČõ┐Īµü»
  50:application/cmd/robot_cmd.c **** static Gimbal_Upload_Data_s gimbal_fetch_data; // õ╗Äõ║æÕÅ░ĶÄĘÕÅ¢ńÜäÕÅŹķ”łõ┐Īµü»
  51:application/cmd/robot_cmd.c **** 
  52:application/cmd/robot_cmd.c **** static Publisher_t *shoot_cmd_pub;           // ÕÅæÕ░äµÄ¦ÕłČµČłµü»ÕÅæÕĖāĶĆģ
  53:application/cmd/robot_cmd.c **** static Subscriber_t *shoot_feed_sub;         // ÕÅæÕ░äÕÅŹķ”łõ┐Īµü»Ķ«óķśģĶĆģ
  54:application/cmd/robot_cmd.c **** static Shoot_Ctrl_Cmd_s shoot_cmd_send;      // õ╝ĀķĆÆń╗ÖÕÅæÕ░äńÜäµÄ¦ÕłČõ┐Īµü»
  55:application/cmd/robot_cmd.c **** static Shoot_Upload_Data_s shoot_fetch_data; // õ╗ÄÕÅæÕ░äĶÄĘÕÅ¢ńÜäÕÅŹķ”łõ┐Īµü»
  56:application/cmd/robot_cmd.c **** 
  57:application/cmd/robot_cmd.c **** static referee_info_t* referee_data; // ńö©õ║ÄĶÄĘÕÅ¢ĶŻüÕłżń│╗ń╗¤ńÜäµĢ░µŹ« 
  58:application/cmd/robot_cmd.c **** static Referee_Interactive_info_t ui_data; // UIµĢ░µŹ«’╝īÕ░åÕ║ĢńøśõĖŁńÜäµĢ░µŹ«õ╝ĀÕģźµŁżń╗ōµ×äõĮōńÜä
  59:application/cmd/robot_cmd.c **** 
  60:application/cmd/robot_cmd.c **** static Robot_Status_e robot_state; // µ£║ÕÖ©õ║║µĢ┤õĮōÕĘźõĮ£ńŖČµĆü
  61:application/cmd/robot_cmd.c **** 
  62:application/cmd/robot_cmd.c **** BuzzzerInstance *buzzer_alarm;
  63:application/cmd/robot_cmd.c **** LEDInstance *led_alarm;
  64:application/cmd/robot_cmd.c **** 
  65:application/cmd/robot_cmd.c **** void RobotCMDInit()
  66:application/cmd/robot_cmd.c **** {
  67:application/cmd/robot_cmd.c ****     robot_config = RobotConfigInit(SENTINEL_ROBOT);
  68:application/cmd/robot_cmd.c **** 
  69:application/cmd/robot_cmd.c ****     Buzzer_config_s buzzer_config ={
  70:application/cmd/robot_cmd.c ****             .alarm_level = ALARM_LEVEL_HIGH, //Ķ«ŠńĮ«ĶŁ”µŖźńŁēń║¦ ÕÉīõĖĆńŖČµĆüõĖŗ ķ½śńŁēń║¦ńÜäÕōŹÕ║
  71:application/cmd/robot_cmd.c ****             .loudness=  0.4, //Ķ«ŠńĮ«ÕōŹÕ║”
  72:application/cmd/robot_cmd.c ****             .octave=  OCTAVE_1, // Ķ«ŠńĮ«ķ¤│ķśČ
  73:application/cmd/robot_cmd.c ****         };
  74:application/cmd/robot_cmd.c ****     buzzer_alarm = BuzzerRegister(&buzzer_config);    
  75:application/cmd/robot_cmd.c **** 
  76:application/cmd/robot_cmd.c ****     LED_config_s LED_config ={
  77:application/cmd/robot_cmd.c ****             .color = PINK,
  78:application/cmd/robot_cmd.c ****             .flash = ALWAYS_ON,
  79:application/cmd/robot_cmd.c ****             .flash_count = 0,
  80:application/cmd/robot_cmd.c ****         };
  81:application/cmd/robot_cmd.c ****     led_alarm = LEDRegister(&LED_config);
  82:application/cmd/robot_cmd.c **** 
  83:application/cmd/robot_cmd.c ****     rc_data = RemoteControlInit(&huart3);   // õ┐«µö╣õĖ║Õ»╣Õ║öõĖ▓ÕÅŻ,µ│©µäÅÕ”éµ×£µś»Ķć¬ńĀöµØ┐dbusÕŹ
  84:application/cmd/robot_cmd.c ****     vision_recv_data = VisionInit(&huart1); // Ķ¦åĶ¦ēķĆÜõ┐ĪõĖ▓ÕÅŻ
  85:application/cmd/robot_cmd.c **** 
  86:application/cmd/robot_cmd.c ****     referee_data = UITaskInit(&huart6,&ui_data); // ĶŻüÕłżń│╗ń╗¤ÕłØÕ¦ŗÕī¢,õ╝ÜÕÉīµŚČÕłØÕ¦ŗÕī¢UI 
  87:application/cmd/robot_cmd.c **** 
  88:application/cmd/robot_cmd.c ****     gimbal_cmd_pub = PubRegister("gimbal_cmd", sizeof(Gimbal_Ctrl_Cmd_s));
ARM GAS  C:\Users\Administrator\AppData\Local\Temp\ccNqWoEF.s 			page 3


  89:application/cmd/robot_cmd.c ****     gimbal_feed_sub = SubRegister("gimbal_feed", sizeof(Gimbal_Upload_Data_s));
  90:application/cmd/robot_cmd.c ****     shoot_cmd_pub = PubRegister("shoot_cmd", sizeof(Shoot_Ctrl_Cmd_s));
  91:application/cmd/robot_cmd.c ****     shoot_feed_sub = SubRegister("shoot_feed", sizeof(Shoot_Upload_Data_s));
  92:application/cmd/robot_cmd.c **** 
  93:application/cmd/robot_cmd.c **** #ifdef ONE_BOARD // ÕÅīµØ┐Õģ╝Õ«╣
  94:application/cmd/robot_cmd.c ****     chassis_cmd_pub = PubRegister("chassis_cmd", sizeof(Chassis_Ctrl_Cmd_s));
  95:application/cmd/robot_cmd.c ****     chassis_feed_sub = SubRegister("chassis_feed", sizeof(Chassis_Upload_Data_s));
  96:application/cmd/robot_cmd.c **** #endif // ONE_BOARD
  97:application/cmd/robot_cmd.c **** #ifdef GIMBAL_BOARD
  98:application/cmd/robot_cmd.c ****     CANComm_Init_Config_s comm_conf = {
  99:application/cmd/robot_cmd.c ****         .can_config = {
 100:application/cmd/robot_cmd.c ****             .can_handle = &hcan1,
 101:application/cmd/robot_cmd.c ****             .tx_id = 0x312,
 102:application/cmd/robot_cmd.c ****             .rx_id = 0x311,
 103:application/cmd/robot_cmd.c ****         },
 104:application/cmd/robot_cmd.c ****         .recv_data_len = sizeof(Chassis_Upload_Data_s),
 105:application/cmd/robot_cmd.c ****         .send_data_len = sizeof(Chassis_Ctrl_Cmd_s),
 106:application/cmd/robot_cmd.c ****     };
 107:application/cmd/robot_cmd.c ****     cmd_can_comm = CANCommInit(&comm_conf);
 108:application/cmd/robot_cmd.c **** #endif // GIMBAL_BOARD
 109:application/cmd/robot_cmd.c ****     gimbal_cmd_send.pitch = 0;
 110:application/cmd/robot_cmd.c **** 
 111:application/cmd/robot_cmd.c ****     robot_state = ROBOT_READY; // ÕÉ»ÕŖ©µŚČµ£║ÕÖ©õ║║Ķ┐øÕģźÕĘźõĮ£µ©ĪÕ╝Å,ÕÉÄń╗ŁÕŖĀÕģźµēĆµ£ēÕ║öńö©ÕłØÕ
 112:application/cmd/robot_cmd.c **** }
 113:application/cmd/robot_cmd.c **** 
 114:application/cmd/robot_cmd.c **** /**
 115:application/cmd/robot_cmd.c ****  * @brief µĀ╣µŹ«gimbal appõ╝ĀÕø×ńÜäÕĮōÕēŹńöĄµ£║Ķ¦ÆÕ║”Ķ«Īń«ŚÕÆīķøČõĮŹńÜäĶ»»ÕĘ«
 116:application/cmd/robot_cmd.c ****  *        ÕŹĢÕ£łń╗ØÕ»╣Ķ¦ÆÕ║”ńÜäĶīāÕø┤µś»0~360,Ķ»┤µśÄµ¢ćµĪŻõĖŁµ£ēÕøŠńż║
 117:application/cmd/robot_cmd.c ****  *
 118:application/cmd/robot_cmd.c ****  */
 119:application/cmd/robot_cmd.c **** static void CalcOffsetAngle()
 120:application/cmd/robot_cmd.c **** {
  28              		.loc 1 120 1 view -0
  29              		.cfi_startproc
  30              		@ args = 0, pretend = 0, frame = 0
  31              		@ frame_needed = 0, uses_anonymous_args = 0
  32              		@ link register save eliminated.
 121:application/cmd/robot_cmd.c ****     // Õł½ÕÉŹangleµÅÉķ½śÕÅ»Ķ»╗µĆ¦,õĖŹńäČÕż¬ķĢ┐õ║åõĖŹÕźĮń£ŗ,ĶÖĮńäČÕ¤║µ£¼õĖŹõ╝ÜÕŖ©Ķ┐ÖõĖ¬ÕćĮµĢ░
 122:application/cmd/robot_cmd.c ****     static float angle;
  33              		.loc 1 122 5 view .LVU1
 123:application/cmd/robot_cmd.c ****     float yaw_align_angle;
  34              		.loc 1 123 5 view .LVU2
 124:application/cmd/robot_cmd.c ****     angle = gimbal_fetch_data.yaw_motor_single_round_angle; // õ╗Äõ║æÕÅ░ĶÄĘÕÅ¢ńÜäÕĮōÕēŹyawńöĄµ£║ÕŹĢ
  35              		.loc 1 124 5 view .LVU3
  36              		.loc 1 124 30 is_stmt 0 view .LVU4
  37 0000 394B     		ldr	r3, .L25
  38 0002 1B8D     		ldrh	r3, [r3, #40]
  39              		.loc 1 124 11 view .LVU5
  40 0004 07EE903A 		vmov	s15, r3	@ int
  41 0008 F8EE677A 		vcvt.f32.u32	s15, s15
  42 000c 374A     		ldr	r2, .L25+4
  43 000e C2ED007A 		vstr.32	s15, [r2]
 125:application/cmd/robot_cmd.c ****     yaw_align_angle = robot_config->gimbal_param.gimbal_offset.yaw_offset * ECD_ANGLE_COEF_DJI;
  44              		.loc 1 125 5 is_stmt 1 view .LVU6
  45              		.loc 1 125 35 is_stmt 0 view .LVU7
  46 0012 374A     		ldr	r2, .L25+8
  47 0014 1268     		ldr	r2, [r2]
ARM GAS  C:\Users\Administrator\AppData\Local\Temp\ccNqWoEF.s 			page 4


  48              		.loc 1 125 63 view .LVU8
  49 0016 D2ED456A 		vldr.32	s13, [r2, #276]
  50              		.loc 1 125 21 view .LVU9
  51 001a 9FED367A 		vldr.32	s14, .L25+12
  52 001e 26EE877A 		vmul.f32	s14, s13, s14
  53              	.LVL0:
 126:application/cmd/robot_cmd.c ****     if (robot_config->gimbal_param.gimbal_offset.yaw_offset > 4096)                               /
  54              		.loc 1 126 5 is_stmt 1 view .LVU10
  55              		.loc 1 126 8 is_stmt 0 view .LVU11
  56 0022 9FED356A 		vldr.32	s12, .L25+16
  57 0026 F4EEC66A 		vcmpe.f32	s13, s12
  58 002a F1EE10FA 		vmrs	APSR_nzcv, FPSCR
  59 002e 31DD     		ble	.L24
 127:application/cmd/robot_cmd.c ****     {
 128:application/cmd/robot_cmd.c ****         if (angle > yaw_align_angle && angle <= 180.0f + yaw_align_angle)
  60              		.loc 1 128 9 is_stmt 1 view .LVU12
  61              		.loc 1 128 12 is_stmt 0 view .LVU13
  62 0030 F4EEC77A 		vcmpe.f32	s15, s14
  63 0034 F1EE10FA 		vmrs	APSR_nzcv, FPSCR
  64 0038 0EDD     		ble	.L4
  65              		.loc 1 128 56 discriminator 1 view .LVU14
  66 003a DFED306A 		vldr.32	s13, .L25+20
  67 003e 77EE266A 		vadd.f32	s13, s14, s13
  68              		.loc 1 128 37 discriminator 1 view .LVU15
  69 0042 F4EEE67A 		vcmpe.f32	s15, s13
  70 0046 F1EE10FA 		vmrs	APSR_nzcv, FPSCR
  71 004a 05D8     		bhi	.L4
 129:application/cmd/robot_cmd.c ****             chassis_cmd_send.offset_angle = angle - yaw_align_angle;
  72              		.loc 1 129 13 is_stmt 1 view .LVU16
  73              		.loc 1 129 51 is_stmt 0 view .LVU17
  74 004c 77EEC77A 		vsub.f32	s15, s15, s14
  75              		.loc 1 129 43 view .LVU18
  76 0050 2B4B     		ldr	r3, .L25+24
  77 0052 C3ED037A 		vstr.32	s15, [r3, #12]
  78 0056 7047     		bx	lr
  79              	.L4:
 130:application/cmd/robot_cmd.c ****         else if (angle > yaw_align_angle - 180.0f && angle <= yaw_align_angle)
  80              		.loc 1 130 14 is_stmt 1 view .LVU19
  81              		.loc 1 130 42 is_stmt 0 view .LVU20
  82 0058 DFED286A 		vldr.32	s13, .L25+20
  83 005c 77EE666A 		vsub.f32	s13, s14, s13
  84              		.loc 1 130 17 view .LVU21
  85 0060 F4EEE67A 		vcmpe.f32	s15, s13
  86 0064 F1EE10FA 		vmrs	APSR_nzcv, FPSCR
  87 0068 0ADD     		ble	.L8
  88              		.loc 1 130 51 discriminator 1 view .LVU22
  89 006a F4EEC77A 		vcmpe.f32	s15, s14
  90 006e F1EE10FA 		vmrs	APSR_nzcv, FPSCR
  91 0072 05D8     		bhi	.L8
 131:application/cmd/robot_cmd.c ****             chassis_cmd_send.offset_angle = angle - yaw_align_angle;
  92              		.loc 1 131 13 is_stmt 1 view .LVU23
  93              		.loc 1 131 51 is_stmt 0 view .LVU24
  94 0074 77EEC77A 		vsub.f32	s15, s15, s14
  95              		.loc 1 131 43 view .LVU25
  96 0078 214B     		ldr	r3, .L25+24
  97 007a C3ED037A 		vstr.32	s15, [r3, #12]
  98 007e 7047     		bx	lr
ARM GAS  C:\Users\Administrator\AppData\Local\Temp\ccNqWoEF.s 			page 5


  99              	.L8:
 132:application/cmd/robot_cmd.c ****         else
 133:application/cmd/robot_cmd.c ****             chassis_cmd_send.offset_angle = 360.0f - yaw_align_angle + angle;
 100              		.loc 1 133 13 is_stmt 1 view .LVU26
 101              		.loc 1 133 52 is_stmt 0 view .LVU27
 102 0080 DFED206A 		vldr.32	s13, .L25+28
 103 0084 36EEC77A 		vsub.f32	s14, s13, s14
 104              	.LVL1:
 105              		.loc 1 133 70 view .LVU28
 106 0088 77EE877A 		vadd.f32	s15, s15, s14
 107              		.loc 1 133 43 view .LVU29
 108 008c 1C4B     		ldr	r3, .L25+24
 109 008e C3ED037A 		vstr.32	s15, [r3, #12]
 110 0092 7047     		bx	lr
 111              	.LVL2:
 112              	.L24:
 134:application/cmd/robot_cmd.c ****     }
 135:application/cmd/robot_cmd.c ****     else
 136:application/cmd/robot_cmd.c ****     {
 137:application/cmd/robot_cmd.c ****         if (angle > yaw_align_angle && angle <= 180.0f + yaw_align_angle)
 113              		.loc 1 137 9 is_stmt 1 view .LVU30
 114              		.loc 1 137 12 is_stmt 0 view .LVU31
 115 0094 F4EEC77A 		vcmpe.f32	s15, s14
 116 0098 F1EE10FA 		vmrs	APSR_nzcv, FPSCR
 117 009c 0EDD     		ble	.L11
 118              		.loc 1 137 56 discriminator 1 view .LVU32
 119 009e DFED176A 		vldr.32	s13, .L25+20
 120 00a2 77EE266A 		vadd.f32	s13, s14, s13
 121              		.loc 1 137 37 discriminator 1 view .LVU33
 122 00a6 F4EEE67A 		vcmpe.f32	s15, s13
 123 00aa F1EE10FA 		vmrs	APSR_nzcv, FPSCR
 124 00ae 05D8     		bhi	.L11
 138:application/cmd/robot_cmd.c ****             chassis_cmd_send.offset_angle = angle - yaw_align_angle;
 125              		.loc 1 138 13 is_stmt 1 view .LVU34
 126              		.loc 1 138 51 is_stmt 0 view .LVU35
 127 00b0 77EEC77A 		vsub.f32	s15, s15, s14
 128              		.loc 1 138 43 view .LVU36
 129 00b4 124B     		ldr	r3, .L25+24
 130 00b6 C3ED037A 		vstr.32	s15, [r3, #12]
 131 00ba 7047     		bx	lr
 132              	.L11:
 139:application/cmd/robot_cmd.c ****         else if (angle > 0.0f  && angle <= yaw_align_angle)
 133              		.loc 1 139 14 is_stmt 1 view .LVU37
 134              		.loc 1 139 17 is_stmt 0 view .LVU38
 135 00bc 53B1     		cbz	r3, .L14
 136              		.loc 1 139 32 discriminator 1 view .LVU39
 137 00be F4EEC77A 		vcmpe.f32	s15, s14
 138 00c2 F1EE10FA 		vmrs	APSR_nzcv, FPSCR
 139 00c6 05D8     		bhi	.L14
 140:application/cmd/robot_cmd.c ****             chassis_cmd_send.offset_angle = angle - yaw_align_angle;
 140              		.loc 1 140 13 is_stmt 1 view .LVU40
 141              		.loc 1 140 51 is_stmt 0 view .LVU41
 142 00c8 77EEC77A 		vsub.f32	s15, s15, s14
 143              		.loc 1 140 43 view .LVU42
 144 00cc 0C4B     		ldr	r3, .L25+24
 145 00ce C3ED037A 		vstr.32	s15, [r3, #12]
 146 00d2 7047     		bx	lr
ARM GAS  C:\Users\Administrator\AppData\Local\Temp\ccNqWoEF.s 			page 6


 147              	.L14:
 141:application/cmd/robot_cmd.c ****         else
 142:application/cmd/robot_cmd.c ****             chassis_cmd_send.offset_angle = angle - 360.0f - yaw_align_angle;
 148              		.loc 1 142 13 is_stmt 1 view .LVU43
 149              		.loc 1 142 51 is_stmt 0 view .LVU44
 150 00d4 DFED0B6A 		vldr.32	s13, .L25+28
 151 00d8 77EEE67A 		vsub.f32	s15, s15, s13
 152              		.loc 1 142 60 view .LVU45
 153 00dc 77EEC77A 		vsub.f32	s15, s15, s14
 154              		.loc 1 142 43 view .LVU46
 155 00e0 074B     		ldr	r3, .L25+24
 156 00e2 C3ED037A 		vstr.32	s15, [r3, #12]
 143:application/cmd/robot_cmd.c ****     }
 144:application/cmd/robot_cmd.c **** }
 157              		.loc 1 144 1 view .LVU47
 158 00e6 7047     		bx	lr
 159              	.L26:
 160              		.align	2
 161              	.L25:
 162 00e8 00000000 		.word	gimbal_fetch_data
 163 00ec 00000000 		.word	angle.5
 164 00f0 00000000 		.word	robot_config
 165 00f4 ACFF333D 		.word	1026817964
 166 00f8 00008045 		.word	1166016512
 167 00fc 00003443 		.word	1127481344
 168 0100 00000000 		.word	chassis_cmd_send
 169 0104 0000B443 		.word	1135869952
 170              		.cfi_endproc
 171              	.LFE277:
 173              		.section	.text.RemoteControlSet,"ax",%progbits
 174              		.align	1
 175              		.syntax unified
 176              		.thumb
 177              		.thumb_func
 179              	RemoteControlSet:
 180              	.LFB279:
 145:application/cmd/robot_cmd.c **** 
 146:application/cmd/robot_cmd.c **** 
 147:application/cmd/robot_cmd.c **** /**
 148:application/cmd/robot_cmd.c ****  * @brief µĀ╣µŹ«gimbal fetch dataĶ┐øĶĪīyawÕÆīpitchķÖÉÕ╣ģ
 149:application/cmd/robot_cmd.c ****  *        yawĶĮ┤ĶīāÕø┤õĖ║[-90,90],pitchĶĮ┤ĶīāÕø┤õĖ║[PITCH_MIN_ANGLE,PITCH_MAX_ANGLE]
 150:application/cmd/robot_cmd.c ****  *
 151:application/cmd/robot_cmd.c ****  */
 152:application/cmd/robot_cmd.c **** static void LimitSetAngle(float add_yaw, float add_pitch)
 153:application/cmd/robot_cmd.c **** {
 154:application/cmd/robot_cmd.c ****     static float bias_angle;    // yawĶĮ┤Ķ¦ÆÕ║”Ķ»»ÕĘ«ÕĆ╝
 155:application/cmd/robot_cmd.c ****     bias_angle = gimbal_cmd_send.yaw + gimbal_fetch_data.gimbal_imu_data.YawTotalAngle;     // yawĶ
 156:application/cmd/robot_cmd.c ****     // õ║æÕÅ░ĶĮ»õ╗ČķÖÉõĮŹ,ÕÉæÕĘ”/ÕÉæõĖŖÕüÅń¦╗õĖ║µŁŻ
 157:application/cmd/robot_cmd.c ****     if (chassis_cmd_send.offset_angle + fabs(bias_angle) >= 90.0f || 
 158:application/cmd/robot_cmd.c ****         gimbal_cmd_send.pitch >= robot_config->gimbal_param.gimbal_offset.pitch_max_angle)
 159:application/cmd/robot_cmd.c ****     { // õ║æÕÅ░yawĶĮ┤/pitchĶĮ┤µŁŻÕÉæÕüÅń¦╗
 160:application/cmd/robot_cmd.c ****         if (add_yaw < 0.0f)
 161:application/cmd/robot_cmd.c ****             gimbal_cmd_send.yaw -= add_yaw;
 162:application/cmd/robot_cmd.c **** 
 163:application/cmd/robot_cmd.c ****         if (add_pitch > 0.0f)
 164:application/cmd/robot_cmd.c ****             gimbal_cmd_send.pitch -= add_pitch;
 165:application/cmd/robot_cmd.c ****     }
ARM GAS  C:\Users\Administrator\AppData\Local\Temp\ccNqWoEF.s 			page 7


 166:application/cmd/robot_cmd.c ****     if (chassis_cmd_send.offset_angle - fabs(bias_angle) <= -90.0f ||
 167:application/cmd/robot_cmd.c ****         gimbal_cmd_send.pitch <= robot_config->gimbal_param.gimbal_offset.pitch_min_angle)
 168:application/cmd/robot_cmd.c ****     { // õ║æÕÅ░yawĶĮ┤/pitchĶĮ┤Ķ┤¤ÕÉæÕüÅń¦╗            
 169:application/cmd/robot_cmd.c ****         if (add_yaw > 0.0f)
 170:application/cmd/robot_cmd.c ****             gimbal_cmd_send.yaw -= add_yaw;
 171:application/cmd/robot_cmd.c **** 
 172:application/cmd/robot_cmd.c ****         if (add_pitch < 0.0f)
 173:application/cmd/robot_cmd.c ****             gimbal_cmd_send.pitch -= add_pitch;    
 174:application/cmd/robot_cmd.c ****     }
 175:application/cmd/robot_cmd.c **** }
 176:application/cmd/robot_cmd.c **** 
 177:application/cmd/robot_cmd.c **** /**
 178:application/cmd/robot_cmd.c ****  * @brief µÄ¦ÕłČĶŠōÕģźõĖ║ķüźµÄ¦ÕÖ©(Ķ░āĶ»ĢµŚČ)ńÜäµ©ĪÕ╝ÅÕÆīµÄ¦ÕłČķćÅĶ«ŠńĮ«
 179:application/cmd/robot_cmd.c ****  *
 180:application/cmd/robot_cmd.c ****  */ 
 181:application/cmd/robot_cmd.c **** static void RemoteControlSet()
 182:application/cmd/robot_cmd.c **** {
 181              		.loc 1 182 1 is_stmt 1 view -0
 182              		.cfi_startproc
 183              		@ args = 0, pretend = 0, frame = 0
 184              		@ frame_needed = 0, uses_anonymous_args = 0
 185              		@ link register save eliminated.
 183:application/cmd/robot_cmd.c ****     static float add_yaw, add_pitch; // Ķ¦ÆÕ║”Õó×ķćÅ
 186              		.loc 1 183 5 view .LVU49
 184:application/cmd/robot_cmd.c ****     static shoot_mode_e last_shoot_mode = SHOOT_ZERO_FORCE; 
 187              		.loc 1 184 5 view .LVU50
 185:application/cmd/robot_cmd.c **** 
 186:application/cmd/robot_cmd.c **** #ifdef ONE_BOARD
 187:application/cmd/robot_cmd.c ****     // ÕŹĢńŗ¼µÄ¦ÕłČõ║æÕÅ░ÕÆīÕ║Ģńøś
 188:application/cmd/robot_cmd.c **** 
 189:application/cmd/robot_cmd.c ****      if (gimbal_cmd_send.last_mode == GIMBAL_ZERO_FORCE && gimbal_cmd_send.gimbal_mode == GIMBAL_GY
 188              		.loc 1 189 6 view .LVU51
 189              		.loc 1 189 25 is_stmt 0 view .LVU52
 190 0000 994B     		ldr	r3, .L67
 191 0002 5B7C     		ldrb	r3, [r3, #17]	@ zero_extendqisi2
 192              		.loc 1 189 9 view .LVU53
 193 0004 1BB9     		cbnz	r3, .L28
 194              		.loc 1 189 75 discriminator 1 view .LVU54
 195 0006 984B     		ldr	r3, .L67
 196 0008 1B7C     		ldrb	r3, [r3, #16]	@ zero_extendqisi2
 197              		.loc 1 189 57 discriminator 1 view .LVU55
 198 000a 012B     		cmp	r3, #1
 199 000c 6FD0     		beq	.L53
 200              	.L28:
 190:application/cmd/robot_cmd.c ****     {
 191:application/cmd/robot_cmd.c ****         gimbal_cmd_send.pitch = gimbal_fetch_data.gimbal_imu_data.Pitch; // ńø«µĀć = ÕĮōÕēŹÕ«×ķÖģõĮ
 192:application/cmd/robot_cmd.c ****     }
 193:application/cmd/robot_cmd.c **** 
 194:application/cmd/robot_cmd.c ****     gimbal_cmd_send.last_mode = gimbal_cmd_send.gimbal_mode;
 201              		.loc 1 194 5 is_stmt 1 view .LVU56
 202              		.loc 1 194 48 is_stmt 0 view .LVU57
 203 000e 964B     		ldr	r3, .L67
 204 0010 1A7C     		ldrb	r2, [r3, #16]	@ zero_extendqisi2
 205              		.loc 1 194 31 view .LVU58
 206 0012 5A74     		strb	r2, [r3, #17]
 195:application/cmd/robot_cmd.c ****     
 196:application/cmd/robot_cmd.c ****     if (switch_is_down(rc_data[TEMP].rc.switch_left))      
ARM GAS  C:\Users\Administrator\AppData\Local\Temp\ccNqWoEF.s 			page 8


 207              		.loc 1 196 5 is_stmt 1 view .LVU59
 208              		.loc 1 196 9 is_stmt 0 view .LVU60
 209 0014 954B     		ldr	r3, .L67+4
 210 0016 1B68     		ldr	r3, [r3]
 211 0018 9A7A     		ldrb	r2, [r3, #10]	@ zero_extendqisi2
 212              		.loc 1 196 8 view .LVU61
 213 001a 022A     		cmp	r2, #2
 214 001c 6CD0     		beq	.L54
 215              	.L29:
 197:application/cmd/robot_cmd.c ****     {   // ÕĘ”õŠ¦Õ╝ĆÕģ│ńŖČµĆü[õĖŗ],ÕÅ│õŠ¦Õ╝ĆÕģ│ńŖČµĆüõĖŹõĖ║[õĖŗ],Õ║ĢńøśµŚĀÕŖø,õ║æÕÅ░ķÖĆĶ×║õ╗¬µ©ĪÕ╝Å
 198:application/cmd/robot_cmd.c ****         if (!switch_is_down(rc_data[TEMP].rc.switch_right))
 199:application/cmd/robot_cmd.c ****         {
 200:application/cmd/robot_cmd.c ****             gimbal_cmd_send.gimbal_mode = GIMBAL_GYRO_MODE;
 201:application/cmd/robot_cmd.c ****         }
 202:application/cmd/robot_cmd.c ****         chassis_cmd_send.chassis_mode = CHASSIS_ZERO_FORCE;
 203:application/cmd/robot_cmd.c ****     }
 204:application/cmd/robot_cmd.c **** 
 205:application/cmd/robot_cmd.c ****     if (switch_is_down(rc_data[TEMP].rc.switch_right))      
 216              		.loc 1 205 5 is_stmt 1 view .LVU62
 217              		.loc 1 205 9 is_stmt 0 view .LVU63
 218 001e DA7A     		ldrb	r2, [r3, #11]	@ zero_extendqisi2
 219              		.loc 1 205 8 view .LVU64
 220 0020 022A     		cmp	r2, #2
 221 0022 73D0     		beq	.L55
 222              	.L31:
 206:application/cmd/robot_cmd.c ****     {   // ÕĘ”õŠ¦Õ╝ĆÕģ│ńŖČµĆüõĖŹõĖ║[õĖŗ],ÕÅ│õŠ¦Õ╝ĆÕģ│ńŖČµĆüõĖ║[õĖŗ],Õ║Ģńøśń╝¢ńĀüÕÖ©µÄ¦ÕłČ,õ║æÕÅ░µŚĀ
 207:application/cmd/robot_cmd.c ****         if (!switch_is_down(rc_data[TEMP].rc.switch_left))
 208:application/cmd/robot_cmd.c ****         {
 209:application/cmd/robot_cmd.c ****             chassis_cmd_send.chassis_mode = CHASSIS_NO_FOLLOW;   
 210:application/cmd/robot_cmd.c ****         }
 211:application/cmd/robot_cmd.c ****         gimbal_cmd_send.gimbal_mode = GIMBAL_ZERO_FORCE;
 212:application/cmd/robot_cmd.c ****     }
 213:application/cmd/robot_cmd.c ****     // ń╗äÕÉłµÄ¦ÕłČÕ║ĢńøśÕÆīõ║æÕÅ░
 214:application/cmd/robot_cmd.c ****     if (switch_is_mid(rc_data[TEMP].rc.switch_right))       
 223              		.loc 1 214 5 is_stmt 1 view .LVU65
 224              		.loc 1 214 9 is_stmt 0 view .LVU66
 225 0024 DA7A     		ldrb	r2, [r3, #11]	@ zero_extendqisi2
 226              		.loc 1 214 8 view .LVU67
 227 0026 032A     		cmp	r2, #3
 228 0028 7AD0     		beq	.L56
 229              	.L33:
 215:application/cmd/robot_cmd.c ****     {  
 216:application/cmd/robot_cmd.c ****         // ÕĘ”õŠ¦Õ╝ĆÕģ│ńŖČµĆü[õĖŁ],ÕÅ│õŠ¦Õ╝ĆÕģ│ńŖČµĆüõĖ║[õĖŁ],Õ║ĢńøśĶĘ¤ķÜÅõ║æÕÅ░
 217:application/cmd/robot_cmd.c ****         if (switch_is_mid(rc_data[TEMP].rc.switch_left))
 218:application/cmd/robot_cmd.c ****             chassis_cmd_send.chassis_mode = CHASSIS_FOLLOW_GIMBAL_YAW;
 219:application/cmd/robot_cmd.c **** 
 220:application/cmd/robot_cmd.c ****         // ÕĘ”õŠ¦Õ╝ĆÕģ│ńŖČµĆü[õĖŖ],ÕÅ│õŠ¦Õ╝ĆÕģ│ńŖČµĆüõĖ║[õĖŁ],Õ║ĢńøśÕ░ÅķÖĆĶ×║
 221:application/cmd/robot_cmd.c ****         if (switch_is_up(rc_data[TEMP].rc.switch_left))
 222:application/cmd/robot_cmd.c ****             chassis_cmd_send.chassis_mode = CHASSIS_ROTATE;
 223:application/cmd/robot_cmd.c ****         
 224:application/cmd/robot_cmd.c ****         gimbal_cmd_send.gimbal_mode = GIMBAL_GYRO_MODE;
 225:application/cmd/robot_cmd.c ****     }
 226:application/cmd/robot_cmd.c **** #endif
 227:application/cmd/robot_cmd.c **** #ifdef GIMBAL_BOARD
 228:application/cmd/robot_cmd.c ****     if (switch_is_down(rc_data[TEMP].rc.switch_right))      
 229:application/cmd/robot_cmd.c ****     {   // ÕĘ”õŠ¦Õ╝ĆÕģ│ńŖČµĆüõĖŹõĖ║[õĖŗ],ÕÅ│õŠ¦Õ╝ĆÕģ│ńŖČµĆüõĖ║[õĖŗ],Õ║Ģńøśń╝¢ńĀüÕÖ©µÄ¦ÕłČ,õ║æÕÅ░µŚĀ
 230:application/cmd/robot_cmd.c ****         gimbal_cmd_send.gimbal_mode = GIMBAL_ZERO_FORCE;
ARM GAS  C:\Users\Administrator\AppData\Local\Temp\ccNqWoEF.s 			page 9


 231:application/cmd/robot_cmd.c ****     }
 232:application/cmd/robot_cmd.c **** 
 233:application/cmd/robot_cmd.c ****     if (switch_is_mid(rc_data[TEMP].rc.switch_right))      
 234:application/cmd/robot_cmd.c ****     {   // ÕĘ”õŠ¦Õ╝ĆÕģ│ńŖČµĆüõĖŹõĖ║[õĖŗ],ÕÅ│õŠ¦Õ╝ĆÕģ│ńŖČµĆüõĖ║[õĖŗ],Õ║Ģńøśń╝¢ńĀüÕÖ©µÄ¦ÕłČ,õ║æÕÅ░µŚĀ
 235:application/cmd/robot_cmd.c ****         gimbal_cmd_send.gimbal_mode = GIMBAL_GYRO_MODE;
 236:application/cmd/robot_cmd.c ****     }
 237:application/cmd/robot_cmd.c **** #endif
 238:application/cmd/robot_cmd.c **** 
 239:application/cmd/robot_cmd.c ****     // õ║æÕÅ░ķÖĆĶ×║õ╗¬µ©ĪÕ╝Å,Õ╣ČõĖöĶ¦åĶ¦ēµ£¬Ķ»åÕł½Õł░ńø«µĀć,ń║»ķüźµÄ¦ÕÖ©µŗ©µØåµÄ¦ÕłČ
 240:application/cmd/robot_cmd.c ****     add_yaw = RC_TO_YAW_ANGLE * (float)rc_data[TEMP].rc.rocker_l_;
 230              		.loc 1 240 5 is_stmt 1 view .LVU68
 231              		.loc 1 240 56 is_stmt 0 view .LVU69
 232 002a B3F90020 		ldrsh	r2, [r3]
 233 002e 07EE902A 		vmov	s15, r2	@ int
 234              		.loc 1 240 33 view .LVU70
 235 0032 F8EEE77A 		vcvt.f32.s32	s15, s15
 236              		.loc 1 240 31 view .LVU71
 237 0036 9FED8E7A 		vldr.32	s14, .L67+8
 238 003a 67EE877A 		vmul.f32	s15, s15, s14
 239              		.loc 1 240 13 view .LVU72
 240 003e 8D4A     		ldr	r2, .L67+12
 241 0040 C2ED007A 		vstr.32	s15, [r2]
 241:application/cmd/robot_cmd.c ****     add_pitch = RC_TO_PITCH_ANGLE * (float)rc_data[TEMP].rc.rocker_l1;
 242              		.loc 1 241 5 is_stmt 1 view .LVU73
 243              		.loc 1 241 60 is_stmt 0 view .LVU74
 244 0044 B3F90220 		ldrsh	r2, [r3, #2]
 245 0048 07EE902A 		vmov	s15, r2	@ int
 246              		.loc 1 241 37 view .LVU75
 247 004c F8EEE77A 		vcvt.f32.s32	s15, s15
 248              		.loc 1 241 35 view .LVU76
 249 0050 9FED897A 		vldr.32	s14, .L67+16
 250 0054 67EE877A 		vmul.f32	s15, s15, s14
 251              		.loc 1 241 15 view .LVU77
 252 0058 884A     		ldr	r2, .L67+20
 253 005a C2ED007A 		vstr.32	s15, [r2]
 242:application/cmd/robot_cmd.c **** 
 243:application/cmd/robot_cmd.c ****     if (robot_state == ROBOT_READY)
 254              		.loc 1 243 5 is_stmt 1 view .LVU78
 255              		.loc 1 243 21 is_stmt 0 view .LVU79
 256 005e 884A     		ldr	r2, .L67+24
 257 0060 1278     		ldrb	r2, [r2]	@ zero_extendqisi2
 258              		.loc 1 243 8 view .LVU80
 259 0062 012A     		cmp	r2, #1
 260 0064 6ED0     		beq	.L57
 261              	.L36:
 244:application/cmd/robot_cmd.c ****     {
 245:application/cmd/robot_cmd.c ****         // Ķ¦åĶ¦ēµÄźń«Īõ╝śÕģłń║¦µ£Ćķ½ś
 246:application/cmd/robot_cmd.c ****         if (vision_recv_data->mode == 1 || vision_recv_data->mode == 2)
 247:application/cmd/robot_cmd.c ****         {
 248:application/cmd/robot_cmd.c ****             float vision_yaw = vision_recv_data->yaw * RAD_TO_DEG;
 249:application/cmd/robot_cmd.c ****             float vision_pitch = vision_recv_data->pitch * RAD_TO_DEG + PITCH_ZERO_OFFSET;
 250:application/cmd/robot_cmd.c ****             if (vision_recv_data->mode == 2) {
 251:application/cmd/robot_cmd.c ****                 shoot_cmd_send.shoot_mode = SHOOT_ON;
 252:application/cmd/robot_cmd.c ****                 shoot_cmd_send.friction_mode = FRICTION_ON;
 253:application/cmd/robot_cmd.c ****                 shoot_cmd_send.load_mode = LOAD_BURSTFIRE;
 254:application/cmd/robot_cmd.c ****                 shoot_cmd_send.shoot_rate = 10;
 255:application/cmd/robot_cmd.c ****             } else { // mode == 1: Ķ»åÕł½Õł░ńø«µĀćõĮåõĖŹÕ░äÕć╗
ARM GAS  C:\Users\Administrator\AppData\Local\Temp\ccNqWoEF.s 			page 10


 256:application/cmd/robot_cmd.c ****                 shoot_cmd_send.load_mode = LOAD_STOP;
 257:application/cmd/robot_cmd.c ****                 shoot_cmd_send.friction_mode = FRICTION_ON;
 258:application/cmd/robot_cmd.c ****             }
 259:application/cmd/robot_cmd.c ****             gimbal_cmd_send.gimbal_mode = GIMBAL_GYRO_MODE;
 260:application/cmd/robot_cmd.c ****             gimbal_cmd_send.yaw = vision_yaw;
 261:application/cmd/robot_cmd.c ****             gimbal_cmd_send.pitch = vision_pitch;
 262:application/cmd/robot_cmd.c ****             add_yaw = 0.0f;
 263:application/cmd/robot_cmd.c ****             add_pitch = 0.0f;
 264:application/cmd/robot_cmd.c ****         }
 265:application/cmd/robot_cmd.c ****         else // mode == 0: µ£¬Ķ»åÕł½Õł░ńø«µĀć’╝īÕłćµŹóÕø×µēŗÕŖ©µÄ¦ÕłČ
 266:application/cmd/robot_cmd.c ****         {
 267:application/cmd/robot_cmd.c ****             // µüóÕżŹµēŗÕŖ©µÄ¦ÕłČ’╝īõĮ┐ńö©ķüźµÄ¦ÕÖ©µæćµØåµÄ¦ÕłČõ║æÕÅ░
 268:application/cmd/robot_cmd.c ****             // add_yaw ÕÆī add_pitch ÕĘ▓ń╗ÅÕ£©ÕēŹķØóĶ«Īń«ŚÕźĮõ║å
 269:application/cmd/robot_cmd.c ****         }
 270:application/cmd/robot_cmd.c ****         if (gimbal_cmd_send.gimbal_mode == GIMBAL_GYRO_MODE)
 271:application/cmd/robot_cmd.c ****         { // µīēńģ¦µæćµØåńÜäĶŠōÕć║Õż¦Õ░ÅĶ┐øĶĪīĶ¦ÆÕ║”Õó×ķćÅ,µŗ©µØåÕÉæÕÅ│/ÕÉæõĖŖõĖ║µŁŻ
 272:application/cmd/robot_cmd.c ****             if (vision_recv_data->mode == 0) { // ÕÅ¬µ£ēÕ£©Ķ¦åĶ¦ēµ£¬Ķ»åÕł½Õł░ńø«µĀćµŚČµēŹÕģüĶ«Ėķüźµ
 273:application/cmd/robot_cmd.c ****                 gimbal_cmd_send.yaw += add_yaw;
 274:application/cmd/robot_cmd.c ****                 gimbal_cmd_send.pitch += add_pitch;
 275:application/cmd/robot_cmd.c ****             }
 276:application/cmd/robot_cmd.c ****             
 277:application/cmd/robot_cmd.c ****         }
 278:application/cmd/robot_cmd.c ****     }
 279:application/cmd/robot_cmd.c **** 
 280:application/cmd/robot_cmd.c ****     // õ║æÕÅ░Ķ¦ÆÕ║”ķÖÉÕ╣ģ,Ķ”üµöŠÕ£©Õó×ķćÅõ╗źÕÉÄ
 281:application/cmd/robot_cmd.c ****  //   LimitSetAngle(add_yaw, add_pitch);
 282:application/cmd/robot_cmd.c **** 
 283:application/cmd/robot_cmd.c ****  VAL_LIMIT(gimbal_cmd_send.pitch, 
 262              		.loc 1 283 2 is_stmt 1 view .LVU81
 263              		.loc 1 283 2 view .LVU82
 264 0066 804A     		ldr	r2, .L67
 265 0068 D2ED027A 		vldr.32	s15, [r2, #8]
 266 006c 854A     		ldr	r2, .L67+28
 267 006e 1268     		ldr	r2, [r2]
 268 0070 92ED477A 		vldr.32	s14, [r2, #284]
 269 0074 F4EEC77A 		vcmpe.f32	s15, s14
 270 0078 F1EE10FA 		vmrs	APSR_nzcv, FPSCR
 271 007c 00F2B480 		bhi	.L52
 272              		.loc 1 283 2 discriminator 1 view .LVU83
 273 0080 794A     		ldr	r2, .L67
 274 0082 82ED027A 		vstr.32	s14, [r2, #8]
 275              	.L42:
 276              		.loc 1 283 2 view .LVU84
 284:application/cmd/robot_cmd.c ****           robot_config->gimbal_param.gimbal_offset.pitch_min_angle, 
 285:application/cmd/robot_cmd.c ****           robot_config->gimbal_param.gimbal_offset.pitch_max_angle);
 286:application/cmd/robot_cmd.c **** 
 287:application/cmd/robot_cmd.c ****     // Õ║ĢńøśÕÅéµĢ░,ńø«ÕēŹµ▓Īµ£ēÕŖĀÕģźÕ░ÅķÖĆĶ×║(Ķ░āĶ»Ģõ╝╝õ╣ÄµÜéµŚČµ▓Īµ£ēÕ┐ģĶ”ü),ń│╗µĢ░õĖ║2.0m/s(ń╗Å
 288:application/cmd/robot_cmd.c ****     chassis_cmd_send.vx = 3.0f / HALF_RC_CH_MAX * (float)rc_data[TEMP].rc.rocker_r_;    // µ©¬ń¦╗µ¢
 277              		.loc 1 288 5 view .LVU85
 278              		.loc 1 288 74 is_stmt 0 view .LVU86
 279 0086 B3F90420 		ldrsh	r2, [r3, #4]
 280 008a 07EE902A 		vmov	s15, r2	@ int
 281              		.loc 1 288 51 view .LVU87
 282 008e F8EEE77A 		vcvt.f32.s32	s15, s15
 283              		.loc 1 288 49 view .LVU88
 284 0092 9FED7D7A 		vldr.32	s14, .L67+32
 285 0096 67EE877A 		vmul.f32	s15, s15, s14
ARM GAS  C:\Users\Administrator\AppData\Local\Temp\ccNqWoEF.s 			page 11


 286              		.loc 1 288 25 view .LVU89
 287 009a 7C4A     		ldr	r2, .L67+36
 288 009c C2ED007A 		vstr.32	s15, [r2]
 289:application/cmd/robot_cmd.c ****     chassis_cmd_send.vy = 3.5f / HALF_RC_CH_MAX * (float)rc_data[TEMP].rc.rocker_r1;    // ÕēŹĶ┐øµ¢
 289              		.loc 1 289 5 is_stmt 1 view .LVU90
 290              		.loc 1 289 74 is_stmt 0 view .LVU91
 291 00a0 B3F90610 		ldrsh	r1, [r3, #6]
 292 00a4 07EE901A 		vmov	s15, r1	@ int
 293              		.loc 1 289 51 view .LVU92
 294 00a8 F8EEE77A 		vcvt.f32.s32	s15, s15
 295              		.loc 1 289 49 view .LVU93
 296 00ac 9FED787A 		vldr.32	s14, .L67+40
 297 00b0 67EE877A 		vmul.f32	s15, s15, s14
 298              		.loc 1 289 25 view .LVU94
 299 00b4 C2ED017A 		vstr.32	s15, [r2, #4]
 290:application/cmd/robot_cmd.c ****     chassis_cmd_send.wz = 2.5f / HALF_RC_CH_MAX * (float)rc_data[TEMP].rc.rocker_l_;    // µŚŗĶĮ¼µ¢
 300              		.loc 1 290 5 is_stmt 1 view .LVU95
 301              		.loc 1 290 74 is_stmt 0 view .LVU96
 302 00b8 B3F90010 		ldrsh	r1, [r3]
 303 00bc 07EE901A 		vmov	s15, r1	@ int
 304              		.loc 1 290 51 view .LVU97
 305 00c0 F8EEE77A 		vcvt.f32.s32	s15, s15
 306              		.loc 1 290 49 view .LVU98
 307 00c4 9FED737A 		vldr.32	s14, .L67+44
 308 00c8 67EE877A 		vmul.f32	s15, s15, s14
 309              		.loc 1 290 25 view .LVU99
 310 00cc C2ED027A 		vstr.32	s15, [r2, #8]
 291:application/cmd/robot_cmd.c **** 
 292:application/cmd/robot_cmd.c ****     // chassis_cmd_send.vx = vision_recv_data->data.speed_vector.vx;
 293:application/cmd/robot_cmd.c ****     // chassis_cmd_send.vy = vision_recv_data->data.speed_vector.vy;
 294:application/cmd/robot_cmd.c ****     // chassis_cmd_send.wz = 0;
 295:application/cmd/robot_cmd.c ****     // chassis_cmd_send.wz = -vision_recv_data->data.speed_vector.wz;
 296:application/cmd/robot_cmd.c **** 
 297:application/cmd/robot_cmd.c ****     // // ÕÅæÕ░äÕÅéµĢ░
 298:application/cmd/robot_cmd.c ****     // if (switch_is_mid(rc_data[TEMP].rc.switch_left)) // ÕÅ│õŠ¦Õ╝ĆÕģ│ńŖČµĆü[õĖŖ],Õ╝╣Ķł▒µēōÕ╝Ć
 299:application/cmd/robot_cmd.c ****     //     ;                                            // Õ╝╣Ķł▒ĶłĄµ£║µÄ¦ÕłČ,ÕŠģµĘ╗ÕŖĀservo_motorµ
 300:application/cmd/robot_cmd.c ****     // else
 301:application/cmd/robot_cmd.c ****     //     ; // Õ╝╣Ķł▒ĶłĄµ£║µÄ¦ÕłČ,ÕŠģµĘ╗ÕŖĀservo_motorµ©ĪÕØŚ,Õģ│ķŚŁ
 302:application/cmd/robot_cmd.c **** 
 303:application/cmd/robot_cmd.c ****     // ÕÅ│õŠ¦Õ╝ĆÕģ│[õĖŁ],ÕÅæÕ░äÕ╝ĆÕÉ»
 304:application/cmd/robot_cmd.c ****     if (switch_is_mid(rc_data[TEMP].rc.switch_right)) 
 311              		.loc 1 304 5 is_stmt 1 view .LVU100
 312              		.loc 1 304 9 is_stmt 0 view .LVU101
 313 00d0 DA7A     		ldrb	r2, [r3, #11]	@ zero_extendqisi2
 314              		.loc 1 304 8 view .LVU102
 315 00d2 032A     		cmp	r2, #3
 316 00d4 00F09480 		beq	.L58
 317              	.L44:
 305:application/cmd/robot_cmd.c ****     {   // Õ┐½µŗ©ÕÅ│õŠ¦Õ╝ĆÕģ│[õĖŁ]->ÕÅ│õŠ¦Õ╝ĆÕģ│[õĖŖ]->ÕÅ│õŠ¦Õ╝ĆÕģ│[õĖŁ],µæ®µō”ĶĮ«Õ╝ĆÕÉ»
 306:application/cmd/robot_cmd.c ****         shoot_cmd_send.shoot_mode = SHOOT_ON;
 307:application/cmd/robot_cmd.c ****         if (last_shoot_mode == SHOOT_OFF && shoot_cmd_send.friction_mode == FRICTION_ON)
 308:application/cmd/robot_cmd.c ****             shoot_cmd_send.friction_mode = FRICTION_OFF;
 309:application/cmd/robot_cmd.c ****         else if (last_shoot_mode == SHOOT_OFF && shoot_cmd_send.friction_mode != FRICTION_ON)
 310:application/cmd/robot_cmd.c ****             shoot_cmd_send.friction_mode = FRICTION_ON;
 311:application/cmd/robot_cmd.c ****          
 312:application/cmd/robot_cmd.c ****         if (rc_data[TEMP].rc.dial < 10)
 313:application/cmd/robot_cmd.c ****             shoot_cmd_send.load_mode = LOAD_STOP;     
ARM GAS  C:\Users\Administrator\AppData\Local\Temp\ccNqWoEF.s 			page 12


 314:application/cmd/robot_cmd.c ****         
 315:application/cmd/robot_cmd.c ****             
 316:application/cmd/robot_cmd.c ****         if (rc_data[TEMP].rc.dial > 600)
 317:application/cmd/robot_cmd.c ****         {
 318:application/cmd/robot_cmd.c ****             // Õ░äķóæµÄ¦ÕłČ
 319:application/cmd/robot_cmd.c ****             shoot_cmd_send.shoot_rate = 10; 
 320:application/cmd/robot_cmd.c ****             shoot_cmd_send.load_mode = LOAD_BURSTFIRE;
 321:application/cmd/robot_cmd.c ****         }     
 322:application/cmd/robot_cmd.c ****     }
 323:application/cmd/robot_cmd.c ****     
 324:application/cmd/robot_cmd.c ****     // ÕÅ│õŠ¦Õ╝ĆÕģ│[õĖŖ],ÕÅæÕ░äÕģ│ķŚŁ
 325:application/cmd/robot_cmd.c ****     if (switch_is_up(rc_data[TEMP].rc.switch_right)) 
 318              		.loc 1 325 5 is_stmt 1 view .LVU103
 319              		.loc 1 325 8 is_stmt 0 view .LVU104
 320 00d8 012A     		cmp	r2, #1
 321 00da 00F0BC80 		beq	.L59
 322              	.L48:
 326:application/cmd/robot_cmd.c ****     {
 327:application/cmd/robot_cmd.c ****         shoot_cmd_send.shoot_mode = SHOOT_OFF;
 328:application/cmd/robot_cmd.c ****     }
 329:application/cmd/robot_cmd.c **** 
 330:application/cmd/robot_cmd.c ****     // ÕĘ”ÕÅ│õŠ¦Õ╝ĆÕģ│ÕØćõĖ║[õĖŗ],µæ®µō”ĶĮ«Õģ│ķŚŁ
 331:application/cmd/robot_cmd.c ****     if (switch_is_down(rc_data[TEMP].rc.switch_right))
 323              		.loc 1 331 5 is_stmt 1 view .LVU105
 324              		.loc 1 331 8 is_stmt 0 view .LVU106
 325 00de 022A     		cmp	r2, #2
 326 00e0 00F0BD80 		beq	.L60
 327              	.L49:
 332:application/cmd/robot_cmd.c ****     {
 333:application/cmd/robot_cmd.c ****         shoot_cmd_send.shoot_mode = SHOOT_ON;
 334:application/cmd/robot_cmd.c ****         shoot_cmd_send.friction_mode = FRICTION_OFF;      
 335:application/cmd/robot_cmd.c ****     }
 336:application/cmd/robot_cmd.c ****     // õ┐ØńĢÖõĖŖõĖĆµ¼ĪÕÅæÕ░äµ©ĪÕ╝Å 
 337:application/cmd/robot_cmd.c ****     last_shoot_mode = shoot_cmd_send.shoot_mode;
 328              		.loc 1 337 5 is_stmt 1 view .LVU107
 329              		.loc 1 337 37 is_stmt 0 view .LVU108
 330 00e4 6C4B     		ldr	r3, .L67+48
 331 00e6 1A78     		ldrb	r2, [r3]	@ zero_extendqisi2
 332              		.loc 1 337 21 view .LVU109
 333 00e8 6C4B     		ldr	r3, .L67+52
 334 00ea 1A70     		strb	r2, [r3]
 338:application/cmd/robot_cmd.c **** 
 339:application/cmd/robot_cmd.c **** 
 340:application/cmd/robot_cmd.c **** }
 335              		.loc 1 340 1 view .LVU110
 336 00ec 7047     		bx	lr
 337              	.L53:
 191:application/cmd/robot_cmd.c ****     }
 338              		.loc 1 191 9 is_stmt 1 view .LVU111
 191:application/cmd/robot_cmd.c ****     }
 339              		.loc 1 191 66 is_stmt 0 view .LVU112
 340 00ee 6C4B     		ldr	r3, .L67+56
 341 00f0 DA69     		ldr	r2, [r3, #28]	@ float
 191:application/cmd/robot_cmd.c ****     }
 342              		.loc 1 191 31 view .LVU113
 343 00f2 5D4B     		ldr	r3, .L67
 344 00f4 9A60     		str	r2, [r3, #8]	@ float
ARM GAS  C:\Users\Administrator\AppData\Local\Temp\ccNqWoEF.s 			page 13


 345 00f6 8AE7     		b	.L28
 346              	.L54:
 198:application/cmd/robot_cmd.c ****         {
 347              		.loc 1 198 9 is_stmt 1 view .LVU114
 198:application/cmd/robot_cmd.c ****         {
 348              		.loc 1 198 14 is_stmt 0 view .LVU115
 349 00f8 DA7A     		ldrb	r2, [r3, #11]	@ zero_extendqisi2
 198:application/cmd/robot_cmd.c ****         {
 350              		.loc 1 198 12 view .LVU116
 351 00fa 022A     		cmp	r2, #2
 352 00fc 02D0     		beq	.L30
 200:application/cmd/robot_cmd.c ****         }
 353              		.loc 1 200 13 is_stmt 1 view .LVU117
 200:application/cmd/robot_cmd.c ****         }
 354              		.loc 1 200 41 is_stmt 0 view .LVU118
 355 00fe 5A4A     		ldr	r2, .L67
 356 0100 0121     		movs	r1, #1
 357 0102 1174     		strb	r1, [r2, #16]
 358              	.L30:
 202:application/cmd/robot_cmd.c ****     }
 359              		.loc 1 202 9 is_stmt 1 view .LVU119
 202:application/cmd/robot_cmd.c ****     }
 360              		.loc 1 202 39 is_stmt 0 view .LVU120
 361 0104 614A     		ldr	r2, .L67+36
 362 0106 0021     		movs	r1, #0
 363 0108 1175     		strb	r1, [r2, #20]
 364 010a 88E7     		b	.L29
 365              	.L55:
 207:application/cmd/robot_cmd.c ****         {
 366              		.loc 1 207 9 is_stmt 1 view .LVU121
 207:application/cmd/robot_cmd.c ****         {
 367              		.loc 1 207 14 is_stmt 0 view .LVU122
 368 010c 9A7A     		ldrb	r2, [r3, #10]	@ zero_extendqisi2
 207:application/cmd/robot_cmd.c ****         {
 369              		.loc 1 207 12 view .LVU123
 370 010e 022A     		cmp	r2, #2
 371 0110 02D0     		beq	.L32
 209:application/cmd/robot_cmd.c ****         }
 372              		.loc 1 209 13 is_stmt 1 view .LVU124
 209:application/cmd/robot_cmd.c ****         }
 373              		.loc 1 209 43 is_stmt 0 view .LVU125
 374 0112 5E4A     		ldr	r2, .L67+36
 375 0114 0221     		movs	r1, #2
 376 0116 1175     		strb	r1, [r2, #20]
 377              	.L32:
 211:application/cmd/robot_cmd.c ****     }
 378              		.loc 1 211 9 is_stmt 1 view .LVU126
 211:application/cmd/robot_cmd.c ****     }
 379              		.loc 1 211 37 is_stmt 0 view .LVU127
 380 0118 534A     		ldr	r2, .L67
 381 011a 0021     		movs	r1, #0
 382 011c 1174     		strb	r1, [r2, #16]
 383 011e 81E7     		b	.L31
 384              	.L56:
 217:application/cmd/robot_cmd.c ****             chassis_cmd_send.chassis_mode = CHASSIS_FOLLOW_GIMBAL_YAW;
 385              		.loc 1 217 9 is_stmt 1 view .LVU128
 217:application/cmd/robot_cmd.c ****             chassis_cmd_send.chassis_mode = CHASSIS_FOLLOW_GIMBAL_YAW;
ARM GAS  C:\Users\Administrator\AppData\Local\Temp\ccNqWoEF.s 			page 14


 386              		.loc 1 217 13 is_stmt 0 view .LVU129
 387 0120 9A7A     		ldrb	r2, [r3, #10]	@ zero_extendqisi2
 217:application/cmd/robot_cmd.c ****             chassis_cmd_send.chassis_mode = CHASSIS_FOLLOW_GIMBAL_YAW;
 388              		.loc 1 217 12 view .LVU130
 389 0122 032A     		cmp	r2, #3
 390 0124 06D0     		beq	.L61
 391              	.L34:
 221:application/cmd/robot_cmd.c ****             chassis_cmd_send.chassis_mode = CHASSIS_ROTATE;
 392              		.loc 1 221 9 is_stmt 1 view .LVU131
 221:application/cmd/robot_cmd.c ****             chassis_cmd_send.chassis_mode = CHASSIS_ROTATE;
 393              		.loc 1 221 13 is_stmt 0 view .LVU132
 394 0126 9A7A     		ldrb	r2, [r3, #10]	@ zero_extendqisi2
 221:application/cmd/robot_cmd.c ****             chassis_cmd_send.chassis_mode = CHASSIS_ROTATE;
 395              		.loc 1 221 12 view .LVU133
 396 0128 012A     		cmp	r2, #1
 397 012a 07D0     		beq	.L62
 398              	.L35:
 224:application/cmd/robot_cmd.c ****     }
 399              		.loc 1 224 9 is_stmt 1 view .LVU134
 224:application/cmd/robot_cmd.c ****     }
 400              		.loc 1 224 37 is_stmt 0 view .LVU135
 401 012c 4E4A     		ldr	r2, .L67
 402 012e 0121     		movs	r1, #1
 403 0130 1174     		strb	r1, [r2, #16]
 404 0132 7AE7     		b	.L33
 405              	.L61:
 218:application/cmd/robot_cmd.c **** 
 406              		.loc 1 218 13 is_stmt 1 view .LVU136
 218:application/cmd/robot_cmd.c **** 
 407              		.loc 1 218 43 is_stmt 0 view .LVU137
 408 0134 554A     		ldr	r2, .L67+36
 409 0136 0321     		movs	r1, #3
 410 0138 1175     		strb	r1, [r2, #20]
 411 013a F4E7     		b	.L34
 412              	.L62:
 222:application/cmd/robot_cmd.c ****         
 413              		.loc 1 222 13 is_stmt 1 view .LVU138
 222:application/cmd/robot_cmd.c ****         
 414              		.loc 1 222 43 is_stmt 0 view .LVU139
 415 013c 534A     		ldr	r2, .L67+36
 416 013e 0121     		movs	r1, #1
 417 0140 1175     		strb	r1, [r2, #20]
 418 0142 F3E7     		b	.L35
 419              	.L57:
 246:application/cmd/robot_cmd.c ****         {
 420              		.loc 1 246 9 is_stmt 1 view .LVU140
 246:application/cmd/robot_cmd.c ****         {
 421              		.loc 1 246 29 is_stmt 0 view .LVU141
 422 0144 574A     		ldr	r2, .L67+60
 423 0146 1168     		ldr	r1, [r2]
 424 0148 8878     		ldrb	r0, [r1, #2]	@ zero_extendqisi2
 246:application/cmd/robot_cmd.c ****         {
 425              		.loc 1 246 41 view .LVU142
 426 014a 421E     		subs	r2, r0, #1
 427 014c D2B2     		uxtb	r2, r2
 246:application/cmd/robot_cmd.c ****         {
 428              		.loc 1 246 12 view .LVU143
ARM GAS  C:\Users\Administrator\AppData\Local\Temp\ccNqWoEF.s 			page 15


 429 014e 012A     		cmp	r2, #1
 430 0150 1AD9     		bls	.L63
 431              	.L37:
 269:application/cmd/robot_cmd.c ****         if (gimbal_cmd_send.gimbal_mode == GIMBAL_GYRO_MODE)
 432              		.loc 1 269 9 is_stmt 1 view .LVU144
 270:application/cmd/robot_cmd.c ****         { // µīēńģ¦µæćµØåńÜäĶŠōÕć║Õż¦Õ░ÅĶ┐øĶĪīĶ¦ÆÕ║”Õó×ķćÅ,µŗ©µØåÕÉæÕÅ│/ÕÉæõĖŖõĖ║µŁŻ
 433              		.loc 1 270 9 view .LVU145
 270:application/cmd/robot_cmd.c ****         { // µīēńģ¦µæćµØåńÜäĶŠōÕć║Õż¦Õ░ÅĶ┐øĶĪīĶ¦ÆÕ║”Õó×ķćÅ,µŗ©µØåÕÉæÕÅ│/ÕÉæõĖŖõĖ║µŁŻ
 434              		.loc 1 270 28 is_stmt 0 view .LVU146
 435 0152 454A     		ldr	r2, .L67
 436 0154 127C     		ldrb	r2, [r2, #16]	@ zero_extendqisi2
 270:application/cmd/robot_cmd.c ****         { // µīēńģ¦µæćµØåńÜäĶŠōÕć║Õż¦Õ░ÅĶ┐øĶĪīĶ¦ÆÕ║”Õó×ķćÅ,µŗ©µØåÕÉæÕÅ│/ÕÉæõĖŖõĖ║µŁŻ
 437              		.loc 1 270 12 view .LVU147
 438 0156 012A     		cmp	r2, #1
 439 0158 85D1     		bne	.L36
 272:application/cmd/robot_cmd.c ****                 gimbal_cmd_send.yaw += add_yaw;
 440              		.loc 1 272 13 is_stmt 1 view .LVU148
 272:application/cmd/robot_cmd.c ****                 gimbal_cmd_send.yaw += add_yaw;
 441              		.loc 1 272 33 is_stmt 0 view .LVU149
 442 015a 8A78     		ldrb	r2, [r1, #2]	@ zero_extendqisi2
 272:application/cmd/robot_cmd.c ****                 gimbal_cmd_send.yaw += add_yaw;
 443              		.loc 1 272 16 view .LVU150
 444 015c 002A     		cmp	r2, #0
 445 015e 82D1     		bne	.L36
 273:application/cmd/robot_cmd.c ****                 gimbal_cmd_send.pitch += add_pitch;
 446              		.loc 1 273 17 is_stmt 1 view .LVU151
 273:application/cmd/robot_cmd.c ****                 gimbal_cmd_send.pitch += add_pitch;
 447              		.loc 1 273 32 is_stmt 0 view .LVU152
 448 0160 414A     		ldr	r2, .L67
 449 0162 92ED017A 		vldr.32	s14, [r2, #4]
 273:application/cmd/robot_cmd.c ****                 gimbal_cmd_send.pitch += add_pitch;
 450              		.loc 1 273 37 view .LVU153
 451 0166 4349     		ldr	r1, .L67+12
 452 0168 D1ED007A 		vldr.32	s15, [r1]
 453 016c 77EE877A 		vadd.f32	s15, s15, s14
 454 0170 C2ED017A 		vstr.32	s15, [r2, #4]
 274:application/cmd/robot_cmd.c ****             }
 455              		.loc 1 274 17 is_stmt 1 view .LVU154
 274:application/cmd/robot_cmd.c ****             }
 456              		.loc 1 274 32 is_stmt 0 view .LVU155
 457 0174 92ED027A 		vldr.32	s14, [r2, #8]
 274:application/cmd/robot_cmd.c ****             }
 458              		.loc 1 274 39 view .LVU156
 459 0178 4049     		ldr	r1, .L67+20
 460 017a D1ED007A 		vldr.32	s15, [r1]
 461 017e 77EE877A 		vadd.f32	s15, s15, s14
 462 0182 C2ED027A 		vstr.32	s15, [r2, #8]
 463 0186 6EE7     		b	.L36
 464              	.L63:
 465              	.LBB2:
 248:application/cmd/robot_cmd.c ****             float vision_pitch = vision_recv_data->pitch * RAD_TO_DEG + PITCH_ZERO_OFFSET;
 466              		.loc 1 248 13 is_stmt 1 view .LVU157
 248:application/cmd/robot_cmd.c ****             float vision_pitch = vision_recv_data->pitch * RAD_TO_DEG + PITCH_ZERO_OFFSET;
 467              		.loc 1 248 48 is_stmt 0 view .LVU158
 468 0188 D1F80320 		ldr	r2, [r1, #3]	@ unaligned
 469 018c 07EE102A 		vmov	s14, r2	@ int
 248:application/cmd/robot_cmd.c ****             float vision_pitch = vision_recv_data->pitch * RAD_TO_DEG + PITCH_ZERO_OFFSET;
ARM GAS  C:\Users\Administrator\AppData\Local\Temp\ccNqWoEF.s 			page 16


 470              		.loc 1 248 19 view .LVU159
 471 0190 DFED456A 		vldr.32	s13, .L67+64
 472 0194 27EE267A 		vmul.f32	s14, s14, s13
 473              	.LVL3:
 249:application/cmd/robot_cmd.c ****             if (vision_recv_data->mode == 2) {
 474              		.loc 1 249 13 is_stmt 1 view .LVU160
 249:application/cmd/robot_cmd.c ****             if (vision_recv_data->mode == 2) {
 475              		.loc 1 249 50 is_stmt 0 view .LVU161
 476 0198 D1F80F20 		ldr	r2, [r1, #15]	@ unaligned
 477 019c 07EE902A 		vmov	s15, r2	@ int
 249:application/cmd/robot_cmd.c ****             if (vision_recv_data->mode == 2) {
 478              		.loc 1 249 58 view .LVU162
 479 01a0 67EEA67A 		vmul.f32	s15, s15, s13
 249:application/cmd/robot_cmd.c ****             if (vision_recv_data->mode == 2) {
 480              		.loc 1 249 19 view .LVU163
 481 01a4 DFED416A 		vldr.32	s13, .L67+68
 482 01a8 77EEA67A 		vadd.f32	s15, s15, s13
 483              	.LVL4:
 250:application/cmd/robot_cmd.c ****                 shoot_cmd_send.shoot_mode = SHOOT_ON;
 484              		.loc 1 250 13 is_stmt 1 view .LVU164
 250:application/cmd/robot_cmd.c ****                 shoot_cmd_send.shoot_mode = SHOOT_ON;
 485              		.loc 1 250 16 is_stmt 0 view .LVU165
 486 01ac 0228     		cmp	r0, #2
 487 01ae 11D0     		beq	.L64
 256:application/cmd/robot_cmd.c ****                 shoot_cmd_send.friction_mode = FRICTION_ON;
 488              		.loc 1 256 17 is_stmt 1 view .LVU166
 256:application/cmd/robot_cmd.c ****                 shoot_cmd_send.friction_mode = FRICTION_ON;
 489              		.loc 1 256 42 is_stmt 0 view .LVU167
 490 01b0 394A     		ldr	r2, .L67+48
 491 01b2 0020     		movs	r0, #0
 492 01b4 5070     		strb	r0, [r2, #1]
 257:application/cmd/robot_cmd.c ****             }
 493              		.loc 1 257 17 is_stmt 1 view .LVU168
 257:application/cmd/robot_cmd.c ****             }
 494              		.loc 1 257 46 is_stmt 0 view .LVU169
 495 01b6 0120     		movs	r0, #1
 496 01b8 D070     		strb	r0, [r2, #3]
 497              	.L39:
 259:application/cmd/robot_cmd.c ****             gimbal_cmd_send.yaw = vision_yaw;
 498              		.loc 1 259 13 is_stmt 1 view .LVU170
 259:application/cmd/robot_cmd.c ****             gimbal_cmd_send.yaw = vision_yaw;
 499              		.loc 1 259 41 is_stmt 0 view .LVU171
 500 01ba 2B4A     		ldr	r2, .L67
 501 01bc 0120     		movs	r0, #1
 502 01be 1074     		strb	r0, [r2, #16]
 260:application/cmd/robot_cmd.c ****             gimbal_cmd_send.pitch = vision_pitch;
 503              		.loc 1 260 13 is_stmt 1 view .LVU172
 260:application/cmd/robot_cmd.c ****             gimbal_cmd_send.pitch = vision_pitch;
 504              		.loc 1 260 33 is_stmt 0 view .LVU173
 505 01c0 82ED017A 		vstr.32	s14, [r2, #4]
 261:application/cmd/robot_cmd.c ****             add_yaw = 0.0f;
 506              		.loc 1 261 13 is_stmt 1 view .LVU174
 261:application/cmd/robot_cmd.c ****             add_yaw = 0.0f;
 507              		.loc 1 261 35 is_stmt 0 view .LVU175
 508 01c4 C2ED027A 		vstr.32	s15, [r2, #8]
 262:application/cmd/robot_cmd.c ****             add_pitch = 0.0f;
 509              		.loc 1 262 13 is_stmt 1 view .LVU176
ARM GAS  C:\Users\Administrator\AppData\Local\Temp\ccNqWoEF.s 			page 17


 262:application/cmd/robot_cmd.c ****             add_pitch = 0.0f;
 510              		.loc 1 262 21 is_stmt 0 view .LVU177
 511 01c8 0022     		movs	r2, #0
 512 01ca 2A48     		ldr	r0, .L67+12
 513 01cc 0260     		str	r2, [r0]	@ float
 263:application/cmd/robot_cmd.c ****         }
 514              		.loc 1 263 13 is_stmt 1 view .LVU178
 263:application/cmd/robot_cmd.c ****         }
 515              		.loc 1 263 23 is_stmt 0 view .LVU179
 516 01ce 2B48     		ldr	r0, .L67+20
 517 01d0 0260     		str	r2, [r0]	@ float
 518              	.LBE2:
 519 01d2 BEE7     		b	.L37
 520              	.L64:
 521              	.LBB3:
 251:application/cmd/robot_cmd.c ****                 shoot_cmd_send.friction_mode = FRICTION_ON;
 522              		.loc 1 251 17 is_stmt 1 view .LVU180
 251:application/cmd/robot_cmd.c ****                 shoot_cmd_send.friction_mode = FRICTION_ON;
 523              		.loc 1 251 43 is_stmt 0 view .LVU181
 524 01d4 304A     		ldr	r2, .L67+48
 525 01d6 1070     		strb	r0, [r2]
 252:application/cmd/robot_cmd.c ****                 shoot_cmd_send.load_mode = LOAD_BURSTFIRE;
 526              		.loc 1 252 17 is_stmt 1 view .LVU182
 252:application/cmd/robot_cmd.c ****                 shoot_cmd_send.load_mode = LOAD_BURSTFIRE;
 527              		.loc 1 252 46 is_stmt 0 view .LVU183
 528 01d8 0120     		movs	r0, #1
 529 01da D070     		strb	r0, [r2, #3]
 253:application/cmd/robot_cmd.c ****                 shoot_cmd_send.shoot_rate = 10;
 530              		.loc 1 253 17 is_stmt 1 view .LVU184
 253:application/cmd/robot_cmd.c ****                 shoot_cmd_send.shoot_rate = 10;
 531              		.loc 1 253 42 is_stmt 0 view .LVU185
 532 01dc 0420     		movs	r0, #4
 533 01de 5070     		strb	r0, [r2, #1]
 254:application/cmd/robot_cmd.c ****             } else { // mode == 1: Ķ»åÕł½Õł░ńø«µĀćõĮåõĖŹÕ░äÕć╗
 534              		.loc 1 254 17 is_stmt 1 view .LVU186
 254:application/cmd/robot_cmd.c ****             } else { // mode == 1: Ķ»åÕł½Õł░ńø«µĀćõĮåõĖŹÕ░äÕć╗
 535              		.loc 1 254 43 is_stmt 0 view .LVU187
 536 01e0 3348     		ldr	r0, .L67+72
 537 01e2 C2F80600 		str	r0, [r2, #6]	@ unaligned
 538 01e6 E8E7     		b	.L39
 539              	.LVL5:
 540              	.L52:
 254:application/cmd/robot_cmd.c ****             } else { // mode == 1: Ķ»åÕł½Õł░ńø«µĀćõĮåõĖŹÕ░äÕć╗
 541              		.loc 1 254 43 view .LVU188
 542              	.LBE3:
 283:application/cmd/robot_cmd.c ****           robot_config->gimbal_param.gimbal_offset.pitch_min_angle, 
 543              		.loc 1 283 2 is_stmt 1 discriminator 2 view .LVU189
 544 01e8 92ED467A 		vldr.32	s14, [r2, #280]
 545 01ec F4EEC77A 		vcmpe.f32	s15, s14
 546 01f0 F1EE10FA 		vmrs	APSR_nzcv, FPSCR
 547 01f4 FFF647AF 		blt	.L42
 283:application/cmd/robot_cmd.c ****           robot_config->gimbal_param.gimbal_offset.pitch_min_angle, 
 548              		.loc 1 283 2 discriminator 3 view .LVU190
 549 01f8 1B4A     		ldr	r2, .L67
 550 01fa 82ED027A 		vstr.32	s14, [r2, #8]
 551 01fe 42E7     		b	.L42
 552              	.L58:
ARM GAS  C:\Users\Administrator\AppData\Local\Temp\ccNqWoEF.s 			page 18


 306:application/cmd/robot_cmd.c ****         if (last_shoot_mode == SHOOT_OFF && shoot_cmd_send.friction_mode == FRICTION_ON)
 553              		.loc 1 306 9 view .LVU191
 306:application/cmd/robot_cmd.c ****         if (last_shoot_mode == SHOOT_OFF && shoot_cmd_send.friction_mode == FRICTION_ON)
 554              		.loc 1 306 35 is_stmt 0 view .LVU192
 555 0200 2549     		ldr	r1, .L67+48
 556 0202 0220     		movs	r0, #2
 557 0204 0870     		strb	r0, [r1]
 307:application/cmd/robot_cmd.c ****             shoot_cmd_send.friction_mode = FRICTION_OFF;
 558              		.loc 1 307 9 is_stmt 1 view .LVU193
 307:application/cmd/robot_cmd.c ****             shoot_cmd_send.friction_mode = FRICTION_OFF;
 559              		.loc 1 307 29 is_stmt 0 view .LVU194
 560 0206 2549     		ldr	r1, .L67+52
 561 0208 0978     		ldrb	r1, [r1]	@ zero_extendqisi2
 307:application/cmd/robot_cmd.c ****             shoot_cmd_send.friction_mode = FRICTION_OFF;
 562              		.loc 1 307 12 view .LVU195
 563 020a 0129     		cmp	r1, #1
 564 020c 13D0     		beq	.L65
 565              	.L45:
 309:application/cmd/robot_cmd.c ****             shoot_cmd_send.friction_mode = FRICTION_ON;
 566              		.loc 1 309 14 is_stmt 1 view .LVU196
 309:application/cmd/robot_cmd.c ****             shoot_cmd_send.friction_mode = FRICTION_ON;
 567              		.loc 1 309 17 is_stmt 0 view .LVU197
 568 020e 0129     		cmp	r1, #1
 569 0210 19D0     		beq	.L66
 570              	.L46:
 312:application/cmd/robot_cmd.c ****             shoot_cmd_send.load_mode = LOAD_STOP;     
 571              		.loc 1 312 9 is_stmt 1 view .LVU198
 312:application/cmd/robot_cmd.c ****             shoot_cmd_send.load_mode = LOAD_STOP;     
 572              		.loc 1 312 29 is_stmt 0 view .LVU199
 573 0212 B3F90830 		ldrsh	r3, [r3, #8]
 312:application/cmd/robot_cmd.c ****             shoot_cmd_send.load_mode = LOAD_STOP;     
 574              		.loc 1 312 12 view .LVU200
 575 0216 092B     		cmp	r3, #9
 576 0218 02DC     		bgt	.L47
 313:application/cmd/robot_cmd.c ****         
 577              		.loc 1 313 13 is_stmt 1 view .LVU201
 313:application/cmd/robot_cmd.c ****         
 578              		.loc 1 313 38 is_stmt 0 view .LVU202
 579 021a 1F49     		ldr	r1, .L67+48
 580 021c 0020     		movs	r0, #0
 581 021e 4870     		strb	r0, [r1, #1]
 582              	.L47:
 316:application/cmd/robot_cmd.c ****         {
 583              		.loc 1 316 9 is_stmt 1 view .LVU203
 316:application/cmd/robot_cmd.c ****         {
 584              		.loc 1 316 12 is_stmt 0 view .LVU204
 585 0220 B3F5167F 		cmp	r3, #600
 586 0224 7FF758AF 		ble	.L44
 319:application/cmd/robot_cmd.c ****             shoot_cmd_send.load_mode = LOAD_BURSTFIRE;
 587              		.loc 1 319 13 is_stmt 1 view .LVU205
 319:application/cmd/robot_cmd.c ****             shoot_cmd_send.load_mode = LOAD_BURSTFIRE;
 588              		.loc 1 319 39 is_stmt 0 view .LVU206
 589 0228 1B4B     		ldr	r3, .L67+48
 590 022a 2149     		ldr	r1, .L67+72
 591 022c C3F80610 		str	r1, [r3, #6]	@ unaligned
 320:application/cmd/robot_cmd.c ****         }     
 592              		.loc 1 320 13 is_stmt 1 view .LVU207
ARM GAS  C:\Users\Administrator\AppData\Local\Temp\ccNqWoEF.s 			page 19


 320:application/cmd/robot_cmd.c ****         }     
 593              		.loc 1 320 38 is_stmt 0 view .LVU208
 594 0230 0421     		movs	r1, #4
 595 0232 5970     		strb	r1, [r3, #1]
 596 0234 50E7     		b	.L44
 597              	.L65:
 307:application/cmd/robot_cmd.c ****             shoot_cmd_send.friction_mode = FRICTION_OFF;
 598              		.loc 1 307 59 discriminator 1 view .LVU209
 599 0236 1848     		ldr	r0, .L67+48
 600 0238 C078     		ldrb	r0, [r0, #3]	@ zero_extendqisi2
 307:application/cmd/robot_cmd.c ****             shoot_cmd_send.friction_mode = FRICTION_OFF;
 601              		.loc 1 307 42 discriminator 1 view .LVU210
 602 023a 0128     		cmp	r0, #1
 603 023c E7D1     		bne	.L45
 308:application/cmd/robot_cmd.c ****         else if (last_shoot_mode == SHOOT_OFF && shoot_cmd_send.friction_mode != FRICTION_ON)
 604              		.loc 1 308 13 is_stmt 1 view .LVU211
 308:application/cmd/robot_cmd.c ****         else if (last_shoot_mode == SHOOT_OFF && shoot_cmd_send.friction_mode != FRICTION_ON)
 605              		.loc 1 308 42 is_stmt 0 view .LVU212
 606 023e 1649     		ldr	r1, .L67+48
 607 0240 0020     		movs	r0, #0
 608 0242 C870     		strb	r0, [r1, #3]
 609 0244 E5E7     		b	.L46
 610              	.L66:
 309:application/cmd/robot_cmd.c ****             shoot_cmd_send.friction_mode = FRICTION_ON;
 611              		.loc 1 309 64 discriminator 1 view .LVU213
 612 0246 1449     		ldr	r1, .L67+48
 613 0248 C978     		ldrb	r1, [r1, #3]	@ zero_extendqisi2
 309:application/cmd/robot_cmd.c ****             shoot_cmd_send.friction_mode = FRICTION_ON;
 614              		.loc 1 309 47 discriminator 1 view .LVU214
 615 024a 0129     		cmp	r1, #1
 616 024c E1D0     		beq	.L46
 310:application/cmd/robot_cmd.c ****          
 617              		.loc 1 310 13 is_stmt 1 view .LVU215
 310:application/cmd/robot_cmd.c ****          
 618              		.loc 1 310 42 is_stmt 0 view .LVU216
 619 024e 1249     		ldr	r1, .L67+48
 620 0250 0120     		movs	r0, #1
 621 0252 C870     		strb	r0, [r1, #3]
 622 0254 DDE7     		b	.L46
 623              	.L59:
 327:application/cmd/robot_cmd.c ****     }
 624              		.loc 1 327 9 is_stmt 1 view .LVU217
 327:application/cmd/robot_cmd.c ****     }
 625              		.loc 1 327 35 is_stmt 0 view .LVU218
 626 0256 104B     		ldr	r3, .L67+48
 627 0258 0121     		movs	r1, #1
 628 025a 1970     		strb	r1, [r3]
 629 025c 3FE7     		b	.L48
 630              	.L60:
 333:application/cmd/robot_cmd.c ****         shoot_cmd_send.friction_mode = FRICTION_OFF;      
 631              		.loc 1 333 9 is_stmt 1 view .LVU219
 333:application/cmd/robot_cmd.c ****         shoot_cmd_send.friction_mode = FRICTION_OFF;      
 632              		.loc 1 333 35 is_stmt 0 view .LVU220
 633 025e 0E4B     		ldr	r3, .L67+48
 634 0260 1A70     		strb	r2, [r3]
 334:application/cmd/robot_cmd.c ****     }
 635              		.loc 1 334 9 is_stmt 1 view .LVU221
ARM GAS  C:\Users\Administrator\AppData\Local\Temp\ccNqWoEF.s 			page 20


 334:application/cmd/robot_cmd.c ****     }
 636              		.loc 1 334 38 is_stmt 0 view .LVU222
 637 0262 0022     		movs	r2, #0
 638 0264 DA70     		strb	r2, [r3, #3]
 639 0266 3DE7     		b	.L49
 640              	.L68:
 641              		.align	2
 642              	.L67:
 643 0268 00000000 		.word	gimbal_cmd_send
 644 026c 00000000 		.word	rc_data
 645 0270 6F12033B 		.word	990057071
 646 0274 00000000 		.word	add_yaw.2
 647 0278 17B75139 		.word	961656599
 648 027c 00000000 		.word	add_pitch.1
 649 0280 00000000 		.word	robot_state
 650 0284 00000000 		.word	robot_config
 651 0288 09F2943B 		.word	999617033
 652 028c 00000000 		.word	chassis_cmd_send
 653 0290 0BC5AD3B 		.word	1001243915
 654 0294 103E783B 		.word	997735952
 655 0298 00000000 		.word	shoot_cmd_send
 656 029c 00000000 		.word	last_shoot_mode.0
 657 02a0 00000000 		.word	gimbal_fetch_data
 658 02a4 00000000 		.word	vision_recv_data
 659 02a8 E12E6542 		.word	1113927393
 660 02ac 00000000 		.word	0
 661 02b0 00002041 		.word	1092616192
 662              		.cfi_endproc
 663              	.LFE279:
 665              		.section	.text.MouseKeySet,"ax",%progbits
 666              		.align	1
 667              		.syntax unified
 668              		.thumb
 669              		.thumb_func
 671              	MouseKeySet:
 672              	.LFB280:
 341:application/cmd/robot_cmd.c **** 
 342:application/cmd/robot_cmd.c **** /**
 343:application/cmd/robot_cmd.c ****  * @brief ĶŠōÕģźõĖ║ķö«ķ╝ĀµŚČµ©ĪÕ╝ÅÕÆīµÄ¦ÕłČķćÅĶ«ŠńĮ«
 344:application/cmd/robot_cmd.c ****  *
 345:application/cmd/robot_cmd.c ****  */
 346:application/cmd/robot_cmd.c **** static void MouseKeySet()
 347:application/cmd/robot_cmd.c **** {
 673              		.loc 1 347 1 is_stmt 1 view -0
 674              		.cfi_startproc
 675              		@ args = 0, pretend = 0, frame = 0
 676              		@ frame_needed = 0, uses_anonymous_args = 0
 677              		@ link register save eliminated.
 348:application/cmd/robot_cmd.c ****     static float add_yaw, add_pitch; // Ķ¦ÆÕ║”Õó×ķćÅ
 678              		.loc 1 348 5 view .LVU224
 349:application/cmd/robot_cmd.c ****     add_yaw = (float)rc_data[TEMP].mouse.x / 660 * 10; // ń│╗µĢ░ÕŠģµĄŗ
 679              		.loc 1 349 5 view .LVU225
 680              		.loc 1 349 29 is_stmt 0 view .LVU226
 681 0000 634B     		ldr	r3, .L94
 682 0002 1A68     		ldr	r2, [r3]
 683              		.loc 1 349 41 view .LVU227
 684 0004 B2F90C30 		ldrsh	r3, [r2, #12]
ARM GAS  C:\Users\Administrator\AppData\Local\Temp\ccNqWoEF.s 			page 21


 685 0008 07EE103A 		vmov	s14, r3	@ int
 686              		.loc 1 349 15 view .LVU228
 687 000c B8EEC77A 		vcvt.f32.s32	s14, s14
 688              		.loc 1 349 44 view .LVU229
 689 0010 9FED606A 		vldr.32	s12, .L94+4
 690 0014 C7EE067A 		vdiv.f32	s15, s14, s12
 691              		.loc 1 349 50 view .LVU230
 692 0018 F2EE046A 		vmov.f32	s13, #1.0e+1
 693 001c 67EEA67A 		vmul.f32	s15, s15, s13
 694              		.loc 1 349 13 view .LVU231
 695 0020 5D4B     		ldr	r3, .L94+8
 696 0022 C3ED007A 		vstr.32	s15, [r3]
 350:application/cmd/robot_cmd.c ****     add_pitch = -(float)rc_data[TEMP].mouse.y / 660 * 10;
 697              		.loc 1 350 5 is_stmt 1 view .LVU232
 698              		.loc 1 350 44 is_stmt 0 view .LVU233
 699 0026 B2F90E30 		ldrsh	r3, [r2, #14]
 700 002a 07EE903A 		vmov	s15, r3	@ int
 701              		.loc 1 350 18 view .LVU234
 702 002e F8EEE77A 		vcvt.f32.s32	s15, s15
 703              		.loc 1 350 17 view .LVU235
 704 0032 F1EE677A 		vneg.f32	s15, s15
 705              		.loc 1 350 47 view .LVU236
 706 0036 87EE867A 		vdiv.f32	s14, s15, s12
 707              		.loc 1 350 53 view .LVU237
 708 003a 67EE267A 		vmul.f32	s15, s14, s13
 709              		.loc 1 350 15 view .LVU238
 710 003e 574B     		ldr	r3, .L94+12
 711 0040 C3ED007A 		vstr.32	s15, [r3]
 351:application/cmd/robot_cmd.c **** 
 352:application/cmd/robot_cmd.c ****     chassis_cmd_send.vx = rc_data[TEMP].key[KEY_PRESS].a * 300 - rc_data[TEMP].key[KEY_PRESS].d * 3
 712              		.loc 1 352 5 is_stmt 1 view .LVU239
 713              		.loc 1 352 55 is_stmt 0 view .LVU240
 714 0044 917C     		ldrb	r1, [r2, #18]	@ zero_extendqisi2
 715 0046 C1F3C003 		ubfx	r3, r1, #3, #1
 716              		.loc 1 352 94 view .LVU241
 717 004a C1F38000 		ubfx	r0, r1, #2, #1
 718              		.loc 1 352 64 view .LVU242
 719 004e 1B1A     		subs	r3, r3, r0
 720 0050 4FF4967C 		mov	ip, #300
 721 0054 0CFB03F3 		mul	r3, ip, r3
 722              		.loc 1 352 25 view .LVU243
 723 0058 5148     		ldr	r0, .L94+16
 724 005a 07EE903A 		vmov	s15, r3	@ int
 725 005e F8EEE77A 		vcvt.f32.s32	s15, s15
 726 0062 C0ED007A 		vstr.32	s15, [r0]
 353:application/cmd/robot_cmd.c ****     chassis_cmd_send.vy = rc_data[TEMP].key[KEY_PRESS].w * 300 - rc_data[TEMP].key[KEY_PRESS].s * 3
 727              		.loc 1 353 5 is_stmt 1 view .LVU244
 728              		.loc 1 353 55 is_stmt 0 view .LVU245
 729 0066 01F00103 		and	r3, r1, #1
 730              		.loc 1 353 94 view .LVU246
 731 006a C1F34001 		ubfx	r1, r1, #1, #1
 732              		.loc 1 353 64 view .LVU247
 733 006e 5B1A     		subs	r3, r3, r1
 734 0070 0CFB03F3 		mul	r3, ip, r3
 735              		.loc 1 353 25 view .LVU248
 736 0074 07EE903A 		vmov	s15, r3	@ int
 737 0078 F8EEE77A 		vcvt.f32.s32	s15, s15
ARM GAS  C:\Users\Administrator\AppData\Local\Temp\ccNqWoEF.s 			page 22


 738 007c C0ED017A 		vstr.32	s15, [r0, #4]
 354:application/cmd/robot_cmd.c **** 
 355:application/cmd/robot_cmd.c ****     switch (rc_data[TEMP].key_count[KEY_PRESS][Key_G] % 2) // Gķö«Ķ«ŠńĮ«µ©ĪÕ╝Å
 739              		.loc 1 355 5 is_stmt 1 view .LVU249
 740              		.loc 1 355 47 is_stmt 0 view .LVU250
 741 0080 92F82230 		ldrb	r3, [r2, #34]	@ zero_extendqisi2
 742              		.loc 1 355 5 view .LVU251
 743 0084 13F00103 		ands	r3, r3, #1
 744 0088 07D0     		beq	.L70
 745 008a DBB9     		cbnz	r3, .L71
 356:application/cmd/robot_cmd.c ****     {
 357:application/cmd/robot_cmd.c ****     case 0:
 358:application/cmd/robot_cmd.c ****         chassis_cmd_send.chassis_mode = CHASSIS_FOLLOW_GIMBAL_YAW;
 359:application/cmd/robot_cmd.c ****         gimbal_cmd_send.gimbal_mode = GIMBAL_GYRO_MODE;
 360:application/cmd/robot_cmd.c ****         break;
 361:application/cmd/robot_cmd.c ****     case 1:
 362:application/cmd/robot_cmd.c ****         chassis_cmd_send.chassis_mode = CHASSIS_ROTATE;
 363:application/cmd/robot_cmd.c ****         gimbal_cmd_send.gimbal_mode = GIMBAL_GYRO_MODE;
 364:application/cmd/robot_cmd.c ****         break;
 365:application/cmd/robot_cmd.c ****     default:
 366:application/cmd/robot_cmd.c ****         chassis_cmd_send.chassis_mode = CHASSIS_FOLLOW_GIMBAL_YAW;
 746              		.loc 1 366 9 is_stmt 1 view .LVU252
 747              		.loc 1 366 39 is_stmt 0 view .LVU253
 748 008c 444B     		ldr	r3, .L94+16
 749 008e 0321     		movs	r1, #3
 750 0090 1975     		strb	r1, [r3, #20]
 367:application/cmd/robot_cmd.c ****         gimbal_cmd_send.gimbal_mode = GIMBAL_GYRO_MODE;
 751              		.loc 1 367 9 is_stmt 1 view .LVU254
 752              		.loc 1 367 37 is_stmt 0 view .LVU255
 753 0092 444B     		ldr	r3, .L94+20
 754 0094 0121     		movs	r1, #1
 755 0096 1974     		strb	r1, [r3, #16]
 368:application/cmd/robot_cmd.c ****         break;
 756              		.loc 1 368 9 is_stmt 1 view .LVU256
 757 0098 05E0     		b	.L73
 758              	.L70:
 358:application/cmd/robot_cmd.c ****         gimbal_cmd_send.gimbal_mode = GIMBAL_GYRO_MODE;
 759              		.loc 1 358 9 view .LVU257
 358:application/cmd/robot_cmd.c ****         gimbal_cmd_send.gimbal_mode = GIMBAL_GYRO_MODE;
 760              		.loc 1 358 39 is_stmt 0 view .LVU258
 761 009a 414B     		ldr	r3, .L94+16
 762 009c 0321     		movs	r1, #3
 763 009e 1975     		strb	r1, [r3, #20]
 359:application/cmd/robot_cmd.c ****         break;
 764              		.loc 1 359 9 is_stmt 1 view .LVU259
 359:application/cmd/robot_cmd.c ****         break;
 765              		.loc 1 359 37 is_stmt 0 view .LVU260
 766 00a0 404B     		ldr	r3, .L94+20
 767 00a2 0121     		movs	r1, #1
 768 00a4 1974     		strb	r1, [r3, #16]
 360:application/cmd/robot_cmd.c ****     case 1:
 769              		.loc 1 360 9 is_stmt 1 view .LVU261
 770              	.L73:
 369:application/cmd/robot_cmd.c ****     }
 370:application/cmd/robot_cmd.c **** 
 371:application/cmd/robot_cmd.c ****     shoot_cmd_send.bullet_speed = 15;
 771              		.loc 1 371 5 view .LVU262
ARM GAS  C:\Users\Administrator\AppData\Local\Temp\ccNqWoEF.s 			page 23


 772              		.loc 1 371 33 is_stmt 0 view .LVU263
 773 00a6 404B     		ldr	r3, .L94+24
 774 00a8 0F21     		movs	r1, #15
 775 00aa 1971     		strb	r1, [r3, #4]
 372:application/cmd/robot_cmd.c ****     switch (rc_data[TEMP].key_count[KEY_PRESS][Key_F] % 2) // Fķö«Õ╝ĆÕģ│µæ®µō”ĶĮ«
 776              		.loc 1 372 5 is_stmt 1 view .LVU264
 777              		.loc 1 372 47 is_stmt 0 view .LVU265
 778 00ac 92F82130 		ldrb	r3, [r2, #33]	@ zero_extendqisi2
 779              		.loc 1 372 5 view .LVU266
 780 00b0 13F00103 		ands	r3, r3, #1
 781 00b4 0CD0     		beq	.L74
 782 00b6 E3B9     		cbnz	r3, .L75
 373:application/cmd/robot_cmd.c ****     {
 374:application/cmd/robot_cmd.c ****     case 0:
 375:application/cmd/robot_cmd.c ****         shoot_cmd_send.shoot_mode = SHOOT_ON;
 376:application/cmd/robot_cmd.c ****         shoot_cmd_send.friction_mode = FRICTION_OFF;
 377:application/cmd/robot_cmd.c ****         break;
 378:application/cmd/robot_cmd.c ****     case 1:
 379:application/cmd/robot_cmd.c ****         shoot_cmd_send.shoot_mode = SHOOT_ON;
 380:application/cmd/robot_cmd.c ****         shoot_cmd_send.friction_mode = FRICTION_ON;
 381:application/cmd/robot_cmd.c ****         break;    
 382:application/cmd/robot_cmd.c ****     default:
 383:application/cmd/robot_cmd.c ****         shoot_cmd_send.shoot_mode = SHOOT_ON;
 783              		.loc 1 383 9 is_stmt 1 view .LVU267
 784              		.loc 1 383 35 is_stmt 0 view .LVU268
 785 00b8 3B4B     		ldr	r3, .L94+24
 786 00ba 0221     		movs	r1, #2
 787 00bc 1970     		strb	r1, [r3]
 384:application/cmd/robot_cmd.c ****         shoot_cmd_send.friction_mode = FRICTION_OFF;
 788              		.loc 1 384 9 is_stmt 1 view .LVU269
 789              		.loc 1 384 38 is_stmt 0 view .LVU270
 790 00be 0021     		movs	r1, #0
 791 00c0 D970     		strb	r1, [r3, #3]
 385:application/cmd/robot_cmd.c ****         break;
 792              		.loc 1 385 9 is_stmt 1 view .LVU271
 793 00c2 0AE0     		b	.L77
 794              	.L71:
 362:application/cmd/robot_cmd.c ****         gimbal_cmd_send.gimbal_mode = GIMBAL_GYRO_MODE;
 795              		.loc 1 362 9 view .LVU272
 362:application/cmd/robot_cmd.c ****         gimbal_cmd_send.gimbal_mode = GIMBAL_GYRO_MODE;
 796              		.loc 1 362 39 is_stmt 0 view .LVU273
 797 00c4 0123     		movs	r3, #1
 798 00c6 3649     		ldr	r1, .L94+16
 799 00c8 0B75     		strb	r3, [r1, #20]
 363:application/cmd/robot_cmd.c ****         break;
 800              		.loc 1 363 9 is_stmt 1 view .LVU274
 363:application/cmd/robot_cmd.c ****         break;
 801              		.loc 1 363 37 is_stmt 0 view .LVU275
 802 00ca 3649     		ldr	r1, .L94+20
 803 00cc 0B74     		strb	r3, [r1, #16]
 364:application/cmd/robot_cmd.c ****     default:
 804              		.loc 1 364 9 is_stmt 1 view .LVU276
 805 00ce EAE7     		b	.L73
 806              	.L74:
 375:application/cmd/robot_cmd.c ****         shoot_cmd_send.friction_mode = FRICTION_OFF;
 807              		.loc 1 375 9 view .LVU277
 375:application/cmd/robot_cmd.c ****         shoot_cmd_send.friction_mode = FRICTION_OFF;
ARM GAS  C:\Users\Administrator\AppData\Local\Temp\ccNqWoEF.s 			page 24


 808              		.loc 1 375 35 is_stmt 0 view .LVU278
 809 00d0 354B     		ldr	r3, .L94+24
 810 00d2 0221     		movs	r1, #2
 811 00d4 1970     		strb	r1, [r3]
 376:application/cmd/robot_cmd.c ****         break;
 812              		.loc 1 376 9 is_stmt 1 view .LVU279
 376:application/cmd/robot_cmd.c ****         break;
 813              		.loc 1 376 38 is_stmt 0 view .LVU280
 814 00d6 0021     		movs	r1, #0
 815 00d8 D970     		strb	r1, [r3, #3]
 377:application/cmd/robot_cmd.c ****     case 1:
 816              		.loc 1 377 9 is_stmt 1 view .LVU281
 817              	.L77:
 386:application/cmd/robot_cmd.c ****     }
 387:application/cmd/robot_cmd.c **** 
 388:application/cmd/robot_cmd.c ****     if (shoot_cmd_send.friction_mode == FRICTION_ON)    // Õ╝ĆÕÉ»µæ®µō”ĶĮ«ÕÉÄÕĘ”ķö«ÕÅæÕ░ä
 818              		.loc 1 388 5 view .LVU282
 819              		.loc 1 388 23 is_stmt 0 view .LVU283
 820 00da 334B     		ldr	r3, .L94+24
 821 00dc DB78     		ldrb	r3, [r3, #3]	@ zero_extendqisi2
 822              		.loc 1 388 8 view .LVU284
 823 00de 012B     		cmp	r3, #1
 824 00e0 0DD0     		beq	.L91
 825              	.L78:
 389:application/cmd/robot_cmd.c ****     {
 390:application/cmd/robot_cmd.c ****         switch (rc_data[TEMP].mouse.press_l) 
 391:application/cmd/robot_cmd.c ****         {
 392:application/cmd/robot_cmd.c ****         case 0:
 393:application/cmd/robot_cmd.c ****             shoot_cmd_send.load_mode = LOAD_STOP;
 394:application/cmd/robot_cmd.c ****             break;
 395:application/cmd/robot_cmd.c ****         case 1:
 396:application/cmd/robot_cmd.c ****             // Õ░äķóæµÄ¦ÕłČ
 397:application/cmd/robot_cmd.c ****             shoot_cmd_send.shoot_rate = 10; 
 398:application/cmd/robot_cmd.c ****             shoot_cmd_send.load_mode = LOAD_BURSTFIRE;
 399:application/cmd/robot_cmd.c ****             break;
 400:application/cmd/robot_cmd.c ****         }
 401:application/cmd/robot_cmd.c ****     }
 402:application/cmd/robot_cmd.c **** 
 403:application/cmd/robot_cmd.c ****     switch (rc_data[TEMP].mouse.press_r)
 826              		.loc 1 403 5 is_stmt 1 view .LVU285
 827              		.loc 1 403 32 is_stmt 0 view .LVU286
 828 00e2 527C     		ldrb	r2, [r2, #17]	@ zero_extendqisi2
 829              		.loc 1 403 5 view .LVU287
 830 00e4 012A     		cmp	r2, #1
 831 00e6 19D0     		beq	.L92
 832              	.L81:
 404:application/cmd/robot_cmd.c ****     {
 405:application/cmd/robot_cmd.c ****     case 0:
 406:application/cmd/robot_cmd.c ****         break;
 407:application/cmd/robot_cmd.c ****     case 1:
 408:application/cmd/robot_cmd.c ****         if (vision_recv_data->mode == 1 || vision_recv_data->mode == 2)
 409:application/cmd/robot_cmd.c ****         {
 410:application/cmd/robot_cmd.c ****             gimbal_cmd_send.yaw = vision_recv_data->yaw;
 411:application/cmd/robot_cmd.c ****             gimbal_cmd_send.pitch = vision_recv_data->pitch;
 412:application/cmd/robot_cmd.c **** 
 413:application/cmd/robot_cmd.c ****             add_yaw = 0.0f;
 414:application/cmd/robot_cmd.c ****             add_pitch = 0.0f;
ARM GAS  C:\Users\Administrator\AppData\Local\Temp\ccNqWoEF.s 			page 25


 415:application/cmd/robot_cmd.c **** 
 416:application/cmd/robot_cmd.c ****             if (vision_recv_data->mode == 2 && shoot_cmd_send.friction_mode == FRICTION_ON)
 417:application/cmd/robot_cmd.c ****             {
 418:application/cmd/robot_cmd.c ****                 shoot_cmd_send.shoot_rate = 10;
 419:application/cmd/robot_cmd.c ****                 shoot_cmd_send.load_mode = LOAD_BURSTFIRE;
 420:application/cmd/robot_cmd.c ****             }
 421:application/cmd/robot_cmd.c ****         }
 422:application/cmd/robot_cmd.c ****         break;
 423:application/cmd/robot_cmd.c **** 
 424:application/cmd/robot_cmd.c **** 
 425:application/cmd/robot_cmd.c ****         // if (vision_recv_data->target_state == TARGET_CONVERGING)
 426:application/cmd/robot_cmd.c ****         // {
 427:application/cmd/robot_cmd.c ****         //     shoot_cmd_send.load_mode = LOAD_BURSTFIRE;
 428:application/cmd/robot_cmd.c ****         // }
 429:application/cmd/robot_cmd.c ****         // else
 430:application/cmd/robot_cmd.c ****         // {
 431:application/cmd/robot_cmd.c ****         //     shoot_cmd_send.load_mode = LOAD_STOP;
 432:application/cmd/robot_cmd.c ****         // }
 433:application/cmd/robot_cmd.c ****         break;
 434:application/cmd/robot_cmd.c ****     default:
 435:application/cmd/robot_cmd.c ****         break;
 436:application/cmd/robot_cmd.c ****     }
 437:application/cmd/robot_cmd.c **** 
 438:application/cmd/robot_cmd.c ****     // gimbal_cmd_send.yaw += add_yaw;
 439:application/cmd/robot_cmd.c ****     // gimbal_cmd_send.pitch += add_pitch;
 440:application/cmd/robot_cmd.c **** 
 441:application/cmd/robot_cmd.c ****     if (chassis_cmd_send.chassis_mode == CHASSIS_FOLLOW_GIMBAL_YAW)
 833              		.loc 1 441 5 is_stmt 1 view .LVU288
 834              		.loc 1 441 25 is_stmt 0 view .LVU289
 835 00e8 2D4B     		ldr	r3, .L94+16
 836 00ea 1B7D     		ldrb	r3, [r3, #20]	@ zero_extendqisi2
 837              		.loc 1 441 8 view .LVU290
 838 00ec 032B     		cmp	r3, #3
 839 00ee 34D0     		beq	.L93
 840              	.L69:
 442:application/cmd/robot_cmd.c ****         // õ║æÕÅ░Ķ¦ÆÕ║”ķÖÉÕ╣ģ,Ķ”üµöŠÕ£©Õó×ķćÅõ╗źÕÉÄ
 443:application/cmd/robot_cmd.c ****     //    LimitSetAngle(add_yaw, add_pitch);
 444:application/cmd/robot_cmd.c ****     
 445:application/cmd/robot_cmd.c ****         VAL_LIMIT(gimbal_cmd_send.pitch, 
 446:application/cmd/robot_cmd.c ****         robot_config->gimbal_param.gimbal_offset.pitch_min_angle, 
 447:application/cmd/robot_cmd.c ****         robot_config->gimbal_param.gimbal_offset.pitch_max_angle);
 448:application/cmd/robot_cmd.c ****     // switch (rc_data[TEMP].key_count[KEY_PRESS][Key_R] % 2) // Rķö«Õ╝ĆÕģ│Õ╝╣Ķł▒
 449:application/cmd/robot_cmd.c ****     // {
 450:application/cmd/robot_cmd.c ****     // case 0:
 451:application/cmd/robot_cmd.c ****     //     shoot_cmd_send.lid_mode = LID_OPEN;
 452:application/cmd/robot_cmd.c ****     //     break;
 453:application/cmd/robot_cmd.c ****     // default:
 454:application/cmd/robot_cmd.c ****     //     shoot_cmd_send.lid_mode = LID_CLOSE;
 455:application/cmd/robot_cmd.c ****     //     break;
 456:application/cmd/robot_cmd.c ****     // }
 457:application/cmd/robot_cmd.c **** 
 458:application/cmd/robot_cmd.c ****     // switch (rc_data[TEMP].key_count[KEY_PRESS][Key_C] % 4) // Cķö«Ķ«ŠńĮ«Õ║ĢńøśķĆ¤Õ║”
 459:application/cmd/robot_cmd.c ****     // {
 460:application/cmd/robot_cmd.c ****     // case 0:
 461:application/cmd/robot_cmd.c ****     //     chassis_cmd_send.chassis_speed_buff = 40;
 462:application/cmd/robot_cmd.c ****     //     break;
 463:application/cmd/robot_cmd.c ****     // case 1:
ARM GAS  C:\Users\Administrator\AppData\Local\Temp\ccNqWoEF.s 			page 26


 464:application/cmd/robot_cmd.c ****     //     chassis_cmd_send.chassis_speed_buff = 60;
 465:application/cmd/robot_cmd.c ****     //     break;
 466:application/cmd/robot_cmd.c ****     // case 2:
 467:application/cmd/robot_cmd.c ****     //     chassis_cmd_send.chassis_speed_buff = 80;
 468:application/cmd/robot_cmd.c ****     //     break;
 469:application/cmd/robot_cmd.c ****     // default:
 470:application/cmd/robot_cmd.c ****     //     chassis_cmd_send.chassis_speed_buff = 100;
 471:application/cmd/robot_cmd.c ****     //     break;
 472:application/cmd/robot_cmd.c ****     // }
 473:application/cmd/robot_cmd.c **** 
 474:application/cmd/robot_cmd.c ****     // switch (rc_data[TEMP].key[KEY_PRESS].shift) // ÕŠģµĘ╗ÕŖĀ µīēshiftÕģüĶ«ĖĶČģÕŖ¤ńÄć µČłĶĆŚń╝ōÕå
 475:application/cmd/robot_cmd.c ****     // {
 476:application/cmd/robot_cmd.c ****     // case 1:
 477:application/cmd/robot_cmd.c ****     //     break;
 478:application/cmd/robot_cmd.c ****     // default:
 479:application/cmd/robot_cmd.c ****     //     break;
 480:application/cmd/robot_cmd.c ****     // }
 481:application/cmd/robot_cmd.c **** 
 482:application/cmd/robot_cmd.c **** }
 841              		.loc 1 482 1 view .LVU291
 842 00f0 7047     		bx	lr
 843              	.L75:
 379:application/cmd/robot_cmd.c ****         shoot_cmd_send.friction_mode = FRICTION_ON;
 844              		.loc 1 379 9 is_stmt 1 view .LVU292
 379:application/cmd/robot_cmd.c ****         shoot_cmd_send.friction_mode = FRICTION_ON;
 845              		.loc 1 379 35 is_stmt 0 view .LVU293
 846 00f2 2D4B     		ldr	r3, .L94+24
 847 00f4 0221     		movs	r1, #2
 848 00f6 1970     		strb	r1, [r3]
 380:application/cmd/robot_cmd.c ****         break;    
 849              		.loc 1 380 9 is_stmt 1 view .LVU294
 380:application/cmd/robot_cmd.c ****         break;    
 850              		.loc 1 380 38 is_stmt 0 view .LVU295
 851 00f8 0121     		movs	r1, #1
 852 00fa D970     		strb	r1, [r3, #3]
 381:application/cmd/robot_cmd.c ****     default:
 853              		.loc 1 381 9 is_stmt 1 view .LVU296
 854 00fc EDE7     		b	.L77
 855              	.L91:
 390:application/cmd/robot_cmd.c ****         {
 856              		.loc 1 390 9 view .LVU297
 390:application/cmd/robot_cmd.c ****         {
 857              		.loc 1 390 36 is_stmt 0 view .LVU298
 858 00fe 117C     		ldrb	r1, [r2, #16]	@ zero_extendqisi2
 390:application/cmd/robot_cmd.c ****         {
 859              		.loc 1 390 9 view .LVU299
 860 0100 41B1     		cbz	r1, .L79
 861 0102 0129     		cmp	r1, #1
 862 0104 EDD1     		bne	.L78
 397:application/cmd/robot_cmd.c ****             shoot_cmd_send.load_mode = LOAD_BURSTFIRE;
 863              		.loc 1 397 13 is_stmt 1 view .LVU300
 397:application/cmd/robot_cmd.c ****             shoot_cmd_send.load_mode = LOAD_BURSTFIRE;
 864              		.loc 1 397 39 is_stmt 0 view .LVU301
 865 0106 2849     		ldr	r1, .L94+24
 866 0108 2848     		ldr	r0, .L94+28
 867 010a C1F80600 		str	r0, [r1, #6]	@ unaligned
 398:application/cmd/robot_cmd.c ****             break;
ARM GAS  C:\Users\Administrator\AppData\Local\Temp\ccNqWoEF.s 			page 27


 868              		.loc 1 398 13 is_stmt 1 view .LVU302
 398:application/cmd/robot_cmd.c ****             break;
 869              		.loc 1 398 38 is_stmt 0 view .LVU303
 870 010e 0420     		movs	r0, #4
 871 0110 4870     		strb	r0, [r1, #1]
 399:application/cmd/robot_cmd.c ****         }
 872              		.loc 1 399 13 is_stmt 1 view .LVU304
 873 0112 E6E7     		b	.L78
 874              	.L79:
 393:application/cmd/robot_cmd.c ****             break;
 875              		.loc 1 393 13 view .LVU305
 393:application/cmd/robot_cmd.c ****             break;
 876              		.loc 1 393 38 is_stmt 0 view .LVU306
 877 0114 2449     		ldr	r1, .L94+24
 878 0116 0020     		movs	r0, #0
 879 0118 4870     		strb	r0, [r1, #1]
 394:application/cmd/robot_cmd.c ****         case 1:
 880              		.loc 1 394 13 is_stmt 1 view .LVU307
 881 011a E2E7     		b	.L78
 882              	.L92:
 408:application/cmd/robot_cmd.c ****         {
 883              		.loc 1 408 9 view .LVU308
 408:application/cmd/robot_cmd.c ****         {
 884              		.loc 1 408 29 is_stmt 0 view .LVU309
 885 011c 244A     		ldr	r2, .L94+32
 886 011e 1168     		ldr	r1, [r2]
 887 0120 8A78     		ldrb	r2, [r1, #2]	@ zero_extendqisi2
 408:application/cmd/robot_cmd.c ****         {
 888              		.loc 1 408 41 view .LVU310
 889 0122 013A     		subs	r2, r2, #1
 890 0124 D2B2     		uxtb	r2, r2
 408:application/cmd/robot_cmd.c ****         {
 891              		.loc 1 408 12 view .LVU311
 892 0126 012A     		cmp	r2, #1
 893 0128 DED8     		bhi	.L81
 410:application/cmd/robot_cmd.c ****             gimbal_cmd_send.pitch = vision_recv_data->pitch;
 894              		.loc 1 410 13 is_stmt 1 view .LVU312
 410:application/cmd/robot_cmd.c ****             gimbal_cmd_send.pitch = vision_recv_data->pitch;
 895              		.loc 1 410 51 is_stmt 0 view .LVU313
 896 012a D1F80300 		ldr	r0, [r1, #3]	@ unaligned
 410:application/cmd/robot_cmd.c ****             gimbal_cmd_send.pitch = vision_recv_data->pitch;
 897              		.loc 1 410 33 view .LVU314
 898 012e 1D4A     		ldr	r2, .L94+20
 899 0130 5060     		str	r0, [r2, #4]	@ float
 411:application/cmd/robot_cmd.c **** 
 900              		.loc 1 411 13 is_stmt 1 view .LVU315
 411:application/cmd/robot_cmd.c **** 
 901              		.loc 1 411 53 is_stmt 0 view .LVU316
 902 0132 D1F80F00 		ldr	r0, [r1, #15]	@ unaligned
 411:application/cmd/robot_cmd.c **** 
 903              		.loc 1 411 35 view .LVU317
 904 0136 9060     		str	r0, [r2, #8]	@ float
 413:application/cmd/robot_cmd.c ****             add_pitch = 0.0f;
 905              		.loc 1 413 13 is_stmt 1 view .LVU318
 413:application/cmd/robot_cmd.c ****             add_pitch = 0.0f;
 906              		.loc 1 413 21 is_stmt 0 view .LVU319
 907 0138 0022     		movs	r2, #0
ARM GAS  C:\Users\Administrator\AppData\Local\Temp\ccNqWoEF.s 			page 28


 908 013a 1748     		ldr	r0, .L94+8
 909 013c 0260     		str	r2, [r0]	@ float
 414:application/cmd/robot_cmd.c **** 
 910              		.loc 1 414 13 is_stmt 1 view .LVU320
 414:application/cmd/robot_cmd.c **** 
 911              		.loc 1 414 23 is_stmt 0 view .LVU321
 912 013e 1748     		ldr	r0, .L94+12
 913 0140 0260     		str	r2, [r0]	@ float
 416:application/cmd/robot_cmd.c ****             {
 914              		.loc 1 416 13 is_stmt 1 view .LVU322
 416:application/cmd/robot_cmd.c ****             {
 915              		.loc 1 416 33 is_stmt 0 view .LVU323
 916 0142 8A78     		ldrb	r2, [r1, #2]	@ zero_extendqisi2
 416:application/cmd/robot_cmd.c ****             {
 917              		.loc 1 416 16 view .LVU324
 918 0144 022A     		cmp	r2, #2
 919 0146 CFD1     		bne	.L81
 416:application/cmd/robot_cmd.c ****             {
 920              		.loc 1 416 45 discriminator 1 view .LVU325
 921 0148 012B     		cmp	r3, #1
 922 014a CDD1     		bne	.L81
 418:application/cmd/robot_cmd.c ****                 shoot_cmd_send.load_mode = LOAD_BURSTFIRE;
 923              		.loc 1 418 17 is_stmt 1 view .LVU326
 418:application/cmd/robot_cmd.c ****                 shoot_cmd_send.load_mode = LOAD_BURSTFIRE;
 924              		.loc 1 418 43 is_stmt 0 view .LVU327
 925 014c 164B     		ldr	r3, .L94+24
 926 014e 174A     		ldr	r2, .L94+28
 927 0150 C3F80620 		str	r2, [r3, #6]	@ unaligned
 419:application/cmd/robot_cmd.c ****             }
 928              		.loc 1 419 17 is_stmt 1 view .LVU328
 419:application/cmd/robot_cmd.c ****             }
 929              		.loc 1 419 42 is_stmt 0 view .LVU329
 930 0154 0422     		movs	r2, #4
 931 0156 5A70     		strb	r2, [r3, #1]
 932 0158 C6E7     		b	.L81
 933              	.L93:
 445:application/cmd/robot_cmd.c ****         robot_config->gimbal_param.gimbal_offset.pitch_min_angle, 
 934              		.loc 1 445 9 is_stmt 1 view .LVU330
 445:application/cmd/robot_cmd.c ****         robot_config->gimbal_param.gimbal_offset.pitch_min_angle, 
 935              		.loc 1 445 9 view .LVU331
 936 015a 124B     		ldr	r3, .L94+20
 937 015c D3ED027A 		vldr.32	s15, [r3, #8]
 938 0160 144B     		ldr	r3, .L94+36
 939 0162 1B68     		ldr	r3, [r3]
 940 0164 93ED477A 		vldr.32	s14, [r3, #284]
 941 0168 F4EEC77A 		vcmpe.f32	s15, s14
 942 016c F1EE10FA 		vmrs	APSR_nzcv, FPSCR
 943 0170 03D8     		bhi	.L90
 445:application/cmd/robot_cmd.c ****         robot_config->gimbal_param.gimbal_offset.pitch_min_angle, 
 944              		.loc 1 445 9 discriminator 1 view .LVU332
 945 0172 0C4B     		ldr	r3, .L94+20
 946 0174 83ED027A 		vstr.32	s14, [r3, #8]
 947 0178 7047     		bx	lr
 948              	.L90:
 445:application/cmd/robot_cmd.c ****         robot_config->gimbal_param.gimbal_offset.pitch_min_angle, 
 949              		.loc 1 445 9 discriminator 2 view .LVU333
 950 017a 93ED467A 		vldr.32	s14, [r3, #280]
ARM GAS  C:\Users\Administrator\AppData\Local\Temp\ccNqWoEF.s 			page 29


 951 017e F4EEC77A 		vcmpe.f32	s15, s14
 952 0182 F1EE10FA 		vmrs	APSR_nzcv, FPSCR
 953 0186 B3DB     		blt	.L69
 445:application/cmd/robot_cmd.c ****         robot_config->gimbal_param.gimbal_offset.pitch_min_angle, 
 954              		.loc 1 445 9 discriminator 3 view .LVU334
 955 0188 064B     		ldr	r3, .L94+20
 956 018a 83ED027A 		vstr.32	s14, [r3, #8]
 445:application/cmd/robot_cmd.c ****         robot_config->gimbal_param.gimbal_offset.pitch_min_angle, 
 957              		.loc 1 445 9 view .LVU335
 958              		.loc 1 482 1 is_stmt 0 view .LVU336
 959 018e AFE7     		b	.L69
 960              	.L95:
 961              		.align	2
 962              	.L94:
 963 0190 00000000 		.word	rc_data
 964 0194 00002544 		.word	1143275520
 965 0198 00000000 		.word	add_yaw.4
 966 019c 00000000 		.word	add_pitch.3
 967 01a0 00000000 		.word	chassis_cmd_send
 968 01a4 00000000 		.word	gimbal_cmd_send
 969 01a8 00000000 		.word	shoot_cmd_send
 970 01ac 00002041 		.word	1092616192
 971 01b0 00000000 		.word	vision_recv_data
 972 01b4 00000000 		.word	robot_config
 973              		.cfi_endproc
 974              	.LFE280:
 976              		.section	.text.RefereeHandler,"ax",%progbits
 977              		.align	1
 978              		.syntax unified
 979              		.thumb
 980              		.thumb_func
 982              	RefereeHandler:
 983              	.LFB283:
 483:application/cmd/robot_cmd.c **** 
 484:application/cmd/robot_cmd.c **** /**
 485:application/cmd/robot_cmd.c ****  * @brief  µŖźĶŁ”ÕżäńÉå’╝īÕ»╣õ║ÄõĖŹÕÉīķćŹĶ”üµ©ĪÕØŚń”╗ń║┐µł¢ĶĆģķüźµÄ¦ÕÖ©ń”╗ń║┐’╝īĶ┐øĶĪīõĖŹÕÉīń▒╗Õ×ŗµ
 486:application/cmd/robot_cmd.c ****  *
 487:application/cmd/robot_cmd.c ****  */
 488:application/cmd/robot_cmd.c **** static void AlarmHandler()
 489:application/cmd/robot_cmd.c **** {
 490:application/cmd/robot_cmd.c ****     uint8_t temp = 0;
 491:application/cmd/robot_cmd.c **** 
 492:application/cmd/robot_cmd.c ****     if (robot_state == ROBOT_READY)
 493:application/cmd/robot_cmd.c ****     {
 494:application/cmd/robot_cmd.c ****         // µŚĀÕŖøµ©ĪÕ╝ÅõĖŗ’╝īń╗┐ńü»µģóķŚ¬Õ╣ČõĖöõĖŹµŖźĶŁ”
 495:application/cmd/robot_cmd.c ****         if (chassis_cmd_send.chassis_mode == CHASSIS_ZERO_FORCE && gimbal_cmd_send.gimbal_mode == G
 496:application/cmd/robot_cmd.c ****         {
 497:application/cmd/robot_cmd.c ****             LEDSetStatus(led_alarm, ALARM_ON); 
 498:application/cmd/robot_cmd.c ****             LEDSetFlash(led_alarm, GREEN, FLASH_LOW); 
 499:application/cmd/robot_cmd.c ****             BuzzerSetStatus(buzzer_alarm, ALARM_OFF);
 500:application/cmd/robot_cmd.c ****         }
 501:application/cmd/robot_cmd.c ****         else
 502:application/cmd/robot_cmd.c ****         { // µ£ēÕŖøµ©ĪÕ╝ÅõĖŗ’╝īń▓ēńü»Õæ╝ÕÉĖÕÅśÕī¢Õ╣ČõĖöõĖŹµŖźĶŁ”
 503:application/cmd/robot_cmd.c ****             LEDSetStatus(led_alarm, ALARM_OFF); 
 504:application/cmd/robot_cmd.c ****             BuzzerSetStatus(buzzer_alarm, ALARM_OFF);
 505:application/cmd/robot_cmd.c ****         }
 506:application/cmd/robot_cmd.c ****     }
ARM GAS  C:\Users\Administrator\AppData\Local\Temp\ccNqWoEF.s 			page 30


 507:application/cmd/robot_cmd.c ****     if (robot_state == ROBOT_STOP) 
 508:application/cmd/robot_cmd.c ****     {
 509:application/cmd/robot_cmd.c ****         // Õ║Ģńøśµ©ĪÕØŚń”╗ń║┐
 510:application/cmd/robot_cmd.c ****         if (chassis_fetch_data.motor_state == GIMBAL_MOTOR_OFFLINE)
 511:application/cmd/robot_cmd.c ****         { // ķ╗äńü»Õ┐½ķŚ¬’╝īķŚ¬ńāüµ¼ĪµĢ░Õ»╣Õ║öõĖŹÕÉīńöĄµ£║’╝īĶ£éķĖŻÕÖ©µŖźĶŁ”ÕŻ░õĖ║Do
 512:application/cmd/robot_cmd.c ****             temp++;
 513:application/cmd/robot_cmd.c ****             LEDSetStatus(led_alarm, ALARM_ON); 
 514:application/cmd/robot_cmd.c ****             LEDSetFlashTime(led_alarm, chassis_fetch_data.motor_offline_count);
 515:application/cmd/robot_cmd.c ****             LEDSetFlash(led_alarm, YELLOW, FLASH_HIGH);
 516:application/cmd/robot_cmd.c ****             BuzzerSetStatus(buzzer_alarm, ALARM_ON);
 517:application/cmd/robot_cmd.c ****             BuzzerSetOctave(buzzer_alarm, OCTAVE_1);
 518:application/cmd/robot_cmd.c ****         }
 519:application/cmd/robot_cmd.c **** 
 520:application/cmd/robot_cmd.c ****         // õ║æÕÅ░µ©ĪÕØŚń”╗ń║┐
 521:application/cmd/robot_cmd.c ****         if (gimbal_fetch_data.motor_state == CHASSIS_MOTOR_OFFLINE)
 522:application/cmd/robot_cmd.c ****         { // ń║óńü»Õ┐½ķŚ¬’╝īķŚ¬ńāüµ¼ĪµĢ░Õ»╣Õ║öõĖŹÕÉīńöĄµ£║’╝īĶ£éķĖŻÕÖ©µŖźĶŁ”ÕŻ░õĖ║Re
 523:application/cmd/robot_cmd.c ****             temp++;
 524:application/cmd/robot_cmd.c ****             LEDSetStatus(led_alarm, ALARM_ON); 
 525:application/cmd/robot_cmd.c ****             LEDSetFlashTime(led_alarm, gimbal_fetch_data.motor_offline_count);
 526:application/cmd/robot_cmd.c ****             LEDSetFlash(led_alarm, RED, FLASH_HIGH);
 527:application/cmd/robot_cmd.c ****             BuzzerSetStatus(buzzer_alarm, ALARM_ON);
 528:application/cmd/robot_cmd.c ****             BuzzerSetOctave(buzzer_alarm, OCTAVE_2);
 529:application/cmd/robot_cmd.c ****         }
 530:application/cmd/robot_cmd.c **** 
 531:application/cmd/robot_cmd.c ****         // ÕÅæÕ░äµ©ĪÕØŚń”╗ń║┐
 532:application/cmd/robot_cmd.c **** 
 533:application/cmd/robot_cmd.c ****         // ķüźµÄ¦ÕÖ©ń”╗ń║┐µł¢ĶĆģµĆźÕü£µ©ĪÕ╝Å
 534:application/cmd/robot_cmd.c ****         if (temp == 0)
 535:application/cmd/robot_cmd.c ****         { // ķ╗äńü»ÕĖĖõ║«Õ╣ČõĖöõĖŹµŖźĶŁ”
 536:application/cmd/robot_cmd.c ****             LEDSetStatus(led_alarm, ALARM_ON); 
 537:application/cmd/robot_cmd.c ****             LEDSetFlash(led_alarm, YELLOW, ALWAYS_ON);
 538:application/cmd/robot_cmd.c ****             BuzzerSetStatus(buzzer_alarm, ALARM_OFF);
 539:application/cmd/robot_cmd.c ****         }
 540:application/cmd/robot_cmd.c **** 
 541:application/cmd/robot_cmd.c ****         if (temp > 1 || chassis_fetch_data.motor_offline_count > 1 || gimbal_fetch_data.motor_offli
 542:application/cmd/robot_cmd.c ****         { // ĶČģĶ┐ćõĖĆõĖ¬µ©ĪÕØŚµł¢ÕżÜõĖ¬ńöĄµ£║ń”╗ń║┐’╝īń║óńü»ÕĖĖķćÅÕ╣ČõĖöõĖŹµŖźĶŁ”
 543:application/cmd/robot_cmd.c ****             LEDSetStatus(led_alarm, ALARM_ON); 
 544:application/cmd/robot_cmd.c ****             LEDSetFlash(led_alarm, RED, ALWAYS_ON);
 545:application/cmd/robot_cmd.c ****             BuzzerSetStatus(buzzer_alarm, ALARM_OFF);      
 546:application/cmd/robot_cmd.c ****         }
 547:application/cmd/robot_cmd.c ****     }
 548:application/cmd/robot_cmd.c **** }
 549:application/cmd/robot_cmd.c **** 
 550:application/cmd/robot_cmd.c **** /**
 551:application/cmd/robot_cmd.c ****  * @brief  ń┤¦µĆźÕü£µŁó,Õīģµŗ¼ķüźµÄ¦ÕÖ©ÕĘ”õĖŖõŠ¦µŗ©ĶĮ«µēōµ╗Ī/ķćŹĶ”üµ©ĪÕØŚń”╗ń║┐/ÕÅīµØ┐ķĆÜõ┐ĪÕż▒µĢłń
 552:application/cmd/robot_cmd.c ****  *
 553:application/cmd/robot_cmd.c ****  */
 554:application/cmd/robot_cmd.c **** static void EmergencyHandler()
 555:application/cmd/robot_cmd.c **** {
 556:application/cmd/robot_cmd.c ****     // µŗ©ĶĮ«ńÜäÕÉæõĖŖµŗ©ĶČģĶ┐ćõĖĆÕŹŖµł¢ĶĆģķüźµÄ¦ÕÖ©ń”╗ń║┐Ķ┐øÕģźµĆźÕü£µ©ĪÕ╝Å.µ│©µäÅÕÉæµēōµŚČõĖŗµŗ©Ķ
 557:application/cmd/robot_cmd.c ****     if (rc_data[TEMP].rc.dial < -400 || !RemoteControlIsOnline())
 558:application/cmd/robot_cmd.c ****     {
 559:application/cmd/robot_cmd.c ****         robot_state = ROBOT_STOP;
 560:application/cmd/robot_cmd.c ****         gimbal_cmd_send.gimbal_mode = GIMBAL_ZERO_FORCE;
 561:application/cmd/robot_cmd.c ****         chassis_cmd_send.chassis_mode = CHASSIS_ZERO_FORCE;
 562:application/cmd/robot_cmd.c ****         shoot_cmd_send.shoot_mode = SHOOT_OFF;
 563:application/cmd/robot_cmd.c ****         shoot_cmd_send.friction_mode = FRICTION_OFF;
ARM GAS  C:\Users\Administrator\AppData\Local\Temp\ccNqWoEF.s 			page 31


 564:application/cmd/robot_cmd.c ****         shoot_cmd_send.load_mode = LOAD_STOP;
 565:application/cmd/robot_cmd.c ****         LOGERROR("[CMD] emergency stop!");
 566:application/cmd/robot_cmd.c ****     }
 567:application/cmd/robot_cmd.c ****     // if (gimbal_fetch_data.motor_state == GIMBAL_MOTOR_OFFLINE || chassis_fetch_data.motor_state 
 568:application/cmd/robot_cmd.c ****     // {
 569:application/cmd/robot_cmd.c ****     //     robot_state = ROBOT_STOP;
 570:application/cmd/robot_cmd.c ****     //     gimbal_cmd_send.gimbal_mode = GIMBAL_ZERO_FORCE;
 571:application/cmd/robot_cmd.c ****     //     chassis_cmd_send.chassis_mode = CHASSIS_ZERO_FORCE;
 572:application/cmd/robot_cmd.c ****     //     shoot_cmd_send.shoot_mode = SHOOT_OFF;
 573:application/cmd/robot_cmd.c ****     //     shoot_cmd_send.friction_mode = FRICTION_OFF;
 574:application/cmd/robot_cmd.c ****     //     shoot_cmd_send.load_mode = LOAD_STOP;
 575:application/cmd/robot_cmd.c ****     //     LOGERROR("[CMD] motor offline!");         
 576:application/cmd/robot_cmd.c ****     // }
 577:application/cmd/robot_cmd.c ****     // ķüźµÄ¦ÕÖ©ÕĘ”õŠ¦ÕÆīÕÅ│õŠ¦Õ╝ĆÕģ│ÕØćõĖ║[õĖŗ]’╝īķüźµÄ¦ÕÖ©ÕÆīµ©ĪÕØŚÕØćÕ£©ń║┐,µüóÕżŹµŁŻÕĖĖĶ┐ÉĶĪī
 578:application/cmd/robot_cmd.c ****     if (switch_is_down(rc_data[TEMP].rc.switch_left) && switch_is_down(rc_data[TEMP].rc.switch_righ
 579:application/cmd/robot_cmd.c ****     {
 580:application/cmd/robot_cmd.c ****         // if (gimbal_fetch_data.motor_state == GIMBAL_MOTOR_ONLINE && chassis_fetch_data.motor_sta
 581:application/cmd/robot_cmd.c ****         // {
 582:application/cmd/robot_cmd.c ****             robot_state = ROBOT_READY;       
 583:application/cmd/robot_cmd.c ****             LOGINFO("[CMD] reinstate, robot ready");            
 584:application/cmd/robot_cmd.c ****         // }
 585:application/cmd/robot_cmd.c ****     }
 586:application/cmd/robot_cmd.c **** 
 587:application/cmd/robot_cmd.c ****     AlarmHandler(); // µŖźĶŁ”ÕżäńÉå
 588:application/cmd/robot_cmd.c **** }
 589:application/cmd/robot_cmd.c **** 
 590:application/cmd/robot_cmd.c **** /**
 591:application/cmd/robot_cmd.c ****  * @brief  ĶŻüÕłżń│╗ń╗¤ÕÅŹķ”ł’╝īÕīģµŗ¼UIµĢ░µŹ«/Õ░ÅńöĄĶäæµĢ░µŹ«/ĶŻüÕłżń│╗ń╗¤ķÖÉÕłČ
 592:application/cmd/robot_cmd.c ****  *
 593:application/cmd/robot_cmd.c ****  */
 594:application/cmd/robot_cmd.c **** static void RefereeHandler()
 595:application/cmd/robot_cmd.c **** {
 984              		.loc 1 595 1 is_stmt 1 view -0
 985              		.cfi_startproc
 986              		@ args = 0, pretend = 0, frame = 16
 987              		@ frame_needed = 0, uses_anonymous_args = 0
 988 0000 10B5     		push	{r4, lr}
 989              	.LCFI0:
 990              		.cfi_def_cfa_offset 8
 991              		.cfi_offset 4, -8
 992              		.cfi_offset 14, -4
 993 0002 84B0     		sub	sp, sp, #16
 994              	.LCFI1:
 995              		.cfi_def_cfa_offset 24
 596:application/cmd/robot_cmd.c ****     // ĶŻüÕłżń│╗ń╗¤ÕŖ¤ńÄćµÄ¦ÕłČ
 597:application/cmd/robot_cmd.c ****     if (!referee_data->GameRobotState.chassis_power_limit)
 996              		.loc 1 597 5 view .LVU338
 997              		.loc 1 597 22 is_stmt 0 view .LVU339
 998 0004 254B     		ldr	r3, .L101
 999 0006 1A68     		ldr	r2, [r3]
 1000              		.loc 1 597 38 view .LVU340
 1001 0008 B2F84C30 		ldrh	r3, [r2, #76]	@ unaligned
 1002              		.loc 1 597 8 view .LVU341
 1003 000c 002B     		cmp	r3, #0
 1004 000e 3CD1     		bne	.L97
 598:application/cmd/robot_cmd.c ****         chassis_cmd_send.power_limit = 45;
 1005              		.loc 1 598 9 is_stmt 1 view .LVU342
ARM GAS  C:\Users\Administrator\AppData\Local\Temp\ccNqWoEF.s 			page 32


 1006              		.loc 1 598 38 is_stmt 0 view .LVU343
 1007 0010 234B     		ldr	r3, .L101+4
 1008 0012 2449     		ldr	r1, .L101+8
 1009 0014 1961     		str	r1, [r3, #16]	@ float
 1010              	.L98:
 599:application/cmd/robot_cmd.c ****     else
 600:application/cmd/robot_cmd.c ****         chassis_cmd_send.power_limit = referee_data->GameRobotState.chassis_power_limit;
 601:application/cmd/robot_cmd.c **** 
 602:application/cmd/robot_cmd.c ****     // ĶŻüÕłżń│╗ń╗¤ńāŁķćÅµÄ¦ÕłČ
 603:application/cmd/robot_cmd.c ****     if (referee_data->PowerHeatData.shooter_17mm_1_barrel_heat > 300)
 1011              		.loc 1 603 5 is_stmt 1 view .LVU344
 1012              		.loc 1 603 36 is_stmt 0 view .LVU345
 1013 0016 B2F85930 		ldrh	r3, [r2, #89]	@ unaligned
 1014              		.loc 1 603 8 view .LVU346
 1015 001a B3F5967F 		cmp	r3, #300
 1016 001e 02D9     		bls	.L99
 604:application/cmd/robot_cmd.c ****         shoot_cmd_send.load_mode = LOAD_STOP;
 1017              		.loc 1 604 9 is_stmt 1 view .LVU347
 1018              		.loc 1 604 34 is_stmt 0 view .LVU348
 1019 0020 214B     		ldr	r3, .L101+12
 1020 0022 0022     		movs	r2, #0
 1021 0024 5A70     		strb	r2, [r3, #1]
 1022              	.L99:
 605:application/cmd/robot_cmd.c **** 
 606:application/cmd/robot_cmd.c ****     // Ķ¦åĶ¦ēµĢ░µŹ«ÕÅŹķ”ł
 607:application/cmd/robot_cmd.c ****     float q[4];
 1023              		.loc 1 607 5 is_stmt 1 view .LVU349
 608:application/cmd/robot_cmd.c ****     EularAngleToQuaternion(gimbal_fetch_data.gimbal_imu_data.Yaw,
 1024              		.loc 1 608 5 view .LVU350
 1025 0026 214C     		ldr	r4, .L101+16
 1026 0028 6846     		mov	r0, sp
 1027 002a 94ED061A 		vldr.32	s2, [r4, #24]
 1028 002e D4ED070A 		vldr.32	s1, [r4, #28]
 1029 0032 94ED080A 		vldr.32	s0, [r4, #32]
 1030 0036 FFF7FEFF 		bl	EularAngleToQuaternion
 1031              	.LVL6:
 609:application/cmd/robot_cmd.c ****                            gimbal_fetch_data.gimbal_imu_data.Pitch,
 610:application/cmd/robot_cmd.c ****                            gimbal_fetch_data.gimbal_imu_data.Roll,
 611:application/cmd/robot_cmd.c ****                            q);
 612:application/cmd/robot_cmd.c **** 
 613:application/cmd/robot_cmd.c ****     VisionUpdateTx(
 1032              		.loc 1 613 5 view .LVU351
 614:application/cmd/robot_cmd.c ****         (gimbal_cmd_send.gimbal_mode == GIMBAL_GYRO_MODE) ? 1 : 0,
 1033              		.loc 1 614 25 is_stmt 0 view .LVU352
 1034 003a 1D4B     		ldr	r3, .L101+20
 1035 003c 187C     		ldrb	r0, [r3, #16]	@ zero_extendqisi2
 615:application/cmd/robot_cmd.c ****         q[0], q[1], q[2], q[3],
 616:application/cmd/robot_cmd.c ****         gimbal_fetch_data.gimbal_imu_data.YawTotalAngle / YAW_GEAR_RATIO,
 1036              		.loc 1 616 42 view .LVU353
 1037 003e 94ED092A 		vldr.32	s4, [r4, #36]
 617:application/cmd/robot_cmd.c ****         gimbal_fetch_data.gimbal_imu_data.Gyro[2],
 618:application/cmd/robot_cmd.c ****         gimbal_fetch_data.gimbal_imu_data.Pitch,
 619:application/cmd/robot_cmd.c ****         gimbal_fetch_data.gimbal_imu_data.Gyro[0],
 620:application/cmd/robot_cmd.c ****         referee_data->ShootData.bullet_speed,
 1038              		.loc 1 620 21 view .LVU354
 1039 0042 164B     		ldr	r3, .L101
 1040 0044 1B68     		ldr	r3, [r3]
ARM GAS  C:\Users\Administrator\AppData\Local\Temp\ccNqWoEF.s 			page 33


 613:application/cmd/robot_cmd.c ****         (gimbal_cmd_send.gimbal_mode == GIMBAL_GYRO_MODE) ? 1 : 0,
 1041              		.loc 1 613 5 view .LVU355
 1042 0046 D3F87B20 		ldr	r2, [r3, #123]	@ unaligned
 1043 004a 04EE102A 		vmov	s8, r2	@ int
 1044 004e B3F84810 		ldrh	r1, [r3, #72]	@ unaligned
 1045 0052 D4ED003A 		vldr.32	s7, [r4]
 1046 0056 94ED073A 		vldr.32	s6, [r4, #28]
 1047 005a D4ED022A 		vldr.32	s5, [r4, #8]
 1048 005e F7EE047A 		vmov.f32	s15, #1.25e+0
 1049 0062 82EE272A 		vdiv.f32	s4, s4, s15
 1050 0066 DDED031A 		vldr.32	s3, [sp, #12]
 1051 006a 9DED021A 		vldr.32	s2, [sp, #8]
 1052 006e DDED010A 		vldr.32	s1, [sp, #4]
 1053 0072 9DED000A 		vldr.32	s0, [sp]
 1054 0076 0128     		cmp	r0, #1
 1055 0078 14BF     		ite	ne
 1056 007a 0020     		movne	r0, #0
 1057 007c 0120     		moveq	r0, #1
 1058 007e FFF7FEFF 		bl	VisionUpdateTx
 1059              	.LVL7:
 621:application/cmd/robot_cmd.c ****         referee_data->GameRobotState.shooter_barrel_cooling_value
 622:application/cmd/robot_cmd.c ****     );
 623:application/cmd/robot_cmd.c ****     VisionSend();
 1060              		.loc 1 623 5 is_stmt 1 view .LVU356
 1061 0082 FFF7FEFF 		bl	VisionSend
 1062              	.LVL8:
 624:application/cmd/robot_cmd.c ****     // ÕĮōÕēŹÕÅ¬ÕüÜõ║å17mmńāŁķćÅńÜäµĢ░µŹ«ĶÄĘÕÅ¢,ÕÉÄń╗ŁµĀ╣µŹ«robot_defõĖŁńÜäÕ«ÅÕłćµŹóÕÅīµ×¬ń«ĪÕÆīĶŗ▒
 625:application/cmd/robot_cmd.c ****     // vision_send_data.bullet_speed = referee_data->GameRobotState.shooter_barrel_cooling_value;
 626:application/cmd/robot_cmd.c ****     // vision_send_data.rest_heat = referee_data->PowerHeatData.shooter_heat0;
 627:application/cmd/robot_cmd.c **** 
 628:application/cmd/robot_cmd.c ****     // // UIµĢ░µŹ«ÕÅŹķ”ł
 629:application/cmd/robot_cmd.c ****     // ui_data.chassis_mode = chassis_cmd_send.chassis_mode;
 630:application/cmd/robot_cmd.c ****     // ui_data.gimbal_mode = gimbal_cmd_send.gimbal_mode;
 631:application/cmd/robot_cmd.c ****     // ui_data.shoot_mode = shoot_cmd_send.shoot_mode;
 632:application/cmd/robot_cmd.c ****     // ui_data.friction_mode = shoot_cmd_send.friction_mode;
 633:application/cmd/robot_cmd.c ****     // ui_data.lid_mode = shoot_cmd_send.lid_mode;
 634:application/cmd/robot_cmd.c **** 
 635:application/cmd/robot_cmd.c ****     // ui_data.chassis_offset_angle = chassis_cmd_send.offset_angle;
 636:application/cmd/robot_cmd.c ****     // ui_data.pitch_angle = gimbal_fetch_data.gimbal_imu_data.Pitch;
 637:application/cmd/robot_cmd.c ****     // ui_data.bullet_speed = shoot_cmd_send.bullet_speed;    
 638:application/cmd/robot_cmd.c **** }
 1063              		.loc 1 638 1 is_stmt 0 view .LVU357
 1064 0086 04B0     		add	sp, sp, #16
 1065              	.LCFI2:
 1066              		.cfi_remember_state
 1067              		.cfi_def_cfa_offset 8
 1068              		@ sp needed
 1069 0088 10BD     		pop	{r4, pc}
 1070              	.L97:
 1071              	.LCFI3:
 1072              		.cfi_restore_state
 600:application/cmd/robot_cmd.c **** 
 1073              		.loc 1 600 9 is_stmt 1 view .LVU358
 600:application/cmd/robot_cmd.c **** 
 1074              		.loc 1 600 38 is_stmt 0 view .LVU359
 1075 008a 07EE903A 		vmov	s15, r3	@ int
 1076 008e F8EE677A 		vcvt.f32.u32	s15, s15
ARM GAS  C:\Users\Administrator\AppData\Local\Temp\ccNqWoEF.s 			page 34


 1077 0092 034B     		ldr	r3, .L101+4
 1078 0094 C3ED047A 		vstr.32	s15, [r3, #16]
 1079 0098 BDE7     		b	.L98
 1080              	.L102:
 1081 009a 00BF     		.align	2
 1082              	.L101:
 1083 009c 00000000 		.word	referee_data
 1084 00a0 00000000 		.word	chassis_cmd_send
 1085 00a4 00003442 		.word	1110704128
 1086 00a8 00000000 		.word	shoot_cmd_send
 1087 00ac 00000000 		.word	gimbal_fetch_data
 1088 00b0 00000000 		.word	gimbal_cmd_send
 1089              		.cfi_endproc
 1090              	.LFE283:
 1092              		.section	.rodata.RobotCMDInit.str1.4,"aMS",%progbits,1
 1093              		.align	2
 1094              	.LC1:
 1095 0000 67696D62 		.ascii	"gimbal_cmd\000"
 1095      616C5F63 
 1095      6D6400
 1096 000b 00       		.align	2
 1097              	.LC2:
 1098 000c 67696D62 		.ascii	"gimbal_feed\000"
 1098      616C5F66 
 1098      65656400 
 1099              		.align	2
 1100              	.LC3:
 1101 0018 73686F6F 		.ascii	"shoot_cmd\000"
 1101      745F636D 
 1101      6400
 1102 0022 0000     		.align	2
 1103              	.LC4:
 1104 0024 73686F6F 		.ascii	"shoot_feed\000"
 1104      745F6665 
 1104      656400
 1105 002f 00       		.align	2
 1106              	.LC5:
 1107 0030 63686173 		.ascii	"chassis_cmd\000"
 1107      7369735F 
 1107      636D6400 
 1108              		.align	2
 1109              	.LC6:
 1110 003c 63686173 		.ascii	"chassis_feed\000"
 1110      7369735F 
 1110      66656564 
 1110      00
 1111              		.section	.text.RobotCMDInit,"ax",%progbits
 1112              		.align	1
 1113              		.global	RobotCMDInit
 1114              		.syntax unified
 1115              		.thumb
 1116              		.thumb_func
 1118              	RobotCMDInit:
 1119              	.LFB276:
  66:application/cmd/robot_cmd.c ****     robot_config = RobotConfigInit(SENTINEL_ROBOT);
 1120              		.loc 1 66 1 is_stmt 1 view -0
 1121              		.cfi_startproc
ARM GAS  C:\Users\Administrator\AppData\Local\Temp\ccNqWoEF.s 			page 35


 1122              		@ args = 0, pretend = 0, frame = 16
 1123              		@ frame_needed = 0, uses_anonymous_args = 0
 1124 0000 10B5     		push	{r4, lr}
 1125              	.LCFI4:
 1126              		.cfi_def_cfa_offset 8
 1127              		.cfi_offset 4, -8
 1128              		.cfi_offset 14, -4
 1129 0002 84B0     		sub	sp, sp, #16
 1130              	.LCFI5:
 1131              		.cfi_def_cfa_offset 24
  67:application/cmd/robot_cmd.c **** 
 1132              		.loc 1 67 5 view .LVU361
  67:application/cmd/robot_cmd.c **** 
 1133              		.loc 1 67 20 is_stmt 0 view .LVU362
 1134 0004 0720     		movs	r0, #7
 1135 0006 FFF7FEFF 		bl	RobotConfigInit
 1136              	.LVL9:
  67:application/cmd/robot_cmd.c **** 
 1137              		.loc 1 67 18 discriminator 1 view .LVU363
 1138 000a 2A4B     		ldr	r3, .L105
 1139 000c 1860     		str	r0, [r3]
  69:application/cmd/robot_cmd.c ****             .alarm_level = ALARM_LEVEL_HIGH, //Ķ«ŠńĮ«ĶŁ”µŖźńŁēń║¦ ÕÉīõĖĆńŖČµĆüõĖŗ ķ½śńŁēń║¦ńÜäÕōŹÕ║
 1140              		.loc 1 69 5 is_stmt 1 view .LVU364
  69:application/cmd/robot_cmd.c ****             .alarm_level = ALARM_LEVEL_HIGH, //Ķ«ŠńĮ«ĶŁ”µŖźńŁēń║¦ ÕÉīõĖĆńŖČµĆüõĖŗ ķ½śńŁēń║¦ńÜäÕōŹÕ║
 1141              		.loc 1 69 21 is_stmt 0 view .LVU365
 1142 000e 02A8     		add	r0, sp, #8
 1143 0010 0024     		movs	r4, #0
 1144 0012 0294     		str	r4, [sp, #8]
 1145 0014 4460     		str	r4, [r0, #4]
 1146 0016 284B     		ldr	r3, .L105+4
 1147 0018 0393     		str	r3, [sp, #12]	@ float
  74:application/cmd/robot_cmd.c **** 
 1148              		.loc 1 74 5 is_stmt 1 view .LVU366
  74:application/cmd/robot_cmd.c **** 
 1149              		.loc 1 74 20 is_stmt 0 view .LVU367
 1150 001a FFF7FEFF 		bl	BuzzerRegister
 1151              	.LVL10:
  74:application/cmd/robot_cmd.c **** 
 1152              		.loc 1 74 18 discriminator 1 view .LVU368
 1153 001e 274B     		ldr	r3, .L105+8
 1154 0020 1860     		str	r0, [r3]
  76:application/cmd/robot_cmd.c ****             .color = PINK,
 1155              		.loc 1 76 5 is_stmt 1 view .LVU369
  76:application/cmd/robot_cmd.c ****             .color = PINK,
 1156              		.loc 1 76 18 is_stmt 0 view .LVU370
 1157 0022 274B     		ldr	r3, .L105+12
 1158 0024 1B68     		ldr	r3, [r3]
 1159 0026 ADF80430 		strh	r3, [sp, #4]	@ movhi
 1160 002a 1B0C     		lsrs	r3, r3, #16
 1161 002c 8DF80630 		strb	r3, [sp, #6]
  81:application/cmd/robot_cmd.c **** 
 1162              		.loc 1 81 5 is_stmt 1 view .LVU371
  81:application/cmd/robot_cmd.c **** 
 1163              		.loc 1 81 17 is_stmt 0 view .LVU372
 1164 0030 01A8     		add	r0, sp, #4
 1165 0032 FFF7FEFF 		bl	LEDRegister
 1166              	.LVL11:
ARM GAS  C:\Users\Administrator\AppData\Local\Temp\ccNqWoEF.s 			page 36


  81:application/cmd/robot_cmd.c **** 
 1167              		.loc 1 81 15 discriminator 1 view .LVU373
 1168 0036 234B     		ldr	r3, .L105+16
 1169 0038 1860     		str	r0, [r3]
  83:application/cmd/robot_cmd.c ****     vision_recv_data = VisionInit(&huart1); // Ķ¦åĶ¦ēķĆÜõ┐ĪõĖ▓ÕÅŻ
 1170              		.loc 1 83 5 is_stmt 1 view .LVU374
  83:application/cmd/robot_cmd.c ****     vision_recv_data = VisionInit(&huart1); // Ķ¦åĶ¦ēķĆÜõ┐ĪõĖ▓ÕÅŻ
 1171              		.loc 1 83 15 is_stmt 0 view .LVU375
 1172 003a 2348     		ldr	r0, .L105+20
 1173 003c FFF7FEFF 		bl	RemoteControlInit
 1174              	.LVL12:
  83:application/cmd/robot_cmd.c ****     vision_recv_data = VisionInit(&huart1); // Ķ¦åĶ¦ēķĆÜõ┐ĪõĖ▓ÕÅŻ
 1175              		.loc 1 83 13 discriminator 1 view .LVU376
 1176 0040 224B     		ldr	r3, .L105+24
 1177 0042 1860     		str	r0, [r3]
  84:application/cmd/robot_cmd.c **** 
 1178              		.loc 1 84 5 is_stmt 1 view .LVU377
  84:application/cmd/robot_cmd.c **** 
 1179              		.loc 1 84 24 is_stmt 0 view .LVU378
 1180 0044 2248     		ldr	r0, .L105+28
 1181 0046 FFF7FEFF 		bl	VisionInit
 1182              	.LVL13:
  84:application/cmd/robot_cmd.c **** 
 1183              		.loc 1 84 22 discriminator 1 view .LVU379
 1184 004a 224B     		ldr	r3, .L105+32
 1185 004c 1860     		str	r0, [r3]
  86:application/cmd/robot_cmd.c **** 
 1186              		.loc 1 86 5 is_stmt 1 view .LVU380
  86:application/cmd/robot_cmd.c **** 
 1187              		.loc 1 86 20 is_stmt 0 view .LVU381
 1188 004e 2249     		ldr	r1, .L105+36
 1189 0050 2248     		ldr	r0, .L105+40
 1190 0052 FFF7FEFF 		bl	UITaskInit
 1191              	.LVL14:
  86:application/cmd/robot_cmd.c **** 
 1192              		.loc 1 86 18 discriminator 1 view .LVU382
 1193 0056 224B     		ldr	r3, .L105+44
 1194 0058 1860     		str	r0, [r3]
  88:application/cmd/robot_cmd.c ****     gimbal_feed_sub = SubRegister("gimbal_feed", sizeof(Gimbal_Upload_Data_s));
 1195              		.loc 1 88 5 is_stmt 1 view .LVU383
  88:application/cmd/robot_cmd.c ****     gimbal_feed_sub = SubRegister("gimbal_feed", sizeof(Gimbal_Upload_Data_s));
 1196              		.loc 1 88 22 is_stmt 0 view .LVU384
 1197 005a 1221     		movs	r1, #18
 1198 005c 2148     		ldr	r0, .L105+48
 1199 005e FFF7FEFF 		bl	PubRegister
 1200              	.LVL15:
  88:application/cmd/robot_cmd.c ****     gimbal_feed_sub = SubRegister("gimbal_feed", sizeof(Gimbal_Upload_Data_s));
 1201              		.loc 1 88 20 discriminator 1 view .LVU385
 1202 0062 214B     		ldr	r3, .L105+52
 1203 0064 1860     		str	r0, [r3]
  89:application/cmd/robot_cmd.c ****     shoot_cmd_pub = PubRegister("shoot_cmd", sizeof(Shoot_Ctrl_Cmd_s));
 1204              		.loc 1 89 5 is_stmt 1 view .LVU386
  89:application/cmd/robot_cmd.c ****     shoot_cmd_pub = PubRegister("shoot_cmd", sizeof(Shoot_Ctrl_Cmd_s));
 1205              		.loc 1 89 23 is_stmt 0 view .LVU387
 1206 0066 2C21     		movs	r1, #44
 1207 0068 2048     		ldr	r0, .L105+56
 1208 006a FFF7FEFF 		bl	SubRegister
ARM GAS  C:\Users\Administrator\AppData\Local\Temp\ccNqWoEF.s 			page 37


 1209              	.LVL16:
  89:application/cmd/robot_cmd.c ****     shoot_cmd_pub = PubRegister("shoot_cmd", sizeof(Shoot_Ctrl_Cmd_s));
 1210              		.loc 1 89 21 discriminator 1 view .LVU388
 1211 006e 204B     		ldr	r3, .L105+60
 1212 0070 1860     		str	r0, [r3]
  90:application/cmd/robot_cmd.c ****     shoot_feed_sub = SubRegister("shoot_feed", sizeof(Shoot_Upload_Data_s));
 1213              		.loc 1 90 5 is_stmt 1 view .LVU389
  90:application/cmd/robot_cmd.c ****     shoot_feed_sub = SubRegister("shoot_feed", sizeof(Shoot_Upload_Data_s));
 1214              		.loc 1 90 21 is_stmt 0 view .LVU390
 1215 0072 0A21     		movs	r1, #10
 1216 0074 1F48     		ldr	r0, .L105+64
 1217 0076 FFF7FEFF 		bl	PubRegister
 1218              	.LVL17:
  90:application/cmd/robot_cmd.c ****     shoot_feed_sub = SubRegister("shoot_feed", sizeof(Shoot_Upload_Data_s));
 1219              		.loc 1 90 19 discriminator 1 view .LVU391
 1220 007a 1F4B     		ldr	r3, .L105+68
 1221 007c 1860     		str	r0, [r3]
  91:application/cmd/robot_cmd.c **** 
 1222              		.loc 1 91 5 is_stmt 1 view .LVU392
  91:application/cmd/robot_cmd.c **** 
 1223              		.loc 1 91 22 is_stmt 0 view .LVU393
 1224 007e 2146     		mov	r1, r4
 1225 0080 1E48     		ldr	r0, .L105+72
 1226 0082 FFF7FEFF 		bl	SubRegister
 1227              	.LVL18:
  91:application/cmd/robot_cmd.c **** 
 1228              		.loc 1 91 20 discriminator 1 view .LVU394
 1229 0086 1E4B     		ldr	r3, .L105+76
 1230 0088 1860     		str	r0, [r3]
  94:application/cmd/robot_cmd.c ****     chassis_feed_sub = SubRegister("chassis_feed", sizeof(Chassis_Upload_Data_s));
 1231              		.loc 1 94 5 is_stmt 1 view .LVU395
  94:application/cmd/robot_cmd.c ****     chassis_feed_sub = SubRegister("chassis_feed", sizeof(Chassis_Upload_Data_s));
 1232              		.loc 1 94 23 is_stmt 0 view .LVU396
 1233 008a 1921     		movs	r1, #25
 1234 008c 1D48     		ldr	r0, .L105+80
 1235 008e FFF7FEFF 		bl	PubRegister
 1236              	.LVL19:
  94:application/cmd/robot_cmd.c ****     chassis_feed_sub = SubRegister("chassis_feed", sizeof(Chassis_Upload_Data_s));
 1237              		.loc 1 94 21 discriminator 1 view .LVU397
 1238 0092 1D4B     		ldr	r3, .L105+84
 1239 0094 1860     		str	r0, [r3]
  95:application/cmd/robot_cmd.c **** #endif // ONE_BOARD
 1240              		.loc 1 95 5 is_stmt 1 view .LVU398
  95:application/cmd/robot_cmd.c **** #endif // ONE_BOARD
 1241              		.loc 1 95 24 is_stmt 0 view .LVU399
 1242 0096 0E21     		movs	r1, #14
 1243 0098 1C48     		ldr	r0, .L105+88
 1244 009a FFF7FEFF 		bl	SubRegister
 1245              	.LVL20:
  95:application/cmd/robot_cmd.c **** #endif // ONE_BOARD
 1246              		.loc 1 95 22 discriminator 1 view .LVU400
 1247 009e 1C4B     		ldr	r3, .L105+92
 1248 00a0 1860     		str	r0, [r3]
 109:application/cmd/robot_cmd.c **** 
 1249              		.loc 1 109 5 is_stmt 1 view .LVU401
 109:application/cmd/robot_cmd.c **** 
 1250              		.loc 1 109 27 is_stmt 0 view .LVU402
ARM GAS  C:\Users\Administrator\AppData\Local\Temp\ccNqWoEF.s 			page 38


 1251 00a2 1C4B     		ldr	r3, .L105+96
 1252 00a4 0022     		movs	r2, #0
 1253 00a6 9A60     		str	r2, [r3, #8]	@ float
 111:application/cmd/robot_cmd.c **** }
 1254              		.loc 1 111 5 is_stmt 1 view .LVU403
 111:application/cmd/robot_cmd.c **** }
 1255              		.loc 1 111 17 is_stmt 0 view .LVU404
 1256 00a8 1B4B     		ldr	r3, .L105+100
 1257 00aa 0122     		movs	r2, #1
 1258 00ac 1A70     		strb	r2, [r3]
 112:application/cmd/robot_cmd.c **** 
 1259              		.loc 1 112 1 view .LVU405
 1260 00ae 04B0     		add	sp, sp, #16
 1261              	.LCFI6:
 1262              		.cfi_def_cfa_offset 8
 1263              		@ sp needed
 1264 00b0 10BD     		pop	{r4, pc}
 1265              	.L106:
 1266 00b2 00BF     		.align	2
 1267              	.L105:
 1268 00b4 00000000 		.word	robot_config
 1269 00b8 CDCCCC3E 		.word	1053609165
 1270 00bc 00000000 		.word	buzzer_alarm
 1271 00c0 00000000 		.word	.LANCHOR0
 1272 00c4 00000000 		.word	led_alarm
 1273 00c8 00000000 		.word	huart3
 1274 00cc 00000000 		.word	rc_data
 1275 00d0 00000000 		.word	huart1
 1276 00d4 00000000 		.word	vision_recv_data
 1277 00d8 00000000 		.word	ui_data
 1278 00dc 00000000 		.word	huart6
 1279 00e0 00000000 		.word	referee_data
 1280 00e4 00000000 		.word	.LC1
 1281 00e8 00000000 		.word	gimbal_cmd_pub
 1282 00ec 0C000000 		.word	.LC2
 1283 00f0 00000000 		.word	gimbal_feed_sub
 1284 00f4 18000000 		.word	.LC3
 1285 00f8 00000000 		.word	shoot_cmd_pub
 1286 00fc 24000000 		.word	.LC4
 1287 0100 00000000 		.word	shoot_feed_sub
 1288 0104 30000000 		.word	.LC5
 1289 0108 00000000 		.word	chassis_cmd_pub
 1290 010c 3C000000 		.word	.LC6
 1291 0110 00000000 		.word	chassis_feed_sub
 1292 0114 00000000 		.word	gimbal_cmd_send
 1293 0118 00000000 		.word	robot_state
 1294              		.cfi_endproc
 1295              	.LFE276:
 1297              		.section	.text.RobotCMDTask,"ax",%progbits
 1298              		.align	1
 1299              		.global	RobotCMDTask
 1300              		.syntax unified
 1301              		.thumb
 1302              		.thumb_func
 1304              	RobotCMDTask:
 1305              	.LFB284:
 639:application/cmd/robot_cmd.c **** 
ARM GAS  C:\Users\Administrator\AppData\Local\Temp\ccNqWoEF.s 			page 39


 640:application/cmd/robot_cmd.c **** /* µ£║ÕÖ©õ║║µĀĖÕ┐āµÄ¦ÕłČõ╗╗ÕŖĪ,200HzķóæńÄćĶ┐ÉĶĪī(Õ┐ģķĪ╗ķ½śõ║ÄĶ¦åĶ¦ēÕÅæķĆüķóæńÄć) */
 641:application/cmd/robot_cmd.c **** void RobotCMDTask()
 642:application/cmd/robot_cmd.c **** {
 1306              		.loc 1 642 1 is_stmt 1 view -0
 1307              		.cfi_startproc
 1308              		@ args = 0, pretend = 0, frame = 0
 1309              		@ frame_needed = 0, uses_anonymous_args = 0
 1310 0000 08B5     		push	{r3, lr}
 1311              	.LCFI7:
 1312              		.cfi_def_cfa_offset 8
 1313              		.cfi_offset 3, -8
 1314              		.cfi_offset 14, -4
 643:application/cmd/robot_cmd.c ****     // õ╗ÄÕģČõ╗¢Õ║öńö©ĶÄĘÕÅ¢Õø×õ╝ĀµĢ░µŹ«
 644:application/cmd/robot_cmd.c **** #ifdef ONE_BOARD
 645:application/cmd/robot_cmd.c ****     SubGetMessage(chassis_feed_sub, (void *)&chassis_fetch_data);
 1315              		.loc 1 645 5 view .LVU407
 1316 0002 2949     		ldr	r1, .L115
 1317 0004 294B     		ldr	r3, .L115+4
 1318 0006 1868     		ldr	r0, [r3]
 1319 0008 FFF7FEFF 		bl	SubGetMessage
 1320              	.LVL21:
 646:application/cmd/robot_cmd.c **** #endif // ONE_BOARD
 647:application/cmd/robot_cmd.c **** #ifdef GIMBAL_BOARD
 648:application/cmd/robot_cmd.c ****     chassis_fetch_data = *(Chassis_Upload_Data_s *)CANCommGet(cmd_can_comm);
 649:application/cmd/robot_cmd.c **** #endif // GIMBAL_BOARD
 650:application/cmd/robot_cmd.c ****     SubGetMessage(shoot_feed_sub, &shoot_fetch_data);
 1321              		.loc 1 650 5 view .LVU408
 1322 000c 2849     		ldr	r1, .L115+8
 1323 000e 294B     		ldr	r3, .L115+12
 1324 0010 1868     		ldr	r0, [r3]
 1325 0012 FFF7FEFF 		bl	SubGetMessage
 1326              	.LVL22:
 651:application/cmd/robot_cmd.c ****     SubGetMessage(gimbal_feed_sub, &gimbal_fetch_data);
 1327              		.loc 1 651 5 view .LVU409
 1328 0016 2849     		ldr	r1, .L115+16
 1329 0018 284B     		ldr	r3, .L115+20
 1330 001a 1868     		ldr	r0, [r3]
 1331 001c FFF7FEFF 		bl	SubGetMessage
 1332              	.LVL23:
 652:application/cmd/robot_cmd.c **** 
 653:application/cmd/robot_cmd.c ****     // µĀ╣µŹ«gimbalńÜäÕÅŹķ”łÕĆ╝Ķ«Īń«Śõ║æÕÅ░ÕÆīÕ║ĢńøśµŁŻµ¢╣ÕÉæńÜäÕż╣Ķ¦Æ,õĖŹķ£ĆĶ”üõ╝ĀÕÅé,ķĆÜĶ┐ćstatic
 654:application/cmd/robot_cmd.c ****     CalcOffsetAngle();
 1333              		.loc 1 654 5 view .LVU410
 1334 0020 FFF7FEFF 		bl	CalcOffsetAngle
 1335              	.LVL24:
 655:application/cmd/robot_cmd.c **** 
 656:application/cmd/robot_cmd.c ****     // Bķö«Õ╝ĆÕģ│ķüźµÄ¦ÕÖ©
 657:application/cmd/robot_cmd.c ****     switch (rc_data[TEMP].key_count[KEY_PRESS][Key_B] % 2) 
 1336              		.loc 1 657 5 view .LVU411
 1337              		.loc 1 657 20 is_stmt 0 view .LVU412
 1338 0024 264B     		ldr	r3, .L115+24
 1339 0026 1B68     		ldr	r3, [r3]
 1340              		.loc 1 657 47 view .LVU413
 1341 0028 93F82730 		ldrb	r3, [r3, #39]	@ zero_extendqisi2
 1342              		.loc 1 657 5 view .LVU414
 1343 002c 13F00103 		ands	r3, r3, #1
 1344 0030 03D0     		beq	.L108
ARM GAS  C:\Users\Administrator\AppData\Local\Temp\ccNqWoEF.s 			page 40


 1345 0032 13BB     		cbnz	r3, .L109
 658:application/cmd/robot_cmd.c ****     {
 659:application/cmd/robot_cmd.c ****     case 0:
 660:application/cmd/robot_cmd.c ****         RemoteControlSet();
 661:application/cmd/robot_cmd.c ****         rc_data[TEMP].key_count[KEY_PRESS][Key_G] = 0;  // ÕłØÕ¦ŗÕī¢ķö«ńøśµÄ¦ÕłČ
 662:application/cmd/robot_cmd.c ****         rc_data[TEMP].key_count[KEY_PRESS][Key_F] = 0;  
 663:application/cmd/robot_cmd.c ****         ui_data.Referee_Interactive_Flag.refresh_flag = 0;
 664:application/cmd/robot_cmd.c ****         break;    
 665:application/cmd/robot_cmd.c ****     case 1:
 666:application/cmd/robot_cmd.c ****         MouseKeySet();
 667:application/cmd/robot_cmd.c ****         if (!ui_data.Referee_Interactive_Flag.refresh_flag)
 668:application/cmd/robot_cmd.c ****             ui_data.Referee_Interactive_Flag.refresh_flag = 1; // UIńĢīķØóÕłĘµ¢░
 669:application/cmd/robot_cmd.c **** 
 670:application/cmd/robot_cmd.c ****         if (rc_data[TEMP].rc.dial < -400)
 671:application/cmd/robot_cmd.c ****             rc_data[TEMP].key_count[KEY_PRESS][Key_B] = 0;     // õĖŖµŗ©ÕłćµŹóÕø×ķüźµÄ¦ÕÖ©µÄ¦ÕłČ
 672:application/cmd/robot_cmd.c ****         break;            
 673:application/cmd/robot_cmd.c ****     default:
 674:application/cmd/robot_cmd.c ****         RemoteControlSet();
 1346              		.loc 1 674 9 is_stmt 1 view .LVU415
 1347 0034 FFF7FEFF 		bl	RemoteControlSet
 1348              	.LVL25:
 675:application/cmd/robot_cmd.c ****         break;
 1349              		.loc 1 675 9 view .LVU416
 1350 0038 0DE0     		b	.L111
 1351              	.L108:
 660:application/cmd/robot_cmd.c ****         rc_data[TEMP].key_count[KEY_PRESS][Key_G] = 0;  // ÕłØÕ¦ŗÕī¢ķö«ńøśµÄ¦ÕłČ
 1352              		.loc 1 660 9 view .LVU417
 1353 003a FFF7FEFF 		bl	RemoteControlSet
 1354              	.LVL26:
 661:application/cmd/robot_cmd.c ****         rc_data[TEMP].key_count[KEY_PRESS][Key_F] = 0;  
 1355              		.loc 1 661 9 view .LVU418
 661:application/cmd/robot_cmd.c ****         rc_data[TEMP].key_count[KEY_PRESS][Key_F] = 0;  
 1356              		.loc 1 661 16 is_stmt 0 view .LVU419
 1357 003e 204B     		ldr	r3, .L115+24
 1358 0040 1B68     		ldr	r3, [r3]
 661:application/cmd/robot_cmd.c ****         rc_data[TEMP].key_count[KEY_PRESS][Key_F] = 0;  
 1359              		.loc 1 661 51 view .LVU420
 1360 0042 0022     		movs	r2, #0
 1361 0044 83F82220 		strb	r2, [r3, #34]
 662:application/cmd/robot_cmd.c ****         ui_data.Referee_Interactive_Flag.refresh_flag = 0;
 1362              		.loc 1 662 9 is_stmt 1 view .LVU421
 662:application/cmd/robot_cmd.c ****         ui_data.Referee_Interactive_Flag.refresh_flag = 0;
 1363              		.loc 1 662 51 is_stmt 0 view .LVU422
 1364 0048 83F82120 		strb	r2, [r3, #33]
 663:application/cmd/robot_cmd.c ****         break;    
 1365              		.loc 1 663 9 is_stmt 1 view .LVU423
 663:application/cmd/robot_cmd.c ****         break;    
 1366              		.loc 1 663 55 is_stmt 0 view .LVU424
 1367 004c 1D4A     		ldr	r2, .L115+28
 1368 004e 1378     		ldrb	r3, [r2]	@ zero_extendqisi2
 1369 0050 23F0C003 		bic	r3, r3, #192
 1370 0054 1370     		strb	r3, [r2]
 664:application/cmd/robot_cmd.c ****     case 1:
 1371              		.loc 1 664 9 is_stmt 1 view .LVU425
 1372              	.L111:
 676:application/cmd/robot_cmd.c ****     }
 677:application/cmd/robot_cmd.c **** 
ARM GAS  C:\Users\Administrator\AppData\Local\Temp\ccNqWoEF.s 			page 41


 678:application/cmd/robot_cmd.c ****     // EmergencyHandler(); // ÕżäńÉåµ©ĪÕØŚń”╗ń║┐ÕÆīķüźµÄ¦ÕÖ©µĆźÕü£ńŁēń┤¦µĆźµāģÕåĄ
 679:application/cmd/robot_cmd.c **** 
 680:application/cmd/robot_cmd.c ****     RefereeHandler();       // ĶŻüÕłżń│╗ń╗¤ÕÅŹķ”ł
 1373              		.loc 1 680 5 view .LVU426
 1374 0056 FFF7FEFF 		bl	RefereeHandler
 1375              	.LVL27:
 681:application/cmd/robot_cmd.c **** 
 682:application/cmd/robot_cmd.c ****     // µÄ©ķĆüµČłµü»,ÕÅīµØ┐ķĆÜõ┐Ī,Ķ¦åĶ¦ēķĆÜõ┐ĪńŁē
 683:application/cmd/robot_cmd.c ****     // ÕģČõ╗¢Õ║öńö©µēĆķ£ĆńÜäµÄ¦ÕłČµĢ░µŹ«Õ£©remotecontrolsetmodeÕÆīmousekeysetmodeõĖŁÕ«īµłÉĶ«ŠńĮ«
 684:application/cmd/robot_cmd.c **** #ifdef ONE_BOARD
 685:application/cmd/robot_cmd.c ****     PubPushMessage(chassis_cmd_pub, (void *)&chassis_cmd_send);
 1376              		.loc 1 685 5 view .LVU427
 1377 005a 1B49     		ldr	r1, .L115+32
 1378 005c 1B4B     		ldr	r3, .L115+36
 1379 005e 1868     		ldr	r0, [r3]
 1380 0060 FFF7FEFF 		bl	PubPushMessage
 1381              	.LVL28:
 686:application/cmd/robot_cmd.c **** #endif // ONE_BOARD
 687:application/cmd/robot_cmd.c **** #ifdef GIMBAL_BOARD
 688:application/cmd/robot_cmd.c ****     CANCommSend(cmd_can_comm, (void *)&chassis_cmd_send);
 689:application/cmd/robot_cmd.c **** #endif // GIMBAL_BOARD
 690:application/cmd/robot_cmd.c ****     PubPushMessage(shoot_cmd_pub, (void *)&shoot_cmd_send);
 1382              		.loc 1 690 5 view .LVU428
 1383 0064 1A49     		ldr	r1, .L115+40
 1384 0066 1B4B     		ldr	r3, .L115+44
 1385 0068 1868     		ldr	r0, [r3]
 1386 006a FFF7FEFF 		bl	PubPushMessage
 1387              	.LVL29:
 691:application/cmd/robot_cmd.c ****     PubPushMessage(gimbal_cmd_pub, (void *)&gimbal_cmd_send);
 1388              		.loc 1 691 5 view .LVU429
 1389 006e 1A49     		ldr	r1, .L115+48
 1390 0070 1A4B     		ldr	r3, .L115+52
 1391 0072 1868     		ldr	r0, [r3]
 1392 0074 FFF7FEFF 		bl	PubPushMessage
 1393              	.LVL30:
 692:application/cmd/robot_cmd.c **** }
 1394              		.loc 1 692 1 is_stmt 0 view .LVU430
 1395 0078 08BD     		pop	{r3, pc}
 1396              	.L109:
 666:application/cmd/robot_cmd.c ****         if (!ui_data.Referee_Interactive_Flag.refresh_flag)
 1397              		.loc 1 666 9 is_stmt 1 view .LVU431
 1398 007a FFF7FEFF 		bl	MouseKeySet
 1399              	.LVL31:
 667:application/cmd/robot_cmd.c ****             ui_data.Referee_Interactive_Flag.refresh_flag = 1; // UIńĢīķØóÕłĘµ¢░
 1400              		.loc 1 667 9 view .LVU432
 667:application/cmd/robot_cmd.c ****             ui_data.Referee_Interactive_Flag.refresh_flag = 1; // UIńĢīķØóÕłĘµ¢░
 1401              		.loc 1 667 13 is_stmt 0 view .LVU433
 1402 007e 114B     		ldr	r3, .L115+28
 1403 0080 1B78     		ldrb	r3, [r3]	@ zero_extendqisi2
 667:application/cmd/robot_cmd.c ****             ui_data.Referee_Interactive_Flag.refresh_flag = 1; // UIńĢīķØóÕłĘµ¢░
 1404              		.loc 1 667 12 view .LVU434
 1405 0082 3F2B     		cmp	r3, #63
 1406 0084 05D8     		bhi	.L112
 668:application/cmd/robot_cmd.c **** 
 1407              		.loc 1 668 13 is_stmt 1 view .LVU435
 668:application/cmd/robot_cmd.c **** 
 1408              		.loc 1 668 59 is_stmt 0 view .LVU436
ARM GAS  C:\Users\Administrator\AppData\Local\Temp\ccNqWoEF.s 			page 42


 1409 0086 0F4B     		ldr	r3, .L115+28
 1410 0088 1A78     		ldrb	r2, [r3]	@ zero_extendqisi2
 1411 008a 0121     		movs	r1, #1
 1412 008c 61F38712 		bfi	r2, r1, #6, #2
 1413 0090 1A70     		strb	r2, [r3]
 1414              	.L112:
 670:application/cmd/robot_cmd.c ****             rc_data[TEMP].key_count[KEY_PRESS][Key_B] = 0;     // õĖŖµŗ©ÕłćµŹóÕø×ķüźµÄ¦ÕÖ©µÄ¦ÕłČ
 1415              		.loc 1 670 9 is_stmt 1 view .LVU437
 670:application/cmd/robot_cmd.c ****             rc_data[TEMP].key_count[KEY_PRESS][Key_B] = 0;     // õĖŖµŗ©ÕłćµŹóÕø×ķüźµÄ¦ÕÖ©µÄ¦ÕłČ
 1416              		.loc 1 670 20 is_stmt 0 view .LVU438
 1417 0092 0B4B     		ldr	r3, .L115+24
 1418 0094 1B68     		ldr	r3, [r3]
 670:application/cmd/robot_cmd.c ****             rc_data[TEMP].key_count[KEY_PRESS][Key_B] = 0;     // õĖŖµŗ©ÕłćµŹóÕø×ķüźµÄ¦ÕÖ©µÄ¦ÕłČ
 1419              		.loc 1 670 29 view .LVU439
 1420 0096 B3F90820 		ldrsh	r2, [r3, #8]
 670:application/cmd/robot_cmd.c ****             rc_data[TEMP].key_count[KEY_PRESS][Key_B] = 0;     // õĖŖµŗ©ÕłćµŹóÕø×ķüźµÄ¦ÕÖ©µÄ¦ÕłČ
 1421              		.loc 1 670 12 view .LVU440
 1422 009a 12F5C87F 		cmn	r2, #400
 1423 009e DADA     		bge	.L111
 671:application/cmd/robot_cmd.c ****         break;            
 1424              		.loc 1 671 13 is_stmt 1 view .LVU441
 671:application/cmd/robot_cmd.c ****         break;            
 1425              		.loc 1 671 55 is_stmt 0 view .LVU442
 1426 00a0 0022     		movs	r2, #0
 1427 00a2 83F82720 		strb	r2, [r3, #39]
 1428 00a6 D6E7     		b	.L111
 1429              	.L116:
 1430              		.align	2
 1431              	.L115:
 1432 00a8 00000000 		.word	chassis_fetch_data
 1433 00ac 00000000 		.word	chassis_feed_sub
 1434 00b0 00000000 		.word	shoot_fetch_data
 1435 00b4 00000000 		.word	shoot_feed_sub
 1436 00b8 00000000 		.word	gimbal_fetch_data
 1437 00bc 00000000 		.word	gimbal_feed_sub
 1438 00c0 00000000 		.word	rc_data
 1439 00c4 00000000 		.word	ui_data
 1440 00c8 00000000 		.word	chassis_cmd_send
 1441 00cc 00000000 		.word	chassis_cmd_pub
 1442 00d0 00000000 		.word	shoot_cmd_send
 1443 00d4 00000000 		.word	shoot_cmd_pub
 1444 00d8 00000000 		.word	gimbal_cmd_send
 1445 00dc 00000000 		.word	gimbal_cmd_pub
 1446              		.cfi_endproc
 1447              	.LFE284:
 1449              		.section	.bss.last_shoot_mode.0,"aw",%nobits
 1452              	last_shoot_mode.0:
 1453 0000 00       		.space	1
 1454              		.section	.bss.add_pitch.1,"aw",%nobits
 1455              		.align	2
 1458              	add_pitch.1:
 1459 0000 00000000 		.space	4
 1460              		.section	.bss.add_yaw.2,"aw",%nobits
 1461              		.align	2
 1464              	add_yaw.2:
 1465 0000 00000000 		.space	4
 1466              		.section	.bss.add_pitch.3,"aw",%nobits
ARM GAS  C:\Users\Administrator\AppData\Local\Temp\ccNqWoEF.s 			page 43


 1467              		.align	2
 1470              	add_pitch.3:
 1471 0000 00000000 		.space	4
 1472              		.section	.bss.add_yaw.4,"aw",%nobits
 1473              		.align	2
 1476              	add_yaw.4:
 1477 0000 00000000 		.space	4
 1478              		.section	.bss.angle.5,"aw",%nobits
 1479              		.align	2
 1482              	angle.5:
 1483 0000 00000000 		.space	4
 1484              		.global	led_alarm
 1485              		.section	.bss.led_alarm,"aw",%nobits
 1486              		.align	2
 1489              	led_alarm:
 1490 0000 00000000 		.space	4
 1491              		.global	buzzer_alarm
 1492              		.section	.bss.buzzer_alarm,"aw",%nobits
 1493              		.align	2
 1496              	buzzer_alarm:
 1497 0000 00000000 		.space	4
 1498              		.section	.bss.robot_state,"aw",%nobits
 1501              	robot_state:
 1502 0000 00       		.space	1
 1503              		.section	.bss.ui_data,"aw",%nobits
 1504              		.align	2
 1507              	ui_data:
 1508 0000 00000000 		.space	28
 1508      00000000 
 1508      00000000 
 1508      00000000 
 1508      00000000 
 1509              		.section	.bss.referee_data,"aw",%nobits
 1510              		.align	2
 1513              	referee_data:
 1514 0000 00000000 		.space	4
 1515              		.section	.bss.shoot_fetch_data,"aw",%nobits
 1516              		.align	2
 1519              	shoot_fetch_data:
 1520              		.section	.bss.shoot_cmd_send,"aw",%nobits
 1521              		.align	2
 1524              	shoot_cmd_send:
 1525 0000 00000000 		.space	10
 1525      00000000 
 1525      0000
 1526              		.section	.bss.shoot_feed_sub,"aw",%nobits
 1527              		.align	2
 1530              	shoot_feed_sub:
 1531 0000 00000000 		.space	4
 1532              		.section	.bss.shoot_cmd_pub,"aw",%nobits
 1533              		.align	2
 1536              	shoot_cmd_pub:
 1537 0000 00000000 		.space	4
 1538              		.section	.bss.gimbal_fetch_data,"aw",%nobits
 1539              		.align	2
 1542              	gimbal_fetch_data:
 1543 0000 00000000 		.space	44
ARM GAS  C:\Users\Administrator\AppData\Local\Temp\ccNqWoEF.s 			page 44


 1543      00000000 
 1543      00000000 
 1543      00000000 
 1543      00000000 
 1544              		.section	.bss.gimbal_cmd_send,"aw",%nobits
 1545              		.align	2
 1548              	gimbal_cmd_send:
 1549 0000 00000000 		.space	18
 1549      00000000 
 1549      00000000 
 1549      00000000 
 1549      0000
 1550              		.section	.bss.gimbal_feed_sub,"aw",%nobits
 1551              		.align	2
 1554              	gimbal_feed_sub:
 1555 0000 00000000 		.space	4
 1556              		.section	.bss.gimbal_cmd_pub,"aw",%nobits
 1557              		.align	2
 1560              	gimbal_cmd_pub:
 1561 0000 00000000 		.space	4
 1562              		.section	.bss.vision_recv_data,"aw",%nobits
 1563              		.align	2
 1566              	vision_recv_data:
 1567 0000 00000000 		.space	4
 1568              		.section	.bss.rc_data,"aw",%nobits
 1569              		.align	2
 1572              	rc_data:
 1573 0000 00000000 		.space	4
 1574              		.section	.bss.chassis_fetch_data,"aw",%nobits
 1575              		.align	2
 1578              	chassis_fetch_data:
 1579 0000 00000000 		.space	14
 1579      00000000 
 1579      00000000 
 1579      0000
 1580              		.section	.bss.chassis_cmd_send,"aw",%nobits
 1581              		.align	2
 1584              	chassis_cmd_send:
 1585 0000 00000000 		.space	25
 1585      00000000 
 1585      00000000 
 1585      00000000 
 1585      00000000 
 1586              		.section	.bss.chassis_feed_sub,"aw",%nobits
 1587              		.align	2
 1590              	chassis_feed_sub:
 1591 0000 00000000 		.space	4
 1592              		.section	.bss.chassis_cmd_pub,"aw",%nobits
 1593              		.align	2
 1596              	chassis_cmd_pub:
 1597 0000 00000000 		.space	4
 1598              		.section	.bss.robot_config,"aw",%nobits
 1599              		.align	2
 1602              	robot_config:
 1603 0000 00000000 		.space	4
 1604              		.section	.rodata
 1605              		.align	2
ARM GAS  C:\Users\Administrator\AppData\Local\Temp\ccNqWoEF.s 			page 45


 1606              		.set	.LANCHOR0,. + 0
 1607              	.LC0:
 1608 0000 02       		.byte	2
 1609 0001 04       		.byte	4
 1610 0002 00       		.byte	0
 1611              		.text
 1612              	.Letext0:
 1613              		.file 2 "C:/Users/Administrator/AppData/Roaming/Code/User/globalStorage/bmd.stm32-for-vscode/@xpac
 1614              		.file 3 "C:/Users/Administrator/AppData/Roaming/Code/User/globalStorage/bmd.stm32-for-vscode/@xpac
 1615              		.file 4 "Drivers/CMSIS/Device/ST/STM32F4xx/Include/stm32f407xx.h"
 1616              		.file 5 "Drivers/CMSIS/Device/ST/STM32F4xx/Include/stm32f4xx.h"
 1617              		.file 6 "Drivers/STM32F4xx_HAL_Driver/Inc/stm32f4xx_hal_def.h"
 1618              		.file 7 "Drivers/STM32F4xx_HAL_Driver/Inc/stm32f4xx_hal_dma.h"
 1619              		.file 8 "Drivers/STM32F4xx_HAL_Driver/Inc/stm32f4xx_hal_can.h"
 1620              		.file 9 "Drivers/STM32F4xx_HAL_Driver/Inc/stm32f4xx_hal_uart.h"
 1621              		.file 10 "modules/imu/ins_task.h"
 1622              		.file 11 "modules/master_machine/master_process.h"
 1623              		.file 12 "bsp/can/bsp_can.h"
 1624              		.file 13 "modules/algorithm/controller.h"
 1625              		.file 14 "modules/motor/motor_def.h"
 1626              		.file 15 "application/config/config.h"
 1627              		.file 16 "application/robot_def.h"
 1628              		.file 17 "Inc/usart.h"
 1629              		.file 18 "modules/remote/remote_control.h"
 1630              		.file 19 "modules/referee/referee_protocol.h"
 1631              		.file 20 "modules/referee/rm_referee.h"
 1632              		.file 21 "modules/message_center/message_center.h"
 1633              		.file 22 "modules/alarm/alarm_def.h"
 1634              		.file 23 "modules/alarm/buzzer/buzzer.h"
 1635              		.file 24 "modules/alarm/led/led.h"
 1636              		.file 25 "modules/referee/referee_task.h"
ARM GAS  C:\Users\Administrator\AppData\Local\Temp\ccNqWoEF.s 			page 46

