ARM GAS  C:\Users\Administrator\AppData\Local\Temp\ccHxBunt.s 			page 1


   1              		.cpu cortex-m4
   2              		.arch armv7e-m
   3              		.fpu fpv4-sp-d16
   4              		.eabi_attribute 27, 1
   5              		.eabi_attribute 28, 1
   6              		.eabi_attribute 20, 1
   7              		.eabi_attribute 21, 1
   8              		.eabi_attribute 23, 3
   9              		.eabi_attribute 24, 1
  10              		.eabi_attribute 25, 1
  11              		.eabi_attribute 26, 1
  12              		.eabi_attribute 30, 1
  13              		.eabi_attribute 34, 1
  14              		.eabi_attribute 18, 4
  15              		.file	"robot_cmd.c"
  16              		.text
  17              	.Ltext0:
  18              		.cfi_sections	.debug_frame
  19              		.file 1 "application/cmd/robot_cmd.c"
  20              		.section	.text.CalcOffsetAngle,"ax",%progbits
  21              		.align	1
  22              		.syntax unified
  23              		.thumb
  24              		.thumb_func
  26              	CalcOffsetAngle:
  27              	.LFB277:
   1:application/cmd/robot_cmd.c **** // app
   2:application/cmd/robot_cmd.c **** #include "robot_def.h"
   3:application/cmd/robot_cmd.c **** #include "robot_cmd.h"
   4:application/cmd/robot_cmd.c **** // module
   5:application/cmd/robot_cmd.c **** #include "remote_control.h"
   6:application/cmd/robot_cmd.c **** #include "ins_task.h"
   7:application/cmd/robot_cmd.c **** #include "referee_task.h"
   8:application/cmd/robot_cmd.c **** #include "referee_UI.h"
   9:application/cmd/robot_cmd.c **** #include "master_process.h"
  10:application/cmd/robot_cmd.c **** #include "message_center.h"
  11:application/cmd/robot_cmd.c **** #include "general_def.h"
  12:application/cmd/robot_cmd.c **** #include "dji_motor.h"
  13:application/cmd/robot_cmd.c **** #include "bmi088.h"
  14:application/cmd/robot_cmd.c **** #include "buzzer.h"
  15:application/cmd/robot_cmd.c **** #include "led.h"
  16:application/cmd/robot_cmd.c **** #include "user_lib.h"
  17:application/cmd/robot_cmd.c **** // bsp
  18:application/cmd/robot_cmd.c **** #include "bsp_dwt.h"
  19:application/cmd/robot_cmd.c **** #include "bsp_log.h"
  20:application/cmd/robot_cmd.c **** 
  21:application/cmd/robot_cmd.c **** /* µĀ╣µŹ«remote_control.hõĖŁńÜäķĆÜķüōÕĆ╝Ķć¬ÕŖ©Ķ«Īń«ŚńÜäÕÅéµĢ░ */
  22:application/cmd/robot_cmd.c **** #define HALF_RC_CH_MAX ((RC_CH_VALUE_MAX - RC_CH_VALUE_MIN) / 2.0f)
  23:application/cmd/robot_cmd.c **** #define RAD_TO_DEG 57.295779513f
  24:application/cmd/robot_cmd.c **** #define DEG_TO_RAD (1.0f / 57.295779513f)
  25:application/cmd/robot_cmd.c **** #define YAW_GEAR_RATIO 1.25f  // yawĶĮ┤ńÜ«ÕĖ”õ╝ĀÕŖ©µ»ö 1:1.25
  26:application/cmd/robot_cmd.c **** #define PITCH_ZERO_OFFSET 0.0f  // pitchĶĮ┤ķøČńé╣ÕüÅń¦╗’╝īĶ░āµĢ┤µŁżÕĆ╝õĮ┐õĖŖõĮŹµ£║ÕÅæķĆü0µŚČõ║æÕÅ░µ
  27:application/cmd/robot_cmd.c **** 
  28:application/cmd/robot_cmd.c **** /* cmdÕ║öńö©ÕīģÕÉ½ńÜäµ©ĪÕØŚÕ«×õŠŗµīćķÆłÕÆīõ║żõ║Æõ┐Īµü»ÕŁśÕé©*/
  29:application/cmd/robot_cmd.c **** static Robot_Config_s *robot_config;
  30:application/cmd/robot_cmd.c **** 
  31:application/cmd/robot_cmd.c **** #ifdef GIMBAL_BOARD // Õ»╣ÕÅīµØ┐ńÜäÕģ╝Õ«╣,µØĪõ╗Čń╝¢Ķ»æ
ARM GAS  C:\Users\Administrator\AppData\Local\Temp\ccHxBunt.s 			page 2


  32:application/cmd/robot_cmd.c **** #include "can_comm.h"
  33:application/cmd/robot_cmd.c **** static CANCommInstance *cmd_can_comm; // ÕÅīµØ┐ķĆÜõ┐Ī
  34:application/cmd/robot_cmd.c **** #endif
  35:application/cmd/robot_cmd.c **** #ifdef ONE_BOARD
  36:application/cmd/robot_cmd.c **** static Publisher_t *chassis_cmd_pub;   // Õ║ĢńøśµÄ¦ÕłČµČłµü»ÕÅæÕĖāĶĆģ
  37:application/cmd/robot_cmd.c **** static Subscriber_t *chassis_feed_sub; // Õ║ĢńøśÕÅŹķ”łõ┐Īµü»Ķ«óķśģĶĆģ
  38:application/cmd/robot_cmd.c **** #endif                                 // ONE_BOARD
  39:application/cmd/robot_cmd.c **** 
  40:application/cmd/robot_cmd.c **** static Chassis_Ctrl_Cmd_s chassis_cmd_send;      // ÕÅæķĆüń╗ÖÕ║ĢńøśÕ║öńö©ńÜäõ┐Īµü»,Õīģµŗ¼µÄ¦ÕłČõ┐Īµ
  41:application/cmd/robot_cmd.c **** static Chassis_Upload_Data_s chassis_fetch_data; // õ╗ÄÕ║ĢńøśÕ║öńö©µÄźµöČńÜäÕÅŹķ”łõ┐Īµü»õ┐Īµü»,Õ║Ģń
  42:application/cmd/robot_cmd.c **** 
  43:application/cmd/robot_cmd.c **** static RC_ctrl_t *rc_data;              // ķüźµÄ¦ÕÖ©µĢ░µŹ«,ÕłØÕ¦ŗÕī¢µŚČĶ┐öÕø×
  44:application/cmd/robot_cmd.c **** static Vision_Recv_s *vision_recv_data; // Ķ¦åĶ¦ēµÄźµöČµĢ░µŹ«µīćķÆł,ÕłØÕ¦ŗÕī¢µŚČĶ┐öÕø×
  45:application/cmd/robot_cmd.c **** static Vision_Send_s vision_send_data;  // Ķ¦åĶ¦ēÕÅæķĆüµĢ░µŹ«
  46:application/cmd/robot_cmd.c **** 
  47:application/cmd/robot_cmd.c **** static Publisher_t *gimbal_cmd_pub;            // õ║æÕÅ░µÄ¦ÕłČµČłµü»ÕÅæÕĖāĶĆģ
  48:application/cmd/robot_cmd.c **** static Subscriber_t *gimbal_feed_sub;          // õ║æÕÅ░ÕÅŹķ”łõ┐Īµü»Ķ«óķśģĶĆģ
  49:application/cmd/robot_cmd.c **** static Gimbal_Ctrl_Cmd_s gimbal_cmd_send;      // õ╝ĀķĆÆń╗Öõ║æÕÅ░ńÜäµÄ¦ÕłČõ┐Īµü»
  50:application/cmd/robot_cmd.c **** static Gimbal_Upload_Data_s gimbal_fetch_data; // õ╗Äõ║æÕÅ░ĶÄĘÕÅ¢ńÜäÕÅŹķ”łõ┐Īµü»
  51:application/cmd/robot_cmd.c **** 
  52:application/cmd/robot_cmd.c **** static Publisher_t *shoot_cmd_pub;           // ÕÅæÕ░äµÄ¦ÕłČµČłµü»ÕÅæÕĖāĶĆģ
  53:application/cmd/robot_cmd.c **** static Subscriber_t *shoot_feed_sub;         // ÕÅæÕ░äÕÅŹķ”łõ┐Īµü»Ķ«óķśģĶĆģ
  54:application/cmd/robot_cmd.c **** static Shoot_Ctrl_Cmd_s shoot_cmd_send;      // õ╝ĀķĆÆń╗ÖÕÅæÕ░äńÜäµÄ¦ÕłČõ┐Īµü»
  55:application/cmd/robot_cmd.c **** static Shoot_Upload_Data_s shoot_fetch_data; // õ╗ÄÕÅæÕ░äĶÄĘÕÅ¢ńÜäÕÅŹķ”łõ┐Īµü»
  56:application/cmd/robot_cmd.c **** 
  57:application/cmd/robot_cmd.c **** static referee_info_t* referee_data; // ńö©õ║ÄĶÄĘÕÅ¢ĶŻüÕłżń│╗ń╗¤ńÜäµĢ░µŹ« 
  58:application/cmd/robot_cmd.c **** static Referee_Interactive_info_t ui_data; // UIµĢ░µŹ«’╝īÕ░åÕ║ĢńøśõĖŁńÜäµĢ░µŹ«õ╝ĀÕģźµŁżń╗ōµ×äõĮōńÜä
  59:application/cmd/robot_cmd.c **** 
  60:application/cmd/robot_cmd.c **** static Robot_Status_e robot_state; // µ£║ÕÖ©õ║║µĢ┤õĮōÕĘźõĮ£ńŖČµĆü
  61:application/cmd/robot_cmd.c **** 
  62:application/cmd/robot_cmd.c **** BuzzzerInstance *buzzer_alarm;
  63:application/cmd/robot_cmd.c **** LEDInstance *led_alarm;
  64:application/cmd/robot_cmd.c **** 
  65:application/cmd/robot_cmd.c **** void RobotCMDInit()
  66:application/cmd/robot_cmd.c **** {
  67:application/cmd/robot_cmd.c ****     robot_config = RobotConfigInit(SENTINEL_ROBOT);
  68:application/cmd/robot_cmd.c **** 
  69:application/cmd/robot_cmd.c ****     Buzzer_config_s buzzer_config ={
  70:application/cmd/robot_cmd.c ****             .alarm_level = ALARM_LEVEL_HIGH, //Ķ«ŠńĮ«ĶŁ”µŖźńŁēń║¦ ÕÉīõĖĆńŖČµĆüõĖŗ ķ½śńŁēń║¦ńÜäÕōŹÕ║
  71:application/cmd/robot_cmd.c ****             .loudness=  0.4, //Ķ«ŠńĮ«ÕōŹÕ║”
  72:application/cmd/robot_cmd.c ****             .octave=  OCTAVE_1, // Ķ«ŠńĮ«ķ¤│ķśČ
  73:application/cmd/robot_cmd.c ****         };
  74:application/cmd/robot_cmd.c ****     buzzer_alarm = BuzzerRegister(&buzzer_config);    
  75:application/cmd/robot_cmd.c **** 
  76:application/cmd/robot_cmd.c ****     LED_config_s LED_config ={
  77:application/cmd/robot_cmd.c ****             .color = PINK,
  78:application/cmd/robot_cmd.c ****             .flash = ALWAYS_ON,
  79:application/cmd/robot_cmd.c ****             .flash_count = 0,
  80:application/cmd/robot_cmd.c ****         };
  81:application/cmd/robot_cmd.c ****     led_alarm = LEDRegister(&LED_config);
  82:application/cmd/robot_cmd.c **** 
  83:application/cmd/robot_cmd.c ****     rc_data = RemoteControlInit(&huart3);   // õ┐«µö╣õĖ║Õ»╣Õ║öõĖ▓ÕÅŻ,µ│©µäÅÕ”éµ×£µś»Ķć¬ńĀöµØ┐dbusÕŹ
  84:application/cmd/robot_cmd.c ****     vision_recv_data = VisionInit(&huart1); // Ķ¦åĶ¦ēķĆÜõ┐ĪõĖ▓ÕÅŻ
  85:application/cmd/robot_cmd.c **** 
  86:application/cmd/robot_cmd.c ****     referee_data = UITaskInit(&huart6,&ui_data); // ĶŻüÕłżń│╗ń╗¤ÕłØÕ¦ŗÕī¢,õ╝ÜÕÉīµŚČÕłØÕ¦ŗÕī¢UI 
  87:application/cmd/robot_cmd.c **** 
  88:application/cmd/robot_cmd.c ****     gimbal_cmd_pub = PubRegister("gimbal_cmd", sizeof(Gimbal_Ctrl_Cmd_s));
ARM GAS  C:\Users\Administrator\AppData\Local\Temp\ccHxBunt.s 			page 3


  89:application/cmd/robot_cmd.c ****     gimbal_feed_sub = SubRegister("gimbal_feed", sizeof(Gimbal_Upload_Data_s));
  90:application/cmd/robot_cmd.c ****     shoot_cmd_pub = PubRegister("shoot_cmd", sizeof(Shoot_Ctrl_Cmd_s));
  91:application/cmd/robot_cmd.c ****     shoot_feed_sub = SubRegister("shoot_feed", sizeof(Shoot_Upload_Data_s));
  92:application/cmd/robot_cmd.c **** 
  93:application/cmd/robot_cmd.c **** #ifdef ONE_BOARD // ÕÅīµØ┐Õģ╝Õ«╣
  94:application/cmd/robot_cmd.c ****     chassis_cmd_pub = PubRegister("chassis_cmd", sizeof(Chassis_Ctrl_Cmd_s));
  95:application/cmd/robot_cmd.c ****     chassis_feed_sub = SubRegister("chassis_feed", sizeof(Chassis_Upload_Data_s));
  96:application/cmd/robot_cmd.c **** #endif // ONE_BOARD
  97:application/cmd/robot_cmd.c **** #ifdef GIMBAL_BOARD
  98:application/cmd/robot_cmd.c ****     CANComm_Init_Config_s comm_conf = {
  99:application/cmd/robot_cmd.c ****         .can_config = {
 100:application/cmd/robot_cmd.c ****             .can_handle = &hcan1,
 101:application/cmd/robot_cmd.c ****             .tx_id = 0x312,
 102:application/cmd/robot_cmd.c ****             .rx_id = 0x311,
 103:application/cmd/robot_cmd.c ****         },
 104:application/cmd/robot_cmd.c ****         .recv_data_len = sizeof(Chassis_Upload_Data_s),
 105:application/cmd/robot_cmd.c ****         .send_data_len = sizeof(Chassis_Ctrl_Cmd_s),
 106:application/cmd/robot_cmd.c ****     };
 107:application/cmd/robot_cmd.c ****     cmd_can_comm = CANCommInit(&comm_conf);
 108:application/cmd/robot_cmd.c **** #endif // GIMBAL_BOARD
 109:application/cmd/robot_cmd.c ****     gimbal_cmd_send.pitch = 0;
 110:application/cmd/robot_cmd.c **** 
 111:application/cmd/robot_cmd.c ****     robot_state = ROBOT_READY; // ÕÉ»ÕŖ©µŚČµ£║ÕÖ©õ║║Ķ┐øÕģźÕĘźõĮ£µ©ĪÕ╝Å,ÕÉÄń╗ŁÕŖĀÕģźµēĆµ£ēÕ║öńö©ÕłØÕ
 112:application/cmd/robot_cmd.c **** }
 113:application/cmd/robot_cmd.c **** 
 114:application/cmd/robot_cmd.c **** /**
 115:application/cmd/robot_cmd.c ****  * @brief µĀ╣µŹ«gimbal appõ╝ĀÕø×ńÜäÕĮōÕēŹńöĄµ£║Ķ¦ÆÕ║”Ķ«Īń«ŚÕÆīķøČõĮŹńÜäĶ»»ÕĘ«
 116:application/cmd/robot_cmd.c ****  *        ÕŹĢÕ£łń╗ØÕ»╣Ķ¦ÆÕ║”ńÜäĶīāÕø┤µś»0~360,Ķ»┤µśÄµ¢ćµĪŻõĖŁµ£ēÕøŠńż║
 117:application/cmd/robot_cmd.c ****  *
 118:application/cmd/robot_cmd.c ****  */
 119:application/cmd/robot_cmd.c **** static void CalcOffsetAngle()
 120:application/cmd/robot_cmd.c **** {
  28              		.loc 1 120 1 view -0
  29              		.cfi_startproc
  30              		@ args = 0, pretend = 0, frame = 0
  31              		@ frame_needed = 0, uses_anonymous_args = 0
  32              		@ link register save eliminated.
 121:application/cmd/robot_cmd.c ****     // Õł½ÕÉŹangleµÅÉķ½śÕÅ»Ķ»╗µĆ¦,õĖŹńäČÕż¬ķĢ┐õ║åõĖŹÕźĮń£ŗ,ĶÖĮńäČÕ¤║µ£¼õĖŹõ╝ÜÕŖ©Ķ┐ÖõĖ¬ÕćĮµĢ░
 122:application/cmd/robot_cmd.c ****     static float angle;
  33              		.loc 1 122 5 view .LVU1
 123:application/cmd/robot_cmd.c ****     float yaw_align_angle;
  34              		.loc 1 123 5 view .LVU2
 124:application/cmd/robot_cmd.c ****     angle = gimbal_fetch_data.yaw_motor_single_round_angle; // õ╗Äõ║æÕÅ░ĶÄĘÕÅ¢ńÜäÕĮōÕēŹyawńöĄµ£║ÕŹĢ
  35              		.loc 1 124 5 view .LVU3
  36              		.loc 1 124 30 is_stmt 0 view .LVU4
  37 0000 394B     		ldr	r3, .L25
  38 0002 1B8D     		ldrh	r3, [r3, #40]
  39              		.loc 1 124 11 view .LVU5
  40 0004 07EE903A 		vmov	s15, r3	@ int
  41 0008 F8EE677A 		vcvt.f32.u32	s15, s15
  42 000c 374A     		ldr	r2, .L25+4
  43 000e C2ED007A 		vstr.32	s15, [r2]
 125:application/cmd/robot_cmd.c ****     yaw_align_angle = robot_config->gimbal_param.gimbal_offset.yaw_offset * ECD_ANGLE_COEF_DJI;
  44              		.loc 1 125 5 is_stmt 1 view .LVU6
  45              		.loc 1 125 35 is_stmt 0 view .LVU7
  46 0012 374A     		ldr	r2, .L25+8
  47 0014 1268     		ldr	r2, [r2]
ARM GAS  C:\Users\Administrator\AppData\Local\Temp\ccHxBunt.s 			page 4


  48              		.loc 1 125 63 view .LVU8
  49 0016 D2ED456A 		vldr.32	s13, [r2, #276]
  50              		.loc 1 125 21 view .LVU9
  51 001a 9FED367A 		vldr.32	s14, .L25+12
  52 001e 26EE877A 		vmul.f32	s14, s13, s14
  53              	.LVL0:
 126:application/cmd/robot_cmd.c ****     if (robot_config->gimbal_param.gimbal_offset.yaw_offset > 4096)                               /
  54              		.loc 1 126 5 is_stmt 1 view .LVU10
  55              		.loc 1 126 8 is_stmt 0 view .LVU11
  56 0022 9FED356A 		vldr.32	s12, .L25+16
  57 0026 F4EEC66A 		vcmpe.f32	s13, s12
  58 002a F1EE10FA 		vmrs	APSR_nzcv, FPSCR
  59 002e 31DD     		ble	.L24
 127:application/cmd/robot_cmd.c ****     {
 128:application/cmd/robot_cmd.c ****         if (angle > yaw_align_angle && angle <= 180.0f + yaw_align_angle)
  60              		.loc 1 128 9 is_stmt 1 view .LVU12
  61              		.loc 1 128 12 is_stmt 0 view .LVU13
  62 0030 F4EEC77A 		vcmpe.f32	s15, s14
  63 0034 F1EE10FA 		vmrs	APSR_nzcv, FPSCR
  64 0038 0EDD     		ble	.L4
  65              		.loc 1 128 56 discriminator 1 view .LVU14
  66 003a DFED306A 		vldr.32	s13, .L25+20
  67 003e 77EE266A 		vadd.f32	s13, s14, s13
  68              		.loc 1 128 37 discriminator 1 view .LVU15
  69 0042 F4EEE67A 		vcmpe.f32	s15, s13
  70 0046 F1EE10FA 		vmrs	APSR_nzcv, FPSCR
  71 004a 05D8     		bhi	.L4
 129:application/cmd/robot_cmd.c ****             chassis_cmd_send.offset_angle = angle - yaw_align_angle;
  72              		.loc 1 129 13 is_stmt 1 view .LVU16
  73              		.loc 1 129 51 is_stmt 0 view .LVU17
  74 004c 77EEC77A 		vsub.f32	s15, s15, s14
  75              		.loc 1 129 43 view .LVU18
  76 0050 2B4B     		ldr	r3, .L25+24
  77 0052 C3ED037A 		vstr.32	s15, [r3, #12]
  78 0056 7047     		bx	lr
  79              	.L4:
 130:application/cmd/robot_cmd.c ****         else if (angle > yaw_align_angle - 180.0f && angle <= yaw_align_angle)
  80              		.loc 1 130 14 is_stmt 1 view .LVU19
  81              		.loc 1 130 42 is_stmt 0 view .LVU20
  82 0058 DFED286A 		vldr.32	s13, .L25+20
  83 005c 77EE666A 		vsub.f32	s13, s14, s13
  84              		.loc 1 130 17 view .LVU21
  85 0060 F4EEE67A 		vcmpe.f32	s15, s13
  86 0064 F1EE10FA 		vmrs	APSR_nzcv, FPSCR
  87 0068 0ADD     		ble	.L8
  88              		.loc 1 130 51 discriminator 1 view .LVU22
  89 006a F4EEC77A 		vcmpe.f32	s15, s14
  90 006e F1EE10FA 		vmrs	APSR_nzcv, FPSCR
  91 0072 05D8     		bhi	.L8
 131:application/cmd/robot_cmd.c ****             chassis_cmd_send.offset_angle = angle - yaw_align_angle;
  92              		.loc 1 131 13 is_stmt 1 view .LVU23
  93              		.loc 1 131 51 is_stmt 0 view .LVU24
  94 0074 77EEC77A 		vsub.f32	s15, s15, s14
  95              		.loc 1 131 43 view .LVU25
  96 0078 214B     		ldr	r3, .L25+24
  97 007a C3ED037A 		vstr.32	s15, [r3, #12]
  98 007e 7047     		bx	lr
ARM GAS  C:\Users\Administrator\AppData\Local\Temp\ccHxBunt.s 			page 5


  99              	.L8:
 132:application/cmd/robot_cmd.c ****         else
 133:application/cmd/robot_cmd.c ****             chassis_cmd_send.offset_angle = 360.0f - yaw_align_angle + angle;
 100              		.loc 1 133 13 is_stmt 1 view .LVU26
 101              		.loc 1 133 52 is_stmt 0 view .LVU27
 102 0080 DFED206A 		vldr.32	s13, .L25+28
 103 0084 36EEC77A 		vsub.f32	s14, s13, s14
 104              	.LVL1:
 105              		.loc 1 133 70 view .LVU28
 106 0088 77EE877A 		vadd.f32	s15, s15, s14
 107              		.loc 1 133 43 view .LVU29
 108 008c 1C4B     		ldr	r3, .L25+24
 109 008e C3ED037A 		vstr.32	s15, [r3, #12]
 110 0092 7047     		bx	lr
 111              	.LVL2:
 112              	.L24:
 134:application/cmd/robot_cmd.c ****     }
 135:application/cmd/robot_cmd.c ****     else
 136:application/cmd/robot_cmd.c ****     {
 137:application/cmd/robot_cmd.c ****         if (angle > yaw_align_angle && angle <= 180.0f + yaw_align_angle)
 113              		.loc 1 137 9 is_stmt 1 view .LVU30
 114              		.loc 1 137 12 is_stmt 0 view .LVU31
 115 0094 F4EEC77A 		vcmpe.f32	s15, s14
 116 0098 F1EE10FA 		vmrs	APSR_nzcv, FPSCR
 117 009c 0EDD     		ble	.L11
 118              		.loc 1 137 56 discriminator 1 view .LVU32
 119 009e DFED176A 		vldr.32	s13, .L25+20
 120 00a2 77EE266A 		vadd.f32	s13, s14, s13
 121              		.loc 1 137 37 discriminator 1 view .LVU33
 122 00a6 F4EEE67A 		vcmpe.f32	s15, s13
 123 00aa F1EE10FA 		vmrs	APSR_nzcv, FPSCR
 124 00ae 05D8     		bhi	.L11
 138:application/cmd/robot_cmd.c ****             chassis_cmd_send.offset_angle = angle - yaw_align_angle;
 125              		.loc 1 138 13 is_stmt 1 view .LVU34
 126              		.loc 1 138 51 is_stmt 0 view .LVU35
 127 00b0 77EEC77A 		vsub.f32	s15, s15, s14
 128              		.loc 1 138 43 view .LVU36
 129 00b4 124B     		ldr	r3, .L25+24
 130 00b6 C3ED037A 		vstr.32	s15, [r3, #12]
 131 00ba 7047     		bx	lr
 132              	.L11:
 139:application/cmd/robot_cmd.c ****         else if (angle > 0.0f  && angle <= yaw_align_angle)
 133              		.loc 1 139 14 is_stmt 1 view .LVU37
 134              		.loc 1 139 17 is_stmt 0 view .LVU38
 135 00bc 53B1     		cbz	r3, .L14
 136              		.loc 1 139 32 discriminator 1 view .LVU39
 137 00be F4EEC77A 		vcmpe.f32	s15, s14
 138 00c2 F1EE10FA 		vmrs	APSR_nzcv, FPSCR
 139 00c6 05D8     		bhi	.L14
 140:application/cmd/robot_cmd.c ****             chassis_cmd_send.offset_angle = angle - yaw_align_angle;
 140              		.loc 1 140 13 is_stmt 1 view .LVU40
 141              		.loc 1 140 51 is_stmt 0 view .LVU41
 142 00c8 77EEC77A 		vsub.f32	s15, s15, s14
 143              		.loc 1 140 43 view .LVU42
 144 00cc 0C4B     		ldr	r3, .L25+24
 145 00ce C3ED037A 		vstr.32	s15, [r3, #12]
 146 00d2 7047     		bx	lr
ARM GAS  C:\Users\Administrator\AppData\Local\Temp\ccHxBunt.s 			page 6


 147              	.L14:
 141:application/cmd/robot_cmd.c ****         else
 142:application/cmd/robot_cmd.c ****             chassis_cmd_send.offset_angle = angle - 360.0f - yaw_align_angle;
 148              		.loc 1 142 13 is_stmt 1 view .LVU43
 149              		.loc 1 142 51 is_stmt 0 view .LVU44
 150 00d4 DFED0B6A 		vldr.32	s13, .L25+28
 151 00d8 77EEE67A 		vsub.f32	s15, s15, s13
 152              		.loc 1 142 60 view .LVU45
 153 00dc 77EEC77A 		vsub.f32	s15, s15, s14
 154              		.loc 1 142 43 view .LVU46
 155 00e0 074B     		ldr	r3, .L25+24
 156 00e2 C3ED037A 		vstr.32	s15, [r3, #12]
 143:application/cmd/robot_cmd.c ****     }
 144:application/cmd/robot_cmd.c **** }
 157              		.loc 1 144 1 view .LVU47
 158 00e6 7047     		bx	lr
 159              	.L26:
 160              		.align	2
 161              	.L25:
 162 00e8 00000000 		.word	gimbal_fetch_data
 163 00ec 00000000 		.word	angle.5
 164 00f0 00000000 		.word	robot_config
 165 00f4 ACFF333D 		.word	1026817964
 166 00f8 00008045 		.word	1166016512
 167 00fc 00003443 		.word	1127481344
 168 0100 00000000 		.word	chassis_cmd_send
 169 0104 0000B443 		.word	1135869952
 170              		.cfi_endproc
 171              	.LFE277:
 173              		.section	.text.RemoteControlSet,"ax",%progbits
 174              		.align	1
 175              		.syntax unified
 176              		.thumb
 177              		.thumb_func
 179              	RemoteControlSet:
 180              	.LFB279:
 145:application/cmd/robot_cmd.c **** 
 146:application/cmd/robot_cmd.c **** 
 147:application/cmd/robot_cmd.c **** /**
 148:application/cmd/robot_cmd.c ****  * @brief µĀ╣µŹ«gimbal fetch dataĶ┐øĶĪīyawÕÆīpitchķÖÉÕ╣ģ
 149:application/cmd/robot_cmd.c ****  *        yawĶĮ┤ĶīāÕø┤õĖ║[-90,90],pitchĶĮ┤ĶīāÕø┤õĖ║[PITCH_MIN_ANGLE,PITCH_MAX_ANGLE]
 150:application/cmd/robot_cmd.c ****  *
 151:application/cmd/robot_cmd.c ****  */
 152:application/cmd/robot_cmd.c **** static void LimitSetAngle(float add_yaw, float add_pitch)
 153:application/cmd/robot_cmd.c **** {
 154:application/cmd/robot_cmd.c ****     static float bias_angle;    // yawĶĮ┤Ķ¦ÆÕ║”Ķ»»ÕĘ«ÕĆ╝
 155:application/cmd/robot_cmd.c ****     bias_angle = gimbal_cmd_send.yaw + gimbal_fetch_data.gimbal_imu_data.YawTotalAngle;     // yawĶ
 156:application/cmd/robot_cmd.c ****     // õ║æÕÅ░ĶĮ»õ╗ČķÖÉõĮŹ,ÕÉæÕĘ”/ÕÉæõĖŖÕüÅń¦╗õĖ║µŁŻ
 157:application/cmd/robot_cmd.c ****     if (chassis_cmd_send.offset_angle + fabs(bias_angle) >= 90.0f || 
 158:application/cmd/robot_cmd.c ****         gimbal_cmd_send.pitch >= robot_config->gimbal_param.gimbal_offset.pitch_max_angle)
 159:application/cmd/robot_cmd.c ****     { // õ║æÕÅ░yawĶĮ┤/pitchĶĮ┤µŁŻÕÉæÕüÅń¦╗
 160:application/cmd/robot_cmd.c ****         if (add_yaw < 0.0f)
 161:application/cmd/robot_cmd.c ****             gimbal_cmd_send.yaw -= add_yaw;
 162:application/cmd/robot_cmd.c **** 
 163:application/cmd/robot_cmd.c ****         if (add_pitch > 0.0f)
 164:application/cmd/robot_cmd.c ****             gimbal_cmd_send.pitch -= add_pitch;
 165:application/cmd/robot_cmd.c ****     }
ARM GAS  C:\Users\Administrator\AppData\Local\Temp\ccHxBunt.s 			page 7


 166:application/cmd/robot_cmd.c ****     if (chassis_cmd_send.offset_angle - fabs(bias_angle) <= -90.0f ||
 167:application/cmd/robot_cmd.c ****         gimbal_cmd_send.pitch <= robot_config->gimbal_param.gimbal_offset.pitch_min_angle)
 168:application/cmd/robot_cmd.c ****     { // õ║æÕÅ░yawĶĮ┤/pitchĶĮ┤Ķ┤¤ÕÉæÕüÅń¦╗            
 169:application/cmd/robot_cmd.c ****         if (add_yaw > 0.0f)
 170:application/cmd/robot_cmd.c ****             gimbal_cmd_send.yaw -= add_yaw;
 171:application/cmd/robot_cmd.c **** 
 172:application/cmd/robot_cmd.c ****         if (add_pitch < 0.0f)
 173:application/cmd/robot_cmd.c ****             gimbal_cmd_send.pitch -= add_pitch;    
 174:application/cmd/robot_cmd.c ****     }
 175:application/cmd/robot_cmd.c **** }
 176:application/cmd/robot_cmd.c **** 
 177:application/cmd/robot_cmd.c **** /**
 178:application/cmd/robot_cmd.c ****  * @brief µÄ¦ÕłČĶŠōÕģźõĖ║ķüźµÄ¦ÕÖ©(Ķ░āĶ»ĢµŚČ)ńÜäµ©ĪÕ╝ÅÕÆīµÄ¦ÕłČķćÅĶ«ŠńĮ«
 179:application/cmd/robot_cmd.c ****  *
 180:application/cmd/robot_cmd.c ****  */ 
 181:application/cmd/robot_cmd.c **** static void RemoteControlSet()
 182:application/cmd/robot_cmd.c **** {
 181              		.loc 1 182 1 is_stmt 1 view -0
 182              		.cfi_startproc
 183              		@ args = 0, pretend = 0, frame = 0
 184              		@ frame_needed = 0, uses_anonymous_args = 0
 185              		@ link register save eliminated.
 183:application/cmd/robot_cmd.c ****     static float add_yaw, add_pitch; // Ķ¦ÆÕ║”Õó×ķćÅ
 186              		.loc 1 183 5 view .LVU49
 184:application/cmd/robot_cmd.c ****     static shoot_mode_e last_shoot_mode = SHOOT_ZERO_FORCE; 
 187              		.loc 1 184 5 view .LVU50
 185:application/cmd/robot_cmd.c **** 
 186:application/cmd/robot_cmd.c **** #ifdef ONE_BOARD
 187:application/cmd/robot_cmd.c ****     // ÕŹĢńŗ¼µÄ¦ÕłČõ║æÕÅ░ÕÆīÕ║Ģńøś
 188:application/cmd/robot_cmd.c **** 
 189:application/cmd/robot_cmd.c ****      if (gimbal_cmd_send.last_mode == GIMBAL_ZERO_FORCE && gimbal_cmd_send.gimbal_mode == GIMBAL_GY
 188              		.loc 1 189 6 view .LVU51
 189              		.loc 1 189 25 is_stmt 0 view .LVU52
 190 0000 9A4B     		ldr	r3, .L67
 191 0002 5B7C     		ldrb	r3, [r3, #17]	@ zero_extendqisi2
 192              		.loc 1 189 9 view .LVU53
 193 0004 1BB9     		cbnz	r3, .L28
 194              		.loc 1 189 75 discriminator 1 view .LVU54
 195 0006 994B     		ldr	r3, .L67
 196 0008 1B7C     		ldrb	r3, [r3, #16]	@ zero_extendqisi2
 197              		.loc 1 189 57 discriminator 1 view .LVU55
 198 000a 012B     		cmp	r3, #1
 199 000c 6FD0     		beq	.L53
 200              	.L28:
 190:application/cmd/robot_cmd.c ****     {
 191:application/cmd/robot_cmd.c ****         gimbal_cmd_send.pitch = gimbal_fetch_data.gimbal_imu_data.Pitch; // ńø«µĀć = ÕĮōÕēŹÕ«×ķÖģõĮ
 192:application/cmd/robot_cmd.c ****     }
 193:application/cmd/robot_cmd.c **** 
 194:application/cmd/robot_cmd.c ****     gimbal_cmd_send.last_mode = gimbal_cmd_send.gimbal_mode;
 201              		.loc 1 194 5 is_stmt 1 view .LVU56
 202              		.loc 1 194 48 is_stmt 0 view .LVU57
 203 000e 974B     		ldr	r3, .L67
 204 0010 1A7C     		ldrb	r2, [r3, #16]	@ zero_extendqisi2
 205              		.loc 1 194 31 view .LVU58
 206 0012 5A74     		strb	r2, [r3, #17]
 195:application/cmd/robot_cmd.c ****     
 196:application/cmd/robot_cmd.c ****     if (switch_is_down(rc_data[TEMP].rc.switch_left))      
ARM GAS  C:\Users\Administrator\AppData\Local\Temp\ccHxBunt.s 			page 8


 207              		.loc 1 196 5 is_stmt 1 view .LVU59
 208              		.loc 1 196 9 is_stmt 0 view .LVU60
 209 0014 964B     		ldr	r3, .L67+4
 210 0016 1B68     		ldr	r3, [r3]
 211 0018 9A7A     		ldrb	r2, [r3, #10]	@ zero_extendqisi2
 212              		.loc 1 196 8 view .LVU61
 213 001a 022A     		cmp	r2, #2
 214 001c 6CD0     		beq	.L54
 215              	.L29:
 197:application/cmd/robot_cmd.c ****     {   // ÕĘ”õŠ¦Õ╝ĆÕģ│ńŖČµĆü[õĖŗ],ÕÅ│õŠ¦Õ╝ĆÕģ│ńŖČµĆüõĖŹõĖ║[õĖŗ],Õ║ĢńøśµŚĀÕŖø,õ║æÕÅ░ķÖĆĶ×║õ╗¬µ©ĪÕ╝Å
 198:application/cmd/robot_cmd.c ****         if (!switch_is_down(rc_data[TEMP].rc.switch_right))
 199:application/cmd/robot_cmd.c ****         {
 200:application/cmd/robot_cmd.c ****             gimbal_cmd_send.gimbal_mode = GIMBAL_GYRO_MODE;
 201:application/cmd/robot_cmd.c ****         }
 202:application/cmd/robot_cmd.c ****         chassis_cmd_send.chassis_mode = CHASSIS_ZERO_FORCE;
 203:application/cmd/robot_cmd.c ****     }
 204:application/cmd/robot_cmd.c **** 
 205:application/cmd/robot_cmd.c ****     if (switch_is_down(rc_data[TEMP].rc.switch_right))      
 216              		.loc 1 205 5 is_stmt 1 view .LVU62
 217              		.loc 1 205 9 is_stmt 0 view .LVU63
 218 001e DA7A     		ldrb	r2, [r3, #11]	@ zero_extendqisi2
 219              		.loc 1 205 8 view .LVU64
 220 0020 022A     		cmp	r2, #2
 221 0022 73D0     		beq	.L55
 222              	.L31:
 206:application/cmd/robot_cmd.c ****     {   // ÕĘ”õŠ¦Õ╝ĆÕģ│ńŖČµĆüõĖŹõĖ║[õĖŗ],ÕÅ│õŠ¦Õ╝ĆÕģ│ńŖČµĆüõĖ║[õĖŗ],Õ║Ģńøśń╝¢ńĀüÕÖ©µÄ¦ÕłČ,õ║æÕÅ░µŚĀ
 207:application/cmd/robot_cmd.c ****         if (!switch_is_down(rc_data[TEMP].rc.switch_left))
 208:application/cmd/robot_cmd.c ****         {
 209:application/cmd/robot_cmd.c ****             chassis_cmd_send.chassis_mode = CHASSIS_NO_FOLLOW;   
 210:application/cmd/robot_cmd.c ****         }
 211:application/cmd/robot_cmd.c ****         gimbal_cmd_send.gimbal_mode = GIMBAL_ZERO_FORCE;
 212:application/cmd/robot_cmd.c ****     }
 213:application/cmd/robot_cmd.c ****     // ń╗äÕÉłµÄ¦ÕłČÕ║ĢńøśÕÆīõ║æÕÅ░
 214:application/cmd/robot_cmd.c ****     if (switch_is_mid(rc_data[TEMP].rc.switch_right))       
 223              		.loc 1 214 5 is_stmt 1 view .LVU65
 224              		.loc 1 214 9 is_stmt 0 view .LVU66
 225 0024 DA7A     		ldrb	r2, [r3, #11]	@ zero_extendqisi2
 226              		.loc 1 214 8 view .LVU67
 227 0026 032A     		cmp	r2, #3
 228 0028 7AD0     		beq	.L56
 229              	.L33:
 215:application/cmd/robot_cmd.c ****     {  
 216:application/cmd/robot_cmd.c ****         // ÕĘ”õŠ¦Õ╝ĆÕģ│ńŖČµĆü[õĖŁ],ÕÅ│õŠ¦Õ╝ĆÕģ│ńŖČµĆüõĖ║[õĖŁ],Õ║ĢńøśĶĘ¤ķÜÅõ║æÕÅ░
 217:application/cmd/robot_cmd.c ****         if (switch_is_mid(rc_data[TEMP].rc.switch_left))
 218:application/cmd/robot_cmd.c ****             chassis_cmd_send.chassis_mode = CHASSIS_FOLLOW_GIMBAL_YAW;
 219:application/cmd/robot_cmd.c **** 
 220:application/cmd/robot_cmd.c ****         // ÕĘ”õŠ¦Õ╝ĆÕģ│ńŖČµĆü[õĖŖ],ÕÅ│õŠ¦Õ╝ĆÕģ│ńŖČµĆüõĖ║[õĖŁ],Õ║ĢńøśÕ░ÅķÖĆĶ×║
 221:application/cmd/robot_cmd.c ****         if (switch_is_up(rc_data[TEMP].rc.switch_left))
 222:application/cmd/robot_cmd.c ****             chassis_cmd_send.chassis_mode = CHASSIS_ROTATE;
 223:application/cmd/robot_cmd.c ****         
 224:application/cmd/robot_cmd.c ****         gimbal_cmd_send.gimbal_mode = GIMBAL_GYRO_MODE;
 225:application/cmd/robot_cmd.c ****     }
 226:application/cmd/robot_cmd.c **** #endif
 227:application/cmd/robot_cmd.c **** #ifdef GIMBAL_BOARD
 228:application/cmd/robot_cmd.c ****     if (switch_is_down(rc_data[TEMP].rc.switch_right))      
 229:application/cmd/robot_cmd.c ****     {   // ÕĘ”õŠ¦Õ╝ĆÕģ│ńŖČµĆüõĖŹõĖ║[õĖŗ],ÕÅ│õŠ¦Õ╝ĆÕģ│ńŖČµĆüõĖ║[õĖŗ],Õ║Ģńøśń╝¢ńĀüÕÖ©µÄ¦ÕłČ,õ║æÕÅ░µŚĀ
 230:application/cmd/robot_cmd.c ****         gimbal_cmd_send.gimbal_mode = GIMBAL_ZERO_FORCE;
ARM GAS  C:\Users\Administrator\AppData\Local\Temp\ccHxBunt.s 			page 9


 231:application/cmd/robot_cmd.c ****     }
 232:application/cmd/robot_cmd.c **** 
 233:application/cmd/robot_cmd.c ****     if (switch_is_mid(rc_data[TEMP].rc.switch_right))      
 234:application/cmd/robot_cmd.c ****     {   // ÕĘ”õŠ¦Õ╝ĆÕģ│ńŖČµĆüõĖŹõĖ║[õĖŗ],ÕÅ│õŠ¦Õ╝ĆÕģ│ńŖČµĆüõĖ║[õĖŗ],Õ║Ģńøśń╝¢ńĀüÕÖ©µÄ¦ÕłČ,õ║æÕÅ░µŚĀ
 235:application/cmd/robot_cmd.c ****         gimbal_cmd_send.gimbal_mode = GIMBAL_GYRO_MODE;
 236:application/cmd/robot_cmd.c ****     }
 237:application/cmd/robot_cmd.c **** #endif
 238:application/cmd/robot_cmd.c **** 
 239:application/cmd/robot_cmd.c ****     // õ║æÕÅ░ķÖĆĶ×║õ╗¬µ©ĪÕ╝Å,Õ╣ČõĖöĶ¦åĶ¦ēµ£¬Ķ»åÕł½Õł░ńø«µĀć,ń║»ķüźµÄ¦ÕÖ©µŗ©µØåµÄ¦ÕłČ
 240:application/cmd/robot_cmd.c ****     add_yaw = RC_TO_YAW_ANGLE * (float)rc_data[TEMP].rc.rocker_l_;
 230              		.loc 1 240 5 is_stmt 1 view .LVU68
 231              		.loc 1 240 56 is_stmt 0 view .LVU69
 232 002a B3F90020 		ldrsh	r2, [r3]
 233 002e 07EE902A 		vmov	s15, r2	@ int
 234              		.loc 1 240 33 view .LVU70
 235 0032 F8EEE77A 		vcvt.f32.s32	s15, s15
 236              		.loc 1 240 31 view .LVU71
 237 0036 9FED8F7A 		vldr.32	s14, .L67+8
 238 003a 67EE877A 		vmul.f32	s15, s15, s14
 239              		.loc 1 240 13 view .LVU72
 240 003e 8E4A     		ldr	r2, .L67+12
 241 0040 C2ED007A 		vstr.32	s15, [r2]
 241:application/cmd/robot_cmd.c ****     add_pitch = RC_TO_PITCH_ANGLE * (float)rc_data[TEMP].rc.rocker_l1;
 242              		.loc 1 241 5 is_stmt 1 view .LVU73
 243              		.loc 1 241 60 is_stmt 0 view .LVU74
 244 0044 B3F90220 		ldrsh	r2, [r3, #2]
 245 0048 07EE902A 		vmov	s15, r2	@ int
 246              		.loc 1 241 37 view .LVU75
 247 004c F8EEE77A 		vcvt.f32.s32	s15, s15
 248              		.loc 1 241 35 view .LVU76
 249 0050 9FED8A7A 		vldr.32	s14, .L67+16
 250 0054 67EE877A 		vmul.f32	s15, s15, s14
 251              		.loc 1 241 15 view .LVU77
 252 0058 894A     		ldr	r2, .L67+20
 253 005a C2ED007A 		vstr.32	s15, [r2]
 242:application/cmd/robot_cmd.c **** 
 243:application/cmd/robot_cmd.c ****     if (robot_state == ROBOT_READY)
 254              		.loc 1 243 5 is_stmt 1 view .LVU78
 255              		.loc 1 243 21 is_stmt 0 view .LVU79
 256 005e 894A     		ldr	r2, .L67+24
 257 0060 1278     		ldrb	r2, [r2]	@ zero_extendqisi2
 258              		.loc 1 243 8 view .LVU80
 259 0062 012A     		cmp	r2, #1
 260 0064 6ED0     		beq	.L57
 261              	.L36:
 244:application/cmd/robot_cmd.c ****     {
 245:application/cmd/robot_cmd.c ****         // Ķ¦åĶ¦ēµÄźń«Īõ╝śÕģłń║¦µ£Ćķ½ś
 246:application/cmd/robot_cmd.c ****         if (vision_recv_data->mode == 1 || vision_recv_data->mode == 2)
 247:application/cmd/robot_cmd.c ****         {
 248:application/cmd/robot_cmd.c ****             float vision_yaw = vision_recv_data->yaw * RAD_TO_DEG * YAW_GEAR_RATIO;
 249:application/cmd/robot_cmd.c ****             float vision_pitch = vision_recv_data->pitch * RAD_TO_DEG + PITCH_ZERO_OFFSET;
 250:application/cmd/robot_cmd.c ****             if (vision_recv_data->mode == 2) {
 251:application/cmd/robot_cmd.c ****                 shoot_cmd_send.shoot_mode = SHOOT_ON;
 252:application/cmd/robot_cmd.c ****                 shoot_cmd_send.friction_mode = FRICTION_ON;
 253:application/cmd/robot_cmd.c ****                 shoot_cmd_send.load_mode = LOAD_BURSTFIRE;
 254:application/cmd/robot_cmd.c ****                 shoot_cmd_send.shoot_rate = 10;
 255:application/cmd/robot_cmd.c ****             } else { // mode == 1: Ķ»åÕł½Õł░ńø«µĀćõĮåõĖŹÕ░äÕć╗
ARM GAS  C:\Users\Administrator\AppData\Local\Temp\ccHxBunt.s 			page 10


 256:application/cmd/robot_cmd.c ****                 shoot_cmd_send.load_mode = LOAD_STOP;
 257:application/cmd/robot_cmd.c ****                 shoot_cmd_send.friction_mode = FRICTION_ON;
 258:application/cmd/robot_cmd.c ****             }
 259:application/cmd/robot_cmd.c ****             gimbal_cmd_send.gimbal_mode = GIMBAL_GYRO_MODE;
 260:application/cmd/robot_cmd.c ****             gimbal_cmd_send.yaw = vision_yaw;
 261:application/cmd/robot_cmd.c ****             gimbal_cmd_send.pitch = vision_pitch;
 262:application/cmd/robot_cmd.c ****             add_yaw = 0.0f;
 263:application/cmd/robot_cmd.c ****             add_pitch = 0.0f;
 264:application/cmd/robot_cmd.c ****         }
 265:application/cmd/robot_cmd.c ****         else // mode == 0: µ£¬Ķ»åÕł½Õł░ńø«µĀć’╝īÕłćµŹóÕø×µēŗÕŖ©µÄ¦ÕłČ
 266:application/cmd/robot_cmd.c ****         {
 267:application/cmd/robot_cmd.c ****             // µüóÕżŹµēŗÕŖ©µÄ¦ÕłČ’╝īõĮ┐ńö©ķüźµÄ¦ÕÖ©µæćµØåµÄ¦ÕłČõ║æÕÅ░
 268:application/cmd/robot_cmd.c ****             // add_yaw ÕÆī add_pitch ÕĘ▓ń╗ÅÕ£©ÕēŹķØóĶ«Īń«ŚÕźĮõ║å
 269:application/cmd/robot_cmd.c ****         }
 270:application/cmd/robot_cmd.c ****         if (gimbal_cmd_send.gimbal_mode == GIMBAL_GYRO_MODE)
 271:application/cmd/robot_cmd.c ****         { // µīēńģ¦µæćµØåńÜäĶŠōÕć║Õż¦Õ░ÅĶ┐øĶĪīĶ¦ÆÕ║”Õó×ķćÅ,µŗ©µØåÕÉæÕÅ│/ÕÉæõĖŖõĖ║µŁŻ
 272:application/cmd/robot_cmd.c ****             gimbal_cmd_send.yaw += add_yaw;
 273:application/cmd/robot_cmd.c ****             gimbal_cmd_send.pitch += add_pitch;
 274:application/cmd/robot_cmd.c ****         }
 275:application/cmd/robot_cmd.c ****     }
 276:application/cmd/robot_cmd.c **** 
 277:application/cmd/robot_cmd.c ****     // õ║æÕÅ░Ķ¦ÆÕ║”ķÖÉÕ╣ģ,Ķ”üµöŠÕ£©Õó×ķćÅõ╗źÕÉÄ
 278:application/cmd/robot_cmd.c ****  //   LimitSetAngle(add_yaw, add_pitch);
 279:application/cmd/robot_cmd.c **** 
 280:application/cmd/robot_cmd.c ****  VAL_LIMIT(gimbal_cmd_send.pitch, 
 262              		.loc 1 280 2 is_stmt 1 view .LVU81
 263              		.loc 1 280 2 view .LVU82
 264 0066 814A     		ldr	r2, .L67
 265 0068 D2ED027A 		vldr.32	s15, [r2, #8]
 266 006c 864A     		ldr	r2, .L67+28
 267 006e 1268     		ldr	r2, [r2]
 268 0070 92ED477A 		vldr.32	s14, [r2, #284]
 269 0074 F4EEC77A 		vcmpe.f32	s15, s14
 270 0078 F1EE10FA 		vmrs	APSR_nzcv, FPSCR
 271 007c 00F2B680 		bhi	.L52
 272              		.loc 1 280 2 discriminator 1 view .LVU83
 273 0080 7A4A     		ldr	r2, .L67
 274 0082 82ED027A 		vstr.32	s14, [r2, #8]
 275              	.L42:
 276              		.loc 1 280 2 view .LVU84
 281:application/cmd/robot_cmd.c ****           robot_config->gimbal_param.gimbal_offset.pitch_min_angle, 
 282:application/cmd/robot_cmd.c ****           robot_config->gimbal_param.gimbal_offset.pitch_max_angle);
 283:application/cmd/robot_cmd.c **** 
 284:application/cmd/robot_cmd.c ****     // Õ║ĢńøśÕÅéµĢ░,ńø«ÕēŹµ▓Īµ£ēÕŖĀÕģźÕ░ÅķÖĆĶ×║(Ķ░āĶ»Ģõ╝╝õ╣ÄµÜéµŚČµ▓Īµ£ēÕ┐ģĶ”ü),ń│╗µĢ░õĖ║2.0m/s(ń╗Å
 285:application/cmd/robot_cmd.c ****     chassis_cmd_send.vx = 3.0f / HALF_RC_CH_MAX * (float)rc_data[TEMP].rc.rocker_r1;    // µ©¬ń¦╗µ¢
 277              		.loc 1 285 5 view .LVU85
 278              		.loc 1 285 74 is_stmt 0 view .LVU86
 279 0086 B3F90620 		ldrsh	r2, [r3, #6]
 280 008a 07EE902A 		vmov	s15, r2	@ int
 281              		.loc 1 285 51 view .LVU87
 282 008e F8EEE77A 		vcvt.f32.s32	s15, s15
 283              		.loc 1 285 49 view .LVU88
 284 0092 9FED7E7A 		vldr.32	s14, .L67+32
 285 0096 67EE877A 		vmul.f32	s15, s15, s14
 286              		.loc 1 285 25 view .LVU89
 287 009a 7D4A     		ldr	r2, .L67+36
 288 009c C2ED007A 		vstr.32	s15, [r2]
ARM GAS  C:\Users\Administrator\AppData\Local\Temp\ccHxBunt.s 			page 11


 286:application/cmd/robot_cmd.c ****     chassis_cmd_send.vy = 3.5f / HALF_RC_CH_MAX * (float)rc_data[TEMP].rc.rocker_r_;    // ÕēŹĶ┐øµ¢
 289              		.loc 1 286 5 is_stmt 1 view .LVU90
 290              		.loc 1 286 74 is_stmt 0 view .LVU91
 291 00a0 B3F90410 		ldrsh	r1, [r3, #4]
 292 00a4 07EE901A 		vmov	s15, r1	@ int
 293              		.loc 1 286 51 view .LVU92
 294 00a8 F8EEE77A 		vcvt.f32.s32	s15, s15
 295              		.loc 1 286 49 view .LVU93
 296 00ac 9FED797A 		vldr.32	s14, .L67+40
 297 00b0 67EE877A 		vmul.f32	s15, s15, s14
 298              		.loc 1 286 25 view .LVU94
 299 00b4 C2ED017A 		vstr.32	s15, [r2, #4]
 287:application/cmd/robot_cmd.c ****     chassis_cmd_send.wz = 2.5f / HALF_RC_CH_MAX * (float)rc_data[TEMP].rc.rocker_l_;    // µŚŗĶĮ¼µ¢
 300              		.loc 1 287 5 is_stmt 1 view .LVU95
 301              		.loc 1 287 74 is_stmt 0 view .LVU96
 302 00b8 B3F90010 		ldrsh	r1, [r3]
 303 00bc 07EE901A 		vmov	s15, r1	@ int
 304              		.loc 1 287 51 view .LVU97
 305 00c0 F8EEE77A 		vcvt.f32.s32	s15, s15
 306              		.loc 1 287 49 view .LVU98
 307 00c4 9FED747A 		vldr.32	s14, .L67+44
 308 00c8 67EE877A 		vmul.f32	s15, s15, s14
 309              		.loc 1 287 25 view .LVU99
 310 00cc C2ED027A 		vstr.32	s15, [r2, #8]
 288:application/cmd/robot_cmd.c **** 
 289:application/cmd/robot_cmd.c ****     // chassis_cmd_send.vx = vision_recv_data->data.speed_vector.vx;
 290:application/cmd/robot_cmd.c ****     // chassis_cmd_send.vy = vision_recv_data->data.speed_vector.vy;
 291:application/cmd/robot_cmd.c ****     // chassis_cmd_send.wz = 0;
 292:application/cmd/robot_cmd.c ****     // chassis_cmd_send.wz = -vision_recv_data->data.speed_vector.wz;
 293:application/cmd/robot_cmd.c **** 
 294:application/cmd/robot_cmd.c ****     // // ÕÅæÕ░äÕÅéµĢ░
 295:application/cmd/robot_cmd.c ****     // if (switch_is_mid(rc_data[TEMP].rc.switch_left)) // ÕÅ│õŠ¦Õ╝ĆÕģ│ńŖČµĆü[õĖŖ],Õ╝╣Ķł▒µēōÕ╝Ć
 296:application/cmd/robot_cmd.c ****     //     ;                                            // Õ╝╣Ķł▒ĶłĄµ£║µÄ¦ÕłČ,ÕŠģµĘ╗ÕŖĀservo_motorµ
 297:application/cmd/robot_cmd.c ****     // else
 298:application/cmd/robot_cmd.c ****     //     ; // Õ╝╣Ķł▒ĶłĄµ£║µÄ¦ÕłČ,ÕŠģµĘ╗ÕŖĀservo_motorµ©ĪÕØŚ,Õģ│ķŚŁ
 299:application/cmd/robot_cmd.c **** 
 300:application/cmd/robot_cmd.c ****     // ÕÅ│õŠ¦Õ╝ĆÕģ│[õĖŁ],ÕÅæÕ░äÕ╝ĆÕÉ»
 301:application/cmd/robot_cmd.c ****     if (switch_is_mid(rc_data[TEMP].rc.switch_right)) 
 311              		.loc 1 301 5 is_stmt 1 view .LVU100
 312              		.loc 1 301 9 is_stmt 0 view .LVU101
 313 00d0 DA7A     		ldrb	r2, [r3, #11]	@ zero_extendqisi2
 314              		.loc 1 301 8 view .LVU102
 315 00d2 032A     		cmp	r2, #3
 316 00d4 00F09680 		beq	.L58
 317              	.L44:
 302:application/cmd/robot_cmd.c ****     {   // Õ┐½µŗ©ÕÅ│õŠ¦Õ╝ĆÕģ│[õĖŁ]->ÕÅ│õŠ¦Õ╝ĆÕģ│[õĖŖ]->ÕÅ│õŠ¦Õ╝ĆÕģ│[õĖŁ],µæ®µō”ĶĮ«Õ╝ĆÕÉ»
 303:application/cmd/robot_cmd.c ****         shoot_cmd_send.shoot_mode = SHOOT_ON;
 304:application/cmd/robot_cmd.c ****         if (last_shoot_mode == SHOOT_OFF && shoot_cmd_send.friction_mode == FRICTION_ON)
 305:application/cmd/robot_cmd.c ****             shoot_cmd_send.friction_mode = FRICTION_OFF;
 306:application/cmd/robot_cmd.c ****         else if (last_shoot_mode == SHOOT_OFF && shoot_cmd_send.friction_mode != FRICTION_ON)
 307:application/cmd/robot_cmd.c ****             shoot_cmd_send.friction_mode = FRICTION_ON;
 308:application/cmd/robot_cmd.c ****          
 309:application/cmd/robot_cmd.c ****         if (rc_data[TEMP].rc.dial < 10)
 310:application/cmd/robot_cmd.c ****             shoot_cmd_send.load_mode = LOAD_STOP;     
 311:application/cmd/robot_cmd.c ****         
 312:application/cmd/robot_cmd.c ****             
 313:application/cmd/robot_cmd.c ****         if (rc_data[TEMP].rc.dial > 600)
ARM GAS  C:\Users\Administrator\AppData\Local\Temp\ccHxBunt.s 			page 12


 314:application/cmd/robot_cmd.c ****         {
 315:application/cmd/robot_cmd.c ****             // Õ░äķóæµÄ¦ÕłČ
 316:application/cmd/robot_cmd.c ****             shoot_cmd_send.shoot_rate = 10; 
 317:application/cmd/robot_cmd.c ****             shoot_cmd_send.load_mode = LOAD_BURSTFIRE;
 318:application/cmd/robot_cmd.c ****         }     
 319:application/cmd/robot_cmd.c ****     }
 320:application/cmd/robot_cmd.c ****     
 321:application/cmd/robot_cmd.c ****     // ÕÅ│õŠ¦Õ╝ĆÕģ│[õĖŖ],ÕÅæÕ░äÕģ│ķŚŁ
 322:application/cmd/robot_cmd.c ****     if (switch_is_up(rc_data[TEMP].rc.switch_right)) 
 318              		.loc 1 322 5 is_stmt 1 view .LVU103
 319              		.loc 1 322 8 is_stmt 0 view .LVU104
 320 00d8 012A     		cmp	r2, #1
 321 00da 00F0BE80 		beq	.L59
 322              	.L48:
 323:application/cmd/robot_cmd.c ****     {
 324:application/cmd/robot_cmd.c ****         shoot_cmd_send.shoot_mode = SHOOT_OFF;
 325:application/cmd/robot_cmd.c ****     }
 326:application/cmd/robot_cmd.c **** 
 327:application/cmd/robot_cmd.c ****     // ÕĘ”ÕÅ│õŠ¦Õ╝ĆÕģ│ÕØćõĖ║[õĖŗ],µæ®µō”ĶĮ«Õģ│ķŚŁ
 328:application/cmd/robot_cmd.c ****     if (switch_is_down(rc_data[TEMP].rc.switch_right))
 323              		.loc 1 328 5 is_stmt 1 view .LVU105
 324              		.loc 1 328 8 is_stmt 0 view .LVU106
 325 00de 022A     		cmp	r2, #2
 326 00e0 00F0BF80 		beq	.L60
 327              	.L49:
 329:application/cmd/robot_cmd.c ****     {
 330:application/cmd/robot_cmd.c ****         shoot_cmd_send.shoot_mode = SHOOT_ON;
 331:application/cmd/robot_cmd.c ****         shoot_cmd_send.friction_mode = FRICTION_OFF;      
 332:application/cmd/robot_cmd.c ****     }
 333:application/cmd/robot_cmd.c ****     // õ┐ØńĢÖõĖŖõĖĆµ¼ĪÕÅæÕ░äµ©ĪÕ╝Å 
 334:application/cmd/robot_cmd.c ****     last_shoot_mode = shoot_cmd_send.shoot_mode;
 328              		.loc 1 334 5 is_stmt 1 view .LVU107
 329              		.loc 1 334 37 is_stmt 0 view .LVU108
 330 00e4 6D4B     		ldr	r3, .L67+48
 331 00e6 1A78     		ldrb	r2, [r3]	@ zero_extendqisi2
 332              		.loc 1 334 21 view .LVU109
 333 00e8 6D4B     		ldr	r3, .L67+52
 334 00ea 1A70     		strb	r2, [r3]
 335:application/cmd/robot_cmd.c **** 
 336:application/cmd/robot_cmd.c **** 
 337:application/cmd/robot_cmd.c **** }
 335              		.loc 1 337 1 view .LVU110
 336 00ec 7047     		bx	lr
 337              	.L53:
 191:application/cmd/robot_cmd.c ****     }
 338              		.loc 1 191 9 is_stmt 1 view .LVU111
 191:application/cmd/robot_cmd.c ****     }
 339              		.loc 1 191 66 is_stmt 0 view .LVU112
 340 00ee 6D4B     		ldr	r3, .L67+56
 341 00f0 DA69     		ldr	r2, [r3, #28]	@ float
 191:application/cmd/robot_cmd.c ****     }
 342              		.loc 1 191 31 view .LVU113
 343 00f2 5E4B     		ldr	r3, .L67
 344 00f4 9A60     		str	r2, [r3, #8]	@ float
 345 00f6 8AE7     		b	.L28
 346              	.L54:
 198:application/cmd/robot_cmd.c ****         {
ARM GAS  C:\Users\Administrator\AppData\Local\Temp\ccHxBunt.s 			page 13


 347              		.loc 1 198 9 is_stmt 1 view .LVU114
 198:application/cmd/robot_cmd.c ****         {
 348              		.loc 1 198 14 is_stmt 0 view .LVU115
 349 00f8 DA7A     		ldrb	r2, [r3, #11]	@ zero_extendqisi2
 198:application/cmd/robot_cmd.c ****         {
 350              		.loc 1 198 12 view .LVU116
 351 00fa 022A     		cmp	r2, #2
 352 00fc 02D0     		beq	.L30
 200:application/cmd/robot_cmd.c ****         }
 353              		.loc 1 200 13 is_stmt 1 view .LVU117
 200:application/cmd/robot_cmd.c ****         }
 354              		.loc 1 200 41 is_stmt 0 view .LVU118
 355 00fe 5B4A     		ldr	r2, .L67
 356 0100 0121     		movs	r1, #1
 357 0102 1174     		strb	r1, [r2, #16]
 358              	.L30:
 202:application/cmd/robot_cmd.c ****     }
 359              		.loc 1 202 9 is_stmt 1 view .LVU119
 202:application/cmd/robot_cmd.c ****     }
 360              		.loc 1 202 39 is_stmt 0 view .LVU120
 361 0104 624A     		ldr	r2, .L67+36
 362 0106 0021     		movs	r1, #0
 363 0108 1175     		strb	r1, [r2, #20]
 364 010a 88E7     		b	.L29
 365              	.L55:
 207:application/cmd/robot_cmd.c ****         {
 366              		.loc 1 207 9 is_stmt 1 view .LVU121
 207:application/cmd/robot_cmd.c ****         {
 367              		.loc 1 207 14 is_stmt 0 view .LVU122
 368 010c 9A7A     		ldrb	r2, [r3, #10]	@ zero_extendqisi2
 207:application/cmd/robot_cmd.c ****         {
 369              		.loc 1 207 12 view .LVU123
 370 010e 022A     		cmp	r2, #2
 371 0110 02D0     		beq	.L32
 209:application/cmd/robot_cmd.c ****         }
 372              		.loc 1 209 13 is_stmt 1 view .LVU124
 209:application/cmd/robot_cmd.c ****         }
 373              		.loc 1 209 43 is_stmt 0 view .LVU125
 374 0112 5F4A     		ldr	r2, .L67+36
 375 0114 0221     		movs	r1, #2
 376 0116 1175     		strb	r1, [r2, #20]
 377              	.L32:
 211:application/cmd/robot_cmd.c ****     }
 378              		.loc 1 211 9 is_stmt 1 view .LVU126
 211:application/cmd/robot_cmd.c ****     }
 379              		.loc 1 211 37 is_stmt 0 view .LVU127
 380 0118 544A     		ldr	r2, .L67
 381 011a 0021     		movs	r1, #0
 382 011c 1174     		strb	r1, [r2, #16]
 383 011e 81E7     		b	.L31
 384              	.L56:
 217:application/cmd/robot_cmd.c ****             chassis_cmd_send.chassis_mode = CHASSIS_FOLLOW_GIMBAL_YAW;
 385              		.loc 1 217 9 is_stmt 1 view .LVU128
 217:application/cmd/robot_cmd.c ****             chassis_cmd_send.chassis_mode = CHASSIS_FOLLOW_GIMBAL_YAW;
 386              		.loc 1 217 13 is_stmt 0 view .LVU129
 387 0120 9A7A     		ldrb	r2, [r3, #10]	@ zero_extendqisi2
 217:application/cmd/robot_cmd.c ****             chassis_cmd_send.chassis_mode = CHASSIS_FOLLOW_GIMBAL_YAW;
ARM GAS  C:\Users\Administrator\AppData\Local\Temp\ccHxBunt.s 			page 14


 388              		.loc 1 217 12 view .LVU130
 389 0122 032A     		cmp	r2, #3
 390 0124 06D0     		beq	.L61
 391              	.L34:
 221:application/cmd/robot_cmd.c ****             chassis_cmd_send.chassis_mode = CHASSIS_ROTATE;
 392              		.loc 1 221 9 is_stmt 1 view .LVU131
 221:application/cmd/robot_cmd.c ****             chassis_cmd_send.chassis_mode = CHASSIS_ROTATE;
 393              		.loc 1 221 13 is_stmt 0 view .LVU132
 394 0126 9A7A     		ldrb	r2, [r3, #10]	@ zero_extendqisi2
 221:application/cmd/robot_cmd.c ****             chassis_cmd_send.chassis_mode = CHASSIS_ROTATE;
 395              		.loc 1 221 12 view .LVU133
 396 0128 012A     		cmp	r2, #1
 397 012a 07D0     		beq	.L62
 398              	.L35:
 224:application/cmd/robot_cmd.c ****     }
 399              		.loc 1 224 9 is_stmt 1 view .LVU134
 224:application/cmd/robot_cmd.c ****     }
 400              		.loc 1 224 37 is_stmt 0 view .LVU135
 401 012c 4F4A     		ldr	r2, .L67
 402 012e 0121     		movs	r1, #1
 403 0130 1174     		strb	r1, [r2, #16]
 404 0132 7AE7     		b	.L33
 405              	.L61:
 218:application/cmd/robot_cmd.c **** 
 406              		.loc 1 218 13 is_stmt 1 view .LVU136
 218:application/cmd/robot_cmd.c **** 
 407              		.loc 1 218 43 is_stmt 0 view .LVU137
 408 0134 564A     		ldr	r2, .L67+36
 409 0136 0321     		movs	r1, #3
 410 0138 1175     		strb	r1, [r2, #20]
 411 013a F4E7     		b	.L34
 412              	.L62:
 222:application/cmd/robot_cmd.c ****         
 413              		.loc 1 222 13 is_stmt 1 view .LVU138
 222:application/cmd/robot_cmd.c ****         
 414              		.loc 1 222 43 is_stmt 0 view .LVU139
 415 013c 544A     		ldr	r2, .L67+36
 416 013e 0121     		movs	r1, #1
 417 0140 1175     		strb	r1, [r2, #20]
 418 0142 F3E7     		b	.L35
 419              	.L57:
 246:application/cmd/robot_cmd.c ****         {
 420              		.loc 1 246 9 is_stmt 1 view .LVU140
 246:application/cmd/robot_cmd.c ****         {
 421              		.loc 1 246 29 is_stmt 0 view .LVU141
 422 0144 584A     		ldr	r2, .L67+60
 423 0146 1168     		ldr	r1, [r2]
 424 0148 8878     		ldrb	r0, [r1, #2]	@ zero_extendqisi2
 246:application/cmd/robot_cmd.c ****         {
 425              		.loc 1 246 41 view .LVU142
 426 014a 421E     		subs	r2, r0, #1
 427 014c D2B2     		uxtb	r2, r2
 246:application/cmd/robot_cmd.c ****         {
 428              		.loc 1 246 12 view .LVU143
 429 014e 012A     		cmp	r2, #1
 430 0150 17D9     		bls	.L63
 431              	.L37:
ARM GAS  C:\Users\Administrator\AppData\Local\Temp\ccHxBunt.s 			page 15


 269:application/cmd/robot_cmd.c ****         if (gimbal_cmd_send.gimbal_mode == GIMBAL_GYRO_MODE)
 432              		.loc 1 269 9 is_stmt 1 view .LVU144
 270:application/cmd/robot_cmd.c ****         { // µīēńģ¦µæćµØåńÜäĶŠōÕć║Õż¦Õ░ÅĶ┐øĶĪīĶ¦ÆÕ║”Õó×ķćÅ,µŗ©µØåÕÉæÕÅ│/ÕÉæõĖŖõĖ║µŁŻ
 433              		.loc 1 270 9 view .LVU145
 270:application/cmd/robot_cmd.c ****         { // µīēńģ¦µæćµØåńÜäĶŠōÕć║Õż¦Õ░ÅĶ┐øĶĪīĶ¦ÆÕ║”Õó×ķćÅ,µŗ©µØåÕÉæÕÅ│/ÕÉæõĖŖõĖ║µŁŻ
 434              		.loc 1 270 28 is_stmt 0 view .LVU146
 435 0152 464A     		ldr	r2, .L67
 436 0154 127C     		ldrb	r2, [r2, #16]	@ zero_extendqisi2
 270:application/cmd/robot_cmd.c ****         { // µīēńģ¦µæćµØåńÜäĶŠōÕć║Õż¦Õ░ÅĶ┐øĶĪīĶ¦ÆÕ║”Õó×ķćÅ,µŗ©µØåÕÉæÕÅ│/ÕÉæõĖŖõĖ║µŁŻ
 437              		.loc 1 270 12 view .LVU147
 438 0156 012A     		cmp	r2, #1
 439 0158 85D1     		bne	.L36
 272:application/cmd/robot_cmd.c ****             gimbal_cmd_send.pitch += add_pitch;
 440              		.loc 1 272 13 is_stmt 1 view .LVU148
 272:application/cmd/robot_cmd.c ****             gimbal_cmd_send.pitch += add_pitch;
 441              		.loc 1 272 28 is_stmt 0 view .LVU149
 442 015a 444A     		ldr	r2, .L67
 443 015c 92ED017A 		vldr.32	s14, [r2, #4]
 272:application/cmd/robot_cmd.c ****             gimbal_cmd_send.pitch += add_pitch;
 444              		.loc 1 272 33 view .LVU150
 445 0160 4549     		ldr	r1, .L67+12
 446 0162 D1ED007A 		vldr.32	s15, [r1]
 447 0166 77EE877A 		vadd.f32	s15, s15, s14
 448 016a C2ED017A 		vstr.32	s15, [r2, #4]
 273:application/cmd/robot_cmd.c ****         }
 449              		.loc 1 273 13 is_stmt 1 view .LVU151
 273:application/cmd/robot_cmd.c ****         }
 450              		.loc 1 273 28 is_stmt 0 view .LVU152
 451 016e 92ED027A 		vldr.32	s14, [r2, #8]
 273:application/cmd/robot_cmd.c ****         }
 452              		.loc 1 273 35 view .LVU153
 453 0172 4349     		ldr	r1, .L67+20
 454 0174 D1ED007A 		vldr.32	s15, [r1]
 455 0178 77EE877A 		vadd.f32	s15, s15, s14
 456 017c C2ED027A 		vstr.32	s15, [r2, #8]
 457 0180 71E7     		b	.L36
 458              	.L63:
 459              	.LBB2:
 248:application/cmd/robot_cmd.c ****             float vision_pitch = vision_recv_data->pitch * RAD_TO_DEG + PITCH_ZERO_OFFSET;
 460              		.loc 1 248 13 is_stmt 1 view .LVU154
 248:application/cmd/robot_cmd.c ****             float vision_pitch = vision_recv_data->pitch * RAD_TO_DEG + PITCH_ZERO_OFFSET;
 461              		.loc 1 248 48 is_stmt 0 view .LVU155
 462 0182 D1F80320 		ldr	r2, [r1, #3]	@ unaligned
 463 0186 07EE102A 		vmov	s14, r2	@ int
 248:application/cmd/robot_cmd.c ****             float vision_pitch = vision_recv_data->pitch * RAD_TO_DEG + PITCH_ZERO_OFFSET;
 464              		.loc 1 248 54 view .LVU156
 465 018a DFED486A 		vldr.32	s13, .L67+64
 466 018e 27EE267A 		vmul.f32	s14, s14, s13
 248:application/cmd/robot_cmd.c ****             float vision_pitch = vision_recv_data->pitch * RAD_TO_DEG + PITCH_ZERO_OFFSET;
 467              		.loc 1 248 19 view .LVU157
 468 0192 F7EE047A 		vmov.f32	s15, #1.25e+0
 469 0196 27EE277A 		vmul.f32	s14, s14, s15
 470              	.LVL3:
 249:application/cmd/robot_cmd.c ****             if (vision_recv_data->mode == 2) {
 471              		.loc 1 249 13 is_stmt 1 view .LVU158
 249:application/cmd/robot_cmd.c ****             if (vision_recv_data->mode == 2) {
 472              		.loc 1 249 50 is_stmt 0 view .LVU159
ARM GAS  C:\Users\Administrator\AppData\Local\Temp\ccHxBunt.s 			page 16


 473 019a D1F80F20 		ldr	r2, [r1, #15]	@ unaligned
 474 019e 07EE902A 		vmov	s15, r2	@ int
 249:application/cmd/robot_cmd.c ****             if (vision_recv_data->mode == 2) {
 475              		.loc 1 249 58 view .LVU160
 476 01a2 67EEA67A 		vmul.f32	s15, s15, s13
 249:application/cmd/robot_cmd.c ****             if (vision_recv_data->mode == 2) {
 477              		.loc 1 249 19 view .LVU161
 478 01a6 DFED426A 		vldr.32	s13, .L67+68
 479 01aa 77EEA67A 		vadd.f32	s15, s15, s13
 480              	.LVL4:
 250:application/cmd/robot_cmd.c ****                 shoot_cmd_send.shoot_mode = SHOOT_ON;
 481              		.loc 1 250 13 is_stmt 1 view .LVU162
 250:application/cmd/robot_cmd.c ****                 shoot_cmd_send.shoot_mode = SHOOT_ON;
 482              		.loc 1 250 16 is_stmt 0 view .LVU163
 483 01ae 0228     		cmp	r0, #2
 484 01b0 11D0     		beq	.L64
 256:application/cmd/robot_cmd.c ****                 shoot_cmd_send.friction_mode = FRICTION_ON;
 485              		.loc 1 256 17 is_stmt 1 view .LVU164
 256:application/cmd/robot_cmd.c ****                 shoot_cmd_send.friction_mode = FRICTION_ON;
 486              		.loc 1 256 42 is_stmt 0 view .LVU165
 487 01b2 3A4A     		ldr	r2, .L67+48
 488 01b4 0021     		movs	r1, #0
 489 01b6 5170     		strb	r1, [r2, #1]
 257:application/cmd/robot_cmd.c ****             }
 490              		.loc 1 257 17 is_stmt 1 view .LVU166
 257:application/cmd/robot_cmd.c ****             }
 491              		.loc 1 257 46 is_stmt 0 view .LVU167
 492 01b8 0121     		movs	r1, #1
 493 01ba D170     		strb	r1, [r2, #3]
 494              	.L39:
 259:application/cmd/robot_cmd.c ****             gimbal_cmd_send.yaw = vision_yaw;
 495              		.loc 1 259 13 is_stmt 1 view .LVU168
 259:application/cmd/robot_cmd.c ****             gimbal_cmd_send.yaw = vision_yaw;
 496              		.loc 1 259 41 is_stmt 0 view .LVU169
 497 01bc 2B4A     		ldr	r2, .L67
 498 01be 0121     		movs	r1, #1
 499 01c0 1174     		strb	r1, [r2, #16]
 260:application/cmd/robot_cmd.c ****             gimbal_cmd_send.pitch = vision_pitch;
 500              		.loc 1 260 13 is_stmt 1 view .LVU170
 260:application/cmd/robot_cmd.c ****             gimbal_cmd_send.pitch = vision_pitch;
 501              		.loc 1 260 33 is_stmt 0 view .LVU171
 502 01c2 82ED017A 		vstr.32	s14, [r2, #4]
 261:application/cmd/robot_cmd.c ****             add_yaw = 0.0f;
 503              		.loc 1 261 13 is_stmt 1 view .LVU172
 261:application/cmd/robot_cmd.c ****             add_yaw = 0.0f;
 504              		.loc 1 261 35 is_stmt 0 view .LVU173
 505 01c6 C2ED027A 		vstr.32	s15, [r2, #8]
 262:application/cmd/robot_cmd.c ****             add_pitch = 0.0f;
 506              		.loc 1 262 13 is_stmt 1 view .LVU174
 262:application/cmd/robot_cmd.c ****             add_pitch = 0.0f;
 507              		.loc 1 262 21 is_stmt 0 view .LVU175
 508 01ca 0022     		movs	r2, #0
 509 01cc 2A49     		ldr	r1, .L67+12
 510 01ce 0A60     		str	r2, [r1]	@ float
 263:application/cmd/robot_cmd.c ****         }
 511              		.loc 1 263 13 is_stmt 1 view .LVU176
 263:application/cmd/robot_cmd.c ****         }
ARM GAS  C:\Users\Administrator\AppData\Local\Temp\ccHxBunt.s 			page 17


 512              		.loc 1 263 23 is_stmt 0 view .LVU177
 513 01d0 2B49     		ldr	r1, .L67+20
 514 01d2 0A60     		str	r2, [r1]	@ float
 515              	.LBE2:
 516 01d4 BDE7     		b	.L37
 517              	.L64:
 518              	.LBB3:
 251:application/cmd/robot_cmd.c ****                 shoot_cmd_send.friction_mode = FRICTION_ON;
 519              		.loc 1 251 17 is_stmt 1 view .LVU178
 251:application/cmd/robot_cmd.c ****                 shoot_cmd_send.friction_mode = FRICTION_ON;
 520              		.loc 1 251 43 is_stmt 0 view .LVU179
 521 01d6 314A     		ldr	r2, .L67+48
 522 01d8 0221     		movs	r1, #2
 523 01da 1170     		strb	r1, [r2]
 252:application/cmd/robot_cmd.c ****                 shoot_cmd_send.load_mode = LOAD_BURSTFIRE;
 524              		.loc 1 252 17 is_stmt 1 view .LVU180
 252:application/cmd/robot_cmd.c ****                 shoot_cmd_send.load_mode = LOAD_BURSTFIRE;
 525              		.loc 1 252 46 is_stmt 0 view .LVU181
 526 01dc 0121     		movs	r1, #1
 527 01de D170     		strb	r1, [r2, #3]
 253:application/cmd/robot_cmd.c ****                 shoot_cmd_send.shoot_rate = 10;
 528              		.loc 1 253 17 is_stmt 1 view .LVU182
 253:application/cmd/robot_cmd.c ****                 shoot_cmd_send.shoot_rate = 10;
 529              		.loc 1 253 42 is_stmt 0 view .LVU183
 530 01e0 0421     		movs	r1, #4
 531 01e2 5170     		strb	r1, [r2, #1]
 254:application/cmd/robot_cmd.c ****             } else { // mode == 1: Ķ»åÕł½Õł░ńø«µĀćõĮåõĖŹÕ░äÕć╗
 532              		.loc 1 254 17 is_stmt 1 view .LVU184
 254:application/cmd/robot_cmd.c ****             } else { // mode == 1: Ķ»åÕł½Õł░ńø«µĀćõĮåõĖŹÕ░äÕć╗
 533              		.loc 1 254 43 is_stmt 0 view .LVU185
 534 01e4 3349     		ldr	r1, .L67+72
 535 01e6 C2F80610 		str	r1, [r2, #6]	@ unaligned
 536 01ea E7E7     		b	.L39
 537              	.LVL5:
 538              	.L52:
 254:application/cmd/robot_cmd.c ****             } else { // mode == 1: Ķ»åÕł½Õł░ńø«µĀćõĮåõĖŹÕ░äÕć╗
 539              		.loc 1 254 43 view .LVU186
 540              	.LBE3:
 280:application/cmd/robot_cmd.c ****           robot_config->gimbal_param.gimbal_offset.pitch_min_angle, 
 541              		.loc 1 280 2 is_stmt 1 discriminator 2 view .LVU187
 542 01ec 92ED467A 		vldr.32	s14, [r2, #280]
 543 01f0 F4EEC77A 		vcmpe.f32	s15, s14
 544 01f4 F1EE10FA 		vmrs	APSR_nzcv, FPSCR
 545 01f8 FFF645AF 		blt	.L42
 280:application/cmd/robot_cmd.c ****           robot_config->gimbal_param.gimbal_offset.pitch_min_angle, 
 546              		.loc 1 280 2 discriminator 3 view .LVU188
 547 01fc 1B4A     		ldr	r2, .L67
 548 01fe 82ED027A 		vstr.32	s14, [r2, #8]
 549 0202 40E7     		b	.L42
 550              	.L58:
 303:application/cmd/robot_cmd.c ****         if (last_shoot_mode == SHOOT_OFF && shoot_cmd_send.friction_mode == FRICTION_ON)
 551              		.loc 1 303 9 view .LVU189
 303:application/cmd/robot_cmd.c ****         if (last_shoot_mode == SHOOT_OFF && shoot_cmd_send.friction_mode == FRICTION_ON)
 552              		.loc 1 303 35 is_stmt 0 view .LVU190
 553 0204 2549     		ldr	r1, .L67+48
 554 0206 0220     		movs	r0, #2
 555 0208 0870     		strb	r0, [r1]
ARM GAS  C:\Users\Administrator\AppData\Local\Temp\ccHxBunt.s 			page 18


 304:application/cmd/robot_cmd.c ****             shoot_cmd_send.friction_mode = FRICTION_OFF;
 556              		.loc 1 304 9 is_stmt 1 view .LVU191
 304:application/cmd/robot_cmd.c ****             shoot_cmd_send.friction_mode = FRICTION_OFF;
 557              		.loc 1 304 29 is_stmt 0 view .LVU192
 558 020a 2549     		ldr	r1, .L67+52
 559 020c 0978     		ldrb	r1, [r1]	@ zero_extendqisi2
 304:application/cmd/robot_cmd.c ****             shoot_cmd_send.friction_mode = FRICTION_OFF;
 560              		.loc 1 304 12 view .LVU193
 561 020e 0129     		cmp	r1, #1
 562 0210 13D0     		beq	.L65
 563              	.L45:
 306:application/cmd/robot_cmd.c ****             shoot_cmd_send.friction_mode = FRICTION_ON;
 564              		.loc 1 306 14 is_stmt 1 view .LVU194
 306:application/cmd/robot_cmd.c ****             shoot_cmd_send.friction_mode = FRICTION_ON;
 565              		.loc 1 306 17 is_stmt 0 view .LVU195
 566 0212 0129     		cmp	r1, #1
 567 0214 19D0     		beq	.L66
 568              	.L46:
 309:application/cmd/robot_cmd.c ****             shoot_cmd_send.load_mode = LOAD_STOP;     
 569              		.loc 1 309 9 is_stmt 1 view .LVU196
 309:application/cmd/robot_cmd.c ****             shoot_cmd_send.load_mode = LOAD_STOP;     
 570              		.loc 1 309 29 is_stmt 0 view .LVU197
 571 0216 B3F90830 		ldrsh	r3, [r3, #8]
 309:application/cmd/robot_cmd.c ****             shoot_cmd_send.load_mode = LOAD_STOP;     
 572              		.loc 1 309 12 view .LVU198
 573 021a 092B     		cmp	r3, #9
 574 021c 02DC     		bgt	.L47
 310:application/cmd/robot_cmd.c ****         
 575              		.loc 1 310 13 is_stmt 1 view .LVU199
 310:application/cmd/robot_cmd.c ****         
 576              		.loc 1 310 38 is_stmt 0 view .LVU200
 577 021e 1F49     		ldr	r1, .L67+48
 578 0220 0020     		movs	r0, #0
 579 0222 4870     		strb	r0, [r1, #1]
 580              	.L47:
 313:application/cmd/robot_cmd.c ****         {
 581              		.loc 1 313 9 is_stmt 1 view .LVU201
 313:application/cmd/robot_cmd.c ****         {
 582              		.loc 1 313 12 is_stmt 0 view .LVU202
 583 0224 B3F5167F 		cmp	r3, #600
 584 0228 7FF756AF 		ble	.L44
 316:application/cmd/robot_cmd.c ****             shoot_cmd_send.load_mode = LOAD_BURSTFIRE;
 585              		.loc 1 316 13 is_stmt 1 view .LVU203
 316:application/cmd/robot_cmd.c ****             shoot_cmd_send.load_mode = LOAD_BURSTFIRE;
 586              		.loc 1 316 39 is_stmt 0 view .LVU204
 587 022c 1B4B     		ldr	r3, .L67+48
 588 022e 2149     		ldr	r1, .L67+72
 589 0230 C3F80610 		str	r1, [r3, #6]	@ unaligned
 317:application/cmd/robot_cmd.c ****         }     
 590              		.loc 1 317 13 is_stmt 1 view .LVU205
 317:application/cmd/robot_cmd.c ****         }     
 591              		.loc 1 317 38 is_stmt 0 view .LVU206
 592 0234 0421     		movs	r1, #4
 593 0236 5970     		strb	r1, [r3, #1]
 594 0238 4EE7     		b	.L44
 595              	.L65:
 304:application/cmd/robot_cmd.c ****             shoot_cmd_send.friction_mode = FRICTION_OFF;
ARM GAS  C:\Users\Administrator\AppData\Local\Temp\ccHxBunt.s 			page 19


 596              		.loc 1 304 59 discriminator 1 view .LVU207
 597 023a 1848     		ldr	r0, .L67+48
 598 023c C078     		ldrb	r0, [r0, #3]	@ zero_extendqisi2
 304:application/cmd/robot_cmd.c ****             shoot_cmd_send.friction_mode = FRICTION_OFF;
 599              		.loc 1 304 42 discriminator 1 view .LVU208
 600 023e 0128     		cmp	r0, #1
 601 0240 E7D1     		bne	.L45
 305:application/cmd/robot_cmd.c ****         else if (last_shoot_mode == SHOOT_OFF && shoot_cmd_send.friction_mode != FRICTION_ON)
 602              		.loc 1 305 13 is_stmt 1 view .LVU209
 305:application/cmd/robot_cmd.c ****         else if (last_shoot_mode == SHOOT_OFF && shoot_cmd_send.friction_mode != FRICTION_ON)
 603              		.loc 1 305 42 is_stmt 0 view .LVU210
 604 0242 1649     		ldr	r1, .L67+48
 605 0244 0020     		movs	r0, #0
 606 0246 C870     		strb	r0, [r1, #3]
 607 0248 E5E7     		b	.L46
 608              	.L66:
 306:application/cmd/robot_cmd.c ****             shoot_cmd_send.friction_mode = FRICTION_ON;
 609              		.loc 1 306 64 discriminator 1 view .LVU211
 610 024a 1449     		ldr	r1, .L67+48
 611 024c C978     		ldrb	r1, [r1, #3]	@ zero_extendqisi2
 306:application/cmd/robot_cmd.c ****             shoot_cmd_send.friction_mode = FRICTION_ON;
 612              		.loc 1 306 47 discriminator 1 view .LVU212
 613 024e 0129     		cmp	r1, #1
 614 0250 E1D0     		beq	.L46
 307:application/cmd/robot_cmd.c ****          
 615              		.loc 1 307 13 is_stmt 1 view .LVU213
 307:application/cmd/robot_cmd.c ****          
 616              		.loc 1 307 42 is_stmt 0 view .LVU214
 617 0252 1249     		ldr	r1, .L67+48
 618 0254 0120     		movs	r0, #1
 619 0256 C870     		strb	r0, [r1, #3]
 620 0258 DDE7     		b	.L46
 621              	.L59:
 324:application/cmd/robot_cmd.c ****     }
 622              		.loc 1 324 9 is_stmt 1 view .LVU215
 324:application/cmd/robot_cmd.c ****     }
 623              		.loc 1 324 35 is_stmt 0 view .LVU216
 624 025a 104B     		ldr	r3, .L67+48
 625 025c 0121     		movs	r1, #1
 626 025e 1970     		strb	r1, [r3]
 627 0260 3DE7     		b	.L48
 628              	.L60:
 330:application/cmd/robot_cmd.c ****         shoot_cmd_send.friction_mode = FRICTION_OFF;      
 629              		.loc 1 330 9 is_stmt 1 view .LVU217
 330:application/cmd/robot_cmd.c ****         shoot_cmd_send.friction_mode = FRICTION_OFF;      
 630              		.loc 1 330 35 is_stmt 0 view .LVU218
 631 0262 0E4B     		ldr	r3, .L67+48
 632 0264 1A70     		strb	r2, [r3]
 331:application/cmd/robot_cmd.c ****     }
 633              		.loc 1 331 9 is_stmt 1 view .LVU219
 331:application/cmd/robot_cmd.c ****     }
 634              		.loc 1 331 38 is_stmt 0 view .LVU220
 635 0266 0022     		movs	r2, #0
 636 0268 DA70     		strb	r2, [r3, #3]
 637 026a 3BE7     		b	.L49
 638              	.L68:
 639              		.align	2
ARM GAS  C:\Users\Administrator\AppData\Local\Temp\ccHxBunt.s 			page 20


 640              	.L67:
 641 026c 00000000 		.word	gimbal_cmd_send
 642 0270 00000000 		.word	rc_data
 643 0274 6F12033B 		.word	990057071
 644 0278 00000000 		.word	add_yaw.2
 645 027c 17B75139 		.word	961656599
 646 0280 00000000 		.word	add_pitch.1
 647 0284 00000000 		.word	robot_state
 648 0288 00000000 		.word	robot_config
 649 028c 09F2943B 		.word	999617033
 650 0290 00000000 		.word	chassis_cmd_send
 651 0294 0BC5AD3B 		.word	1001243915
 652 0298 103E783B 		.word	997735952
 653 029c 00000000 		.word	shoot_cmd_send
 654 02a0 00000000 		.word	last_shoot_mode.0
 655 02a4 00000000 		.word	gimbal_fetch_data
 656 02a8 00000000 		.word	vision_recv_data
 657 02ac E12E6542 		.word	1113927393
 658 02b0 00000000 		.word	0
 659 02b4 00002041 		.word	1092616192
 660              		.cfi_endproc
 661              	.LFE279:
 663              		.section	.text.MouseKeySet,"ax",%progbits
 664              		.align	1
 665              		.syntax unified
 666              		.thumb
 667              		.thumb_func
 669              	MouseKeySet:
 670              	.LFB280:
 338:application/cmd/robot_cmd.c **** 
 339:application/cmd/robot_cmd.c **** /**
 340:application/cmd/robot_cmd.c ****  * @brief ĶŠōÕģźõĖ║ķö«ķ╝ĀµŚČµ©ĪÕ╝ÅÕÆīµÄ¦ÕłČķćÅĶ«ŠńĮ«
 341:application/cmd/robot_cmd.c ****  *
 342:application/cmd/robot_cmd.c ****  */
 343:application/cmd/robot_cmd.c **** static void MouseKeySet()
 344:application/cmd/robot_cmd.c **** {
 671              		.loc 1 344 1 is_stmt 1 view -0
 672              		.cfi_startproc
 673              		@ args = 0, pretend = 0, frame = 0
 674              		@ frame_needed = 0, uses_anonymous_args = 0
 675              		@ link register save eliminated.
 345:application/cmd/robot_cmd.c ****     static float add_yaw, add_pitch; // Ķ¦ÆÕ║”Õó×ķćÅ
 676              		.loc 1 345 5 view .LVU222
 346:application/cmd/robot_cmd.c ****     add_yaw = (float)rc_data[TEMP].mouse.x / 660 * 10; // ń│╗µĢ░ÕŠģµĄŗ
 677              		.loc 1 346 5 view .LVU223
 678              		.loc 1 346 29 is_stmt 0 view .LVU224
 679 0000 634B     		ldr	r3, .L94
 680 0002 1A68     		ldr	r2, [r3]
 681              		.loc 1 346 41 view .LVU225
 682 0004 B2F90C30 		ldrsh	r3, [r2, #12]
 683 0008 07EE103A 		vmov	s14, r3	@ int
 684              		.loc 1 346 15 view .LVU226
 685 000c B8EEC77A 		vcvt.f32.s32	s14, s14
 686              		.loc 1 346 44 view .LVU227
 687 0010 9FED606A 		vldr.32	s12, .L94+4
 688 0014 C7EE067A 		vdiv.f32	s15, s14, s12
 689              		.loc 1 346 50 view .LVU228
ARM GAS  C:\Users\Administrator\AppData\Local\Temp\ccHxBunt.s 			page 21


 690 0018 F2EE046A 		vmov.f32	s13, #1.0e+1
 691 001c 67EEA67A 		vmul.f32	s15, s15, s13
 692              		.loc 1 346 13 view .LVU229
 693 0020 5D4B     		ldr	r3, .L94+8
 694 0022 C3ED007A 		vstr.32	s15, [r3]
 347:application/cmd/robot_cmd.c ****     add_pitch = -(float)rc_data[TEMP].mouse.y / 660 * 10;
 695              		.loc 1 347 5 is_stmt 1 view .LVU230
 696              		.loc 1 347 44 is_stmt 0 view .LVU231
 697 0026 B2F90E30 		ldrsh	r3, [r2, #14]
 698 002a 07EE903A 		vmov	s15, r3	@ int
 699              		.loc 1 347 18 view .LVU232
 700 002e F8EEE77A 		vcvt.f32.s32	s15, s15
 701              		.loc 1 347 17 view .LVU233
 702 0032 F1EE677A 		vneg.f32	s15, s15
 703              		.loc 1 347 47 view .LVU234
 704 0036 87EE867A 		vdiv.f32	s14, s15, s12
 705              		.loc 1 347 53 view .LVU235
 706 003a 67EE267A 		vmul.f32	s15, s14, s13
 707              		.loc 1 347 15 view .LVU236
 708 003e 574B     		ldr	r3, .L94+12
 709 0040 C3ED007A 		vstr.32	s15, [r3]
 348:application/cmd/robot_cmd.c **** 
 349:application/cmd/robot_cmd.c ****     chassis_cmd_send.vx = rc_data[TEMP].key[KEY_PRESS].a * 300 - rc_data[TEMP].key[KEY_PRESS].d * 3
 710              		.loc 1 349 5 is_stmt 1 view .LVU237
 711              		.loc 1 349 55 is_stmt 0 view .LVU238
 712 0044 917C     		ldrb	r1, [r2, #18]	@ zero_extendqisi2
 713 0046 C1F3C003 		ubfx	r3, r1, #3, #1
 714              		.loc 1 349 94 view .LVU239
 715 004a C1F38000 		ubfx	r0, r1, #2, #1
 716              		.loc 1 349 64 view .LVU240
 717 004e 1B1A     		subs	r3, r3, r0
 718 0050 4FF4967C 		mov	ip, #300
 719 0054 0CFB03F3 		mul	r3, ip, r3
 720              		.loc 1 349 25 view .LVU241
 721 0058 5148     		ldr	r0, .L94+16
 722 005a 07EE903A 		vmov	s15, r3	@ int
 723 005e F8EEE77A 		vcvt.f32.s32	s15, s15
 724 0062 C0ED007A 		vstr.32	s15, [r0]
 350:application/cmd/robot_cmd.c ****     chassis_cmd_send.vy = rc_data[TEMP].key[KEY_PRESS].w * 300 - rc_data[TEMP].key[KEY_PRESS].s * 3
 725              		.loc 1 350 5 is_stmt 1 view .LVU242
 726              		.loc 1 350 55 is_stmt 0 view .LVU243
 727 0066 01F00103 		and	r3, r1, #1
 728              		.loc 1 350 94 view .LVU244
 729 006a C1F34001 		ubfx	r1, r1, #1, #1
 730              		.loc 1 350 64 view .LVU245
 731 006e 5B1A     		subs	r3, r3, r1
 732 0070 0CFB03F3 		mul	r3, ip, r3
 733              		.loc 1 350 25 view .LVU246
 734 0074 07EE903A 		vmov	s15, r3	@ int
 735 0078 F8EEE77A 		vcvt.f32.s32	s15, s15
 736 007c C0ED017A 		vstr.32	s15, [r0, #4]
 351:application/cmd/robot_cmd.c **** 
 352:application/cmd/robot_cmd.c ****     switch (rc_data[TEMP].key_count[KEY_PRESS][Key_G] % 2) // Gķö«Ķ«ŠńĮ«µ©ĪÕ╝Å
 737              		.loc 1 352 5 is_stmt 1 view .LVU247
 738              		.loc 1 352 47 is_stmt 0 view .LVU248
 739 0080 92F82230 		ldrb	r3, [r2, #34]	@ zero_extendqisi2
 740              		.loc 1 352 5 view .LVU249
ARM GAS  C:\Users\Administrator\AppData\Local\Temp\ccHxBunt.s 			page 22


 741 0084 13F00103 		ands	r3, r3, #1
 742 0088 07D0     		beq	.L70
 743 008a DBB9     		cbnz	r3, .L71
 353:application/cmd/robot_cmd.c ****     {
 354:application/cmd/robot_cmd.c ****     case 0:
 355:application/cmd/robot_cmd.c ****         chassis_cmd_send.chassis_mode = CHASSIS_FOLLOW_GIMBAL_YAW;
 356:application/cmd/robot_cmd.c ****         gimbal_cmd_send.gimbal_mode = GIMBAL_GYRO_MODE;
 357:application/cmd/robot_cmd.c ****         break;
 358:application/cmd/robot_cmd.c ****     case 1:
 359:application/cmd/robot_cmd.c ****         chassis_cmd_send.chassis_mode = CHASSIS_ROTATE;
 360:application/cmd/robot_cmd.c ****         gimbal_cmd_send.gimbal_mode = GIMBAL_GYRO_MODE;
 361:application/cmd/robot_cmd.c ****         break;
 362:application/cmd/robot_cmd.c ****     default:
 363:application/cmd/robot_cmd.c ****         chassis_cmd_send.chassis_mode = CHASSIS_FOLLOW_GIMBAL_YAW;
 744              		.loc 1 363 9 is_stmt 1 view .LVU250
 745              		.loc 1 363 39 is_stmt 0 view .LVU251
 746 008c 444B     		ldr	r3, .L94+16
 747 008e 0321     		movs	r1, #3
 748 0090 1975     		strb	r1, [r3, #20]
 364:application/cmd/robot_cmd.c ****         gimbal_cmd_send.gimbal_mode = GIMBAL_GYRO_MODE;
 749              		.loc 1 364 9 is_stmt 1 view .LVU252
 750              		.loc 1 364 37 is_stmt 0 view .LVU253
 751 0092 444B     		ldr	r3, .L94+20
 752 0094 0121     		movs	r1, #1
 753 0096 1974     		strb	r1, [r3, #16]
 365:application/cmd/robot_cmd.c ****         break;
 754              		.loc 1 365 9 is_stmt 1 view .LVU254
 755 0098 05E0     		b	.L73
 756              	.L70:
 355:application/cmd/robot_cmd.c ****         gimbal_cmd_send.gimbal_mode = GIMBAL_GYRO_MODE;
 757              		.loc 1 355 9 view .LVU255
 355:application/cmd/robot_cmd.c ****         gimbal_cmd_send.gimbal_mode = GIMBAL_GYRO_MODE;
 758              		.loc 1 355 39 is_stmt 0 view .LVU256
 759 009a 414B     		ldr	r3, .L94+16
 760 009c 0321     		movs	r1, #3
 761 009e 1975     		strb	r1, [r3, #20]
 356:application/cmd/robot_cmd.c ****         break;
 762              		.loc 1 356 9 is_stmt 1 view .LVU257
 356:application/cmd/robot_cmd.c ****         break;
 763              		.loc 1 356 37 is_stmt 0 view .LVU258
 764 00a0 404B     		ldr	r3, .L94+20
 765 00a2 0121     		movs	r1, #1
 766 00a4 1974     		strb	r1, [r3, #16]
 357:application/cmd/robot_cmd.c ****     case 1:
 767              		.loc 1 357 9 is_stmt 1 view .LVU259
 768              	.L73:
 366:application/cmd/robot_cmd.c ****     }
 367:application/cmd/robot_cmd.c **** 
 368:application/cmd/robot_cmd.c ****     shoot_cmd_send.bullet_speed = 15;
 769              		.loc 1 368 5 view .LVU260
 770              		.loc 1 368 33 is_stmt 0 view .LVU261
 771 00a6 404B     		ldr	r3, .L94+24
 772 00a8 0F21     		movs	r1, #15
 773 00aa 1971     		strb	r1, [r3, #4]
 369:application/cmd/robot_cmd.c ****     switch (rc_data[TEMP].key_count[KEY_PRESS][Key_F] % 2) // Fķö«Õ╝ĆÕģ│µæ®µō”ĶĮ«
 774              		.loc 1 369 5 is_stmt 1 view .LVU262
 775              		.loc 1 369 47 is_stmt 0 view .LVU263
ARM GAS  C:\Users\Administrator\AppData\Local\Temp\ccHxBunt.s 			page 23


 776 00ac 92F82130 		ldrb	r3, [r2, #33]	@ zero_extendqisi2
 777              		.loc 1 369 5 view .LVU264
 778 00b0 13F00103 		ands	r3, r3, #1
 779 00b4 0CD0     		beq	.L74
 780 00b6 E3B9     		cbnz	r3, .L75
 370:application/cmd/robot_cmd.c ****     {
 371:application/cmd/robot_cmd.c ****     case 0:
 372:application/cmd/robot_cmd.c ****         shoot_cmd_send.shoot_mode = SHOOT_ON;
 373:application/cmd/robot_cmd.c ****         shoot_cmd_send.friction_mode = FRICTION_OFF;
 374:application/cmd/robot_cmd.c ****         break;
 375:application/cmd/robot_cmd.c ****     case 1:
 376:application/cmd/robot_cmd.c ****         shoot_cmd_send.shoot_mode = SHOOT_ON;
 377:application/cmd/robot_cmd.c ****         shoot_cmd_send.friction_mode = FRICTION_ON;
 378:application/cmd/robot_cmd.c ****         break;    
 379:application/cmd/robot_cmd.c ****     default:
 380:application/cmd/robot_cmd.c ****         shoot_cmd_send.shoot_mode = SHOOT_ON;
 781              		.loc 1 380 9 is_stmt 1 view .LVU265
 782              		.loc 1 380 35 is_stmt 0 view .LVU266
 783 00b8 3B4B     		ldr	r3, .L94+24
 784 00ba 0221     		movs	r1, #2
 785 00bc 1970     		strb	r1, [r3]
 381:application/cmd/robot_cmd.c ****         shoot_cmd_send.friction_mode = FRICTION_OFF;
 786              		.loc 1 381 9 is_stmt 1 view .LVU267
 787              		.loc 1 381 38 is_stmt 0 view .LVU268
 788 00be 0021     		movs	r1, #0
 789 00c0 D970     		strb	r1, [r3, #3]
 382:application/cmd/robot_cmd.c ****         break;
 790              		.loc 1 382 9 is_stmt 1 view .LVU269
 791 00c2 0AE0     		b	.L77
 792              	.L71:
 359:application/cmd/robot_cmd.c ****         gimbal_cmd_send.gimbal_mode = GIMBAL_GYRO_MODE;
 793              		.loc 1 359 9 view .LVU270
 359:application/cmd/robot_cmd.c ****         gimbal_cmd_send.gimbal_mode = GIMBAL_GYRO_MODE;
 794              		.loc 1 359 39 is_stmt 0 view .LVU271
 795 00c4 0123     		movs	r3, #1
 796 00c6 3649     		ldr	r1, .L94+16
 797 00c8 0B75     		strb	r3, [r1, #20]
 360:application/cmd/robot_cmd.c ****         break;
 798              		.loc 1 360 9 is_stmt 1 view .LVU272
 360:application/cmd/robot_cmd.c ****         break;
 799              		.loc 1 360 37 is_stmt 0 view .LVU273
 800 00ca 3649     		ldr	r1, .L94+20
 801 00cc 0B74     		strb	r3, [r1, #16]
 361:application/cmd/robot_cmd.c ****     default:
 802              		.loc 1 361 9 is_stmt 1 view .LVU274
 803 00ce EAE7     		b	.L73
 804              	.L74:
 372:application/cmd/robot_cmd.c ****         shoot_cmd_send.friction_mode = FRICTION_OFF;
 805              		.loc 1 372 9 view .LVU275
 372:application/cmd/robot_cmd.c ****         shoot_cmd_send.friction_mode = FRICTION_OFF;
 806              		.loc 1 372 35 is_stmt 0 view .LVU276
 807 00d0 354B     		ldr	r3, .L94+24
 808 00d2 0221     		movs	r1, #2
 809 00d4 1970     		strb	r1, [r3]
 373:application/cmd/robot_cmd.c ****         break;
 810              		.loc 1 373 9 is_stmt 1 view .LVU277
 373:application/cmd/robot_cmd.c ****         break;
ARM GAS  C:\Users\Administrator\AppData\Local\Temp\ccHxBunt.s 			page 24


 811              		.loc 1 373 38 is_stmt 0 view .LVU278
 812 00d6 0021     		movs	r1, #0
 813 00d8 D970     		strb	r1, [r3, #3]
 374:application/cmd/robot_cmd.c ****     case 1:
 814              		.loc 1 374 9 is_stmt 1 view .LVU279
 815              	.L77:
 383:application/cmd/robot_cmd.c ****     }
 384:application/cmd/robot_cmd.c **** 
 385:application/cmd/robot_cmd.c ****     if (shoot_cmd_send.friction_mode == FRICTION_ON)    // Õ╝ĆÕÉ»µæ®µō”ĶĮ«ÕÉÄÕĘ”ķö«ÕÅæÕ░ä
 816              		.loc 1 385 5 view .LVU280
 817              		.loc 1 385 23 is_stmt 0 view .LVU281
 818 00da 334B     		ldr	r3, .L94+24
 819 00dc DB78     		ldrb	r3, [r3, #3]	@ zero_extendqisi2
 820              		.loc 1 385 8 view .LVU282
 821 00de 012B     		cmp	r3, #1
 822 00e0 0DD0     		beq	.L91
 823              	.L78:
 386:application/cmd/robot_cmd.c ****     {
 387:application/cmd/robot_cmd.c ****         switch (rc_data[TEMP].mouse.press_l) 
 388:application/cmd/robot_cmd.c ****         {
 389:application/cmd/robot_cmd.c ****         case 0:
 390:application/cmd/robot_cmd.c ****             shoot_cmd_send.load_mode = LOAD_STOP;
 391:application/cmd/robot_cmd.c ****             break;
 392:application/cmd/robot_cmd.c ****         case 1:
 393:application/cmd/robot_cmd.c ****             // Õ░äķóæµÄ¦ÕłČ
 394:application/cmd/robot_cmd.c ****             shoot_cmd_send.shoot_rate = 10; 
 395:application/cmd/robot_cmd.c ****             shoot_cmd_send.load_mode = LOAD_BURSTFIRE;
 396:application/cmd/robot_cmd.c ****             break;
 397:application/cmd/robot_cmd.c ****         }
 398:application/cmd/robot_cmd.c ****     }
 399:application/cmd/robot_cmd.c **** 
 400:application/cmd/robot_cmd.c ****     switch (rc_data[TEMP].mouse.press_r)
 824              		.loc 1 400 5 is_stmt 1 view .LVU283
 825              		.loc 1 400 32 is_stmt 0 view .LVU284
 826 00e2 527C     		ldrb	r2, [r2, #17]	@ zero_extendqisi2
 827              		.loc 1 400 5 view .LVU285
 828 00e4 012A     		cmp	r2, #1
 829 00e6 19D0     		beq	.L92
 830              	.L81:
 401:application/cmd/robot_cmd.c ****     {
 402:application/cmd/robot_cmd.c ****     case 0:
 403:application/cmd/robot_cmd.c ****         break;
 404:application/cmd/robot_cmd.c ****     case 1:
 405:application/cmd/robot_cmd.c ****         if (vision_recv_data->mode == 1 || vision_recv_data->mode == 2)
 406:application/cmd/robot_cmd.c ****         {
 407:application/cmd/robot_cmd.c ****             gimbal_cmd_send.yaw = vision_recv_data->yaw;
 408:application/cmd/robot_cmd.c ****             gimbal_cmd_send.pitch = vision_recv_data->pitch;
 409:application/cmd/robot_cmd.c **** 
 410:application/cmd/robot_cmd.c ****             add_yaw = 0.0f;
 411:application/cmd/robot_cmd.c ****             add_pitch = 0.0f;
 412:application/cmd/robot_cmd.c **** 
 413:application/cmd/robot_cmd.c ****             if (vision_recv_data->mode == 2 && shoot_cmd_send.friction_mode == FRICTION_ON)
 414:application/cmd/robot_cmd.c ****             {
 415:application/cmd/robot_cmd.c ****                 shoot_cmd_send.shoot_rate = 10;
 416:application/cmd/robot_cmd.c ****                 shoot_cmd_send.load_mode = LOAD_BURSTFIRE;
 417:application/cmd/robot_cmd.c ****             }
 418:application/cmd/robot_cmd.c ****         }
ARM GAS  C:\Users\Administrator\AppData\Local\Temp\ccHxBunt.s 			page 25


 419:application/cmd/robot_cmd.c ****         break;
 420:application/cmd/robot_cmd.c **** 
 421:application/cmd/robot_cmd.c **** 
 422:application/cmd/robot_cmd.c ****         // if (vision_recv_data->target_state == TARGET_CONVERGING)
 423:application/cmd/robot_cmd.c ****         // {
 424:application/cmd/robot_cmd.c ****         //     shoot_cmd_send.load_mode = LOAD_BURSTFIRE;
 425:application/cmd/robot_cmd.c ****         // }
 426:application/cmd/robot_cmd.c ****         // else
 427:application/cmd/robot_cmd.c ****         // {
 428:application/cmd/robot_cmd.c ****         //     shoot_cmd_send.load_mode = LOAD_STOP;
 429:application/cmd/robot_cmd.c ****         // }
 430:application/cmd/robot_cmd.c ****         break;
 431:application/cmd/robot_cmd.c ****     default:
 432:application/cmd/robot_cmd.c ****         break;
 433:application/cmd/robot_cmd.c ****     }
 434:application/cmd/robot_cmd.c **** 
 435:application/cmd/robot_cmd.c ****     // gimbal_cmd_send.yaw += add_yaw;
 436:application/cmd/robot_cmd.c ****     // gimbal_cmd_send.pitch += add_pitch;
 437:application/cmd/robot_cmd.c **** 
 438:application/cmd/robot_cmd.c ****     if (chassis_cmd_send.chassis_mode == CHASSIS_FOLLOW_GIMBAL_YAW)
 831              		.loc 1 438 5 is_stmt 1 view .LVU286
 832              		.loc 1 438 25 is_stmt 0 view .LVU287
 833 00e8 2D4B     		ldr	r3, .L94+16
 834 00ea 1B7D     		ldrb	r3, [r3, #20]	@ zero_extendqisi2
 835              		.loc 1 438 8 view .LVU288
 836 00ec 032B     		cmp	r3, #3
 837 00ee 34D0     		beq	.L93
 838              	.L69:
 439:application/cmd/robot_cmd.c ****         // õ║æÕÅ░Ķ¦ÆÕ║”ķÖÉÕ╣ģ,Ķ”üµöŠÕ£©Õó×ķćÅõ╗źÕÉÄ
 440:application/cmd/robot_cmd.c ****     //    LimitSetAngle(add_yaw, add_pitch);
 441:application/cmd/robot_cmd.c ****     
 442:application/cmd/robot_cmd.c ****         VAL_LIMIT(gimbal_cmd_send.pitch, 
 443:application/cmd/robot_cmd.c ****         robot_config->gimbal_param.gimbal_offset.pitch_min_angle, 
 444:application/cmd/robot_cmd.c ****         robot_config->gimbal_param.gimbal_offset.pitch_max_angle);
 445:application/cmd/robot_cmd.c ****     // switch (rc_data[TEMP].key_count[KEY_PRESS][Key_R] % 2) // Rķö«Õ╝ĆÕģ│Õ╝╣Ķł▒
 446:application/cmd/robot_cmd.c ****     // {
 447:application/cmd/robot_cmd.c ****     // case 0:
 448:application/cmd/robot_cmd.c ****     //     shoot_cmd_send.lid_mode = LID_OPEN;
 449:application/cmd/robot_cmd.c ****     //     break;
 450:application/cmd/robot_cmd.c ****     // default:
 451:application/cmd/robot_cmd.c ****     //     shoot_cmd_send.lid_mode = LID_CLOSE;
 452:application/cmd/robot_cmd.c ****     //     break;
 453:application/cmd/robot_cmd.c ****     // }
 454:application/cmd/robot_cmd.c **** 
 455:application/cmd/robot_cmd.c ****     // switch (rc_data[TEMP].key_count[KEY_PRESS][Key_C] % 4) // Cķö«Ķ«ŠńĮ«Õ║ĢńøśķĆ¤Õ║”
 456:application/cmd/robot_cmd.c ****     // {
 457:application/cmd/robot_cmd.c ****     // case 0:
 458:application/cmd/robot_cmd.c ****     //     chassis_cmd_send.chassis_speed_buff = 40;
 459:application/cmd/robot_cmd.c ****     //     break;
 460:application/cmd/robot_cmd.c ****     // case 1:
 461:application/cmd/robot_cmd.c ****     //     chassis_cmd_send.chassis_speed_buff = 60;
 462:application/cmd/robot_cmd.c ****     //     break;
 463:application/cmd/robot_cmd.c ****     // case 2:
 464:application/cmd/robot_cmd.c ****     //     chassis_cmd_send.chassis_speed_buff = 80;
 465:application/cmd/robot_cmd.c ****     //     break;
 466:application/cmd/robot_cmd.c ****     // default:
 467:application/cmd/robot_cmd.c ****     //     chassis_cmd_send.chassis_speed_buff = 100;
ARM GAS  C:\Users\Administrator\AppData\Local\Temp\ccHxBunt.s 			page 26


 468:application/cmd/robot_cmd.c ****     //     break;
 469:application/cmd/robot_cmd.c ****     // }
 470:application/cmd/robot_cmd.c **** 
 471:application/cmd/robot_cmd.c ****     // switch (rc_data[TEMP].key[KEY_PRESS].shift) // ÕŠģµĘ╗ÕŖĀ µīēshiftÕģüĶ«ĖĶČģÕŖ¤ńÄć µČłĶĆŚń╝ōÕå
 472:application/cmd/robot_cmd.c ****     // {
 473:application/cmd/robot_cmd.c ****     // case 1:
 474:application/cmd/robot_cmd.c ****     //     break;
 475:application/cmd/robot_cmd.c ****     // default:
 476:application/cmd/robot_cmd.c ****     //     break;
 477:application/cmd/robot_cmd.c ****     // }
 478:application/cmd/robot_cmd.c **** 
 479:application/cmd/robot_cmd.c **** }
 839              		.loc 1 479 1 view .LVU289
 840 00f0 7047     		bx	lr
 841              	.L75:
 376:application/cmd/robot_cmd.c ****         shoot_cmd_send.friction_mode = FRICTION_ON;
 842              		.loc 1 376 9 is_stmt 1 view .LVU290
 376:application/cmd/robot_cmd.c ****         shoot_cmd_send.friction_mode = FRICTION_ON;
 843              		.loc 1 376 35 is_stmt 0 view .LVU291
 844 00f2 2D4B     		ldr	r3, .L94+24
 845 00f4 0221     		movs	r1, #2
 846 00f6 1970     		strb	r1, [r3]
 377:application/cmd/robot_cmd.c ****         break;    
 847              		.loc 1 377 9 is_stmt 1 view .LVU292
 377:application/cmd/robot_cmd.c ****         break;    
 848              		.loc 1 377 38 is_stmt 0 view .LVU293
 849 00f8 0121     		movs	r1, #1
 850 00fa D970     		strb	r1, [r3, #3]
 378:application/cmd/robot_cmd.c ****     default:
 851              		.loc 1 378 9 is_stmt 1 view .LVU294
 852 00fc EDE7     		b	.L77
 853              	.L91:
 387:application/cmd/robot_cmd.c ****         {
 854              		.loc 1 387 9 view .LVU295
 387:application/cmd/robot_cmd.c ****         {
 855              		.loc 1 387 36 is_stmt 0 view .LVU296
 856 00fe 117C     		ldrb	r1, [r2, #16]	@ zero_extendqisi2
 387:application/cmd/robot_cmd.c ****         {
 857              		.loc 1 387 9 view .LVU297
 858 0100 41B1     		cbz	r1, .L79
 859 0102 0129     		cmp	r1, #1
 860 0104 EDD1     		bne	.L78
 394:application/cmd/robot_cmd.c ****             shoot_cmd_send.load_mode = LOAD_BURSTFIRE;
 861              		.loc 1 394 13 is_stmt 1 view .LVU298
 394:application/cmd/robot_cmd.c ****             shoot_cmd_send.load_mode = LOAD_BURSTFIRE;
 862              		.loc 1 394 39 is_stmt 0 view .LVU299
 863 0106 2849     		ldr	r1, .L94+24
 864 0108 2848     		ldr	r0, .L94+28
 865 010a C1F80600 		str	r0, [r1, #6]	@ unaligned
 395:application/cmd/robot_cmd.c ****             break;
 866              		.loc 1 395 13 is_stmt 1 view .LVU300
 395:application/cmd/robot_cmd.c ****             break;
 867              		.loc 1 395 38 is_stmt 0 view .LVU301
 868 010e 0420     		movs	r0, #4
 869 0110 4870     		strb	r0, [r1, #1]
 396:application/cmd/robot_cmd.c ****         }
 870              		.loc 1 396 13 is_stmt 1 view .LVU302
ARM GAS  C:\Users\Administrator\AppData\Local\Temp\ccHxBunt.s 			page 27


 871 0112 E6E7     		b	.L78
 872              	.L79:
 390:application/cmd/robot_cmd.c ****             break;
 873              		.loc 1 390 13 view .LVU303
 390:application/cmd/robot_cmd.c ****             break;
 874              		.loc 1 390 38 is_stmt 0 view .LVU304
 875 0114 2449     		ldr	r1, .L94+24
 876 0116 0020     		movs	r0, #0
 877 0118 4870     		strb	r0, [r1, #1]
 391:application/cmd/robot_cmd.c ****         case 1:
 878              		.loc 1 391 13 is_stmt 1 view .LVU305
 879 011a E2E7     		b	.L78
 880              	.L92:
 405:application/cmd/robot_cmd.c ****         {
 881              		.loc 1 405 9 view .LVU306
 405:application/cmd/robot_cmd.c ****         {
 882              		.loc 1 405 29 is_stmt 0 view .LVU307
 883 011c 244A     		ldr	r2, .L94+32
 884 011e 1168     		ldr	r1, [r2]
 885 0120 8A78     		ldrb	r2, [r1, #2]	@ zero_extendqisi2
 405:application/cmd/robot_cmd.c ****         {
 886              		.loc 1 405 41 view .LVU308
 887 0122 013A     		subs	r2, r2, #1
 888 0124 D2B2     		uxtb	r2, r2
 405:application/cmd/robot_cmd.c ****         {
 889              		.loc 1 405 12 view .LVU309
 890 0126 012A     		cmp	r2, #1
 891 0128 DED8     		bhi	.L81
 407:application/cmd/robot_cmd.c ****             gimbal_cmd_send.pitch = vision_recv_data->pitch;
 892              		.loc 1 407 13 is_stmt 1 view .LVU310
 407:application/cmd/robot_cmd.c ****             gimbal_cmd_send.pitch = vision_recv_data->pitch;
 893              		.loc 1 407 51 is_stmt 0 view .LVU311
 894 012a D1F80300 		ldr	r0, [r1, #3]	@ unaligned
 407:application/cmd/robot_cmd.c ****             gimbal_cmd_send.pitch = vision_recv_data->pitch;
 895              		.loc 1 407 33 view .LVU312
 896 012e 1D4A     		ldr	r2, .L94+20
 897 0130 5060     		str	r0, [r2, #4]	@ float
 408:application/cmd/robot_cmd.c **** 
 898              		.loc 1 408 13 is_stmt 1 view .LVU313
 408:application/cmd/robot_cmd.c **** 
 899              		.loc 1 408 53 is_stmt 0 view .LVU314
 900 0132 D1F80F00 		ldr	r0, [r1, #15]	@ unaligned
 408:application/cmd/robot_cmd.c **** 
 901              		.loc 1 408 35 view .LVU315
 902 0136 9060     		str	r0, [r2, #8]	@ float
 410:application/cmd/robot_cmd.c ****             add_pitch = 0.0f;
 903              		.loc 1 410 13 is_stmt 1 view .LVU316
 410:application/cmd/robot_cmd.c ****             add_pitch = 0.0f;
 904              		.loc 1 410 21 is_stmt 0 view .LVU317
 905 0138 0022     		movs	r2, #0
 906 013a 1748     		ldr	r0, .L94+8
 907 013c 0260     		str	r2, [r0]	@ float
 411:application/cmd/robot_cmd.c **** 
 908              		.loc 1 411 13 is_stmt 1 view .LVU318
 411:application/cmd/robot_cmd.c **** 
 909              		.loc 1 411 23 is_stmt 0 view .LVU319
 910 013e 1748     		ldr	r0, .L94+12
ARM GAS  C:\Users\Administrator\AppData\Local\Temp\ccHxBunt.s 			page 28


 911 0140 0260     		str	r2, [r0]	@ float
 413:application/cmd/robot_cmd.c ****             {
 912              		.loc 1 413 13 is_stmt 1 view .LVU320
 413:application/cmd/robot_cmd.c ****             {
 913              		.loc 1 413 33 is_stmt 0 view .LVU321
 914 0142 8A78     		ldrb	r2, [r1, #2]	@ zero_extendqisi2
 413:application/cmd/robot_cmd.c ****             {
 915              		.loc 1 413 16 view .LVU322
 916 0144 022A     		cmp	r2, #2
 917 0146 CFD1     		bne	.L81
 413:application/cmd/robot_cmd.c ****             {
 918              		.loc 1 413 45 discriminator 1 view .LVU323
 919 0148 012B     		cmp	r3, #1
 920 014a CDD1     		bne	.L81
 415:application/cmd/robot_cmd.c ****                 shoot_cmd_send.load_mode = LOAD_BURSTFIRE;
 921              		.loc 1 415 17 is_stmt 1 view .LVU324
 415:application/cmd/robot_cmd.c ****                 shoot_cmd_send.load_mode = LOAD_BURSTFIRE;
 922              		.loc 1 415 43 is_stmt 0 view .LVU325
 923 014c 164B     		ldr	r3, .L94+24
 924 014e 174A     		ldr	r2, .L94+28
 925 0150 C3F80620 		str	r2, [r3, #6]	@ unaligned
 416:application/cmd/robot_cmd.c ****             }
 926              		.loc 1 416 17 is_stmt 1 view .LVU326
 416:application/cmd/robot_cmd.c ****             }
 927              		.loc 1 416 42 is_stmt 0 view .LVU327
 928 0154 0422     		movs	r2, #4
 929 0156 5A70     		strb	r2, [r3, #1]
 930 0158 C6E7     		b	.L81
 931              	.L93:
 442:application/cmd/robot_cmd.c ****         robot_config->gimbal_param.gimbal_offset.pitch_min_angle, 
 932              		.loc 1 442 9 is_stmt 1 view .LVU328
 442:application/cmd/robot_cmd.c ****         robot_config->gimbal_param.gimbal_offset.pitch_min_angle, 
 933              		.loc 1 442 9 view .LVU329
 934 015a 124B     		ldr	r3, .L94+20
 935 015c D3ED027A 		vldr.32	s15, [r3, #8]
 936 0160 144B     		ldr	r3, .L94+36
 937 0162 1B68     		ldr	r3, [r3]
 938 0164 93ED477A 		vldr.32	s14, [r3, #284]
 939 0168 F4EEC77A 		vcmpe.f32	s15, s14
 940 016c F1EE10FA 		vmrs	APSR_nzcv, FPSCR
 941 0170 03D8     		bhi	.L90
 442:application/cmd/robot_cmd.c ****         robot_config->gimbal_param.gimbal_offset.pitch_min_angle, 
 942              		.loc 1 442 9 discriminator 1 view .LVU330
 943 0172 0C4B     		ldr	r3, .L94+20
 944 0174 83ED027A 		vstr.32	s14, [r3, #8]
 945 0178 7047     		bx	lr
 946              	.L90:
 442:application/cmd/robot_cmd.c ****         robot_config->gimbal_param.gimbal_offset.pitch_min_angle, 
 947              		.loc 1 442 9 discriminator 2 view .LVU331
 948 017a 93ED467A 		vldr.32	s14, [r3, #280]
 949 017e F4EEC77A 		vcmpe.f32	s15, s14
 950 0182 F1EE10FA 		vmrs	APSR_nzcv, FPSCR
 951 0186 B3DB     		blt	.L69
 442:application/cmd/robot_cmd.c ****         robot_config->gimbal_param.gimbal_offset.pitch_min_angle, 
 952              		.loc 1 442 9 discriminator 3 view .LVU332
 953 0188 064B     		ldr	r3, .L94+20
 954 018a 83ED027A 		vstr.32	s14, [r3, #8]
ARM GAS  C:\Users\Administrator\AppData\Local\Temp\ccHxBunt.s 			page 29


 442:application/cmd/robot_cmd.c ****         robot_config->gimbal_param.gimbal_offset.pitch_min_angle, 
 955              		.loc 1 442 9 view .LVU333
 956              		.loc 1 479 1 is_stmt 0 view .LVU334
 957 018e AFE7     		b	.L69
 958              	.L95:
 959              		.align	2
 960              	.L94:
 961 0190 00000000 		.word	rc_data
 962 0194 00002544 		.word	1143275520
 963 0198 00000000 		.word	add_yaw.4
 964 019c 00000000 		.word	add_pitch.3
 965 01a0 00000000 		.word	chassis_cmd_send
 966 01a4 00000000 		.word	gimbal_cmd_send
 967 01a8 00000000 		.word	shoot_cmd_send
 968 01ac 00002041 		.word	1092616192
 969 01b0 00000000 		.word	vision_recv_data
 970 01b4 00000000 		.word	robot_config
 971              		.cfi_endproc
 972              	.LFE280:
 974              		.section	.text.OpenLoopMotionTask,"ax",%progbits
 975              		.align	1
 976              		.syntax unified
 977              		.thumb
 978              		.thumb_func
 980              	OpenLoopMotionTask:
 981              	.LFB283:
 480:application/cmd/robot_cmd.c **** 
 481:application/cmd/robot_cmd.c **** /**
 482:application/cmd/robot_cmd.c ****  * @brief  µŖźĶŁ”ÕżäńÉå’╝īÕ»╣õ║ÄõĖŹÕÉīķćŹĶ”üµ©ĪÕØŚń”╗ń║┐µł¢ĶĆģķüźµÄ¦ÕÖ©ń”╗ń║┐’╝īĶ┐øĶĪīõĖŹÕÉīń▒╗Õ×ŗµ
 483:application/cmd/robot_cmd.c ****  *
 484:application/cmd/robot_cmd.c ****  */
 485:application/cmd/robot_cmd.c **** static void AlarmHandler()
 486:application/cmd/robot_cmd.c **** {
 487:application/cmd/robot_cmd.c ****     uint8_t temp = 0;
 488:application/cmd/robot_cmd.c **** 
 489:application/cmd/robot_cmd.c ****     if (robot_state == ROBOT_READY)
 490:application/cmd/robot_cmd.c ****     {
 491:application/cmd/robot_cmd.c ****         // µŚĀÕŖøµ©ĪÕ╝ÅõĖŗ’╝īń╗┐ńü»µģóķŚ¬Õ╣ČõĖöõĖŹµŖźĶŁ”
 492:application/cmd/robot_cmd.c ****         if (chassis_cmd_send.chassis_mode == CHASSIS_ZERO_FORCE && gimbal_cmd_send.gimbal_mode == G
 493:application/cmd/robot_cmd.c ****         {
 494:application/cmd/robot_cmd.c ****             LEDSetStatus(led_alarm, ALARM_ON); 
 495:application/cmd/robot_cmd.c ****             LEDSetFlash(led_alarm, GREEN, FLASH_LOW); 
 496:application/cmd/robot_cmd.c ****             BuzzerSetStatus(buzzer_alarm, ALARM_OFF);
 497:application/cmd/robot_cmd.c ****         }
 498:application/cmd/robot_cmd.c ****         else
 499:application/cmd/robot_cmd.c ****         { // µ£ēÕŖøµ©ĪÕ╝ÅõĖŗ’╝īń▓ēńü»Õæ╝ÕÉĖÕÅśÕī¢Õ╣ČõĖöõĖŹµŖźĶŁ”
 500:application/cmd/robot_cmd.c ****             LEDSetStatus(led_alarm, ALARM_OFF); 
 501:application/cmd/robot_cmd.c ****             BuzzerSetStatus(buzzer_alarm, ALARM_OFF);
 502:application/cmd/robot_cmd.c ****         }
 503:application/cmd/robot_cmd.c ****     }
 504:application/cmd/robot_cmd.c ****     if (robot_state == ROBOT_STOP) 
 505:application/cmd/robot_cmd.c ****     {
 506:application/cmd/robot_cmd.c ****         // Õ║Ģńøśµ©ĪÕØŚń”╗ń║┐
 507:application/cmd/robot_cmd.c ****         if (chassis_fetch_data.motor_state == GIMBAL_MOTOR_OFFLINE)
 508:application/cmd/robot_cmd.c ****         { // ķ╗äńü»Õ┐½ķŚ¬’╝īķŚ¬ńāüµ¼ĪµĢ░Õ»╣Õ║öõĖŹÕÉīńöĄµ£║’╝īĶ£éķĖŻÕÖ©µŖźĶŁ”ÕŻ░õĖ║Do
 509:application/cmd/robot_cmd.c ****             temp++;
 510:application/cmd/robot_cmd.c ****             LEDSetStatus(led_alarm, ALARM_ON); 
ARM GAS  C:\Users\Administrator\AppData\Local\Temp\ccHxBunt.s 			page 30


 511:application/cmd/robot_cmd.c ****             LEDSetFlashTime(led_alarm, chassis_fetch_data.motor_offline_count);
 512:application/cmd/robot_cmd.c ****             LEDSetFlash(led_alarm, YELLOW, FLASH_HIGH);
 513:application/cmd/robot_cmd.c ****             BuzzerSetStatus(buzzer_alarm, ALARM_ON);
 514:application/cmd/robot_cmd.c ****             BuzzerSetOctave(buzzer_alarm, OCTAVE_1);
 515:application/cmd/robot_cmd.c ****         }
 516:application/cmd/robot_cmd.c **** 
 517:application/cmd/robot_cmd.c ****         // õ║æÕÅ░µ©ĪÕØŚń”╗ń║┐
 518:application/cmd/robot_cmd.c ****         if (gimbal_fetch_data.motor_state == CHASSIS_MOTOR_OFFLINE)
 519:application/cmd/robot_cmd.c ****         { // ń║óńü»Õ┐½ķŚ¬’╝īķŚ¬ńāüµ¼ĪµĢ░Õ»╣Õ║öõĖŹÕÉīńöĄµ£║’╝īĶ£éķĖŻÕÖ©µŖźĶŁ”ÕŻ░õĖ║Re
 520:application/cmd/robot_cmd.c ****             temp++;
 521:application/cmd/robot_cmd.c ****             LEDSetStatus(led_alarm, ALARM_ON); 
 522:application/cmd/robot_cmd.c ****             LEDSetFlashTime(led_alarm, gimbal_fetch_data.motor_offline_count);
 523:application/cmd/robot_cmd.c ****             LEDSetFlash(led_alarm, RED, FLASH_HIGH);
 524:application/cmd/robot_cmd.c ****             BuzzerSetStatus(buzzer_alarm, ALARM_ON);
 525:application/cmd/robot_cmd.c ****             BuzzerSetOctave(buzzer_alarm, OCTAVE_2);
 526:application/cmd/robot_cmd.c ****         }
 527:application/cmd/robot_cmd.c **** 
 528:application/cmd/robot_cmd.c ****         // ÕÅæÕ░äµ©ĪÕØŚń”╗ń║┐
 529:application/cmd/robot_cmd.c **** 
 530:application/cmd/robot_cmd.c ****         // ķüźµÄ¦ÕÖ©ń”╗ń║┐µł¢ĶĆģµĆźÕü£µ©ĪÕ╝Å
 531:application/cmd/robot_cmd.c ****         if (temp == 0)
 532:application/cmd/robot_cmd.c ****         { // ķ╗äńü»ÕĖĖõ║«Õ╣ČõĖöõĖŹµŖźĶŁ”
 533:application/cmd/robot_cmd.c ****             LEDSetStatus(led_alarm, ALARM_ON); 
 534:application/cmd/robot_cmd.c ****             LEDSetFlash(led_alarm, YELLOW, ALWAYS_ON);
 535:application/cmd/robot_cmd.c ****             BuzzerSetStatus(buzzer_alarm, ALARM_OFF);
 536:application/cmd/robot_cmd.c ****         }
 537:application/cmd/robot_cmd.c **** 
 538:application/cmd/robot_cmd.c ****         if (temp > 1 || chassis_fetch_data.motor_offline_count > 1 || gimbal_fetch_data.motor_offli
 539:application/cmd/robot_cmd.c ****         { // ĶČģĶ┐ćõĖĆõĖ¬µ©ĪÕØŚµł¢ÕżÜõĖ¬ńöĄµ£║ń”╗ń║┐’╝īń║óńü»ÕĖĖķćÅÕ╣ČõĖöõĖŹµŖźĶŁ”
 540:application/cmd/robot_cmd.c ****             LEDSetStatus(led_alarm, ALARM_ON); 
 541:application/cmd/robot_cmd.c ****             LEDSetFlash(led_alarm, RED, ALWAYS_ON);
 542:application/cmd/robot_cmd.c ****             BuzzerSetStatus(buzzer_alarm, ALARM_OFF);      
 543:application/cmd/robot_cmd.c ****         }
 544:application/cmd/robot_cmd.c ****     }
 545:application/cmd/robot_cmd.c **** }
 546:application/cmd/robot_cmd.c **** 
 547:application/cmd/robot_cmd.c **** /**
 548:application/cmd/robot_cmd.c ****  * @brief  ń┤¦µĆźÕü£µŁó,Õīģµŗ¼ķüźµÄ¦ÕÖ©ÕĘ”õĖŖõŠ¦µŗ©ĶĮ«µēōµ╗Ī/ķćŹĶ”üµ©ĪÕØŚń”╗ń║┐/ÕÅīµØ┐ķĆÜõ┐ĪÕż▒µĢłń
 549:application/cmd/robot_cmd.c ****  *
 550:application/cmd/robot_cmd.c ****  */
 551:application/cmd/robot_cmd.c **** static void EmergencyHandler()
 552:application/cmd/robot_cmd.c **** {
 553:application/cmd/robot_cmd.c ****     // µŗ©ĶĮ«ńÜäÕÉæõĖŖµŗ©ĶČģĶ┐ćõĖĆÕŹŖµł¢ĶĆģķüźµÄ¦ÕÖ©ń”╗ń║┐Ķ┐øÕģźµĆźÕü£µ©ĪÕ╝Å.µ│©µäÅÕÉæµēōµŚČõĖŗµŗ©Ķ
 554:application/cmd/robot_cmd.c ****     if (rc_data[TEMP].rc.dial < -400 || !RemoteControlIsOnline())
 555:application/cmd/robot_cmd.c ****     {
 556:application/cmd/robot_cmd.c ****         robot_state = ROBOT_STOP;
 557:application/cmd/robot_cmd.c ****         gimbal_cmd_send.gimbal_mode = GIMBAL_ZERO_FORCE;
 558:application/cmd/robot_cmd.c ****         chassis_cmd_send.chassis_mode = CHASSIS_ZERO_FORCE;
 559:application/cmd/robot_cmd.c ****         shoot_cmd_send.shoot_mode = SHOOT_OFF;
 560:application/cmd/robot_cmd.c ****         shoot_cmd_send.friction_mode = FRICTION_OFF;
 561:application/cmd/robot_cmd.c ****         shoot_cmd_send.load_mode = LOAD_STOP;
 562:application/cmd/robot_cmd.c ****         LOGERROR("[CMD] emergency stop!");
 563:application/cmd/robot_cmd.c ****     }
 564:application/cmd/robot_cmd.c ****     // if (gimbal_fetch_data.motor_state == GIMBAL_MOTOR_OFFLINE || chassis_fetch_data.motor_state 
 565:application/cmd/robot_cmd.c ****     // {
 566:application/cmd/robot_cmd.c ****     //     robot_state = ROBOT_STOP;
 567:application/cmd/robot_cmd.c ****     //     gimbal_cmd_send.gimbal_mode = GIMBAL_ZERO_FORCE;
ARM GAS  C:\Users\Administrator\AppData\Local\Temp\ccHxBunt.s 			page 31


 568:application/cmd/robot_cmd.c ****     //     chassis_cmd_send.chassis_mode = CHASSIS_ZERO_FORCE;
 569:application/cmd/robot_cmd.c ****     //     shoot_cmd_send.shoot_mode = SHOOT_OFF;
 570:application/cmd/robot_cmd.c ****     //     shoot_cmd_send.friction_mode = FRICTION_OFF;
 571:application/cmd/robot_cmd.c ****     //     shoot_cmd_send.load_mode = LOAD_STOP;
 572:application/cmd/robot_cmd.c ****     //     LOGERROR("[CMD] motor offline!");         
 573:application/cmd/robot_cmd.c ****     // }
 574:application/cmd/robot_cmd.c ****     // ķüźµÄ¦ÕÖ©ÕĘ”õŠ¦ÕÆīÕÅ│õŠ¦Õ╝ĆÕģ│ÕØćõĖ║[õĖŗ]’╝īķüźµÄ¦ÕÖ©ÕÆīµ©ĪÕØŚÕØćÕ£©ń║┐,µüóÕżŹµŁŻÕĖĖĶ┐ÉĶĪī
 575:application/cmd/robot_cmd.c ****     if (switch_is_down(rc_data[TEMP].rc.switch_left) && switch_is_down(rc_data[TEMP].rc.switch_righ
 576:application/cmd/robot_cmd.c ****     {
 577:application/cmd/robot_cmd.c ****         // if (gimbal_fetch_data.motor_state == GIMBAL_MOTOR_ONLINE && chassis_fetch_data.motor_sta
 578:application/cmd/robot_cmd.c ****         // {
 579:application/cmd/robot_cmd.c ****             robot_state = ROBOT_READY;       
 580:application/cmd/robot_cmd.c ****             LOGINFO("[CMD] reinstate, robot ready");            
 581:application/cmd/robot_cmd.c ****         // }
 582:application/cmd/robot_cmd.c ****     }
 583:application/cmd/robot_cmd.c **** 
 584:application/cmd/robot_cmd.c ****     AlarmHandler(); // µŖźĶŁ”ÕżäńÉå
 585:application/cmd/robot_cmd.c **** }
 586:application/cmd/robot_cmd.c **** 
 587:application/cmd/robot_cmd.c **** /* -----------------------------------------------------------------------
 588:application/cmd/robot_cmd.c ****  * Õ╝ĆńÄ»Õ║ĢńøśĶ┐ÉÕŖ©õ╗╗ÕŖĪ
 589:application/cmd/robot_cmd.c ****  * µĄüń©ŗ: ÕēŹĶ┐ø6m -> ÕĘ”ń¦╗5m -> ÕÉÄķĆĆ2m -> õ║æÕÅ░360┬░µŚŗĶĮ¼µÉ£Õ»╗ -> Ķ¦åĶ¦ēµÄźń«Ī
 590:application/cmd/robot_cmd.c ****  * ķĆ¤Õ║”ÕŹĢõĮŹ: m/s’╝īµŚČķŚ┤ń¦»Õłåõ╝░ń«ŚõĮŹń¦╗
 591:application/cmd/robot_cmd.c ****  * ----------------------------------------------------------------------- */
 592:application/cmd/robot_cmd.c **** typedef enum {
 593:application/cmd/robot_cmd.c ****     OPEN_LOOP_FORWARD = 0, // ÕēŹĶ┐ø6m
 594:application/cmd/robot_cmd.c ****     OPEN_LOOP_LEFT,        // ÕĘ”ń¦╗5m
 595:application/cmd/robot_cmd.c ****     OPEN_LOOP_BACKWARD,    // ÕÉÄķĆĆ2m
 596:application/cmd/robot_cmd.c ****     OPEN_LOOP_SEARCH,      // õ║æÕÅ░µŚŗĶĮ¼µÉ£Õ»╗
 597:application/cmd/robot_cmd.c ****     OPEN_LOOP_VISION,      // Ķ¦åĶ¦ēµÄźń«Ī
 598:application/cmd/robot_cmd.c ****     OPEN_LOOP_DONE,        // õ╗╗ÕŖĪÕ«īµłÉ
 599:application/cmd/robot_cmd.c **** } OpenLoopPhase_e;
 600:application/cmd/robot_cmd.c **** 
 601:application/cmd/robot_cmd.c **** #define OPEN_LOOP_MOVE_SPEED  1.5f   // Õ║ĢńøśÕ╣│ń¦╗ķĆ¤Õ║” m/s
 602:application/cmd/robot_cmd.c **** #define OPEN_LOOP_SEARCH_WZ   1.5f   // õ║æÕÅ░µÉ£Õ»╗µŚŗĶĮ¼ķĆ¤Õ║” rad/s’╝łyawÕó×ķćÅ/Õæ©µ£¤’╝ē
 603:application/cmd/robot_cmd.c **** #define OPEN_LOOP_TASK_DT_MS  5.0f   // õ╗╗ÕŖĪĶ░āńö©Õæ©µ£¤ ms’╝łõĖÄRobotCMDTaskõĖĆĶć┤’╝ī200Hz’╝ē
 604:application/cmd/robot_cmd.c **** 
 605:application/cmd/robot_cmd.c **** static OpenLoopPhase_e open_loop_phase = OPEN_LOOP_FORWARD;
 606:application/cmd/robot_cmd.c **** static float open_loop_dist_accum = 0.0f;  // ÕĮōÕēŹķśČµ«ĄÕĘ▓ĶĪīķ®ČĶĘØń”╗ m
 607:application/cmd/robot_cmd.c **** static float open_loop_yaw_accum  = 0.0f;  // µÉ£Õ»╗ķśČµ«ĄÕĘ▓µŚŗĶĮ¼Ķ¦ÆÕ║” deg
 608:application/cmd/robot_cmd.c **** 
 609:application/cmd/robot_cmd.c **** /**
 610:application/cmd/robot_cmd.c ****  * @brief Õ╝ĆńÄ»Õ║ĢńøśĶ┐ÉÕŖ©õ╗╗ÕŖĪõĖ╗õĮō
 611:application/cmd/robot_cmd.c ****  *        µ»ÅõĖ¬µÄ¦ÕłČÕæ©µ£¤Ķ░āńö©õĖĆµ¼Ī’╝īÕåģķā©ń╗┤µŖżńŖČµĆüµ£║
 612:application/cmd/robot_cmd.c ****  *        ķ£ĆÕ£© RobotCMDTask õĖŁÕłżµ¢ŁÕģźÕÅŻµØĪõ╗ČÕÉÄĶ░āńö©
 613:application/cmd/robot_cmd.c ****  */
 614:application/cmd/robot_cmd.c **** static void OpenLoopMotionTask()
 615:application/cmd/robot_cmd.c **** {
 982              		.loc 1 615 1 is_stmt 1 view -0
 983              		.cfi_startproc
 984              		@ args = 0, pretend = 0, frame = 0
 985              		@ frame_needed = 0, uses_anonymous_args = 0
 986              		@ link register save eliminated.
 616:application/cmd/robot_cmd.c ****     const float dt_s = OPEN_LOOP_TASK_DT_MS / 1000.0f; // Õæ©µ£¤ĶĮ¼µŹóõĖ║ń¦Æ
 987              		.loc 1 616 5 view .LVU336
 988              	.LVL6:
 617:application/cmd/robot_cmd.c **** 
ARM GAS  C:\Users\Administrator\AppData\Local\Temp\ccHxBunt.s 			page 32


 618:application/cmd/robot_cmd.c ****     // Ķ¦åĶ¦ēĶ»åÕł½Õł░ńø«µĀćµŚČ’╝īõ╗╗õĮĢķśČµ«ĄÕØćÕÅ»ÕłćÕģźĶ¦åĶ¦ēµÄźń«Ī
 619:application/cmd/robot_cmd.c ****     if (vision_recv_data->mode == 1 || vision_recv_data->mode == 2)
 989              		.loc 1 619 5 view .LVU337
 990              		.loc 1 619 25 is_stmt 0 view .LVU338
 991 0000 834B     		ldr	r3, .L126
 992 0002 1A68     		ldr	r2, [r3]
 993 0004 9378     		ldrb	r3, [r2, #2]	@ zero_extendqisi2
 994              		.loc 1 619 37 view .LVU339
 995 0006 013B     		subs	r3, r3, #1
 996 0008 DBB2     		uxtb	r3, r3
 997              		.loc 1 619 8 view .LVU340
 998 000a 012B     		cmp	r3, #1
 999 000c 45D9     		bls	.L123
 1000              	.L97:
 620:application/cmd/robot_cmd.c ****     {
 621:application/cmd/robot_cmd.c ****         open_loop_phase = OPEN_LOOP_VISION;
 622:application/cmd/robot_cmd.c ****     }
 623:application/cmd/robot_cmd.c **** 
 624:application/cmd/robot_cmd.c ****     switch (open_loop_phase)
 1001              		.loc 1 624 5 is_stmt 1 view .LVU341
 1002 000e 814B     		ldr	r3, .L126+4
 1003 0010 1B78     		ldrb	r3, [r3]	@ zero_extendqisi2
 1004 0012 022B     		cmp	r3, #2
 1005 0014 00F08A80 		beq	.L98
 1006 0018 43D9     		bls	.L124
 1007 001a 032B     		cmp	r3, #3
 1008 001c 00F0AA80 		beq	.L103
 1009 0020 042B     		cmp	r3, #4
 1010 0022 40F0D580 		bne	.L102
 625:application/cmd/robot_cmd.c ****     {
 626:application/cmd/robot_cmd.c ****     case OPEN_LOOP_FORWARD:
 627:application/cmd/robot_cmd.c ****         chassis_cmd_send.chassis_mode = CHASSIS_NO_FOLLOW;
 628:application/cmd/robot_cmd.c ****         gimbal_cmd_send.gimbal_mode   = GIMBAL_GYRO_MODE;
 629:application/cmd/robot_cmd.c ****         chassis_cmd_send.vx = OPEN_LOOP_MOVE_SPEED; // ÕēŹĶ┐ø
 630:application/cmd/robot_cmd.c ****         chassis_cmd_send.vy = 0.0f;
 631:application/cmd/robot_cmd.c ****         chassis_cmd_send.wz = 0.0f;
 632:application/cmd/robot_cmd.c ****         open_loop_dist_accum += OPEN_LOOP_MOVE_SPEED * dt_s;
 633:application/cmd/robot_cmd.c ****         if (open_loop_dist_accum >= 6.0f)
 634:application/cmd/robot_cmd.c ****         {
 635:application/cmd/robot_cmd.c ****             open_loop_dist_accum = 0.0f;
 636:application/cmd/robot_cmd.c ****             open_loop_phase = OPEN_LOOP_LEFT;
 637:application/cmd/robot_cmd.c ****         }
 638:application/cmd/robot_cmd.c ****         break;
 639:application/cmd/robot_cmd.c **** 
 640:application/cmd/robot_cmd.c ****     case OPEN_LOOP_LEFT:
 641:application/cmd/robot_cmd.c ****         chassis_cmd_send.chassis_mode = CHASSIS_NO_FOLLOW;
 642:application/cmd/robot_cmd.c ****         gimbal_cmd_send.gimbal_mode   = GIMBAL_GYRO_MODE;
 643:application/cmd/robot_cmd.c ****         chassis_cmd_send.vx = 0.0f;
 644:application/cmd/robot_cmd.c ****         chassis_cmd_send.vy = OPEN_LOOP_MOVE_SPEED; // ÕĘ”ń¦╗’╝łvyµŁŻµ¢╣ÕÉæõĖ║µ©¬ń¦╗’╝ē
 645:application/cmd/robot_cmd.c ****         chassis_cmd_send.wz = 0.0f;
 646:application/cmd/robot_cmd.c ****         open_loop_dist_accum += OPEN_LOOP_MOVE_SPEED * dt_s;
 647:application/cmd/robot_cmd.c ****         if (open_loop_dist_accum >= 5.0f)
 648:application/cmd/robot_cmd.c ****         {
 649:application/cmd/robot_cmd.c ****             open_loop_dist_accum = 0.0f;
 650:application/cmd/robot_cmd.c ****             open_loop_phase = OPEN_LOOP_BACKWARD;
 651:application/cmd/robot_cmd.c ****         }
 652:application/cmd/robot_cmd.c ****         break;
ARM GAS  C:\Users\Administrator\AppData\Local\Temp\ccHxBunt.s 			page 33


 653:application/cmd/robot_cmd.c **** 
 654:application/cmd/robot_cmd.c ****     case OPEN_LOOP_BACKWARD:
 655:application/cmd/robot_cmd.c ****         chassis_cmd_send.chassis_mode = CHASSIS_NO_FOLLOW;
 656:application/cmd/robot_cmd.c ****         gimbal_cmd_send.gimbal_mode   = GIMBAL_GYRO_MODE;
 657:application/cmd/robot_cmd.c ****         chassis_cmd_send.vx = -OPEN_LOOP_MOVE_SPEED; // ÕÉÄķĆĆ
 658:application/cmd/robot_cmd.c ****         chassis_cmd_send.vy = 0.0f;
 659:application/cmd/robot_cmd.c ****         chassis_cmd_send.wz = 0.0f;
 660:application/cmd/robot_cmd.c ****         open_loop_dist_accum += OPEN_LOOP_MOVE_SPEED * dt_s;
 661:application/cmd/robot_cmd.c ****         if (open_loop_dist_accum >= 2.0f)
 662:application/cmd/robot_cmd.c ****         {
 663:application/cmd/robot_cmd.c ****             open_loop_dist_accum = 0.0f;
 664:application/cmd/robot_cmd.c ****             open_loop_yaw_accum  = 0.0f;
 665:application/cmd/robot_cmd.c ****             open_loop_phase = OPEN_LOOP_SEARCH;
 666:application/cmd/robot_cmd.c ****         }
 667:application/cmd/robot_cmd.c ****         break;
 668:application/cmd/robot_cmd.c **** 
 669:application/cmd/robot_cmd.c ****     case OPEN_LOOP_SEARCH:
 670:application/cmd/robot_cmd.c ****         // Õ║ĢńøśÕü£µŁó’╝īõ║æÕÅ░µīüń╗ŁµŚŗĶĮ¼µÉ£Õ»╗
 671:application/cmd/robot_cmd.c ****         chassis_cmd_send.chassis_mode = CHASSIS_NO_FOLLOW;
 672:application/cmd/robot_cmd.c ****         gimbal_cmd_send.gimbal_mode   = GIMBAL_GYRO_MODE;
 673:application/cmd/robot_cmd.c ****         chassis_cmd_send.vx = 0.0f;
 674:application/cmd/robot_cmd.c ****         chassis_cmd_send.vy = 0.0f;
 675:application/cmd/robot_cmd.c ****         chassis_cmd_send.wz = 0.0f;
 676:application/cmd/robot_cmd.c ****         // yawÕó×ķćÅķ®▒ÕŖ©õ║æÕÅ░µŚŗĶĮ¼’╝łÕŹĢõĮŹdeg’╝īõĖÄRemoteControlSetõĖŁõĖĆĶć┤’╝ē
 677:application/cmd/robot_cmd.c ****         gimbal_cmd_send.yaw += OPEN_LOOP_SEARCH_WZ * RAD_TO_DEG * dt_s;
 678:application/cmd/robot_cmd.c ****         open_loop_yaw_accum += OPEN_LOOP_SEARCH_WZ * RAD_TO_DEG * dt_s;
 679:application/cmd/robot_cmd.c ****         if (open_loop_yaw_accum >= 360.0f)
 680:application/cmd/robot_cmd.c ****         {
 681:application/cmd/robot_cmd.c ****             // ĶĮ¼µ╗ĪõĖĆÕ£łõ╗Źµ£¬ÕÅæńÄ░ńø«µĀć’╝īõ╗╗ÕŖĪń╗ōµØ¤
 682:application/cmd/robot_cmd.c ****             open_loop_phase = OPEN_LOOP_DONE;
 683:application/cmd/robot_cmd.c ****         }
 684:application/cmd/robot_cmd.c ****         break;
 685:application/cmd/robot_cmd.c **** 
 686:application/cmd/robot_cmd.c ****     case OPEN_LOOP_VISION:
 687:application/cmd/robot_cmd.c ****         // Ķ¦åĶ¦ēµÄźń«Ī’╝Üõ║æÕÅ░ĶĘ¤ķÜÅĶ¦åĶ¦ē’╝īÕ║ĢńøśÕü£µŁó
 688:application/cmd/robot_cmd.c ****         chassis_cmd_send.chassis_mode = CHASSIS_NO_FOLLOW;
 1011              		.loc 1 688 9 view .LVU342
 1012              		.loc 1 688 39 is_stmt 0 view .LVU343
 1013 0026 7C4B     		ldr	r3, .L126+8
 1014 0028 0221     		movs	r1, #2
 1015 002a 1975     		strb	r1, [r3, #20]
 689:application/cmd/robot_cmd.c ****         gimbal_cmd_send.gimbal_mode   = GIMBAL_GYRO_MODE;
 1016              		.loc 1 689 9 is_stmt 1 view .LVU344
 1017              		.loc 1 689 39 is_stmt 0 view .LVU345
 1018 002c 7B49     		ldr	r1, .L126+12
 1019 002e 0120     		movs	r0, #1
 1020 0030 0874     		strb	r0, [r1, #16]
 690:application/cmd/robot_cmd.c ****         chassis_cmd_send.vx = 0.0f;
 1021              		.loc 1 690 9 is_stmt 1 view .LVU346
 1022              		.loc 1 690 29 is_stmt 0 view .LVU347
 1023 0032 DFED7B6A 		vldr.32	s13, .L126+16
 1024 0036 C3ED006A 		vstr.32	s13, [r3]
 691:application/cmd/robot_cmd.c ****         chassis_cmd_send.vy = 0.0f;
 1025              		.loc 1 691 9 is_stmt 1 view .LVU348
 1026              		.loc 1 691 29 is_stmt 0 view .LVU349
 1027 003a C3ED016A 		vstr.32	s13, [r3, #4]
 692:application/cmd/robot_cmd.c ****         chassis_cmd_send.wz = 0.0f;
ARM GAS  C:\Users\Administrator\AppData\Local\Temp\ccHxBunt.s 			page 34


 1028              		.loc 1 692 9 is_stmt 1 view .LVU350
 1029              		.loc 1 692 29 is_stmt 0 view .LVU351
 1030 003e C3ED026A 		vstr.32	s13, [r3, #8]
 1031              	.LBB4:
 693:application/cmd/robot_cmd.c ****         {
 694:application/cmd/robot_cmd.c ****             float vision_yaw   = vision_recv_data->yaw   * RAD_TO_DEG * YAW_GEAR_RATIO;
 1032              		.loc 1 694 13 is_stmt 1 view .LVU352
 1033              		.loc 1 694 50 is_stmt 0 view .LVU353
 1034 0042 D2F80330 		ldr	r3, [r2, #3]	@ unaligned
 1035 0046 07EE103A 		vmov	s14, r3	@ int
 1036              		.loc 1 694 58 view .LVU354
 1037 004a 9FED766A 		vldr.32	s12, .L126+20
 1038 004e 27EE067A 		vmul.f32	s14, s14, s12
 1039              		.loc 1 694 19 view .LVU355
 1040 0052 F7EE047A 		vmov.f32	s15, #1.25e+0
 1041 0056 27EE277A 		vmul.f32	s14, s14, s15
 1042              	.LVL7:
 695:application/cmd/robot_cmd.c ****             float vision_pitch = vision_recv_data->pitch * RAD_TO_DEG + PITCH_ZERO_OFFSET;
 1043              		.loc 1 695 13 is_stmt 1 view .LVU356
 1044              		.loc 1 695 50 is_stmt 0 view .LVU357
 1045 005a D2F80F30 		ldr	r3, [r2, #15]	@ unaligned
 1046 005e 07EE903A 		vmov	s15, r3	@ int
 1047              		.loc 1 695 58 view .LVU358
 1048 0062 67EE867A 		vmul.f32	s15, s15, s12
 1049              		.loc 1 695 19 view .LVU359
 1050 0066 77EEA67A 		vadd.f32	s15, s15, s13
 1051              	.LVL8:
 696:application/cmd/robot_cmd.c ****             gimbal_cmd_send.yaw   = vision_yaw;
 1052              		.loc 1 696 13 is_stmt 1 view .LVU360
 1053              		.loc 1 696 35 is_stmt 0 view .LVU361
 1054 006a 81ED017A 		vstr.32	s14, [r1, #4]
 697:application/cmd/robot_cmd.c ****             gimbal_cmd_send.pitch = vision_pitch;
 1055              		.loc 1 697 13 is_stmt 1 view .LVU362
 1056              		.loc 1 697 35 is_stmt 0 view .LVU363
 1057 006e C1ED027A 		vstr.32	s15, [r1, #8]
 698:application/cmd/robot_cmd.c ****             if (vision_recv_data->mode == 2)
 1058              		.loc 1 698 13 is_stmt 1 view .LVU364
 1059              		.loc 1 698 33 is_stmt 0 view .LVU365
 1060 0072 9378     		ldrb	r3, [r2, #2]	@ zero_extendqisi2
 1061              		.loc 1 698 16 view .LVU366
 1062 0074 022B     		cmp	r3, #2
 1063 0076 00F0A180 		beq	.L125
 699:application/cmd/robot_cmd.c ****             {
 700:application/cmd/robot_cmd.c ****                 shoot_cmd_send.shoot_mode    = SHOOT_ON;
 701:application/cmd/robot_cmd.c ****                 shoot_cmd_send.friction_mode = FRICTION_ON;
 702:application/cmd/robot_cmd.c ****                 shoot_cmd_send.load_mode     = LOAD_BURSTFIRE;
 703:application/cmd/robot_cmd.c ****                 shoot_cmd_send.shoot_rate    = 10;
 704:application/cmd/robot_cmd.c ****             }
 705:application/cmd/robot_cmd.c ****             else
 706:application/cmd/robot_cmd.c ****             {
 707:application/cmd/robot_cmd.c ****                 shoot_cmd_send.friction_mode = FRICTION_ON;
 1064              		.loc 1 707 17 is_stmt 1 view .LVU367
 1065              		.loc 1 707 46 is_stmt 0 view .LVU368
 1066 007a 6B4B     		ldr	r3, .L126+24
 1067 007c 0121     		movs	r1, #1
 1068 007e D970     		strb	r1, [r3, #3]
 708:application/cmd/robot_cmd.c ****                 shoot_cmd_send.load_mode     = LOAD_STOP;
ARM GAS  C:\Users\Administrator\AppData\Local\Temp\ccHxBunt.s 			page 35


 1069              		.loc 1 708 17 is_stmt 1 view .LVU369
 1070              		.loc 1 708 46 is_stmt 0 view .LVU370
 1071 0080 0021     		movs	r1, #0
 1072 0082 5970     		strb	r1, [r3, #1]
 1073              	.L111:
 1074              	.LBE4:
 709:application/cmd/robot_cmd.c ****             }
 710:application/cmd/robot_cmd.c ****         }
 711:application/cmd/robot_cmd.c ****         // Ķ¦åĶ¦ēõĖóÕż▒ÕłÖķĆĆÕø×µÉ£Õ»╗
 712:application/cmd/robot_cmd.c ****         if (vision_recv_data->mode == 0)
 1075              		.loc 1 712 9 is_stmt 1 view .LVU371
 1076              		.loc 1 712 29 is_stmt 0 view .LVU372
 1077 0084 9378     		ldrb	r3, [r2, #2]	@ zero_extendqisi2
 1078              		.loc 1 712 12 view .LVU373
 1079 0086 002B     		cmp	r3, #0
 1080 0088 40F0A780 		bne	.L105
 713:application/cmd/robot_cmd.c ****         {
 714:application/cmd/robot_cmd.c ****             open_loop_yaw_accum = 0.0f;
 1081              		.loc 1 714 13 is_stmt 1 view .LVU374
 1082              		.loc 1 714 33 is_stmt 0 view .LVU375
 1083 008c 674B     		ldr	r3, .L126+28
 1084 008e 0022     		movs	r2, #0
 1085 0090 1A60     		str	r2, [r3]	@ float
 715:application/cmd/robot_cmd.c ****             open_loop_phase = OPEN_LOOP_SEARCH;
 1086              		.loc 1 715 13 is_stmt 1 view .LVU376
 1087              		.loc 1 715 29 is_stmt 0 view .LVU377
 1088 0092 604B     		ldr	r3, .L126+4
 1089 0094 0322     		movs	r2, #3
 1090 0096 1A70     		strb	r2, [r3]
 1091 0098 9FE0     		b	.L105
 1092              	.LVL9:
 1093              	.L123:
 621:application/cmd/robot_cmd.c ****     }
 1094              		.loc 1 621 9 is_stmt 1 view .LVU378
 621:application/cmd/robot_cmd.c ****     }
 1095              		.loc 1 621 25 is_stmt 0 view .LVU379
 1096 009a 5E4B     		ldr	r3, .L126+4
 1097 009c 0421     		movs	r1, #4
 1098 009e 1970     		strb	r1, [r3]
 1099 00a0 B5E7     		b	.L97
 1100              	.L124:
 624:application/cmd/robot_cmd.c ****     {
 1101              		.loc 1 624 5 view .LVU380
 1102 00a2 1BB3     		cbz	r3, .L100
 1103 00a4 012B     		cmp	r3, #1
 1104 00a6 40F09380 		bne	.L102
 641:application/cmd/robot_cmd.c ****         gimbal_cmd_send.gimbal_mode   = GIMBAL_GYRO_MODE;
 1105              		.loc 1 641 9 is_stmt 1 view .LVU381
 641:application/cmd/robot_cmd.c ****         gimbal_cmd_send.gimbal_mode   = GIMBAL_GYRO_MODE;
 1106              		.loc 1 641 39 is_stmt 0 view .LVU382
 1107 00aa 5B4B     		ldr	r3, .L126+8
 1108 00ac 0222     		movs	r2, #2
 1109 00ae 1A75     		strb	r2, [r3, #20]
 642:application/cmd/robot_cmd.c ****         chassis_cmd_send.vx = 0.0f;
 1110              		.loc 1 642 9 is_stmt 1 view .LVU383
 642:application/cmd/robot_cmd.c ****         chassis_cmd_send.vx = 0.0f;
 1111              		.loc 1 642 39 is_stmt 0 view .LVU384
ARM GAS  C:\Users\Administrator\AppData\Local\Temp\ccHxBunt.s 			page 36


 1112 00b0 5A4A     		ldr	r2, .L126+12
 1113 00b2 0121     		movs	r1, #1
 1114 00b4 1174     		strb	r1, [r2, #16]
 643:application/cmd/robot_cmd.c ****         chassis_cmd_send.vy = OPEN_LOOP_MOVE_SPEED; // ÕĘ”ń¦╗’╝łvyµŁŻµ¢╣ÕÉæõĖ║µ©¬ń¦╗’╝ē
 1115              		.loc 1 643 9 is_stmt 1 view .LVU385
 643:application/cmd/robot_cmd.c ****         chassis_cmd_send.vy = OPEN_LOOP_MOVE_SPEED; // ÕĘ”ń¦╗’╝łvyµŁŻµ¢╣ÕÉæõĖ║µ©¬ń¦╗’╝ē
 1116              		.loc 1 643 29 is_stmt 0 view .LVU386
 1117 00b6 0022     		movs	r2, #0
 1118 00b8 1A60     		str	r2, [r3]	@ float
 644:application/cmd/robot_cmd.c ****         chassis_cmd_send.wz = 0.0f;
 1119              		.loc 1 644 9 is_stmt 1 view .LVU387
 644:application/cmd/robot_cmd.c ****         chassis_cmd_send.wz = 0.0f;
 1120              		.loc 1 644 29 is_stmt 0 view .LVU388
 1121 00ba 4FF07F51 		mov	r1, #1069547520
 1122 00be 5960     		str	r1, [r3, #4]	@ float
 645:application/cmd/robot_cmd.c ****         open_loop_dist_accum += OPEN_LOOP_MOVE_SPEED * dt_s;
 1123              		.loc 1 645 9 is_stmt 1 view .LVU389
 645:application/cmd/robot_cmd.c ****         open_loop_dist_accum += OPEN_LOOP_MOVE_SPEED * dt_s;
 1124              		.loc 1 645 29 is_stmt 0 view .LVU390
 1125 00c0 9A60     		str	r2, [r3, #8]	@ float
 646:application/cmd/robot_cmd.c ****         if (open_loop_dist_accum >= 5.0f)
 1126              		.loc 1 646 9 is_stmt 1 view .LVU391
 646:application/cmd/robot_cmd.c ****         if (open_loop_dist_accum >= 5.0f)
 1127              		.loc 1 646 30 is_stmt 0 view .LVU392
 1128 00c2 5B4B     		ldr	r3, .L126+32
 1129 00c4 D3ED007A 		vldr.32	s15, [r3]
 1130 00c8 9FED5A7A 		vldr.32	s14, .L126+36
 1131 00cc 77EE877A 		vadd.f32	s15, s15, s14
 1132 00d0 C3ED007A 		vstr.32	s15, [r3]
 647:application/cmd/robot_cmd.c ****         {
 1133              		.loc 1 647 9 is_stmt 1 view .LVU393
 647:application/cmd/robot_cmd.c ****         {
 1134              		.loc 1 647 12 is_stmt 0 view .LVU394
 1135 00d4 B1EE047A 		vmov.f32	s14, #5.0e+0
 1136 00d8 F4EEC77A 		vcmpe.f32	s15, s14
 1137 00dc F1EE10FA 		vmrs	APSR_nzcv, FPSCR
 1138 00e0 7BDB     		blt	.L105
 649:application/cmd/robot_cmd.c ****             open_loop_phase = OPEN_LOOP_BACKWARD;
 1139              		.loc 1 649 13 is_stmt 1 view .LVU395
 649:application/cmd/robot_cmd.c ****             open_loop_phase = OPEN_LOOP_BACKWARD;
 1140              		.loc 1 649 34 is_stmt 0 view .LVU396
 1141 00e2 1A60     		str	r2, [r3]	@ float
 650:application/cmd/robot_cmd.c ****         }
 1142              		.loc 1 650 13 is_stmt 1 view .LVU397
 650:application/cmd/robot_cmd.c ****         }
 1143              		.loc 1 650 29 is_stmt 0 view .LVU398
 1144 00e4 4B4B     		ldr	r3, .L126+4
 1145 00e6 0222     		movs	r2, #2
 1146 00e8 1A70     		strb	r2, [r3]
 1147 00ea 76E0     		b	.L105
 1148              	.L100:
 627:application/cmd/robot_cmd.c ****         gimbal_cmd_send.gimbal_mode   = GIMBAL_GYRO_MODE;
 1149              		.loc 1 627 9 is_stmt 1 view .LVU399
 627:application/cmd/robot_cmd.c ****         gimbal_cmd_send.gimbal_mode   = GIMBAL_GYRO_MODE;
 1150              		.loc 1 627 39 is_stmt 0 view .LVU400
 1151 00ec 4A4B     		ldr	r3, .L126+8
 1152 00ee 0222     		movs	r2, #2
ARM GAS  C:\Users\Administrator\AppData\Local\Temp\ccHxBunt.s 			page 37


 1153 00f0 1A75     		strb	r2, [r3, #20]
 628:application/cmd/robot_cmd.c ****         chassis_cmd_send.vx = OPEN_LOOP_MOVE_SPEED; // ÕēŹĶ┐ø
 1154              		.loc 1 628 9 is_stmt 1 view .LVU401
 628:application/cmd/robot_cmd.c ****         chassis_cmd_send.vx = OPEN_LOOP_MOVE_SPEED; // ÕēŹĶ┐ø
 1155              		.loc 1 628 39 is_stmt 0 view .LVU402
 1156 00f2 4A4A     		ldr	r2, .L126+12
 1157 00f4 0121     		movs	r1, #1
 1158 00f6 1174     		strb	r1, [r2, #16]
 629:application/cmd/robot_cmd.c ****         chassis_cmd_send.vy = 0.0f;
 1159              		.loc 1 629 9 is_stmt 1 view .LVU403
 629:application/cmd/robot_cmd.c ****         chassis_cmd_send.vy = 0.0f;
 1160              		.loc 1 629 29 is_stmt 0 view .LVU404
 1161 00f8 4FF07F52 		mov	r2, #1069547520
 1162 00fc 1A60     		str	r2, [r3]	@ float
 630:application/cmd/robot_cmd.c ****         chassis_cmd_send.wz = 0.0f;
 1163              		.loc 1 630 9 is_stmt 1 view .LVU405
 630:application/cmd/robot_cmd.c ****         chassis_cmd_send.wz = 0.0f;
 1164              		.loc 1 630 29 is_stmt 0 view .LVU406
 1165 00fe 0022     		movs	r2, #0
 1166 0100 5A60     		str	r2, [r3, #4]	@ float
 631:application/cmd/robot_cmd.c ****         open_loop_dist_accum += OPEN_LOOP_MOVE_SPEED * dt_s;
 1167              		.loc 1 631 9 is_stmt 1 view .LVU407
 631:application/cmd/robot_cmd.c ****         open_loop_dist_accum += OPEN_LOOP_MOVE_SPEED * dt_s;
 1168              		.loc 1 631 29 is_stmt 0 view .LVU408
 1169 0102 9A60     		str	r2, [r3, #8]	@ float
 632:application/cmd/robot_cmd.c ****         if (open_loop_dist_accum >= 6.0f)
 1170              		.loc 1 632 9 is_stmt 1 view .LVU409
 632:application/cmd/robot_cmd.c ****         if (open_loop_dist_accum >= 6.0f)
 1171              		.loc 1 632 30 is_stmt 0 view .LVU410
 1172 0104 4A4B     		ldr	r3, .L126+32
 1173 0106 D3ED007A 		vldr.32	s15, [r3]
 1174 010a 9FED4A7A 		vldr.32	s14, .L126+36
 1175 010e 77EE877A 		vadd.f32	s15, s15, s14
 1176 0112 C3ED007A 		vstr.32	s15, [r3]
 633:application/cmd/robot_cmd.c ****         {
 1177              		.loc 1 633 9 is_stmt 1 view .LVU411
 633:application/cmd/robot_cmd.c ****         {
 1178              		.loc 1 633 12 is_stmt 0 view .LVU412
 1179 0116 B1EE087A 		vmov.f32	s14, #6.0e+0
 1180 011a F4EEC77A 		vcmpe.f32	s15, s14
 1181 011e F1EE10FA 		vmrs	APSR_nzcv, FPSCR
 1182 0122 5ADB     		blt	.L105
 635:application/cmd/robot_cmd.c ****             open_loop_phase = OPEN_LOOP_LEFT;
 1183              		.loc 1 635 13 is_stmt 1 view .LVU413
 635:application/cmd/robot_cmd.c ****             open_loop_phase = OPEN_LOOP_LEFT;
 1184              		.loc 1 635 34 is_stmt 0 view .LVU414
 1185 0124 1A60     		str	r2, [r3]	@ float
 636:application/cmd/robot_cmd.c ****         }
 1186              		.loc 1 636 13 is_stmt 1 view .LVU415
 636:application/cmd/robot_cmd.c ****         }
 1187              		.loc 1 636 29 is_stmt 0 view .LVU416
 1188 0126 3B4B     		ldr	r3, .L126+4
 1189 0128 1970     		strb	r1, [r3]
 1190 012a 56E0     		b	.L105
 1191              	.L98:
 655:application/cmd/robot_cmd.c ****         gimbal_cmd_send.gimbal_mode   = GIMBAL_GYRO_MODE;
 1192              		.loc 1 655 9 is_stmt 1 view .LVU417
ARM GAS  C:\Users\Administrator\AppData\Local\Temp\ccHxBunt.s 			page 38


 655:application/cmd/robot_cmd.c ****         gimbal_cmd_send.gimbal_mode   = GIMBAL_GYRO_MODE;
 1193              		.loc 1 655 39 is_stmt 0 view .LVU418
 1194 012c 3A4B     		ldr	r3, .L126+8
 1195 012e 0222     		movs	r2, #2
 1196 0130 1A75     		strb	r2, [r3, #20]
 656:application/cmd/robot_cmd.c ****         chassis_cmd_send.vx = -OPEN_LOOP_MOVE_SPEED; // ÕÉÄķĆĆ
 1197              		.loc 1 656 9 is_stmt 1 view .LVU419
 656:application/cmd/robot_cmd.c ****         chassis_cmd_send.vx = -OPEN_LOOP_MOVE_SPEED; // ÕÉÄķĆĆ
 1198              		.loc 1 656 39 is_stmt 0 view .LVU420
 1199 0132 3A4A     		ldr	r2, .L126+12
 1200 0134 0121     		movs	r1, #1
 1201 0136 1174     		strb	r1, [r2, #16]
 657:application/cmd/robot_cmd.c ****         chassis_cmd_send.vy = 0.0f;
 1202              		.loc 1 657 9 is_stmt 1 view .LVU421
 657:application/cmd/robot_cmd.c ****         chassis_cmd_send.vy = 0.0f;
 1203              		.loc 1 657 29 is_stmt 0 view .LVU422
 1204 0138 3F4A     		ldr	r2, .L126+40
 1205 013a 1A60     		str	r2, [r3]	@ float
 658:application/cmd/robot_cmd.c ****         chassis_cmd_send.wz = 0.0f;
 1206              		.loc 1 658 9 is_stmt 1 view .LVU423
 658:application/cmd/robot_cmd.c ****         chassis_cmd_send.wz = 0.0f;
 1207              		.loc 1 658 29 is_stmt 0 view .LVU424
 1208 013c 0022     		movs	r2, #0
 1209 013e 5A60     		str	r2, [r3, #4]	@ float
 659:application/cmd/robot_cmd.c ****         open_loop_dist_accum += OPEN_LOOP_MOVE_SPEED * dt_s;
 1210              		.loc 1 659 9 is_stmt 1 view .LVU425
 659:application/cmd/robot_cmd.c ****         open_loop_dist_accum += OPEN_LOOP_MOVE_SPEED * dt_s;
 1211              		.loc 1 659 29 is_stmt 0 view .LVU426
 1212 0140 9A60     		str	r2, [r3, #8]	@ float
 660:application/cmd/robot_cmd.c ****         if (open_loop_dist_accum >= 2.0f)
 1213              		.loc 1 660 9 is_stmt 1 view .LVU427
 660:application/cmd/robot_cmd.c ****         if (open_loop_dist_accum >= 2.0f)
 1214              		.loc 1 660 30 is_stmt 0 view .LVU428
 1215 0142 3B4B     		ldr	r3, .L126+32
 1216 0144 D3ED007A 		vldr.32	s15, [r3]
 1217 0148 9FED3A7A 		vldr.32	s14, .L126+36
 1218 014c 77EE877A 		vadd.f32	s15, s15, s14
 1219 0150 C3ED007A 		vstr.32	s15, [r3]
 661:application/cmd/robot_cmd.c ****         {
 1220              		.loc 1 661 9 is_stmt 1 view .LVU429
 661:application/cmd/robot_cmd.c ****         {
 1221              		.loc 1 661 12 is_stmt 0 view .LVU430
 1222 0154 B0EE007A 		vmov.f32	s14, #2.0e+0
 1223 0158 F4EEC77A 		vcmpe.f32	s15, s14
 1224 015c F1EE10FA 		vmrs	APSR_nzcv, FPSCR
 1225 0160 3BDB     		blt	.L105
 663:application/cmd/robot_cmd.c ****             open_loop_yaw_accum  = 0.0f;
 1226              		.loc 1 663 13 is_stmt 1 view .LVU431
 663:application/cmd/robot_cmd.c ****             open_loop_yaw_accum  = 0.0f;
 1227              		.loc 1 663 34 is_stmt 0 view .LVU432
 1228 0162 1346     		mov	r3, r2	@ float
 1229 0164 324A     		ldr	r2, .L126+32
 1230 0166 1360     		str	r3, [r2]	@ float
 664:application/cmd/robot_cmd.c ****             open_loop_phase = OPEN_LOOP_SEARCH;
 1231              		.loc 1 664 13 is_stmt 1 view .LVU433
 664:application/cmd/robot_cmd.c ****             open_loop_phase = OPEN_LOOP_SEARCH;
 1232              		.loc 1 664 34 is_stmt 0 view .LVU434
ARM GAS  C:\Users\Administrator\AppData\Local\Temp\ccHxBunt.s 			page 39


 1233 0168 304A     		ldr	r2, .L126+28
 1234 016a 1360     		str	r3, [r2]	@ float
 665:application/cmd/robot_cmd.c ****         }
 1235              		.loc 1 665 13 is_stmt 1 view .LVU435
 665:application/cmd/robot_cmd.c ****         }
 1236              		.loc 1 665 29 is_stmt 0 view .LVU436
 1237 016c 294B     		ldr	r3, .L126+4
 1238 016e 0322     		movs	r2, #3
 1239 0170 1A70     		strb	r2, [r3]
 1240 0172 32E0     		b	.L105
 1241              	.L103:
 671:application/cmd/robot_cmd.c ****         gimbal_cmd_send.gimbal_mode   = GIMBAL_GYRO_MODE;
 1242              		.loc 1 671 9 is_stmt 1 view .LVU437
 671:application/cmd/robot_cmd.c ****         gimbal_cmd_send.gimbal_mode   = GIMBAL_GYRO_MODE;
 1243              		.loc 1 671 39 is_stmt 0 view .LVU438
 1244 0174 284B     		ldr	r3, .L126+8
 1245 0176 0222     		movs	r2, #2
 1246 0178 1A75     		strb	r2, [r3, #20]
 672:application/cmd/robot_cmd.c ****         chassis_cmd_send.vx = 0.0f;
 1247              		.loc 1 672 9 is_stmt 1 view .LVU439
 672:application/cmd/robot_cmd.c ****         chassis_cmd_send.vx = 0.0f;
 1248              		.loc 1 672 39 is_stmt 0 view .LVU440
 1249 017a 284A     		ldr	r2, .L126+12
 1250 017c 0121     		movs	r1, #1
 1251 017e 1174     		strb	r1, [r2, #16]
 673:application/cmd/robot_cmd.c ****         chassis_cmd_send.vy = 0.0f;
 1252              		.loc 1 673 9 is_stmt 1 view .LVU441
 673:application/cmd/robot_cmd.c ****         chassis_cmd_send.vy = 0.0f;
 1253              		.loc 1 673 29 is_stmt 0 view .LVU442
 1254 0180 0021     		movs	r1, #0
 1255 0182 1960     		str	r1, [r3]	@ float
 674:application/cmd/robot_cmd.c ****         chassis_cmd_send.wz = 0.0f;
 1256              		.loc 1 674 9 is_stmt 1 view .LVU443
 674:application/cmd/robot_cmd.c ****         chassis_cmd_send.wz = 0.0f;
 1257              		.loc 1 674 29 is_stmt 0 view .LVU444
 1258 0184 5960     		str	r1, [r3, #4]	@ float
 675:application/cmd/robot_cmd.c ****         // yawÕó×ķćÅķ®▒ÕŖ©õ║æÕÅ░µŚŗĶĮ¼’╝łÕŹĢõĮŹdeg’╝īõĖÄRemoteControlSetõĖŁõĖĆĶć┤’╝ē
 1259              		.loc 1 675 9 is_stmt 1 view .LVU445
 675:application/cmd/robot_cmd.c ****         // yawÕó×ķćÅķ®▒ÕŖ©õ║æÕÅ░µŚŗĶĮ¼’╝łÕŹĢõĮŹdeg’╝īõĖÄRemoteControlSetõĖŁõĖĆĶć┤’╝ē
 1260              		.loc 1 675 29 is_stmt 0 view .LVU446
 1261 0186 9960     		str	r1, [r3, #8]	@ float
 677:application/cmd/robot_cmd.c ****         open_loop_yaw_accum += OPEN_LOOP_SEARCH_WZ * RAD_TO_DEG * dt_s;
 1262              		.loc 1 677 9 is_stmt 1 view .LVU447
 677:application/cmd/robot_cmd.c ****         open_loop_yaw_accum += OPEN_LOOP_SEARCH_WZ * RAD_TO_DEG * dt_s;
 1263              		.loc 1 677 24 is_stmt 0 view .LVU448
 1264 0188 D2ED017A 		vldr.32	s15, [r2, #4]
 677:application/cmd/robot_cmd.c ****         open_loop_yaw_accum += OPEN_LOOP_SEARCH_WZ * RAD_TO_DEG * dt_s;
 1265              		.loc 1 677 29 view .LVU449
 1266 018c 9FED2B7A 		vldr.32	s14, .L126+44
 1267 0190 77EE877A 		vadd.f32	s15, s15, s14
 1268 0194 C2ED017A 		vstr.32	s15, [r2, #4]
 678:application/cmd/robot_cmd.c ****         if (open_loop_yaw_accum >= 360.0f)
 1269              		.loc 1 678 9 is_stmt 1 view .LVU450
 678:application/cmd/robot_cmd.c ****         if (open_loop_yaw_accum >= 360.0f)
 1270              		.loc 1 678 29 is_stmt 0 view .LVU451
 1271 0198 244B     		ldr	r3, .L126+28
 1272 019a D3ED007A 		vldr.32	s15, [r3]
ARM GAS  C:\Users\Administrator\AppData\Local\Temp\ccHxBunt.s 			page 40


 1273 019e 77EE877A 		vadd.f32	s15, s15, s14
 1274 01a2 C3ED007A 		vstr.32	s15, [r3]
 679:application/cmd/robot_cmd.c ****         {
 1275              		.loc 1 679 9 is_stmt 1 view .LVU452
 679:application/cmd/robot_cmd.c ****         {
 1276              		.loc 1 679 12 is_stmt 0 view .LVU453
 1277 01a6 9FED267A 		vldr.32	s14, .L126+48
 1278 01aa F4EEC77A 		vcmpe.f32	s15, s14
 1279 01ae F1EE10FA 		vmrs	APSR_nzcv, FPSCR
 1280 01b2 12DB     		blt	.L105
 682:application/cmd/robot_cmd.c ****         }
 1281              		.loc 1 682 13 is_stmt 1 view .LVU454
 682:application/cmd/robot_cmd.c ****         }
 1282              		.loc 1 682 29 is_stmt 0 view .LVU455
 1283 01b4 174B     		ldr	r3, .L126+4
 1284 01b6 0522     		movs	r2, #5
 1285 01b8 1A70     		strb	r2, [r3]
 1286 01ba 0EE0     		b	.L105
 1287              	.LVL10:
 1288              	.L125:
 1289              	.LBB5:
 700:application/cmd/robot_cmd.c ****                 shoot_cmd_send.friction_mode = FRICTION_ON;
 1290              		.loc 1 700 17 is_stmt 1 view .LVU456
 700:application/cmd/robot_cmd.c ****                 shoot_cmd_send.friction_mode = FRICTION_ON;
 1291              		.loc 1 700 46 is_stmt 0 view .LVU457
 1292 01bc 1A4B     		ldr	r3, .L126+24
 1293 01be 0221     		movs	r1, #2
 1294 01c0 1970     		strb	r1, [r3]
 701:application/cmd/robot_cmd.c ****                 shoot_cmd_send.load_mode     = LOAD_BURSTFIRE;
 1295              		.loc 1 701 17 is_stmt 1 view .LVU458
 701:application/cmd/robot_cmd.c ****                 shoot_cmd_send.load_mode     = LOAD_BURSTFIRE;
 1296              		.loc 1 701 46 is_stmt 0 view .LVU459
 1297 01c2 D870     		strb	r0, [r3, #3]
 702:application/cmd/robot_cmd.c ****                 shoot_cmd_send.shoot_rate    = 10;
 1298              		.loc 1 702 17 is_stmt 1 view .LVU460
 702:application/cmd/robot_cmd.c ****                 shoot_cmd_send.shoot_rate    = 10;
 1299              		.loc 1 702 46 is_stmt 0 view .LVU461
 1300 01c4 0421     		movs	r1, #4
 1301 01c6 5970     		strb	r1, [r3, #1]
 703:application/cmd/robot_cmd.c ****             }
 1302              		.loc 1 703 17 is_stmt 1 view .LVU462
 703:application/cmd/robot_cmd.c ****             }
 1303              		.loc 1 703 46 is_stmt 0 view .LVU463
 1304 01c8 1E49     		ldr	r1, .L126+52
 1305 01ca C3F80610 		str	r1, [r3, #6]	@ unaligned
 1306 01ce 59E7     		b	.L111
 1307              	.LVL11:
 1308              	.L102:
 703:application/cmd/robot_cmd.c ****             }
 1309              		.loc 1 703 46 view .LVU464
 1310              	.LBE5:
 716:application/cmd/robot_cmd.c ****         }
 717:application/cmd/robot_cmd.c ****         break;
 718:application/cmd/robot_cmd.c **** 
 719:application/cmd/robot_cmd.c ****     case OPEN_LOOP_DONE:
 720:application/cmd/robot_cmd.c ****     default:
 721:application/cmd/robot_cmd.c ****         chassis_cmd_send.vx = 0.0f;
ARM GAS  C:\Users\Administrator\AppData\Local\Temp\ccHxBunt.s 			page 41


 1311              		.loc 1 721 9 is_stmt 1 view .LVU465
 1312              		.loc 1 721 29 is_stmt 0 view .LVU466
 1313 01d0 114B     		ldr	r3, .L126+8
 1314 01d2 0022     		movs	r2, #0
 1315 01d4 1A60     		str	r2, [r3]	@ float
 722:application/cmd/robot_cmd.c ****         chassis_cmd_send.vy = 0.0f;
 1316              		.loc 1 722 9 is_stmt 1 view .LVU467
 1317              		.loc 1 722 29 is_stmt 0 view .LVU468
 1318 01d6 5A60     		str	r2, [r3, #4]	@ float
 723:application/cmd/robot_cmd.c ****         chassis_cmd_send.wz = 0.0f;
 1319              		.loc 1 723 9 is_stmt 1 view .LVU469
 1320              		.loc 1 723 29 is_stmt 0 view .LVU470
 1321 01d8 9A60     		str	r2, [r3, #8]	@ float
 724:application/cmd/robot_cmd.c ****         break;
 1322              		.loc 1 724 9 is_stmt 1 view .LVU471
 1323              	.L105:
 725:application/cmd/robot_cmd.c ****     }
 726:application/cmd/robot_cmd.c **** 
 727:application/cmd/robot_cmd.c ****     VAL_LIMIT(gimbal_cmd_send.pitch,
 1324              		.loc 1 727 5 view .LVU472
 1325              		.loc 1 727 5 view .LVU473
 1326 01da 104B     		ldr	r3, .L126+12
 1327 01dc D3ED027A 		vldr.32	s15, [r3, #8]
 1328 01e0 194B     		ldr	r3, .L126+56
 1329 01e2 1B68     		ldr	r3, [r3]
 1330 01e4 93ED477A 		vldr.32	s14, [r3, #284]
 1331 01e8 F4EEC77A 		vcmpe.f32	s15, s14
 1332 01ec F1EE10FA 		vmrs	APSR_nzcv, FPSCR
 1333 01f0 03D8     		bhi	.L122
 1334              		.loc 1 727 5 discriminator 1 view .LVU474
 1335 01f2 0A4B     		ldr	r3, .L126+12
 1336 01f4 83ED027A 		vstr.32	s14, [r3, #8]
 1337 01f8 7047     		bx	lr
 1338              	.L122:
 1339              		.loc 1 727 5 discriminator 2 view .LVU475
 1340 01fa 93ED467A 		vldr.32	s14, [r3, #280]
 1341 01fe F4EEC77A 		vcmpe.f32	s15, s14
 1342 0202 F1EE10FA 		vmrs	APSR_nzcv, FPSCR
 1343 0206 02DB     		blt	.L96
 1344              		.loc 1 727 5 discriminator 3 view .LVU476
 1345 0208 044B     		ldr	r3, .L126+12
 1346 020a 83ED027A 		vstr.32	s14, [r3, #8]
 1347              		.loc 1 727 5 view .LVU477
 1348              	.L96:
 728:application/cmd/robot_cmd.c ****               robot_config->gimbal_param.gimbal_offset.pitch_min_angle,
 729:application/cmd/robot_cmd.c ****               robot_config->gimbal_param.gimbal_offset.pitch_max_angle);
 730:application/cmd/robot_cmd.c **** }
 1349              		.loc 1 730 1 is_stmt 0 view .LVU478
 1350 020e 7047     		bx	lr
 1351              	.L127:
 1352              		.align	2
 1353              	.L126:
 1354 0210 00000000 		.word	vision_recv_data
 1355 0214 00000000 		.word	open_loop_phase
 1356 0218 00000000 		.word	chassis_cmd_send
 1357 021c 00000000 		.word	gimbal_cmd_send
 1358 0220 00000000 		.word	0
ARM GAS  C:\Users\Administrator\AppData\Local\Temp\ccHxBunt.s 			page 42


 1359 0224 E12E6542 		.word	1113927393
 1360 0228 00000000 		.word	shoot_cmd_send
 1361 022c 00000000 		.word	open_loop_yaw_accum
 1362 0230 00000000 		.word	open_loop_dist_accum
 1363 0234 8FC2F53B 		.word	1005961871
 1364 0238 0000C0BF 		.word	-1077936128
 1365 023c 0B04DC3E 		.word	1054606347
 1366 0240 0000B443 		.word	1135869952
 1367 0244 00002041 		.word	1092616192
 1368 0248 00000000 		.word	robot_config
 1369              		.cfi_endproc
 1370              	.LFE283:
 1372              		.section	.text.RefereeHandler,"ax",%progbits
 1373              		.align	1
 1374              		.syntax unified
 1375              		.thumb
 1376              		.thumb_func
 1378              	RefereeHandler:
 1379              	.LFB284:
 731:application/cmd/robot_cmd.c **** 
 732:application/cmd/robot_cmd.c **** /**
 733:application/cmd/robot_cmd.c ****  * @brief ĶŻüÕłżń│╗ń╗¤ÕÅŹķ”ł’╝īÕīģµŗ¼UIµĢ░µŹ«/Õ░ÅńöĄĶäæµĢ░µŹ«/ĶŻüÕłżń│╗ń╗¤ķÖÉÕłČ
 734:application/cmd/robot_cmd.c ****  *
 735:application/cmd/robot_cmd.c ****  */
 736:application/cmd/robot_cmd.c **** static void RefereeHandler()
 737:application/cmd/robot_cmd.c **** {
 1380              		.loc 1 737 1 is_stmt 1 view -0
 1381              		.cfi_startproc
 1382              		@ args = 0, pretend = 0, frame = 16
 1383              		@ frame_needed = 0, uses_anonymous_args = 0
 1384 0000 10B5     		push	{r4, lr}
 1385              	.LCFI0:
 1386              		.cfi_def_cfa_offset 8
 1387              		.cfi_offset 4, -8
 1388              		.cfi_offset 14, -4
 1389 0002 84B0     		sub	sp, sp, #16
 1390              	.LCFI1:
 1391              		.cfi_def_cfa_offset 24
 738:application/cmd/robot_cmd.c ****     // ĶŻüÕłżń│╗ń╗¤ÕŖ¤ńÄćµÄ¦ÕłČ
 739:application/cmd/robot_cmd.c ****     if (!referee_data->GameRobotState.chassis_power_limit)
 1392              		.loc 1 739 5 view .LVU480
 1393              		.loc 1 739 22 is_stmt 0 view .LVU481
 1394 0004 254B     		ldr	r3, .L133
 1395 0006 1A68     		ldr	r2, [r3]
 1396              		.loc 1 739 38 view .LVU482
 1397 0008 B2F84C30 		ldrh	r3, [r2, #76]	@ unaligned
 1398              		.loc 1 739 8 view .LVU483
 1399 000c 002B     		cmp	r3, #0
 1400 000e 3CD1     		bne	.L129
 740:application/cmd/robot_cmd.c ****         chassis_cmd_send.power_limit = 45;
 1401              		.loc 1 740 9 is_stmt 1 view .LVU484
 1402              		.loc 1 740 38 is_stmt 0 view .LVU485
 1403 0010 234B     		ldr	r3, .L133+4
 1404 0012 2449     		ldr	r1, .L133+8
 1405 0014 1961     		str	r1, [r3, #16]	@ float
 1406              	.L130:
 741:application/cmd/robot_cmd.c ****     else
ARM GAS  C:\Users\Administrator\AppData\Local\Temp\ccHxBunt.s 			page 43


 742:application/cmd/robot_cmd.c ****         chassis_cmd_send.power_limit = referee_data->GameRobotState.chassis_power_limit;
 743:application/cmd/robot_cmd.c **** 
 744:application/cmd/robot_cmd.c ****     // ĶŻüÕłżń│╗ń╗¤ńāŁķćÅµÄ¦ÕłČ
 745:application/cmd/robot_cmd.c ****     if (referee_data->PowerHeatData.shooter_17mm_1_barrel_heat > 300)
 1407              		.loc 1 745 5 is_stmt 1 view .LVU486
 1408              		.loc 1 745 36 is_stmt 0 view .LVU487
 1409 0016 B2F85930 		ldrh	r3, [r2, #89]	@ unaligned
 1410              		.loc 1 745 8 view .LVU488
 1411 001a B3F5967F 		cmp	r3, #300
 1412 001e 02D9     		bls	.L131
 746:application/cmd/robot_cmd.c ****         shoot_cmd_send.load_mode = LOAD_STOP;
 1413              		.loc 1 746 9 is_stmt 1 view .LVU489
 1414              		.loc 1 746 34 is_stmt 0 view .LVU490
 1415 0020 214B     		ldr	r3, .L133+12
 1416 0022 0022     		movs	r2, #0
 1417 0024 5A70     		strb	r2, [r3, #1]
 1418              	.L131:
 747:application/cmd/robot_cmd.c **** 
 748:application/cmd/robot_cmd.c ****     // Ķ¦åĶ¦ēµĢ░µŹ«ÕÅŹķ”ł
 749:application/cmd/robot_cmd.c ****     float q[4];
 1419              		.loc 1 749 5 is_stmt 1 view .LVU491
 750:application/cmd/robot_cmd.c ****     EularAngleToQuaternion(gimbal_fetch_data.gimbal_imu_data.Yaw,
 1420              		.loc 1 750 5 view .LVU492
 1421 0026 214C     		ldr	r4, .L133+16
 1422 0028 6846     		mov	r0, sp
 1423 002a 94ED061A 		vldr.32	s2, [r4, #24]
 1424 002e D4ED070A 		vldr.32	s1, [r4, #28]
 1425 0032 94ED080A 		vldr.32	s0, [r4, #32]
 1426 0036 FFF7FEFF 		bl	EularAngleToQuaternion
 1427              	.LVL12:
 751:application/cmd/robot_cmd.c ****                            gimbal_fetch_data.gimbal_imu_data.Pitch,
 752:application/cmd/robot_cmd.c ****                            gimbal_fetch_data.gimbal_imu_data.Roll,
 753:application/cmd/robot_cmd.c ****                            q);
 754:application/cmd/robot_cmd.c **** 
 755:application/cmd/robot_cmd.c ****     VisionUpdateTx(
 1428              		.loc 1 755 5 view .LVU493
 756:application/cmd/robot_cmd.c ****         (gimbal_cmd_send.gimbal_mode == GIMBAL_GYRO_MODE) ? 1 : 0,
 1429              		.loc 1 756 25 is_stmt 0 view .LVU494
 1430 003a 1D4B     		ldr	r3, .L133+20
 1431 003c 187C     		ldrb	r0, [r3, #16]	@ zero_extendqisi2
 757:application/cmd/robot_cmd.c ****         q[0], q[1], q[2], q[3],
 758:application/cmd/robot_cmd.c ****         gimbal_fetch_data.gimbal_imu_data.YawTotalAngle / YAW_GEAR_RATIO,
 1432              		.loc 1 758 42 view .LVU495
 1433 003e 94ED092A 		vldr.32	s4, [r4, #36]
 759:application/cmd/robot_cmd.c ****         gimbal_fetch_data.gimbal_imu_data.Gyro[2],
 760:application/cmd/robot_cmd.c ****         gimbal_fetch_data.gimbal_imu_data.Pitch,
 761:application/cmd/robot_cmd.c ****         gimbal_fetch_data.gimbal_imu_data.Gyro[0],
 762:application/cmd/robot_cmd.c ****         referee_data->ShootData.bullet_speed,
 1434              		.loc 1 762 21 view .LVU496
 1435 0042 164B     		ldr	r3, .L133
 1436 0044 1B68     		ldr	r3, [r3]
 755:application/cmd/robot_cmd.c ****         (gimbal_cmd_send.gimbal_mode == GIMBAL_GYRO_MODE) ? 1 : 0,
 1437              		.loc 1 755 5 view .LVU497
 1438 0046 D3F87B20 		ldr	r2, [r3, #123]	@ unaligned
 1439 004a 04EE102A 		vmov	s8, r2	@ int
 1440 004e B3F84810 		ldrh	r1, [r3, #72]	@ unaligned
 1441 0052 D4ED003A 		vldr.32	s7, [r4]
ARM GAS  C:\Users\Administrator\AppData\Local\Temp\ccHxBunt.s 			page 44


 1442 0056 94ED073A 		vldr.32	s6, [r4, #28]
 1443 005a D4ED022A 		vldr.32	s5, [r4, #8]
 1444 005e F7EE047A 		vmov.f32	s15, #1.25e+0
 1445 0062 82EE272A 		vdiv.f32	s4, s4, s15
 1446 0066 DDED031A 		vldr.32	s3, [sp, #12]
 1447 006a 9DED021A 		vldr.32	s2, [sp, #8]
 1448 006e DDED010A 		vldr.32	s1, [sp, #4]
 1449 0072 9DED000A 		vldr.32	s0, [sp]
 1450 0076 0128     		cmp	r0, #1
 1451 0078 14BF     		ite	ne
 1452 007a 0020     		movne	r0, #0
 1453 007c 0120     		moveq	r0, #1
 1454 007e FFF7FEFF 		bl	VisionUpdateTx
 1455              	.LVL13:
 763:application/cmd/robot_cmd.c ****         referee_data->GameRobotState.shooter_barrel_cooling_value
 764:application/cmd/robot_cmd.c ****     );
 765:application/cmd/robot_cmd.c ****     VisionSend();
 1456              		.loc 1 765 5 is_stmt 1 view .LVU498
 1457 0082 FFF7FEFF 		bl	VisionSend
 1458              	.LVL14:
 766:application/cmd/robot_cmd.c ****     // ÕĮōÕēŹÕÅ¬ÕüÜõ║å17mmńāŁķćÅńÜäµĢ░µŹ«ĶÄĘÕÅ¢,ÕÉÄń╗ŁµĀ╣µŹ«robot_defõĖŁńÜäÕ«ÅÕłćµŹóÕÅīµ×¬ń«ĪÕÆīĶŗ▒
 767:application/cmd/robot_cmd.c ****     // vision_send_data.bullet_speed = referee_data->GameRobotState.shooter_barrel_cooling_value;
 768:application/cmd/robot_cmd.c ****     // vision_send_data.rest_heat = referee_data->PowerHeatData.shooter_heat0;
 769:application/cmd/robot_cmd.c **** 
 770:application/cmd/robot_cmd.c ****     // // UIµĢ░µŹ«ÕÅŹķ”ł
 771:application/cmd/robot_cmd.c ****     // ui_data.chassis_mode = chassis_cmd_send.chassis_mode;
 772:application/cmd/robot_cmd.c ****     // ui_data.gimbal_mode = gimbal_cmd_send.gimbal_mode;
 773:application/cmd/robot_cmd.c ****     // ui_data.shoot_mode = shoot_cmd_send.shoot_mode;
 774:application/cmd/robot_cmd.c ****     // ui_data.friction_mode = shoot_cmd_send.friction_mode;
 775:application/cmd/robot_cmd.c ****     // ui_data.lid_mode = shoot_cmd_send.lid_mode;
 776:application/cmd/robot_cmd.c **** 
 777:application/cmd/robot_cmd.c ****     // ui_data.chassis_offset_angle = chassis_cmd_send.offset_angle;
 778:application/cmd/robot_cmd.c ****     // ui_data.pitch_angle = gimbal_fetch_data.gimbal_imu_data.Pitch;
 779:application/cmd/robot_cmd.c ****     // ui_data.bullet_speed = shoot_cmd_send.bullet_speed;    
 780:application/cmd/robot_cmd.c **** }
 1459              		.loc 1 780 1 is_stmt 0 view .LVU499
 1460 0086 04B0     		add	sp, sp, #16
 1461              	.LCFI2:
 1462              		.cfi_remember_state
 1463              		.cfi_def_cfa_offset 8
 1464              		@ sp needed
 1465 0088 10BD     		pop	{r4, pc}
 1466              	.L129:
 1467              	.LCFI3:
 1468              		.cfi_restore_state
 742:application/cmd/robot_cmd.c **** 
 1469              		.loc 1 742 9 is_stmt 1 view .LVU500
 742:application/cmd/robot_cmd.c **** 
 1470              		.loc 1 742 38 is_stmt 0 view .LVU501
 1471 008a 07EE903A 		vmov	s15, r3	@ int
 1472 008e F8EE677A 		vcvt.f32.u32	s15, s15
 1473 0092 034B     		ldr	r3, .L133+4
 1474 0094 C3ED047A 		vstr.32	s15, [r3, #16]
 1475 0098 BDE7     		b	.L130
 1476              	.L134:
 1477 009a 00BF     		.align	2
 1478              	.L133:
ARM GAS  C:\Users\Administrator\AppData\Local\Temp\ccHxBunt.s 			page 45


 1479 009c 00000000 		.word	referee_data
 1480 00a0 00000000 		.word	chassis_cmd_send
 1481 00a4 00003442 		.word	1110704128
 1482 00a8 00000000 		.word	shoot_cmd_send
 1483 00ac 00000000 		.word	gimbal_fetch_data
 1484 00b0 00000000 		.word	gimbal_cmd_send
 1485              		.cfi_endproc
 1486              	.LFE284:
 1488              		.section	.rodata.RobotCMDInit.str1.4,"aMS",%progbits,1
 1489              		.align	2
 1490              	.LC1:
 1491 0000 67696D62 		.ascii	"gimbal_cmd\000"
 1491      616C5F63 
 1491      6D6400
 1492 000b 00       		.align	2
 1493              	.LC2:
 1494 000c 67696D62 		.ascii	"gimbal_feed\000"
 1494      616C5F66 
 1494      65656400 
 1495              		.align	2
 1496              	.LC3:
 1497 0018 73686F6F 		.ascii	"shoot_cmd\000"
 1497      745F636D 
 1497      6400
 1498 0022 0000     		.align	2
 1499              	.LC4:
 1500 0024 73686F6F 		.ascii	"shoot_feed\000"
 1500      745F6665 
 1500      656400
 1501 002f 00       		.align	2
 1502              	.LC5:
 1503 0030 63686173 		.ascii	"chassis_cmd\000"
 1503      7369735F 
 1503      636D6400 
 1504              		.align	2
 1505              	.LC6:
 1506 003c 63686173 		.ascii	"chassis_feed\000"
 1506      7369735F 
 1506      66656564 
 1506      00
 1507              		.section	.text.RobotCMDInit,"ax",%progbits
 1508              		.align	1
 1509              		.global	RobotCMDInit
 1510              		.syntax unified
 1511              		.thumb
 1512              		.thumb_func
 1514              	RobotCMDInit:
 1515              	.LFB276:
  66:application/cmd/robot_cmd.c ****     robot_config = RobotConfigInit(SENTINEL_ROBOT);
 1516              		.loc 1 66 1 is_stmt 1 view -0
 1517              		.cfi_startproc
 1518              		@ args = 0, pretend = 0, frame = 16
 1519              		@ frame_needed = 0, uses_anonymous_args = 0
 1520 0000 10B5     		push	{r4, lr}
 1521              	.LCFI4:
 1522              		.cfi_def_cfa_offset 8
 1523              		.cfi_offset 4, -8
ARM GAS  C:\Users\Administrator\AppData\Local\Temp\ccHxBunt.s 			page 46


 1524              		.cfi_offset 14, -4
 1525 0002 84B0     		sub	sp, sp, #16
 1526              	.LCFI5:
 1527              		.cfi_def_cfa_offset 24
  67:application/cmd/robot_cmd.c **** 
 1528              		.loc 1 67 5 view .LVU503
  67:application/cmd/robot_cmd.c **** 
 1529              		.loc 1 67 20 is_stmt 0 view .LVU504
 1530 0004 0720     		movs	r0, #7
 1531 0006 FFF7FEFF 		bl	RobotConfigInit
 1532              	.LVL15:
  67:application/cmd/robot_cmd.c **** 
 1533              		.loc 1 67 18 discriminator 1 view .LVU505
 1534 000a 2A4B     		ldr	r3, .L137
 1535 000c 1860     		str	r0, [r3]
  69:application/cmd/robot_cmd.c ****             .alarm_level = ALARM_LEVEL_HIGH, //Ķ«ŠńĮ«ĶŁ”µŖźńŁēń║¦ ÕÉīõĖĆńŖČµĆüõĖŗ ķ½śńŁēń║¦ńÜäÕōŹÕ║
 1536              		.loc 1 69 5 is_stmt 1 view .LVU506
  69:application/cmd/robot_cmd.c ****             .alarm_level = ALARM_LEVEL_HIGH, //Ķ«ŠńĮ«ĶŁ”µŖźńŁēń║¦ ÕÉīõĖĆńŖČµĆüõĖŗ ķ½śńŁēń║¦ńÜäÕōŹÕ║
 1537              		.loc 1 69 21 is_stmt 0 view .LVU507
 1538 000e 02A8     		add	r0, sp, #8
 1539 0010 0024     		movs	r4, #0
 1540 0012 0294     		str	r4, [sp, #8]
 1541 0014 4460     		str	r4, [r0, #4]
 1542 0016 284B     		ldr	r3, .L137+4
 1543 0018 0393     		str	r3, [sp, #12]	@ float
  74:application/cmd/robot_cmd.c **** 
 1544              		.loc 1 74 5 is_stmt 1 view .LVU508
  74:application/cmd/robot_cmd.c **** 
 1545              		.loc 1 74 20 is_stmt 0 view .LVU509
 1546 001a FFF7FEFF 		bl	BuzzerRegister
 1547              	.LVL16:
  74:application/cmd/robot_cmd.c **** 
 1548              		.loc 1 74 18 discriminator 1 view .LVU510
 1549 001e 274B     		ldr	r3, .L137+8
 1550 0020 1860     		str	r0, [r3]
  76:application/cmd/robot_cmd.c ****             .color = PINK,
 1551              		.loc 1 76 5 is_stmt 1 view .LVU511
  76:application/cmd/robot_cmd.c ****             .color = PINK,
 1552              		.loc 1 76 18 is_stmt 0 view .LVU512
 1553 0022 274B     		ldr	r3, .L137+12
 1554 0024 1B68     		ldr	r3, [r3]
 1555 0026 ADF80430 		strh	r3, [sp, #4]	@ movhi
 1556 002a 1B0C     		lsrs	r3, r3, #16
 1557 002c 8DF80630 		strb	r3, [sp, #6]
  81:application/cmd/robot_cmd.c **** 
 1558              		.loc 1 81 5 is_stmt 1 view .LVU513
  81:application/cmd/robot_cmd.c **** 
 1559              		.loc 1 81 17 is_stmt 0 view .LVU514
 1560 0030 01A8     		add	r0, sp, #4
 1561 0032 FFF7FEFF 		bl	LEDRegister
 1562              	.LVL17:
  81:application/cmd/robot_cmd.c **** 
 1563              		.loc 1 81 15 discriminator 1 view .LVU515
 1564 0036 234B     		ldr	r3, .L137+16
 1565 0038 1860     		str	r0, [r3]
  83:application/cmd/robot_cmd.c ****     vision_recv_data = VisionInit(&huart1); // Ķ¦åĶ¦ēķĆÜõ┐ĪõĖ▓ÕÅŻ
 1566              		.loc 1 83 5 is_stmt 1 view .LVU516
ARM GAS  C:\Users\Administrator\AppData\Local\Temp\ccHxBunt.s 			page 47


  83:application/cmd/robot_cmd.c ****     vision_recv_data = VisionInit(&huart1); // Ķ¦åĶ¦ēķĆÜõ┐ĪõĖ▓ÕÅŻ
 1567              		.loc 1 83 15 is_stmt 0 view .LVU517
 1568 003a 2348     		ldr	r0, .L137+20
 1569 003c FFF7FEFF 		bl	RemoteControlInit
 1570              	.LVL18:
  83:application/cmd/robot_cmd.c ****     vision_recv_data = VisionInit(&huart1); // Ķ¦åĶ¦ēķĆÜõ┐ĪõĖ▓ÕÅŻ
 1571              		.loc 1 83 13 discriminator 1 view .LVU518
 1572 0040 224B     		ldr	r3, .L137+24
 1573 0042 1860     		str	r0, [r3]
  84:application/cmd/robot_cmd.c **** 
 1574              		.loc 1 84 5 is_stmt 1 view .LVU519
  84:application/cmd/robot_cmd.c **** 
 1575              		.loc 1 84 24 is_stmt 0 view .LVU520
 1576 0044 2248     		ldr	r0, .L137+28
 1577 0046 FFF7FEFF 		bl	VisionInit
 1578              	.LVL19:
  84:application/cmd/robot_cmd.c **** 
 1579              		.loc 1 84 22 discriminator 1 view .LVU521
 1580 004a 224B     		ldr	r3, .L137+32
 1581 004c 1860     		str	r0, [r3]
  86:application/cmd/robot_cmd.c **** 
 1582              		.loc 1 86 5 is_stmt 1 view .LVU522
  86:application/cmd/robot_cmd.c **** 
 1583              		.loc 1 86 20 is_stmt 0 view .LVU523
 1584 004e 2249     		ldr	r1, .L137+36
 1585 0050 2248     		ldr	r0, .L137+40
 1586 0052 FFF7FEFF 		bl	UITaskInit
 1587              	.LVL20:
  86:application/cmd/robot_cmd.c **** 
 1588              		.loc 1 86 18 discriminator 1 view .LVU524
 1589 0056 224B     		ldr	r3, .L137+44
 1590 0058 1860     		str	r0, [r3]
  88:application/cmd/robot_cmd.c ****     gimbal_feed_sub = SubRegister("gimbal_feed", sizeof(Gimbal_Upload_Data_s));
 1591              		.loc 1 88 5 is_stmt 1 view .LVU525
  88:application/cmd/robot_cmd.c ****     gimbal_feed_sub = SubRegister("gimbal_feed", sizeof(Gimbal_Upload_Data_s));
 1592              		.loc 1 88 22 is_stmt 0 view .LVU526
 1593 005a 1221     		movs	r1, #18
 1594 005c 2148     		ldr	r0, .L137+48
 1595 005e FFF7FEFF 		bl	PubRegister
 1596              	.LVL21:
  88:application/cmd/robot_cmd.c ****     gimbal_feed_sub = SubRegister("gimbal_feed", sizeof(Gimbal_Upload_Data_s));
 1597              		.loc 1 88 20 discriminator 1 view .LVU527
 1598 0062 214B     		ldr	r3, .L137+52
 1599 0064 1860     		str	r0, [r3]
  89:application/cmd/robot_cmd.c ****     shoot_cmd_pub = PubRegister("shoot_cmd", sizeof(Shoot_Ctrl_Cmd_s));
 1600              		.loc 1 89 5 is_stmt 1 view .LVU528
  89:application/cmd/robot_cmd.c ****     shoot_cmd_pub = PubRegister("shoot_cmd", sizeof(Shoot_Ctrl_Cmd_s));
 1601              		.loc 1 89 23 is_stmt 0 view .LVU529
 1602 0066 2C21     		movs	r1, #44
 1603 0068 2048     		ldr	r0, .L137+56
 1604 006a FFF7FEFF 		bl	SubRegister
 1605              	.LVL22:
  89:application/cmd/robot_cmd.c ****     shoot_cmd_pub = PubRegister("shoot_cmd", sizeof(Shoot_Ctrl_Cmd_s));
 1606              		.loc 1 89 21 discriminator 1 view .LVU530
 1607 006e 204B     		ldr	r3, .L137+60
 1608 0070 1860     		str	r0, [r3]
  90:application/cmd/robot_cmd.c ****     shoot_feed_sub = SubRegister("shoot_feed", sizeof(Shoot_Upload_Data_s));
ARM GAS  C:\Users\Administrator\AppData\Local\Temp\ccHxBunt.s 			page 48


 1609              		.loc 1 90 5 is_stmt 1 view .LVU531
  90:application/cmd/robot_cmd.c ****     shoot_feed_sub = SubRegister("shoot_feed", sizeof(Shoot_Upload_Data_s));
 1610              		.loc 1 90 21 is_stmt 0 view .LVU532
 1611 0072 0A21     		movs	r1, #10
 1612 0074 1F48     		ldr	r0, .L137+64
 1613 0076 FFF7FEFF 		bl	PubRegister
 1614              	.LVL23:
  90:application/cmd/robot_cmd.c ****     shoot_feed_sub = SubRegister("shoot_feed", sizeof(Shoot_Upload_Data_s));
 1615              		.loc 1 90 19 discriminator 1 view .LVU533
 1616 007a 1F4B     		ldr	r3, .L137+68
 1617 007c 1860     		str	r0, [r3]
  91:application/cmd/robot_cmd.c **** 
 1618              		.loc 1 91 5 is_stmt 1 view .LVU534
  91:application/cmd/robot_cmd.c **** 
 1619              		.loc 1 91 22 is_stmt 0 view .LVU535
 1620 007e 2146     		mov	r1, r4
 1621 0080 1E48     		ldr	r0, .L137+72
 1622 0082 FFF7FEFF 		bl	SubRegister
 1623              	.LVL24:
  91:application/cmd/robot_cmd.c **** 
 1624              		.loc 1 91 20 discriminator 1 view .LVU536
 1625 0086 1E4B     		ldr	r3, .L137+76
 1626 0088 1860     		str	r0, [r3]
  94:application/cmd/robot_cmd.c ****     chassis_feed_sub = SubRegister("chassis_feed", sizeof(Chassis_Upload_Data_s));
 1627              		.loc 1 94 5 is_stmt 1 view .LVU537
  94:application/cmd/robot_cmd.c ****     chassis_feed_sub = SubRegister("chassis_feed", sizeof(Chassis_Upload_Data_s));
 1628              		.loc 1 94 23 is_stmt 0 view .LVU538
 1629 008a 1921     		movs	r1, #25
 1630 008c 1D48     		ldr	r0, .L137+80
 1631 008e FFF7FEFF 		bl	PubRegister
 1632              	.LVL25:
  94:application/cmd/robot_cmd.c ****     chassis_feed_sub = SubRegister("chassis_feed", sizeof(Chassis_Upload_Data_s));
 1633              		.loc 1 94 21 discriminator 1 view .LVU539
 1634 0092 1D4B     		ldr	r3, .L137+84
 1635 0094 1860     		str	r0, [r3]
  95:application/cmd/robot_cmd.c **** #endif // ONE_BOARD
 1636              		.loc 1 95 5 is_stmt 1 view .LVU540
  95:application/cmd/robot_cmd.c **** #endif // ONE_BOARD
 1637              		.loc 1 95 24 is_stmt 0 view .LVU541
 1638 0096 0E21     		movs	r1, #14
 1639 0098 1C48     		ldr	r0, .L137+88
 1640 009a FFF7FEFF 		bl	SubRegister
 1641              	.LVL26:
  95:application/cmd/robot_cmd.c **** #endif // ONE_BOARD
 1642              		.loc 1 95 22 discriminator 1 view .LVU542
 1643 009e 1C4B     		ldr	r3, .L137+92
 1644 00a0 1860     		str	r0, [r3]
 109:application/cmd/robot_cmd.c **** 
 1645              		.loc 1 109 5 is_stmt 1 view .LVU543
 109:application/cmd/robot_cmd.c **** 
 1646              		.loc 1 109 27 is_stmt 0 view .LVU544
 1647 00a2 1C4B     		ldr	r3, .L137+96
 1648 00a4 0022     		movs	r2, #0
 1649 00a6 9A60     		str	r2, [r3, #8]	@ float
 111:application/cmd/robot_cmd.c **** }
 1650              		.loc 1 111 5 is_stmt 1 view .LVU545
 111:application/cmd/robot_cmd.c **** }
ARM GAS  C:\Users\Administrator\AppData\Local\Temp\ccHxBunt.s 			page 49


 1651              		.loc 1 111 17 is_stmt 0 view .LVU546
 1652 00a8 1B4B     		ldr	r3, .L137+100
 1653 00aa 0122     		movs	r2, #1
 1654 00ac 1A70     		strb	r2, [r3]
 112:application/cmd/robot_cmd.c **** 
 1655              		.loc 1 112 1 view .LVU547
 1656 00ae 04B0     		add	sp, sp, #16
 1657              	.LCFI6:
 1658              		.cfi_def_cfa_offset 8
 1659              		@ sp needed
 1660 00b0 10BD     		pop	{r4, pc}
 1661              	.L138:
 1662 00b2 00BF     		.align	2
 1663              	.L137:
 1664 00b4 00000000 		.word	robot_config
 1665 00b8 CDCCCC3E 		.word	1053609165
 1666 00bc 00000000 		.word	buzzer_alarm
 1667 00c0 00000000 		.word	.LANCHOR0
 1668 00c4 00000000 		.word	led_alarm
 1669 00c8 00000000 		.word	huart3
 1670 00cc 00000000 		.word	rc_data
 1671 00d0 00000000 		.word	huart1
 1672 00d4 00000000 		.word	vision_recv_data
 1673 00d8 00000000 		.word	ui_data
 1674 00dc 00000000 		.word	huart6
 1675 00e0 00000000 		.word	referee_data
 1676 00e4 00000000 		.word	.LC1
 1677 00e8 00000000 		.word	gimbal_cmd_pub
 1678 00ec 0C000000 		.word	.LC2
 1679 00f0 00000000 		.word	gimbal_feed_sub
 1680 00f4 18000000 		.word	.LC3
 1681 00f8 00000000 		.word	shoot_cmd_pub
 1682 00fc 24000000 		.word	.LC4
 1683 0100 00000000 		.word	shoot_feed_sub
 1684 0104 30000000 		.word	.LC5
 1685 0108 00000000 		.word	chassis_cmd_pub
 1686 010c 3C000000 		.word	.LC6
 1687 0110 00000000 		.word	chassis_feed_sub
 1688 0114 00000000 		.word	gimbal_cmd_send
 1689 0118 00000000 		.word	robot_state
 1690              		.cfi_endproc
 1691              	.LFE276:
 1693              		.section	.text.RobotCMDTask,"ax",%progbits
 1694              		.align	1
 1695              		.global	RobotCMDTask
 1696              		.syntax unified
 1697              		.thumb
 1698              		.thumb_func
 1700              	RobotCMDTask:
 1701              	.LFB285:
 781:application/cmd/robot_cmd.c **** 
 782:application/cmd/robot_cmd.c **** 
 783:application/cmd/robot_cmd.c **** 
 784:application/cmd/robot_cmd.c **** /* µ£║ÕÖ©õ║║µĀĖÕ┐āµÄ¦ÕłČõ╗╗ÕŖĪ,200HzķóæńÄćĶ┐ÉĶĪī(Õ┐ģķĪ╗ķ½śõ║ÄĶ¦åĶ¦ēÕÅæķĆüķóæńÄć) */
 785:application/cmd/robot_cmd.c **** void RobotCMDTask()
 786:application/cmd/robot_cmd.c **** {
 1702              		.loc 1 786 1 is_stmt 1 view -0
ARM GAS  C:\Users\Administrator\AppData\Local\Temp\ccHxBunt.s 			page 50


 1703              		.cfi_startproc
 1704              		@ args = 0, pretend = 0, frame = 0
 1705              		@ frame_needed = 0, uses_anonymous_args = 0
 1706 0000 08B5     		push	{r3, lr}
 1707              	.LCFI7:
 1708              		.cfi_def_cfa_offset 8
 1709              		.cfi_offset 3, -8
 1710              		.cfi_offset 14, -4
 787:application/cmd/robot_cmd.c ****     // õ╗ÄÕģČõ╗¢Õ║öńö©ĶÄĘÕÅ¢Õø×õ╝ĀµĢ░µŹ«
 788:application/cmd/robot_cmd.c **** #ifdef ONE_BOARD
 789:application/cmd/robot_cmd.c ****     SubGetMessage(chassis_feed_sub, (void *)&chassis_fetch_data);
 1711              		.loc 1 789 5 view .LVU549
 1712 0002 3F49     		ldr	r1, .L153
 1713 0004 3F4B     		ldr	r3, .L153+4
 1714 0006 1868     		ldr	r0, [r3]
 1715 0008 FFF7FEFF 		bl	SubGetMessage
 1716              	.LVL27:
 790:application/cmd/robot_cmd.c **** #endif // ONE_BOARD
 791:application/cmd/robot_cmd.c **** #ifdef GIMBAL_BOARD
 792:application/cmd/robot_cmd.c ****     chassis_fetch_data = *(Chassis_Upload_Data_s *)CANCommGet(cmd_can_comm);
 793:application/cmd/robot_cmd.c **** #endif // GIMBAL_BOARD
 794:application/cmd/robot_cmd.c ****     SubGetMessage(shoot_feed_sub, &shoot_fetch_data);
 1717              		.loc 1 794 5 view .LVU550
 1718 000c 3E49     		ldr	r1, .L153+8
 1719 000e 3F4B     		ldr	r3, .L153+12
 1720 0010 1868     		ldr	r0, [r3]
 1721 0012 FFF7FEFF 		bl	SubGetMessage
 1722              	.LVL28:
 795:application/cmd/robot_cmd.c ****     SubGetMessage(gimbal_feed_sub, &gimbal_fetch_data);
 1723              		.loc 1 795 5 view .LVU551
 1724 0016 3E49     		ldr	r1, .L153+16
 1725 0018 3E4B     		ldr	r3, .L153+20
 1726 001a 1868     		ldr	r0, [r3]
 1727 001c FFF7FEFF 		bl	SubGetMessage
 1728              	.LVL29:
 796:application/cmd/robot_cmd.c **** 
 797:application/cmd/robot_cmd.c ****     // µĀ╣µŹ«gimbalńÜäÕÅŹķ”łÕĆ╝Ķ«Īń«Śõ║æÕÅ░ÕÆīÕ║ĢńøśµŁŻµ¢╣ÕÉæńÜäÕż╣Ķ¦Æ,õĖŹķ£ĆĶ”üõ╝ĀÕÅé,ķĆÜĶ┐ćstatic
 798:application/cmd/robot_cmd.c ****     CalcOffsetAngle();
 1729              		.loc 1 798 5 view .LVU552
 1730 0020 FFF7FEFF 		bl	CalcOffsetAngle
 1731              	.LVL30:
 799:application/cmd/robot_cmd.c **** 
 800:application/cmd/robot_cmd.c ****     /* -----------------------------------------------------------------------
 801:application/cmd/robot_cmd.c ****      * Õ╝ĆńÄ»Ķ┐ÉÕŖ©õ╗╗ÕŖĪÕģźÕÅŻÕłżµ¢Ł’╝łµöŠÕ£©ÕćĮµĢ░Õż¢’╝īõĖÄķüźµÄ¦ÕÖ©/ķö«ķ╝ĀµÄ¦ÕłČõ║Æµ¢ź’╝ē
 802:application/cmd/robot_cmd.c ****      * Ķ¦”ÕÅæµØĪõ╗Č’╝ÜķüźµÄ¦ÕÖ©ÕĘ”õŠ¦Õ╝ĆÕģ│[õĖŖ] õĖö ÕÅ│õŠ¦Õ╝ĆÕģ│[õĖŖ]
 803:application/cmd/robot_cmd.c ****      * ķĆĆÕć║µØĪõ╗Č’╝Üopen_loop_phase == OPEN_LOOP_DONE’╝īµł¢µŗ©ĶĮ«µĆźÕü£
 804:application/cmd/robot_cmd.c ****      * ----------------------------------------------------------------------- */
 805:application/cmd/robot_cmd.c ****     static uint8_t open_loop_active = 0;
 1732              		.loc 1 805 5 view .LVU553
 806:application/cmd/robot_cmd.c ****     if (!open_loop_active &&
 1733              		.loc 1 806 5 view .LVU554
 1734              		.loc 1 806 9 is_stmt 0 view .LVU555
 1735 0024 3C4B     		ldr	r3, .L153+24
 1736 0026 1B78     		ldrb	r3, [r3]	@ zero_extendqisi2
 1737              		.loc 1 806 8 view .LVU556
 1738 0028 23B9     		cbnz	r3, .L140
 807:application/cmd/robot_cmd.c ****         switch_is_up(rc_data[TEMP].rc.switch_left) &&
ARM GAS  C:\Users\Administrator\AppData\Local\Temp\ccHxBunt.s 			page 51


 1739              		.loc 1 807 9 view .LVU557
 1740 002a 3C4B     		ldr	r3, .L153+28
 1741 002c 1B68     		ldr	r3, [r3]
 1742 002e 9A7A     		ldrb	r2, [r3, #10]	@ zero_extendqisi2
 806:application/cmd/robot_cmd.c ****     if (!open_loop_active &&
 1743              		.loc 1 806 27 discriminator 1 view .LVU558
 1744 0030 012A     		cmp	r2, #1
 1745 0032 1CD0     		beq	.L151
 1746              	.L140:
 808:application/cmd/robot_cmd.c ****         switch_is_up(rc_data[TEMP].rc.switch_right))
 809:application/cmd/robot_cmd.c ****     {
 810:application/cmd/robot_cmd.c ****         // ķćŹńĮ«ńŖČµĆüµ£║’╝īÕÉ»ÕŖ©Õ╝ĆńÄ»õ╗╗ÕŖĪ
 811:application/cmd/robot_cmd.c ****         open_loop_phase      = OPEN_LOOP_FORWARD;
 812:application/cmd/robot_cmd.c ****         open_loop_dist_accum = 0.0f;
 813:application/cmd/robot_cmd.c ****         open_loop_yaw_accum  = 0.0f;
 814:application/cmd/robot_cmd.c ****         open_loop_active     = 1;
 815:application/cmd/robot_cmd.c ****     }
 816:application/cmd/robot_cmd.c ****     // µĆźÕü£µł¢õ╗╗ÕŖĪÕ«īµłÉµŚČķĆĆÕć║Õ╝ĆńÄ»µ©ĪÕ╝Å
 817:application/cmd/robot_cmd.c ****     if (open_loop_phase == OPEN_LOOP_DONE || rc_data[TEMP].rc.dial < -400)
 1747              		.loc 1 817 5 is_stmt 1 view .LVU559
 1748              		.loc 1 817 25 is_stmt 0 view .LVU560
 1749 0034 3A4B     		ldr	r3, .L153+32
 1750 0036 1B78     		ldrb	r3, [r3]	@ zero_extendqisi2
 1751              		.loc 1 817 8 view .LVU561
 1752 0038 052B     		cmp	r3, #5
 1753 003a 06D0     		beq	.L141
 1754              		.loc 1 817 53 discriminator 1 view .LVU562
 1755 003c 374B     		ldr	r3, .L153+28
 1756 003e 1B68     		ldr	r3, [r3]
 1757              		.loc 1 817 62 discriminator 1 view .LVU563
 1758 0040 B3F90830 		ldrsh	r3, [r3, #8]
 1759              		.loc 1 817 43 discriminator 1 view .LVU564
 1760 0044 13F5C87F 		cmn	r3, #400
 1761 0048 02DA     		bge	.L142
 1762              	.L141:
 818:application/cmd/robot_cmd.c ****     {
 819:application/cmd/robot_cmd.c ****         open_loop_active = 0;
 1763              		.loc 1 819 9 is_stmt 1 view .LVU565
 1764              		.loc 1 819 26 is_stmt 0 view .LVU566
 1765 004a 334B     		ldr	r3, .L153+24
 1766 004c 0022     		movs	r2, #0
 1767 004e 1A70     		strb	r2, [r3]
 1768              	.L142:
 820:application/cmd/robot_cmd.c ****     }
 821:application/cmd/robot_cmd.c **** 
 822:application/cmd/robot_cmd.c ****     if (open_loop_active)
 1769              		.loc 1 822 5 is_stmt 1 view .LVU567
 1770              		.loc 1 822 9 is_stmt 0 view .LVU568
 1771 0050 314B     		ldr	r3, .L153+24
 1772 0052 1B78     		ldrb	r3, [r3]	@ zero_extendqisi2
 1773              		.loc 1 822 8 view .LVU569
 1774 0054 D3B9     		cbnz	r3, .L152
 823:application/cmd/robot_cmd.c ****     {
 824:application/cmd/robot_cmd.c ****         OpenLoopMotionTask();
 825:application/cmd/robot_cmd.c ****     }
 826:application/cmd/robot_cmd.c ****     else
 827:application/cmd/robot_cmd.c ****     {
ARM GAS  C:\Users\Administrator\AppData\Local\Temp\ccHxBunt.s 			page 52


 828:application/cmd/robot_cmd.c ****     // Bķö«Õ╝ĆÕģ│ķüźµÄ¦ÕÖ©
 829:application/cmd/robot_cmd.c ****     switch (rc_data[TEMP].key_count[KEY_PRESS][Key_B] % 2)
 1775              		.loc 1 829 5 is_stmt 1 view .LVU570
 1776              		.loc 1 829 20 is_stmt 0 view .LVU571
 1777 0056 314B     		ldr	r3, .L153+28
 1778 0058 1B68     		ldr	r3, [r3]
 1779              		.loc 1 829 47 view .LVU572
 1780 005a 93F82730 		ldrb	r3, [r3, #39]	@ zero_extendqisi2
 1781              		.loc 1 829 5 view .LVU573
 1782 005e 13F00103 		ands	r3, r3, #1
 1783 0062 27D0     		beq	.L145
 1784 0064 002B     		cmp	r3, #0
 1785 0066 34D1     		bne	.L146
 830:application/cmd/robot_cmd.c ****     {
 831:application/cmd/robot_cmd.c ****     case 0:
 832:application/cmd/robot_cmd.c ****         RemoteControlSet();
 833:application/cmd/robot_cmd.c ****         rc_data[TEMP].key_count[KEY_PRESS][Key_G] = 0;  // ÕłØÕ¦ŗÕī¢ķö«ńøśµÄ¦ÕłČ
 834:application/cmd/robot_cmd.c ****         rc_data[TEMP].key_count[KEY_PRESS][Key_F] = 0;
 835:application/cmd/robot_cmd.c ****         ui_data.Referee_Interactive_Flag.refresh_flag = 0;
 836:application/cmd/robot_cmd.c ****         break;
 837:application/cmd/robot_cmd.c ****     case 1:
 838:application/cmd/robot_cmd.c ****         MouseKeySet();
 839:application/cmd/robot_cmd.c ****         if (!ui_data.Referee_Interactive_Flag.refresh_flag)
 840:application/cmd/robot_cmd.c ****             ui_data.Referee_Interactive_Flag.refresh_flag = 1; // UIńĢīķØóÕłĘµ¢░
 841:application/cmd/robot_cmd.c **** 
 842:application/cmd/robot_cmd.c ****         if (rc_data[TEMP].rc.dial < -400)
 843:application/cmd/robot_cmd.c ****             rc_data[TEMP].key_count[KEY_PRESS][Key_B] = 0;     // õĖŖµŗ©ÕłćµŹóÕø×ķüźµÄ¦ÕÖ©µÄ¦ÕłČ
 844:application/cmd/robot_cmd.c ****         break;
 845:application/cmd/robot_cmd.c ****     default:
 846:application/cmd/robot_cmd.c ****         RemoteControlSet();
 1786              		.loc 1 846 9 is_stmt 1 view .LVU574
 1787 0068 FFF7FEFF 		bl	RemoteControlSet
 1788              	.LVL31:
 847:application/cmd/robot_cmd.c ****         break;
 1789              		.loc 1 847 9 view .LVU575
 1790 006c 10E0     		b	.L144
 1791              	.L151:
 808:application/cmd/robot_cmd.c ****     {
 1792              		.loc 1 808 9 is_stmt 0 view .LVU576
 1793 006e DB7A     		ldrb	r3, [r3, #11]	@ zero_extendqisi2
 807:application/cmd/robot_cmd.c ****         switch_is_up(rc_data[TEMP].rc.switch_right))
 1794              		.loc 1 807 52 view .LVU577
 1795 0070 012B     		cmp	r3, #1
 1796 0072 DFD1     		bne	.L140
 811:application/cmd/robot_cmd.c ****         open_loop_dist_accum = 0.0f;
 1797              		.loc 1 811 9 is_stmt 1 view .LVU578
 811:application/cmd/robot_cmd.c ****         open_loop_dist_accum = 0.0f;
 1798              		.loc 1 811 30 is_stmt 0 view .LVU579
 1799 0074 2A4B     		ldr	r3, .L153+32
 1800 0076 0022     		movs	r2, #0
 1801 0078 1A70     		strb	r2, [r3]
 812:application/cmd/robot_cmd.c ****         open_loop_yaw_accum  = 0.0f;
 1802              		.loc 1 812 9 is_stmt 1 view .LVU580
 812:application/cmd/robot_cmd.c ****         open_loop_yaw_accum  = 0.0f;
 1803              		.loc 1 812 30 is_stmt 0 view .LVU581
 1804 007a 0023     		movs	r3, #0
 1805 007c 294A     		ldr	r2, .L153+36
ARM GAS  C:\Users\Administrator\AppData\Local\Temp\ccHxBunt.s 			page 53


 1806 007e 1360     		str	r3, [r2]	@ float
 813:application/cmd/robot_cmd.c ****         open_loop_active     = 1;
 1807              		.loc 1 813 9 is_stmt 1 view .LVU582
 813:application/cmd/robot_cmd.c ****         open_loop_active     = 1;
 1808              		.loc 1 813 30 is_stmt 0 view .LVU583
 1809 0080 294A     		ldr	r2, .L153+40
 1810 0082 1360     		str	r3, [r2]	@ float
 814:application/cmd/robot_cmd.c ****     }
 1811              		.loc 1 814 9 is_stmt 1 view .LVU584
 814:application/cmd/robot_cmd.c ****     }
 1812              		.loc 1 814 30 is_stmt 0 view .LVU585
 1813 0084 244B     		ldr	r3, .L153+24
 1814 0086 0122     		movs	r2, #1
 1815 0088 1A70     		strb	r2, [r3]
 1816 008a D3E7     		b	.L140
 1817              	.L152:
 824:application/cmd/robot_cmd.c ****     }
 1818              		.loc 1 824 9 is_stmt 1 view .LVU586
 1819 008c FFF7FEFF 		bl	OpenLoopMotionTask
 1820              	.LVL32:
 1821              	.L144:
 848:application/cmd/robot_cmd.c ****     }
 849:application/cmd/robot_cmd.c ****     } // end open_loop_active else
 850:application/cmd/robot_cmd.c **** 
 851:application/cmd/robot_cmd.c ****     // EmergencyHandler(); // ÕżäńÉåµ©ĪÕØŚń”╗ń║┐ÕÆīķüźµÄ¦ÕÖ©µĆźÕü£ńŁēń┤¦µĆźµāģÕåĄ
 852:application/cmd/robot_cmd.c **** 
 853:application/cmd/robot_cmd.c ****     RefereeHandler();       // ĶŻüÕłżń│╗ń╗¤ÕÅŹķ”ł
 1822              		.loc 1 853 5 view .LVU587
 1823 0090 FFF7FEFF 		bl	RefereeHandler
 1824              	.LVL33:
 854:application/cmd/robot_cmd.c **** 
 855:application/cmd/robot_cmd.c ****     // µÄ©ķĆüµČłµü»,ÕÅīµØ┐ķĆÜõ┐Ī,Ķ¦åĶ¦ēķĆÜõ┐ĪńŁē
 856:application/cmd/robot_cmd.c ****     // ÕģČõ╗¢Õ║öńö©µēĆķ£ĆńÜäµÄ¦ÕłČµĢ░µŹ«Õ£©remotecontrolsetmodeÕÆīmousekeysetmodeõĖŁÕ«īµłÉĶ«ŠńĮ«
 857:application/cmd/robot_cmd.c **** #ifdef ONE_BOARD
 858:application/cmd/robot_cmd.c ****     PubPushMessage(chassis_cmd_pub, (void *)&chassis_cmd_send);
 1825              		.loc 1 858 5 view .LVU588
 1826 0094 2549     		ldr	r1, .L153+44
 1827 0096 264B     		ldr	r3, .L153+48
 1828 0098 1868     		ldr	r0, [r3]
 1829 009a FFF7FEFF 		bl	PubPushMessage
 1830              	.LVL34:
 859:application/cmd/robot_cmd.c **** #endif // ONE_BOARD
 860:application/cmd/robot_cmd.c **** #ifdef GIMBAL_BOARD
 861:application/cmd/robot_cmd.c ****     CANCommSend(cmd_can_comm, (void *)&chassis_cmd_send);
 862:application/cmd/robot_cmd.c **** #endif // GIMBAL_BOARD
 863:application/cmd/robot_cmd.c ****     PubPushMessage(shoot_cmd_pub, (void *)&shoot_cmd_send);
 1831              		.loc 1 863 5 view .LVU589
 1832 009e 2549     		ldr	r1, .L153+52
 1833 00a0 254B     		ldr	r3, .L153+56
 1834 00a2 1868     		ldr	r0, [r3]
 1835 00a4 FFF7FEFF 		bl	PubPushMessage
 1836              	.LVL35:
 864:application/cmd/robot_cmd.c ****     PubPushMessage(gimbal_cmd_pub, (void *)&gimbal_cmd_send);
 1837              		.loc 1 864 5 view .LVU590
 1838 00a8 2449     		ldr	r1, .L153+60
 1839 00aa 254B     		ldr	r3, .L153+64
 1840 00ac 1868     		ldr	r0, [r3]
ARM GAS  C:\Users\Administrator\AppData\Local\Temp\ccHxBunt.s 			page 54


 1841 00ae FFF7FEFF 		bl	PubPushMessage
 1842              	.LVL36:
 865:application/cmd/robot_cmd.c **** }
 1843              		.loc 1 865 1 is_stmt 0 view .LVU591
 1844 00b2 08BD     		pop	{r3, pc}
 1845              	.L145:
 832:application/cmd/robot_cmd.c ****         rc_data[TEMP].key_count[KEY_PRESS][Key_G] = 0;  // ÕłØÕ¦ŗÕī¢ķö«ńøśµÄ¦ÕłČ
 1846              		.loc 1 832 9 is_stmt 1 view .LVU592
 1847 00b4 FFF7FEFF 		bl	RemoteControlSet
 1848              	.LVL37:
 833:application/cmd/robot_cmd.c ****         rc_data[TEMP].key_count[KEY_PRESS][Key_F] = 0;
 1849              		.loc 1 833 9 view .LVU593
 833:application/cmd/robot_cmd.c ****         rc_data[TEMP].key_count[KEY_PRESS][Key_F] = 0;
 1850              		.loc 1 833 16 is_stmt 0 view .LVU594
 1851 00b8 184B     		ldr	r3, .L153+28
 1852 00ba 1B68     		ldr	r3, [r3]
 833:application/cmd/robot_cmd.c ****         rc_data[TEMP].key_count[KEY_PRESS][Key_F] = 0;
 1853              		.loc 1 833 51 view .LVU595
 1854 00bc 0022     		movs	r2, #0
 1855 00be 83F82220 		strb	r2, [r3, #34]
 834:application/cmd/robot_cmd.c ****         ui_data.Referee_Interactive_Flag.refresh_flag = 0;
 1856              		.loc 1 834 9 is_stmt 1 view .LVU596
 834:application/cmd/robot_cmd.c ****         ui_data.Referee_Interactive_Flag.refresh_flag = 0;
 1857              		.loc 1 834 51 is_stmt 0 view .LVU597
 1858 00c2 83F82120 		strb	r2, [r3, #33]
 835:application/cmd/robot_cmd.c ****         break;
 1859              		.loc 1 835 9 is_stmt 1 view .LVU598
 835:application/cmd/robot_cmd.c ****         break;
 1860              		.loc 1 835 55 is_stmt 0 view .LVU599
 1861 00c6 1F4A     		ldr	r2, .L153+68
 1862 00c8 1378     		ldrb	r3, [r2]	@ zero_extendqisi2
 1863 00ca 23F0C003 		bic	r3, r3, #192
 1864 00ce 1370     		strb	r3, [r2]
 836:application/cmd/robot_cmd.c ****     case 1:
 1865              		.loc 1 836 9 is_stmt 1 view .LVU600
 1866 00d0 DEE7     		b	.L144
 1867              	.L146:
 838:application/cmd/robot_cmd.c ****         if (!ui_data.Referee_Interactive_Flag.refresh_flag)
 1868              		.loc 1 838 9 view .LVU601
 1869 00d2 FFF7FEFF 		bl	MouseKeySet
 1870              	.LVL38:
 839:application/cmd/robot_cmd.c ****             ui_data.Referee_Interactive_Flag.refresh_flag = 1; // UIńĢīķØóÕłĘµ¢░
 1871              		.loc 1 839 9 view .LVU602
 839:application/cmd/robot_cmd.c ****             ui_data.Referee_Interactive_Flag.refresh_flag = 1; // UIńĢīķØóÕłĘµ¢░
 1872              		.loc 1 839 13 is_stmt 0 view .LVU603
 1873 00d6 1B4B     		ldr	r3, .L153+68
 1874 00d8 1B78     		ldrb	r3, [r3]	@ zero_extendqisi2
 839:application/cmd/robot_cmd.c ****             ui_data.Referee_Interactive_Flag.refresh_flag = 1; // UIńĢīķØóÕłĘµ¢░
 1875              		.loc 1 839 12 view .LVU604
 1876 00da 3F2B     		cmp	r3, #63
 1877 00dc 05D8     		bhi	.L148
 840:application/cmd/robot_cmd.c **** 
 1878              		.loc 1 840 13 is_stmt 1 view .LVU605
 840:application/cmd/robot_cmd.c **** 
 1879              		.loc 1 840 59 is_stmt 0 view .LVU606
 1880 00de 194B     		ldr	r3, .L153+68
 1881 00e0 1A78     		ldrb	r2, [r3]	@ zero_extendqisi2
ARM GAS  C:\Users\Administrator\AppData\Local\Temp\ccHxBunt.s 			page 55


 1882 00e2 0121     		movs	r1, #1
 1883 00e4 61F38712 		bfi	r2, r1, #6, #2
 1884 00e8 1A70     		strb	r2, [r3]
 1885              	.L148:
 842:application/cmd/robot_cmd.c ****             rc_data[TEMP].key_count[KEY_PRESS][Key_B] = 0;     // õĖŖµŗ©ÕłćµŹóÕø×ķüźµÄ¦ÕÖ©µÄ¦ÕłČ
 1886              		.loc 1 842 9 is_stmt 1 view .LVU607
 842:application/cmd/robot_cmd.c ****             rc_data[TEMP].key_count[KEY_PRESS][Key_B] = 0;     // õĖŖµŗ©ÕłćµŹóÕø×ķüźµÄ¦ÕÖ©µÄ¦ÕłČ
 1887              		.loc 1 842 20 is_stmt 0 view .LVU608
 1888 00ea 0C4B     		ldr	r3, .L153+28
 1889 00ec 1B68     		ldr	r3, [r3]
 842:application/cmd/robot_cmd.c ****             rc_data[TEMP].key_count[KEY_PRESS][Key_B] = 0;     // õĖŖµŗ©ÕłćµŹóÕø×ķüźµÄ¦ÕÖ©µÄ¦ÕłČ
 1890              		.loc 1 842 29 view .LVU609
 1891 00ee B3F90820 		ldrsh	r2, [r3, #8]
 842:application/cmd/robot_cmd.c ****             rc_data[TEMP].key_count[KEY_PRESS][Key_B] = 0;     // õĖŖµŗ©ÕłćµŹóÕø×ķüźµÄ¦ÕÖ©µÄ¦ÕłČ
 1892              		.loc 1 842 12 view .LVU610
 1893 00f2 12F5C87F 		cmn	r2, #400
 1894 00f6 CBDA     		bge	.L144
 843:application/cmd/robot_cmd.c ****         break;
 1895              		.loc 1 843 13 is_stmt 1 view .LVU611
 843:application/cmd/robot_cmd.c ****         break;
 1896              		.loc 1 843 55 is_stmt 0 view .LVU612
 1897 00f8 0022     		movs	r2, #0
 1898 00fa 83F82720 		strb	r2, [r3, #39]
 1899 00fe C7E7     		b	.L144
 1900              	.L154:
 1901              		.align	2
 1902              	.L153:
 1903 0100 00000000 		.word	chassis_fetch_data
 1904 0104 00000000 		.word	chassis_feed_sub
 1905 0108 00000000 		.word	shoot_fetch_data
 1906 010c 00000000 		.word	shoot_feed_sub
 1907 0110 00000000 		.word	gimbal_fetch_data
 1908 0114 00000000 		.word	gimbal_feed_sub
 1909 0118 00000000 		.word	open_loop_active.6
 1910 011c 00000000 		.word	rc_data
 1911 0120 00000000 		.word	open_loop_phase
 1912 0124 00000000 		.word	open_loop_dist_accum
 1913 0128 00000000 		.word	open_loop_yaw_accum
 1914 012c 00000000 		.word	chassis_cmd_send
 1915 0130 00000000 		.word	chassis_cmd_pub
 1916 0134 00000000 		.word	shoot_cmd_send
 1917 0138 00000000 		.word	shoot_cmd_pub
 1918 013c 00000000 		.word	gimbal_cmd_send
 1919 0140 00000000 		.word	gimbal_cmd_pub
 1920 0144 00000000 		.word	ui_data
 1921              		.cfi_endproc
 1922              	.LFE285:
 1924              		.section	.bss.last_shoot_mode.0,"aw",%nobits
 1927              	last_shoot_mode.0:
 1928 0000 00       		.space	1
 1929              		.section	.bss.add_pitch.1,"aw",%nobits
 1930              		.align	2
 1933              	add_pitch.1:
 1934 0000 00000000 		.space	4
 1935              		.section	.bss.add_yaw.2,"aw",%nobits
 1936              		.align	2
 1939              	add_yaw.2:
ARM GAS  C:\Users\Administrator\AppData\Local\Temp\ccHxBunt.s 			page 56


 1940 0000 00000000 		.space	4
 1941              		.section	.bss.add_pitch.3,"aw",%nobits
 1942              		.align	2
 1945              	add_pitch.3:
 1946 0000 00000000 		.space	4
 1947              		.section	.bss.add_yaw.4,"aw",%nobits
 1948              		.align	2
 1951              	add_yaw.4:
 1952 0000 00000000 		.space	4
 1953              		.section	.bss.angle.5,"aw",%nobits
 1954              		.align	2
 1957              	angle.5:
 1958 0000 00000000 		.space	4
 1959              		.section	.bss.open_loop_active.6,"aw",%nobits
 1962              	open_loop_active.6:
 1963 0000 00       		.space	1
 1964              		.section	.bss.open_loop_yaw_accum,"aw",%nobits
 1965              		.align	2
 1968              	open_loop_yaw_accum:
 1969 0000 00000000 		.space	4
 1970              		.section	.bss.open_loop_dist_accum,"aw",%nobits
 1971              		.align	2
 1974              	open_loop_dist_accum:
 1975 0000 00000000 		.space	4
 1976              		.section	.bss.open_loop_phase,"aw",%nobits
 1979              	open_loop_phase:
 1980 0000 00       		.space	1
 1981              		.global	led_alarm
 1982              		.section	.bss.led_alarm,"aw",%nobits
 1983              		.align	2
 1986              	led_alarm:
 1987 0000 00000000 		.space	4
 1988              		.global	buzzer_alarm
 1989              		.section	.bss.buzzer_alarm,"aw",%nobits
 1990              		.align	2
 1993              	buzzer_alarm:
 1994 0000 00000000 		.space	4
 1995              		.section	.bss.robot_state,"aw",%nobits
 1998              	robot_state:
 1999 0000 00       		.space	1
 2000              		.section	.bss.ui_data,"aw",%nobits
 2001              		.align	2
 2004              	ui_data:
 2005 0000 00000000 		.space	28
 2005      00000000 
 2005      00000000 
 2005      00000000 
 2005      00000000 
 2006              		.section	.bss.referee_data,"aw",%nobits
 2007              		.align	2
 2010              	referee_data:
 2011 0000 00000000 		.space	4
 2012              		.section	.bss.shoot_fetch_data,"aw",%nobits
 2013              		.align	2
 2016              	shoot_fetch_data:
 2017              		.section	.bss.shoot_cmd_send,"aw",%nobits
 2018              		.align	2
ARM GAS  C:\Users\Administrator\AppData\Local\Temp\ccHxBunt.s 			page 57


 2021              	shoot_cmd_send:
 2022 0000 00000000 		.space	10
 2022      00000000 
 2022      0000
 2023              		.section	.bss.shoot_feed_sub,"aw",%nobits
 2024              		.align	2
 2027              	shoot_feed_sub:
 2028 0000 00000000 		.space	4
 2029              		.section	.bss.shoot_cmd_pub,"aw",%nobits
 2030              		.align	2
 2033              	shoot_cmd_pub:
 2034 0000 00000000 		.space	4
 2035              		.section	.bss.gimbal_fetch_data,"aw",%nobits
 2036              		.align	2
 2039              	gimbal_fetch_data:
 2040 0000 00000000 		.space	44
 2040      00000000 
 2040      00000000 
 2040      00000000 
 2040      00000000 
 2041              		.section	.bss.gimbal_cmd_send,"aw",%nobits
 2042              		.align	2
 2045              	gimbal_cmd_send:
 2046 0000 00000000 		.space	18
 2046      00000000 
 2046      00000000 
 2046      00000000 
 2046      0000
 2047              		.section	.bss.gimbal_feed_sub,"aw",%nobits
 2048              		.align	2
 2051              	gimbal_feed_sub:
 2052 0000 00000000 		.space	4
 2053              		.section	.bss.gimbal_cmd_pub,"aw",%nobits
 2054              		.align	2
 2057              	gimbal_cmd_pub:
 2058 0000 00000000 		.space	4
 2059              		.section	.bss.vision_recv_data,"aw",%nobits
 2060              		.align	2
 2063              	vision_recv_data:
 2064 0000 00000000 		.space	4
 2065              		.section	.bss.rc_data,"aw",%nobits
 2066              		.align	2
 2069              	rc_data:
 2070 0000 00000000 		.space	4
 2071              		.section	.bss.chassis_fetch_data,"aw",%nobits
 2072              		.align	2
 2075              	chassis_fetch_data:
 2076 0000 00000000 		.space	14
 2076      00000000 
 2076      00000000 
 2076      0000
 2077              		.section	.bss.chassis_cmd_send,"aw",%nobits
 2078              		.align	2
 2081              	chassis_cmd_send:
 2082 0000 00000000 		.space	25
 2082      00000000 
 2082      00000000 
ARM GAS  C:\Users\Administrator\AppData\Local\Temp\ccHxBunt.s 			page 58


 2082      00000000 
 2082      00000000 
 2083              		.section	.bss.chassis_feed_sub,"aw",%nobits
 2084              		.align	2
 2087              	chassis_feed_sub:
 2088 0000 00000000 		.space	4
 2089              		.section	.bss.chassis_cmd_pub,"aw",%nobits
 2090              		.align	2
 2093              	chassis_cmd_pub:
 2094 0000 00000000 		.space	4
 2095              		.section	.bss.robot_config,"aw",%nobits
 2096              		.align	2
 2099              	robot_config:
 2100 0000 00000000 		.space	4
 2101              		.section	.rodata
 2102              		.align	2
 2103              		.set	.LANCHOR0,. + 0
 2104              	.LC0:
 2105 0000 02       		.byte	2
 2106 0001 04       		.byte	4
 2107 0002 00       		.byte	0
 2108              		.text
 2109              	.Letext0:
 2110              		.file 2 "C:/Users/Administrator/AppData/Roaming/Code/User/globalStorage/bmd.stm32-for-vscode/@xpac
 2111              		.file 3 "C:/Users/Administrator/AppData/Roaming/Code/User/globalStorage/bmd.stm32-for-vscode/@xpac
 2112              		.file 4 "Drivers/CMSIS/Device/ST/STM32F4xx/Include/stm32f407xx.h"
 2113              		.file 5 "Drivers/CMSIS/Device/ST/STM32F4xx/Include/stm32f4xx.h"
 2114              		.file 6 "Drivers/STM32F4xx_HAL_Driver/Inc/stm32f4xx_hal_def.h"
 2115              		.file 7 "Drivers/STM32F4xx_HAL_Driver/Inc/stm32f4xx_hal_dma.h"
 2116              		.file 8 "Drivers/STM32F4xx_HAL_Driver/Inc/stm32f4xx_hal_can.h"
 2117              		.file 9 "Drivers/STM32F4xx_HAL_Driver/Inc/stm32f4xx_hal_uart.h"
 2118              		.file 10 "modules/imu/ins_task.h"
 2119              		.file 11 "modules/master_machine/master_process.h"
 2120              		.file 12 "bsp/can/bsp_can.h"
 2121              		.file 13 "modules/algorithm/controller.h"
 2122              		.file 14 "modules/motor/motor_def.h"
 2123              		.file 15 "application/config/config.h"
 2124              		.file 16 "application/robot_def.h"
 2125              		.file 17 "Inc/usart.h"
 2126              		.file 18 "modules/remote/remote_control.h"
 2127              		.file 19 "modules/referee/referee_protocol.h"
 2128              		.file 20 "modules/referee/rm_referee.h"
 2129              		.file 21 "modules/message_center/message_center.h"
 2130              		.file 22 "modules/alarm/alarm_def.h"
 2131              		.file 23 "modules/alarm/buzzer/buzzer.h"
 2132              		.file 24 "modules/alarm/led/led.h"
 2133              		.file 25 "modules/referee/referee_task.h"
ARM GAS  C:\Users\Administrator\AppData\Local\Temp\ccHxBunt.s 			page 59


DEFINED SYMBOLS
                            *ABS*:00000000 robot_cmd.c
C:\Users\Administrator\AppData\Local\Temp\ccHxBunt.s:21     .text.CalcOffsetAngle:00000000 $t
C:\Users\Administrator\AppData\Local\Temp\ccHxBunt.s:26     .text.CalcOffsetAngle:00000000 CalcOffsetAngle
C:\Users\Administrator\AppData\Local\Temp\ccHxBunt.s:162    .text.CalcOffsetAngle:000000e8 $d
C:\Users\Administrator\AppData\Local\Temp\ccHxBunt.s:2039   .bss.gimbal_fetch_data:00000000 gimbal_fetch_data
C:\Users\Administrator\AppData\Local\Temp\ccHxBunt.s:1957   .bss.angle.5:00000000 angle.5
C:\Users\Administrator\AppData\Local\Temp\ccHxBunt.s:2099   .bss.robot_config:00000000 robot_config
C:\Users\Administrator\AppData\Local\Temp\ccHxBunt.s:2081   .bss.chassis_cmd_send:00000000 chassis_cmd_send
C:\Users\Administrator\AppData\Local\Temp\ccHxBunt.s:174    .text.RemoteControlSet:00000000 $t
C:\Users\Administrator\AppData\Local\Temp\ccHxBunt.s:179    .text.RemoteControlSet:00000000 RemoteControlSet
C:\Users\Administrator\AppData\Local\Temp\ccHxBunt.s:641    .text.RemoteControlSet:0000026c $d
C:\Users\Administrator\AppData\Local\Temp\ccHxBunt.s:2045   .bss.gimbal_cmd_send:00000000 gimbal_cmd_send
C:\Users\Administrator\AppData\Local\Temp\ccHxBunt.s:2069   .bss.rc_data:00000000 rc_data
C:\Users\Administrator\AppData\Local\Temp\ccHxBunt.s:1939   .bss.add_yaw.2:00000000 add_yaw.2
C:\Users\Administrator\AppData\Local\Temp\ccHxBunt.s:1933   .bss.add_pitch.1:00000000 add_pitch.1
C:\Users\Administrator\AppData\Local\Temp\ccHxBunt.s:1998   .bss.robot_state:00000000 robot_state
C:\Users\Administrator\AppData\Local\Temp\ccHxBunt.s:2021   .bss.shoot_cmd_send:00000000 shoot_cmd_send
C:\Users\Administrator\AppData\Local\Temp\ccHxBunt.s:1927   .bss.last_shoot_mode.0:00000000 last_shoot_mode.0
C:\Users\Administrator\AppData\Local\Temp\ccHxBunt.s:2063   .bss.vision_recv_data:00000000 vision_recv_data
C:\Users\Administrator\AppData\Local\Temp\ccHxBunt.s:664    .text.MouseKeySet:00000000 $t
C:\Users\Administrator\AppData\Local\Temp\ccHxBunt.s:669    .text.MouseKeySet:00000000 MouseKeySet
C:\Users\Administrator\AppData\Local\Temp\ccHxBunt.s:961    .text.MouseKeySet:00000190 $d
C:\Users\Administrator\AppData\Local\Temp\ccHxBunt.s:1951   .bss.add_yaw.4:00000000 add_yaw.4
C:\Users\Administrator\AppData\Local\Temp\ccHxBunt.s:1945   .bss.add_pitch.3:00000000 add_pitch.3
C:\Users\Administrator\AppData\Local\Temp\ccHxBunt.s:975    .text.OpenLoopMotionTask:00000000 $t
C:\Users\Administrator\AppData\Local\Temp\ccHxBunt.s:980    .text.OpenLoopMotionTask:00000000 OpenLoopMotionTask
C:\Users\Administrator\AppData\Local\Temp\ccHxBunt.s:1354   .text.OpenLoopMotionTask:00000210 $d
C:\Users\Administrator\AppData\Local\Temp\ccHxBunt.s:1979   .bss.open_loop_phase:00000000 open_loop_phase
C:\Users\Administrator\AppData\Local\Temp\ccHxBunt.s:1968   .bss.open_loop_yaw_accum:00000000 open_loop_yaw_accum
C:\Users\Administrator\AppData\Local\Temp\ccHxBunt.s:1974   .bss.open_loop_dist_accum:00000000 open_loop_dist_accum
C:\Users\Administrator\AppData\Local\Temp\ccHxBunt.s:1373   .text.RefereeHandler:00000000 $t
C:\Users\Administrator\AppData\Local\Temp\ccHxBunt.s:1378   .text.RefereeHandler:00000000 RefereeHandler
C:\Users\Administrator\AppData\Local\Temp\ccHxBunt.s:1479   .text.RefereeHandler:0000009c $d
C:\Users\Administrator\AppData\Local\Temp\ccHxBunt.s:2010   .bss.referee_data:00000000 referee_data
C:\Users\Administrator\AppData\Local\Temp\ccHxBunt.s:1489   .rodata.RobotCMDInit.str1.4:00000000 $d
C:\Users\Administrator\AppData\Local\Temp\ccHxBunt.s:1508   .text.RobotCMDInit:00000000 $t
C:\Users\Administrator\AppData\Local\Temp\ccHxBunt.s:1514   .text.RobotCMDInit:00000000 RobotCMDInit
C:\Users\Administrator\AppData\Local\Temp\ccHxBunt.s:1664   .text.RobotCMDInit:000000b4 $d
C:\Users\Administrator\AppData\Local\Temp\ccHxBunt.s:1993   .bss.buzzer_alarm:00000000 buzzer_alarm
C:\Users\Administrator\AppData\Local\Temp\ccHxBunt.s:1986   .bss.led_alarm:00000000 led_alarm
C:\Users\Administrator\AppData\Local\Temp\ccHxBunt.s:2004   .bss.ui_data:00000000 ui_data
C:\Users\Administrator\AppData\Local\Temp\ccHxBunt.s:2057   .bss.gimbal_cmd_pub:00000000 gimbal_cmd_pub
C:\Users\Administrator\AppData\Local\Temp\ccHxBunt.s:2051   .bss.gimbal_feed_sub:00000000 gimbal_feed_sub
C:\Users\Administrator\AppData\Local\Temp\ccHxBunt.s:2033   .bss.shoot_cmd_pub:00000000 shoot_cmd_pub
C:\Users\Administrator\AppData\Local\Temp\ccHxBunt.s:2027   .bss.shoot_feed_sub:00000000 shoot_feed_sub
C:\Users\Administrator\AppData\Local\Temp\ccHxBunt.s:2093   .bss.chassis_cmd_pub:00000000 chassis_cmd_pub
C:\Users\Administrator\AppData\Local\Temp\ccHxBunt.s:2087   .bss.chassis_feed_sub:00000000 chassis_feed_sub
C:\Users\Administrator\AppData\Local\Temp\ccHxBunt.s:1694   .text.RobotCMDTask:00000000 $t
C:\Users\Administrator\AppData\Local\Temp\ccHxBunt.s:1700   .text.RobotCMDTask:00000000 RobotCMDTask
C:\Users\Administrator\AppData\Local\Temp\ccHxBunt.s:1903   .text.RobotCMDTask:00000100 $d
C:\Users\Administrator\AppData\Local\Temp\ccHxBunt.s:2075   .bss.chassis_fetch_data:00000000 chassis_fetch_data
C:\Users\Administrator\AppData\Local\Temp\ccHxBunt.s:2016   .bss.shoot_fetch_data:00000000 shoot_fetch_data
C:\Users\Administrator\AppData\Local\Temp\ccHxBunt.s:1962   .bss.open_loop_active.6:00000000 open_loop_active.6
C:\Users\Administrator\AppData\Local\Temp\ccHxBunt.s:1928   .bss.last_shoot_mode.0:00000000 $d
C:\Users\Administrator\AppData\Local\Temp\ccHxBunt.s:1930   .bss.add_pitch.1:00000000 $d
C:\Users\Administrator\AppData\Local\Temp\ccHxBunt.s:1936   .bss.add_yaw.2:00000000 $d
ARM GAS  C:\Users\Administrator\AppData\Local\Temp\ccHxBunt.s 			page 60


C:\Users\Administrator\AppData\Local\Temp\ccHxBunt.s:1942   .bss.add_pitch.3:00000000 $d
C:\Users\Administrator\AppData\Local\Temp\ccHxBunt.s:1948   .bss.add_yaw.4:00000000 $d
C:\Users\Administrator\AppData\Local\Temp\ccHxBunt.s:1954   .bss.angle.5:00000000 $d
C:\Users\Administrator\AppData\Local\Temp\ccHxBunt.s:1963   .bss.open_loop_active.6:00000000 $d
C:\Users\Administrator\AppData\Local\Temp\ccHxBunt.s:1965   .bss.open_loop_yaw_accum:00000000 $d
C:\Users\Administrator\AppData\Local\Temp\ccHxBunt.s:1971   .bss.open_loop_dist_accum:00000000 $d
C:\Users\Administrator\AppData\Local\Temp\ccHxBunt.s:1980   .bss.open_loop_phase:00000000 $d
C:\Users\Administrator\AppData\Local\Temp\ccHxBunt.s:1983   .bss.led_alarm:00000000 $d
C:\Users\Administrator\AppData\Local\Temp\ccHxBunt.s:1990   .bss.buzzer_alarm:00000000 $d
C:\Users\Administrator\AppData\Local\Temp\ccHxBunt.s:1999   .bss.robot_state:00000000 $d
C:\Users\Administrator\AppData\Local\Temp\ccHxBunt.s:2001   .bss.ui_data:00000000 $d
C:\Users\Administrator\AppData\Local\Temp\ccHxBunt.s:2007   .bss.referee_data:00000000 $d
C:\Users\Administrator\AppData\Local\Temp\ccHxBunt.s:2018   .bss.shoot_cmd_send:00000000 $d
C:\Users\Administrator\AppData\Local\Temp\ccHxBunt.s:2024   .bss.shoot_feed_sub:00000000 $d
C:\Users\Administrator\AppData\Local\Temp\ccHxBunt.s:2030   .bss.shoot_cmd_pub:00000000 $d
C:\Users\Administrator\AppData\Local\Temp\ccHxBunt.s:2036   .bss.gimbal_fetch_data:00000000 $d
C:\Users\Administrator\AppData\Local\Temp\ccHxBunt.s:2042   .bss.gimbal_cmd_send:00000000 $d
C:\Users\Administrator\AppData\Local\Temp\ccHxBunt.s:2048   .bss.gimbal_feed_sub:00000000 $d
C:\Users\Administrator\AppData\Local\Temp\ccHxBunt.s:2054   .bss.gimbal_cmd_pub:00000000 $d
C:\Users\Administrator\AppData\Local\Temp\ccHxBunt.s:2060   .bss.vision_recv_data:00000000 $d
C:\Users\Administrator\AppData\Local\Temp\ccHxBunt.s:2066   .bss.rc_data:00000000 $d
C:\Users\Administrator\AppData\Local\Temp\ccHxBunt.s:2072   .bss.chassis_fetch_data:00000000 $d
C:\Users\Administrator\AppData\Local\Temp\ccHxBunt.s:2078   .bss.chassis_cmd_send:00000000 $d
C:\Users\Administrator\AppData\Local\Temp\ccHxBunt.s:2084   .bss.chassis_feed_sub:00000000 $d
C:\Users\Administrator\AppData\Local\Temp\ccHxBunt.s:2090   .bss.chassis_cmd_pub:00000000 $d
C:\Users\Administrator\AppData\Local\Temp\ccHxBunt.s:2096   .bss.robot_config:00000000 $d
C:\Users\Administrator\AppData\Local\Temp\ccHxBunt.s:2102   .rodata:00000000 $d

UNDEFINED SYMBOLS
EularAngleToQuaternion
VisionUpdateTx
VisionSend
RobotConfigInit
BuzzerRegister
LEDRegister
RemoteControlInit
VisionInit
UITaskInit
PubRegister
SubRegister
huart3
huart1
huart6
SubGetMessage
PubPushMessage
